

HI-TECH Software PIC LITE Macro Assembler V9.82 build 9453 
                                                                                               Sun Sep 13 15:12:15 2015

HI-TECH Software Omniscient Code Generator (Lite mode) build 9453
     1  0000                     opt subtitle "HI-TECH Software Omniscient Code Generator (Lite mode) build 9453"
     2                           
     3                           opt pagewidth 120
     4                           
     5                           	opt lm
     6                           
     7                           	processor	16F877A
     8                           clrc	macro
     9                           	bcf	3,0
    10  0000                     	endm
    11                           clrz	macro
    12                           	bcf	3,2
    13  0000                     	endm
    14                           setc	macro
    15                           	bsf	3,0
    16  0000                     	endm
    17                           setz	macro
    18                           	bsf	3,2
    19  0000                     	endm
    20                           skipc	macro
    21                           	btfss	3,0
    22  0000                     	endm
    23                           skipz	macro
    24                           	btfss	3,2
    25  0000                     	endm
    26                           skipnc	macro
    27                           	btfsc	3,0
    28  0000                     	endm
    29                           skipnz	macro
    30                           	btfsc	3,2
    31  0000                     	endm
    32  0000                     indf	equ	0
    33  0000                     indf0	equ	0
    34  0002                     pc	equ	2
    35  0002                     pcl	equ	2
    36  0003                     status	equ	3
    37  0004                     fsr	equ	4
    38  0004                     fsr0	equ	4
    39  0001                     c	equ	1
    40  0000                     z	equ	0
    41  000A                     pclath	equ	10
    42                           # 10 "F:\BEVERAGES_ENHANCEMENT\SOFTWARE_DESIGN\MASTER_PIC_16F877A\2015_09_13\Beverage.c"
    43                           	psect config,class=CONFIG,delta=2 ;#
    44                           # 10 "F:\BEVERAGES_ENHANCEMENT\SOFTWARE_DESIGN\MASTER_PIC_16F877A\2015_09_13\Beverage.c"
    45  2007  FF32               	dw 0xFFFF & 0xFF7F & 0xFFBF & 0xFFFF & 0xFFFF & 0xFFF7 & 0xFFFB & 0xFFFE & 0xFFFF ;#
    46                           	FNCALL	_main,_Port_Init
    47                           	FNCALL	_main,_Lcd_Init
    48                           	FNCALL	_main,_Uart_Init
    49                           	FNCALL	_main,_Inidcate_Buzzer
    50                           	FNCALL	_main,_Print_Name
    51                           	FNCALL	_main,_InitADC
    52                           	FNCALL	_main,_Mode_Init
    53                           	FNCALL	_main,_GetADCValue
    54                           	FNCALL	_main,___wmul
    55                           	FNCALL	_main,___lwdiv
    56                           	FNCALL	_main,_DelayMs
    57                           	FNCALL	_main,_eeprom_read
    58                           	FNCALL	_main,_myitoa
    59                           	FNCALL	_main,_Lcd_String
    60                           	FNCALL	_main,_Lcd_Cmd
    61                           	FNCALL	_main,_key_press
    62                           	FNCALL	_main,_enable_valves
    63                           	FNCALL	_main,_change_modes
    64                           	FNCALL	_enable_valves,_Print_Menu
    65                           	FNCALL	_enable_valves,_Inidcate_Buzzer
    66                           	FNCALL	_enable_valves,_eeprom_read
    67                           	FNCALL	_enable_valves,_count_write
    68                           	FNCALL	_enable_valves,_call_control_valve
    69                           	FNCALL	_enable_valves,_Print_Name
    70                           	FNCALL	_enable_valves,_key_press
    71                           	FNCALL	_enable_valves,_offthevalve
    72                           	FNCALL	_enable_valves,_eeprom_write
    73                           	FNCALL	_enable_valves,_Lcd_Cmd
    74                           	FNCALL	_enable_valves,_Num_Disp
    75                           	FNCALL	_enable_valves,_DelayMs
    76                           	FNCALL	_enable_valves,_myitoa
    77                           	FNCALL	_enable_valves,_Lcd_String
    78                           	FNCALL	_enable_valves,_Write_ValveIn_Memory
    79                           	FNCALL	_enable_valves,_print_yes_no
    80                           	FNCALL	_enable_valves,___bmul
    81                           	FNCALL	_enable_valves,_SendByteSerially
    82                           	FNCALL	_enable_valves,___awdiv
    83                           	FNCALL	_enable_valves,_Lcd_Data
    84                           	FNCALL	_enable_valves,_onthevalve
    85                           	FNCALL	_enable_valves,___wmul
    86                           	FNCALL	_enable_valves,_count_read
    87                           	FNCALL	_Mode_Init,_Read_ValveFrom_Memory
    88                           	FNCALL	_Mode_Init,_eeprom_read
    89                           	FNCALL	_Mode_Init,_SendByteSerially
    90                           	FNCALL	_Mode_Init,_eeprom_write
    91                           	FNCALL	_Mode_Init,_call_control_valve
    92                           	FNCALL	_call_control_valve,___bmul
    93                           	FNCALL	_call_control_valve,_eeprom_read
    94                           	FNCALL	_call_control_valve,_control_valve
    95                           	FNCALL	_call_control_valve,_Lcd_Cmd
    96                           	FNCALL	_call_control_valve,_myitoa
    97                           	FNCALL	_call_control_valve,_Lcd_String
    98                           	FNCALL	_call_control_valve,_eeprom_write
    99                           	FNCALL	_call_control_valve,___wmul
   100                           	FNCALL	_change_modes,_Print_Name
   101                           	FNCALL	_change_modes,_Lcd_String
   102                           	FNCALL	_change_modes,_DelayMs
   103                           	FNCALL	_change_modes,_Lcd_Cmd
   104                           	FNCALL	_change_modes,_Lcd_Data
   105                           	FNCALL	_change_modes,_print_yes_no
   106                           	FNCALL	_change_modes,_eeprom_read
   107                           	FNCALL	_change_modes,_count_read
   108                           	FNCALL	_change_modes,_Num_Disp
   109                           	FNCALL	_print_yes_no,_Read_ValveFrom_Memory
   110                           	FNCALL	_print_yes_no,_Lcd_Cmd
   111                           	FNCALL	_print_yes_no,_Lcd_Data
   112                           	FNCALL	_myitoa,___awmod
   113                           	FNCALL	_myitoa,___awdiv
   114                           	FNCALL	_myitoa,_rev
   115                           	FNCALL	_Num_Disp,___wmul
   116                           	FNCALL	_Num_Disp,___lwdiv
   117                           	FNCALL	_Num_Disp,_Lcd_Data
   118                           	FNCALL	_Num_Disp,___lwmod
   119                           	FNCALL	_Lcd_String,_Lcd_Cmd
   120                           	FNCALL	_Lcd_String,_Lcd_Data
   121                           	FNCALL	_Lcd_Init,_Lcd_Cmd
   122                           	FNCALL	_Lcd_Init,_DelayMs
   123                           	FNCALL	_control_valve,_onthevalve
   124                           	FNCALL	_control_valve,___wmul
   125                           	FNCALL	_control_valve,_DelayMs
   126                           	FNCALL	_control_valve,_offthevalve
   127                           	FNCALL	_count_read,_eeprom_read
   128                           	FNCALL	_count_read,___wmul
   129                           	FNCALL	_Write_ValveIn_Memory,_eeprom_write
   130                           	FNCALL	_count_write,_eeprom_write
   131                           	FNCALL	_count_write,_eeprom_read
   132                           	FNCALL	_Read_ValveFrom_Memory,_eeprom_read
   133                           	FNCALL	_Print_Menu,_SendByteSerially
   134                           	FNCALL	_Print_Name,_SendByteSerially
   135                           	FNCALL	_Inidcate_Buzzer,_DelayMs
   136                           	FNCALL	_Uart_Init,___aldiv
   137                           	FNCALL	_rev,_strlen
   138                           	FNCALL	_Lcd_Data,_DelayMs
   139                           	FNCALL	_Lcd_Cmd,_DelayMs
   140                           	FNROOT	_main
   141                           	global	_asciitable
   142                           psect	idataBANK1,class=CODE,space=0,delta=2
   143                           global __pidataBANK1
   144  1960                     __pidataBANK1:
   145                           	file	"F:\BEVERAGES_ENHANCEMENT\SOFTWARE_DESIGN\MASTER_PIC_16F877A\2015_09_13\lcd.h"
   146                           	line	8
   147                           
   148                           ;initializer for _asciitable
   149  1960  3430               	retlw	030h
   150  1961  3431               	retlw	031h
   151  1962  3432               	retlw	032h
   152  1963  3433               	retlw	033h
   153  1964  3434               	retlw	034h
   154  1965  3435               	retlw	035h
   155  1966  3436               	retlw	036h
   156  1967  3437               	retlw	037h
   157  1968  3438               	retlw	038h
   158  1969  3439               	retlw	039h
   159                           	global	_MENU
   160                           	global	_ADC_value
   161                           	global	_i
   162                           	global	_j
   163                           	global	_password
   164                           	global	_temperature
   165                           	global	_time
   166                           	global	_Next
   167                           	global	_VALVE
   168                           	global	__DISABLE_MODE
   169                           	global	__ENABLE_MODE
   170                           	global	__OFF
   171                           	global	__ON
   172                           	global	__PRESSED
   173                           	global	__PREVIOUS_MODE
   174                           	global	__PREVIOUS_PROCESS
   175                           	global	__PROCESS
   176                           	global	__SHORTCUT_PRESSED
   177                           	global	_itoai
   178                           	global	_mem_index1
   179                           	global	_mem_index2
   180                           	global	_Enable_Coffee_Dication_Time
   181                           	global	_Enable_Coffee_Hot_Water_Valve
   182                           	global	_Enable_Coffee_Valve
   183                           	global	_Enable_Config_Mode
   184                           	global	_Enable_Count_Reset
   185                           	global	_Enable_Cup_Count
   186                           	global	_Enable_Dication_Delay
   187                           	global	_Enable_Heater1
   188                           	global	_Enable_Heater2
   189                           	global	_Enable_Hot_Water_Time
   190                           	global	_Enable_Hot_Water_Valve
   191                           	global	_Enable_Milk_Forward
   192                           	global	_Enable_Milk_Reverse
   193                           	global	_Enable_Milk_Reverse_Time
   194                           	global	_Enable_Mixing_Hot_Water_Valve
   195                           	global	_Enable_Normal_Mode
   196                           	global	_Enable_Password
   197                           	global	_Enable_Selection
   198                           	global	_Enable_Shortcut_Mode
   199                           	global	_Enable_Tea_Dication_Time
   200                           	global	_Enable_Tea_Hot_Water_Valve
   201                           	global	_Enable_Tea_Valve
   202                           	global	_Enable_Temperature
   203                           	global	_Enable_Valves
   204                           	global	_Enable_Viber_Motor
   205                           	global	__Demo
   206                           	global	__SHORTCUT
   207                           	global	__clear
   208                           	global	__temp_flag
   209                           	global	_buff
   210                           	global	_Selection_Next
   211                           	global	__CHOICE_SELECTED
   212                           	global	_ADCON0
   213  001F                     _ADCON0	set	31
   214                           	global	_ADRESH
   215  001E                     _ADRESH	set	30
   216                           	global	_PORTA
   217  0005                     _PORTA	set	5
   218                           	global	_PORTB
   219  0006                     _PORTB	set	6
   220                           	global	_PORTC
   221  0007                     _PORTC	set	7
   222                           	global	_PORTD
   223  0008                     _PORTD	set	8
   224                           	global	_PORTE
   225  0009                     _PORTE	set	9
   226                           	global	_TXREG
   227  0019                     _TXREG	set	25
   228                           	global	_CARRY
   229  0018                     _CARRY	set	24
   230                           	global	_CREN
   231  00C4                     _CREN	set	196
   232                           	global	_GIE
   233  005F                     _GIE	set	95
   234                           	global	_GO_nDONE
   235  00FA                     _GO_nDONE	set	250
   236                           	global	_PEIE
   237  005E                     _PEIE	set	94
   238                           	global	_RA2
   239  002A                     _RA2	set	42
   240                           	global	_RA4
   241  002C                     _RA4	set	44
   242                           	global	_RA5
   243  002D                     _RA5	set	45
   244                           	global	_RB0
   245  0030                     _RB0	set	48
   246                           	global	_RB1
   247  0031                     _RB1	set	49
   248                           	global	_RB2
   249  0032                     _RB2	set	50
   250                           	global	_RB3
   251  0033                     _RB3	set	51
   252                           	global	_RB4
   253  0034                     _RB4	set	52
   254                           	global	_RB5
   255  0035                     _RB5	set	53
   256                           	global	_RB6
   257  0036                     _RB6	set	54
   258                           	global	_RB7
   259  0037                     _RB7	set	55
   260                           	global	_RC0
   261  0038                     _RC0	set	56
   262                           	global	_RC1
   263  0039                     _RC1	set	57
   264                           	global	_RC2
   265  003A                     _RC2	set	58
   266                           	global	_RC3
   267  003B                     _RC3	set	59
   268                           	global	_RC4
   269  003C                     _RC4	set	60
   270                           	global	_RC5
   271  003D                     _RC5	set	61
   272                           	global	_RD1
   273  0041                     _RD1	set	65
   274                           	global	_RD2
   275  0042                     _RD2	set	66
   276                           	global	_RD3
   277  0043                     _RD3	set	67
   278                           	global	_RE0
   279  0048                     _RE0	set	72
   280                           	global	_RE1
   281  0049                     _RE1	set	73
   282                           	global	_RE2
   283  004A                     _RE2	set	74
   284                           	global	_SPEN
   285  00C7                     _SPEN	set	199
   286                           	global	_TXIF
   287  0064                     _TXIF	set	100
   288                           	global	_ADCON1
   289  009F                     _ADCON1	set	159
   290                           	global	_ADRESL
   291  009E                     _ADRESL	set	158
   292                           	global	_CMCON
   293  009C                     _CMCON	set	156
   294                           	global	_SPBRG
   295  0099                     _SPBRG	set	153
   296                           	global	_TRISA
   297  0085                     _TRISA	set	133
   298                           	global	_TRISB
   299  0086                     _TRISB	set	134
   300                           	global	_TRISC
   301  0087                     _TRISC	set	135
   302                           	global	_TRISD
   303  0088                     _TRISD	set	136
   304                           	global	_TRISE
   305  0089                     _TRISE	set	137
   306                           	global	_BRGH
   307  04C2                     _BRGH	set	1218
   308                           	global	_RCIE
   309  0465                     _RCIE	set	1125
   310                           	global	_SYNC
   311  04C4                     _SYNC	set	1220
   312                           	global	_TXEN
   313  04C5                     _TXEN	set	1221
   314                           	global	_EEADR
   315  010D                     _EEADR	set	269
   316                           	global	_EEDATA
   317  010C                     _EEDATA	set	268
   318                           	global	_EECON1
   319  018C                     _EECON1	set	396
   320                           	global	_EECON2
   321  018D                     _EECON2	set	397
   322                           	global	_RD
   323  0C60                     _RD	set	3168
   324                           	global	_WR
   325  0C61                     _WR	set	3169
   326                           	global	_WREN
   327  0C62                     _WREN	set	3170
   328                           psect	strings,class=STRING,delta=2
   329                           global __pstrings
   330  190D                     __pstrings:
   331                           ;	global	stringtab,__stringbase
   332  190D                     stringtab:
   333                           ;	String table - string pointers are 2 bytes each
   334  190D  1BFF               	btfsc	(btemp+1),7
   335  190E  2917               	ljmp	stringcode
   336  190F  1383               	bcf	status,7
   337  1910  187F               	btfsc	(btemp+1),0
   338  1911  1783               	bsf	status,7
   339  1912  0800               	movf	indf,w
   340  1913  0A84               	incf fsr
   341  1914  1903               skipnz
   342  1915  0AFF               incf btemp+1
   343  1916  0008               	return
   344  1917                     stringcode:
   345  1917  087F               	movf btemp+1,w
   346  1918  397F               andlw 7Fh
   347  1919  008A               movwf	pclath
   348  191A  0804               	movf	fsr,w
   349  191B  0A84               incf fsr
   350  191C  1903               skipnz
   351  191D  0AFF               incf btemp+1
   352  191E  0082               	movwf pc
   353  191F                     __stringbase:
   354                           psect	stringtext,class=STRCODE,delta=2,reloc=256
   355                           global __pstringtext
   356  1800                     __pstringtext:
   357                           	
   358  1800                     STR_6:	
   359  1800  3450               	retlw	80	;'P'
   360  1801  3452               	retlw	82	;'R'
   361  1802  3445               	retlw	69	;'E'
   362  1803  3450               	retlw	80	;'P'
   363  1804  3441               	retlw	65	;'A'
   364  1805  3452               	retlw	82	;'R'
   365  1806  3449               	retlw	73	;'I'
   366  1807  344E               	retlw	78	;'N'
   367  1808  3447               	retlw	71	;'G'
   368  1809  3420               	retlw	32	;' '
   369  180A  3443               	retlw	67	;'C'
   370  180B  344F               	retlw	79	;'O'
   371  180C  3446               	retlw	70	;'F'
   372  180D  3446               	retlw	70	;'F'
   373  180E  3445               	retlw	69	;'E'
   374  180F  3445               	retlw	69	;'E'
   375  1810  3400               	retlw	0
   376                           psect	stringtext
   377                           	
   378  1811                     STR_2:	
   379  1811  3448               	retlw	72	;'H'
   380  1812  3441               	retlw	65	;'A'
   381  1813  3456               	retlw	86	;'V'
   382  1814  3445               	retlw	69	;'E'
   383  1815  3420               	retlw	32	;' '
   384  1816  3441               	retlw	65	;'A'
   385  1817  3420               	retlw	32	;' '
   386  1818  3448               	retlw	72	;'H'
   387  1819  344F               	retlw	79	;'O'
   388  181A  3454               	retlw	84	;'T'
   389  181B  3420               	retlw	32	;' '
   390  181C  3453               	retlw	83	;'S'
   391  181D  3449               	retlw	73	;'I'
   392  181E  3450               	retlw	80	;'P'
   393  181F  3420               	retlw	32	;' '
   394  1820  3421               	retlw	33	;'!'
   395  1821  3400               	retlw	0
   396                           psect	stringtext
   397                           	
   398  1822                     STR_7:	
   399  1822  3443               	retlw	67	;'C'
   400  1823  344F               	retlw	79	;'O'
   401  1824  3446               	retlw	70	;'F'
   402  1825  3446               	retlw	70	;'F'
   403  1826  3445               	retlw	69	;'E'
   404  1827  3445               	retlw	69	;'E'
   405  1828  3420               	retlw	32	;' '
   406  1829  3443               	retlw	67	;'C'
   407  182A  344C               	retlw	76	;'L'
   408  182B  3445               	retlw	69	;'E'
   409  182C  3441               	retlw	65	;'A'
   410  182D  344E               	retlw	78	;'N'
   411  182E  3449               	retlw	73	;'I'
   412  182F  344E               	retlw	78	;'N'
   413  1830  3447               	retlw	71	;'G'
   414  1831  3400               	retlw	0
   415                           psect	stringtext
   416                           	
   417  1832                     STR_20:	
   418  1832  3443               	retlw	67	;'C'
   419  1833  344F               	retlw	79	;'O'
   420  1834  3446               	retlw	70	;'F'
   421  1835  3446               	retlw	70	;'F'
   422  1836  3445               	retlw	69	;'E'
   423  1837  3445               	retlw	69	;'E'
   424  1838  3420               	retlw	32	;' '
   425  1839  3444               	retlw	68	;'D'
   426  183A  3449               	retlw	73	;'I'
   427  183B  3443               	retlw	67	;'C'
   428  183C  3441               	retlw	65	;'A'
   429  183D  3454               	retlw	84	;'T'
   430  183E  3449               	retlw	73	;'I'
   431  183F  344F               	retlw	79	;'O'
   432  1840  344E               	retlw	78	;'N'
   433  1841  3400               	retlw	0
   434                           psect	stringtext
   435                           	
   436  1842                     STR_1:	
   437  1842  344C               	retlw	76	;'L'
   438  1843  344F               	retlw	79	;'O'
   439  1844  3457               	retlw	87	;'W'
   440  1845  3420               	retlw	32	;' '
   441  1846  3454               	retlw	84	;'T'
   442  1847  3445               	retlw	69	;'E'
   443  1848  344D               	retlw	77	;'M'
   444  1849  3450               	retlw	80	;'P'
   445  184A  3445               	retlw	69	;'E'
   446  184B  3452               	retlw	82	;'R'
   447  184C  3441               	retlw	65	;'A'
   448  184D  3454               	retlw	84	;'T'
   449  184E  3455               	retlw	85	;'U'
   450  184F  3452               	retlw	82	;'R'
   451  1850  3445               	retlw	69	;'E'
   452  1851  3400               	retlw	0
   453                           psect	stringtext
   454                           	
   455  1852                     STR_8:	
   456  1852  3420               	retlw	32	;' '
   457  1853  3450               	retlw	80	;'P'
   458  1854  3452               	retlw	82	;'R'
   459  1855  3445               	retlw	69	;'E'
   460  1856  3450               	retlw	80	;'P'
   461  1857  3441               	retlw	65	;'A'
   462  1858  3452               	retlw	82	;'R'
   463  1859  3449               	retlw	73	;'I'
   464  185A  344E               	retlw	78	;'N'
   465  185B  3447               	retlw	71	;'G'
   466  185C  3420               	retlw	32	;' '
   467  185D  3454               	retlw	84	;'T'
   468  185E  3445               	retlw	69	;'E'
   469  185F  3441               	retlw	65	;'A'
   470  1860  3400               	retlw	0
   471                           psect	stringtext
   472                           	
   473  1861                     STR_16:	
   474  1861  3443               	retlw	67	;'C'
   475  1862  344F               	retlw	79	;'O'
   476  1863  344E               	retlw	78	;'N'
   477  1864  3446               	retlw	70	;'F'
   478  1865  3449               	retlw	73	;'I'
   479  1866  3447               	retlw	71	;'G'
   480  1867  3455               	retlw	85	;'U'
   481  1868  3452               	retlw	82	;'R'
   482  1869  3445               	retlw	69	;'E'
   483  186A  3420               	retlw	32	;' '
   484  186B  344D               	retlw	77	;'M'
   485  186C  344F               	retlw	79	;'O'
   486  186D  3444               	retlw	68	;'D'
   487  186E  3445               	retlw	69	;'E'
   488  186F  3400               	retlw	0
   489                           psect	stringtext
   490                           	
   491  1870                     STR_25:	
   492  1870  3444               	retlw	68	;'D'
   493  1871  3449               	retlw	73	;'I'
   494  1872  3443               	retlw	67	;'C'
   495  1873  3441               	retlw	65	;'A'
   496  1874  3454               	retlw	84	;'T'
   497  1875  3449               	retlw	73	;'I'
   498  1876  344F               	retlw	79	;'O'
   499  1877  344E               	retlw	78	;'N'
   500  1878  3420               	retlw	32	;' '
   501  1879  3444               	retlw	68	;'D'
   502  187A  3445               	retlw	69	;'E'
   503  187B  344C               	retlw	76	;'L'
   504  187C  3441               	retlw	65	;'A'
   505  187D  3459               	retlw	89	;'Y'
   506  187E  3400               	retlw	0
   507                           psect	stringtext
   508                           	
   509  187F                     STR_10:	
   510  187F  344D               	retlw	77	;'M'
   511  1880  3449               	retlw	73	;'I'
   512  1881  344C               	retlw	76	;'L'
   513  1882  344B               	retlw	75	;'K'
   514  1883  3420               	retlw	32	;' '
   515  1884  3443               	retlw	67	;'C'
   516  1885  344C               	retlw	76	;'L'
   517  1886  3445               	retlw	69	;'E'
   518  1887  3441               	retlw	65	;'A'
   519  1888  344E               	retlw	78	;'N'
   520  1889  3449               	retlw	73	;'I'
   521  188A  344E               	retlw	78	;'N'
   522  188B  3447               	retlw	71	;'G'
   523  188C  3400               	retlw	0
   524                           psect	stringtext
   525                           	
   526  188D                     STR_11:	
   527  188D  3443               	retlw	67	;'C'
   528  188E  344F               	retlw	79	;'O'
   529  188F  3455               	retlw	85	;'U'
   530  1890  344E               	retlw	78	;'N'
   531  1891  3454               	retlw	84	;'T'
   532  1892  3420               	retlw	32	;' '
   533  1893  3444               	retlw	68	;'D'
   534  1894  3449               	retlw	73	;'I'
   535  1895  3453               	retlw	83	;'S'
   536  1896  3450               	retlw	80	;'P'
   537  1897  344C               	retlw	76	;'L'
   538  1898  3441               	retlw	65	;'A'
   539  1899  3459               	retlw	89	;'Y'
   540  189A  3400               	retlw	0
   541                           psect	stringtext
   542                           	
   543  189B                     STR_9:	
   544  189B  3454               	retlw	84	;'T'
   545  189C  3445               	retlw	69	;'E'
   546  189D  3441               	retlw	65	;'A'
   547  189E  3420               	retlw	32	;' '
   548  189F  3443               	retlw	67	;'C'
   549  18A0  344C               	retlw	76	;'L'
   550  18A1  3445               	retlw	69	;'E'
   551  18A2  3441               	retlw	65	;'A'
   552  18A3  344E               	retlw	78	;'N'
   553  18A4  3449               	retlw	73	;'I'
   554  18A5  344E               	retlw	78	;'N'
   555  18A6  3447               	retlw	71	;'G'
   556  18A7  3400               	retlw	0
   557                           psect	stringtext
   558                           	
   559  18A8                     STR_22:	
   560  18A8  3454               	retlw	84	;'T'
   561  18A9  3445               	retlw	69	;'E'
   562  18AA  3441               	retlw	65	;'A'
   563  18AB  3420               	retlw	32	;' '
   564  18AC  3444               	retlw	68	;'D'
   565  18AD  3449               	retlw	73	;'I'
   566  18AE  3443               	retlw	67	;'C'
   567  18AF  3441               	retlw	65	;'A'
   568  18B0  3454               	retlw	84	;'T'
   569  18B1  3449               	retlw	73	;'I'
   570  18B2  344F               	retlw	79	;'O'
   571  18B3  344E               	retlw	78	;'N'
   572  18B4  3400               	retlw	0
   573                           psect	stringtext
   574                           	
   575  18B5                     STR_13:	
   576  18B5  3450               	retlw	80	;'P'
   577  18B6  3452               	retlw	82	;'R'
   578  18B7  3445               	retlw	69	;'E'
   579  18B8  3450               	retlw	80	;'P'
   580  18B9  3441               	retlw	65	;'A'
   581  18BA  3452               	retlw	82	;'R'
   582  18BB  3441               	retlw	65	;'A'
   583  18BC  3454               	retlw	84	;'T'
   584  18BD  3449               	retlw	73	;'I'
   585  18BE  344F               	retlw	79	;'O'
   586  18BF  344E               	retlw	78	;'N'
   587  18C0  3400               	retlw	0
   588                           psect	stringtext
   589                           	
   590  18C1                     STR_30:	
   591  18C1  3443               	retlw	67	;'C'
   592  18C2  344F               	retlw	79	;'O'
   593  18C3  3455               	retlw	85	;'U'
   594  18C4  344E               	retlw	78	;'N'
   595  18C5  3454               	retlw	84	;'T'
   596  18C6  3420               	retlw	32	;' '
   597  18C7  3452               	retlw	82	;'R'
   598  18C8  3445               	retlw	69	;'E'
   599  18C9  3453               	retlw	83	;'S'
   600  18CA  3445               	retlw	69	;'E'
   601  18CB  3454               	retlw	84	;'T'
   602  18CC  3400               	retlw	0
   603                           psect	stringtext
   604                           	
   605  18CD                     STR_15:	
   606  18CD  3450               	retlw	80	;'P'
   607  18CE  3441               	retlw	65	;'A'
   608  18CF  3453               	retlw	83	;'S'
   609  18D0  3453               	retlw	83	;'S'
   610  18D1  3457               	retlw	87	;'W'
   611  18D2  344F               	retlw	79	;'O'
   612  18D3  3452               	retlw	82	;'R'
   613  18D4  3444               	retlw	68	;'D'
   614  18D5  343A               	retlw	58	;':'
   615  18D6  3420               	retlw	32	;' '
   616  18D7  3400               	retlw	0
   617                           psect	stringtext
   618                           	
   619  18D8                     STR_18:	
   620  18D8  3453               	retlw	83	;'S'
   621  18D9  3445               	retlw	69	;'E'
   622  18DA  344C               	retlw	76	;'L'
   623  18DB  3445               	retlw	69	;'E'
   624  18DC  3443               	retlw	67	;'C'
   625  18DD  3454               	retlw	84	;'T'
   626  18DE  3449               	retlw	73	;'I'
   627  18DF  344F               	retlw	79	;'O'
   628  18E0  344E               	retlw	78	;'N'
   629  18E1  3400               	retlw	0
   630                           psect	stringtext
   631                           	
   632  18E2                     STR_27:	
   633  18E2  3448               	retlw	72	;'H'
   634  18E3  344F               	retlw	79	;'O'
   635  18E4  3454               	retlw	84	;'T'
   636  18E5  3420               	retlw	32	;' '
   637  18E6  3457               	retlw	87	;'W'
   638  18E7  3441               	retlw	65	;'A'
   639  18E8  3454               	retlw	84	;'T'
   640  18E9  3445               	retlw	69	;'E'
   641  18EA  3452               	retlw	82	;'R'
   642  18EB  3400               	retlw	0
   643                           psect	stringtext
   644                           	
   645  18EC                     STR_29:	
   646  18EC  3443               	retlw	67	;'C'
   647  18ED  3455               	retlw	85	;'U'
   648  18EE  3450               	retlw	80	;'P'
   649  18EF  3420               	retlw	32	;' '
   650  18F0  3443               	retlw	67	;'C'
   651  18F1  344F               	retlw	79	;'O'
   652  18F2  3455               	retlw	85	;'U'
   653  18F3  344E               	retlw	78	;'N'
   654  18F4  3454               	retlw	84	;'T'
   655  18F5  3400               	retlw	0
   656                           psect	stringtext
   657                           	
   658  18F6                     STR_17:	
   659  18F6  344D               	retlw	77	;'M'
   660  18F7  3445               	retlw	69	;'E'
   661  18F8  344E               	retlw	78	;'N'
   662  18F9  3455               	retlw	85	;'U'
   663  18FA  343A               	retlw	58	;':'
   664  18FB  3420               	retlw	32	;' '
   665  18FC  3400               	retlw	0
   666                           psect	stringtext
   667                           	
   668  18FD                     STR_3:	
   669  18FD  344C               	retlw	76	;'L'
   670  18FE  344F               	retlw	79	;'O'
   671  18FF  3441               	retlw	65	;'A'
   672  1900  3444               	retlw	68	;'D'
   673  1901  3420               	retlw	32	;' '
   674  1902  3400               	retlw	0
   675                           psect	stringtext
   676                           	
   677  1903                     STR_21:	
   678  1903  3454               	retlw	84	;'T'
   679  1904  3449               	retlw	73	;'I'
   680  1905  344D               	retlw	77	;'M'
   681  1906  3445               	retlw	69	;'E'
   682  1907  343A               	retlw	58	;':'
   683  1908  3400               	retlw	0
   684                           psect	stringtext
   685                           	
   686  1909                     STR_5:	
   687  1909  3453               	retlw	83	;'S'
   688  190A  3445               	retlw	69	;'E'
   689  190B  3443               	retlw	67	;'C'
   690  190C  3400               	retlw	0
   691                           psect	stringtext
   692  1879                     STR_4	equ	STR_25+9
   693  18AC                     STR_12	equ	STR_22+4
   694  189F                     STR_14	equ	STR_9+4
   695  1846                     STR_24	equ	STR_1+4
   696  186A                     STR_19	equ	STR_16+9
   697  1903                     STR_23	equ	STR_21+0
   698  1903                     STR_26	equ	STR_21+0
   699  1903                     STR_28	equ	STR_21+0
   700                           	file	"BEVERAGES_2014_10_08.as"
   701                           	line	#
   702                           psect cinit,class=CODE,delta=2
   703                           global start_initialization
   704  19D5                     start_initialization:
   705                           
   706                           psect	bitbssBANK0,class=BANK0,bit,space=1
   707                           global __pbitbssBANK0
   708  0358                     __pbitbssBANK0:
   709  0358                     _Enable_Coffee_Dication_Time:
   710  0358                            ds      1
   711                           
   712  0359                     _Enable_Coffee_Hot_Water_Valve:
   713  0359                            ds      1
   714                           
   715  035A                     _Enable_Coffee_Valve:
   716  035A                            ds      1
   717                           
   718  035B                     _Enable_Config_Mode:
   719  035B                            ds      1
   720                           
   721  035C                     _Enable_Count_Reset:
   722  035C                            ds      1
   723                           
   724  035D                     _Enable_Cup_Count:
   725  035D                            ds      1
   726                           
   727  035E                     _Enable_Dication_Delay:
   728  035E                            ds      1
   729                           
   730  035F                     _Enable_Heater1:
   731  035F                            ds      1
   732                           
   733  0360                     _Enable_Heater2:
   734  0360                            ds      1
   735                           
   736  0361                     _Enable_Hot_Water_Time:
   737  0361                            ds      1
   738                           
   739  0362                     _Enable_Hot_Water_Valve:
   740  0362                            ds      1
   741                           
   742  0363                     _Enable_Milk_Forward:
   743  0363                            ds      1
   744                           
   745  0364                     _Enable_Milk_Reverse:
   746  0364                            ds      1
   747                           
   748  0365                     _Enable_Milk_Reverse_Time:
   749  0365                            ds      1
   750                           
   751  0366                     _Enable_Mixing_Hot_Water_Valve:
   752  0366                            ds      1
   753                           
   754  0367                     _Enable_Normal_Mode:
   755  0367                            ds      1
   756                           
   757  0368                     _Enable_Password:
   758  0368                            ds      1
   759                           
   760  0369                     _Enable_Selection:
   761  0369                            ds      1
   762                           
   763  036A                     _Enable_Shortcut_Mode:
   764  036A                            ds      1
   765                           
   766  036B                     _Enable_Tea_Dication_Time:
   767  036B                            ds      1
   768                           
   769  036C                     _Enable_Tea_Hot_Water_Valve:
   770  036C                            ds      1
   771                           
   772  036D                     _Enable_Tea_Valve:
   773  036D                            ds      1
   774                           
   775  036E                     _Enable_Temperature:
   776  036E                            ds      1
   777                           
   778  036F                     _Enable_Valves:
   779  036F                            ds      1
   780                           
   781  0370                     _Enable_Viber_Motor:
   782  0370                            ds      1
   783                           
   784  0371                     __Demo:
   785  0371                            ds      1
   786                           
   787  0372                     __SHORTCUT:
   788  0372                            ds      1
   789                           
   790  0373                     __clear:
   791  0373                            ds      1
   792                           
   793  0374                     __temp_flag:
   794  0374                            ds      1
   795                           
   796                           psect	bssBANK0,class=BANK0,space=1
   797                           global __pbssBANK0
   798  0020                     __pbssBANK0:
   799  0020                     _MENU:
   800  0020                            ds      9
   801                           
   802  0029                     _ADC_value:
   803  0029                            ds      2
   804                           
   805  002B                     _i:
   806  002B                            ds      2
   807                           
   808  002D                     _j:
   809  002D                            ds      2
   810                           
   811  002F                     _password:
   812  002F                            ds      2
   813                           
   814  0031                     _temperature:
   815  0031                            ds      2
   816                           
   817  0033                     _time:
   818  0033                            ds      2
   819                           
   820  0035                     _Next:
   821  0035                            ds      1
   822                           
   823  0036                     _VALVE:
   824  0036                            ds      1
   825                           
   826  0037                     __DISABLE_MODE:
   827  0037                            ds      1
   828                           
   829  0038                     __ENABLE_MODE:
   830  0038                            ds      1
   831                           
   832  0039                     __OFF:
   833  0039                            ds      1
   834                           
   835  003A                     __ON:
   836  003A                            ds      1
   837                           
   838  003B                     __PRESSED:
   839  003B                            ds      1
   840                           
   841  003C                     __PREVIOUS_MODE:
   842  003C                            ds      1
   843                           
   844  003D                     __PREVIOUS_PROCESS:
   845  003D                            ds      1
   846                           
   847  003E                     __PROCESS:
   848  003E                            ds      1
   849                           
   850  003F                     __SHORTCUT_PRESSED:
   851  003F                            ds      1
   852                           
   853  0040                     _itoai:
   854  0040                            ds      1
   855                           
   856  0041                     _mem_index1:
   857  0041                            ds      1
   858                           
   859  0042                     _mem_index2:
   860  0042                            ds      1
   861                           
   862  0043                     _buff:
   863  0043                            ds      4
   864                           
   865  0047                     _Selection_Next:
   866  0047                            ds      1
   867                           
   868  0048                     __CHOICE_SELECTED:
   869  0048                            ds      1
   870                           
   871                           psect	dataBANK1,class=BANK1,space=1
   872                           global __pdataBANK1
   873  00A0                     __pdataBANK1:
   874                           	file	"F:\BEVERAGES_ENHANCEMENT\SOFTWARE_DESIGN\MASTER_PIC_16F877A\2015_09_13\lcd.h"
   875  00A0                     _asciitable:
   876  00A0                            ds      10
   877                           
   878                           psect clrtext,class=CODE,delta=2
   879                           global clear_ram
   880                           ;	Called with FSR containing the base address, and
   881                           ;	W with the last address+1
   882  07F8                     clear_ram:
   883  07F8  0064               	clrwdt			;clear the watchdog before getting into this loop
   884  07F9                     clrloop:
   885  07F9  0180               	clrf	indf		;clear RAM location pointed to by FSR
   886  07FA  0A84               	incf	fsr,f		;increment pointer
   887  07FB  0604               	xorwf	fsr,w		;XOR with final address
   888  07FC  1903               	btfsc	status,2	;have we reached the end yet?
   889  07FD  3400               	retlw	0		;all done for this memory range, return
   890  07FE  0604               	xorwf	fsr,w		;XOR again to restore value
   891  07FF  2FF9               	goto	clrloop		;do the next byte
   892                           
   893                           ; Clear objects allocated to BITBANK0
   894                           psect cinit,class=CODE,delta=2
   895  19D5  01EB               	clrf	((__pbitbssBANK0/8)+0)&07Fh
   896  19D6  01EC               	clrf	((__pbitbssBANK0/8)+1)&07Fh
   897  19D7  01ED               	clrf	((__pbitbssBANK0/8)+2)&07Fh
   898  19D8  01EE               	clrf	((__pbitbssBANK0/8)+3)&07Fh
   899                           ; Clear objects allocated to BANK0
   900                           psect cinit,class=CODE,delta=2
   901  19D9  1383               	bcf	status, 7	;select IRP bank0
   902  19DA  3020               	movlw	low(__pbssBANK0)
   903  19DB  0084               	movwf	fsr
   904  19DC  3049               	movlw	low((__pbssBANK0)+029h)
   905  19DD  120A  118A  27F8   	fcall	clear_ram
              160A  158A         
   906                           global btemp
   907                           psect inittext,class=CODE,delta=2
   908                           global init_fetch,btemp
   909                           ;	Called with low address in FSR and high address in W
   910  1001                     init_fetch:
   911  1001  087E               	movf btemp,w
   912  1002  008A               	movwf pclath
   913  1003  087F               	movf btemp+1,w
   914  1004  0082               	movwf pc
   915                           global init_ram
   916                           ;Called with:
   917                           ;	high address of idata address in btemp 
   918                           ;	low address of idata address in btemp+1 
   919                           ;	low address of data in FSR
   920                           ;	high address + 1 of data in btemp-1
   921  1005                     init_ram:
   922  1005  160A  118A  2001   	fcall init_fetch
              160A  118A         
   923  100A  0080               	movwf indf,f
   924  100B  0A84               	incf fsr,f
   925  100C  0804               	movf fsr,w
   926  100D  067D               	xorwf btemp-1,w
   927  100E  1903               	btfsc status,2
   928  100F  3400               	retlw 0
   929  1010  0AFF               	incf btemp+1,f
   930  1011  1903               	btfsc status,2
   931  1012  0AFE               	incf btemp,f
   932  1013  2805               	goto init_ram
   933                           ; Initialize objects allocated to BANK1
   934                           psect cinit,class=CODE,delta=2
   935                           global init_ram, __pidataBANK1
   936  19E2  30AA               	movlw low(__pdataBANK1+10)
   937  19E3  00FD               	movwf btemp-1,f
   938  19E4  3019               	movlw high(__pidataBANK1)
   939  19E5  00FE               	movwf btemp,f
   940  19E6  3060               	movlw low(__pidataBANK1)
   941  19E7  00FF               	movwf btemp+1,f
   942  19E8  30A0               	movlw low(__pdataBANK1)
   943  19E9  0084               	movwf fsr,f
   944  19EA  160A  118A  2005   	fcall init_ram
              160A  158A         
   945                           psect cinit,class=CODE,delta=2
   946                           global end_of_initialization
   947                           
   948                           ;End of C runtime variable initialization code
   949                           
   950  19EF                     end_of_initialization:
   951  19EF  0183               clrf status
   952  19F0  160A  118A  2C37   ljmp _main	;jump to C main() function
   953                           psect	cstackCOMMON,class=COMMON,space=1
   954                           global __pcstackCOMMON
   955  0070                     __pcstackCOMMON:
   956                           	global	?_Lcd_Cmd
   957  0070                     ?_Lcd_Cmd:	; 0 bytes @ 0x0
   958                           	global	?_Inidcate_Buzzer
   959  0070                     ?_Inidcate_Buzzer:	; 0 bytes @ 0x0
   960                           	global	?_Print_Name
   961  0070                     ?_Print_Name:	; 0 bytes @ 0x0
   962                           	global	?_Mode_Init
   963  0070                     ?_Mode_Init:	; 0 bytes @ 0x0
   964                           	global	?_key_press
   965  0070                     ?_key_press:	; 0 bytes @ 0x0
   966                           	global	??_key_press
   967  0070                     ??_key_press:	; 0 bytes @ 0x0
   968                           	global	?_enable_valves
   969  0070                     ?_enable_valves:	; 0 bytes @ 0x0
   970                           	global	?_change_modes
   971  0070                     ?_change_modes:	; 0 bytes @ 0x0
   972                           	global	?_SendByteSerially
   973  0070                     ?_SendByteSerially:	; 0 bytes @ 0x0
   974                           	global	??_SendByteSerially
   975  0070                     ??_SendByteSerially:	; 0 bytes @ 0x0
   976                           	global	?_call_control_valve
   977  0070                     ?_call_control_valve:	; 0 bytes @ 0x0
   978                           	global	?_offthevalve
   979  0070                     ?_offthevalve:	; 0 bytes @ 0x0
   980                           	global	??_offthevalve
   981  0070                     ??_offthevalve:	; 0 bytes @ 0x0
   982                           	global	?_print_yes_no
   983  0070                     ?_print_yes_no:	; 0 bytes @ 0x0
   984                           	global	?_onthevalve
   985  0070                     ?_onthevalve:	; 0 bytes @ 0x0
   986                           	global	??_onthevalve
   987  0070                     ??_onthevalve:	; 0 bytes @ 0x0
   988                           	global	?_InitADC
   989  0070                     ?_InitADC:	; 0 bytes @ 0x0
   990                           	global	??_InitADC
   991  0070                     ??_InitADC:	; 0 bytes @ 0x0
   992                           	global	?_Lcd_Init
   993  0070                     ?_Lcd_Init:	; 0 bytes @ 0x0
   994                           	global	?_Lcd_Data
   995  0070                     ?_Lcd_Data:	; 0 bytes @ 0x0
   996                           	global	?_rev
   997  0070                     ?_rev:	; 0 bytes @ 0x0
   998                           	global	?_Port_Init
   999  0070                     ?_Port_Init:	; 0 bytes @ 0x0
  1000                           	global	??_Port_Init
  1001  0070                     ??_Port_Init:	; 0 bytes @ 0x0
  1002                           	global	?_main
  1003  0070                     ?_main:	; 0 bytes @ 0x0
  1004                           	global	?_Print_Menu
  1005  0070                     ?_Print_Menu:	; 0 bytes @ 0x0
  1006                           	global	?_Read_ValveFrom_Memory
  1007  0070                     ?_Read_ValveFrom_Memory:	; 1 bytes @ 0x0
  1008                           	global	?___bmul
  1009  0070                     ?___bmul:	; 1 bytes @ 0x0
  1010                           	global	?_strlen
  1011  0070                     ?_strlen:	; 2 bytes @ 0x0
  1012                           	global	?_GetADCValue
  1013  0070                     ?_GetADCValue:	; 2 bytes @ 0x0
  1014                           	global	?___lwmod
  1015  0070                     ?___lwmod:	; 2 bytes @ 0x0
  1016                           	global	?___awdiv
  1017  0070                     ?___awdiv:	; 2 bytes @ 0x0
  1018                           	global	?___awmod
  1019  0070                     ?___awmod:	; 2 bytes @ 0x0
  1020                           	global	?___aldiv
  1021  0070                     ?___aldiv:	; 4 bytes @ 0x0
  1022                           	global	SendByteSerially@Byte
  1023  0070                     SendByteSerially@Byte:	; 1 bytes @ 0x0
  1024                           	global	___bmul@multiplicand
  1025  0070                     ___bmul@multiplicand:	; 1 bytes @ 0x0
  1026                           	global	___lwmod@divisor
  1027  0070                     ___lwmod@divisor:	; 2 bytes @ 0x0
  1028                           	global	___awdiv@divisor
  1029  0070                     ___awdiv@divisor:	; 2 bytes @ 0x0
  1030                           	global	___awmod@divisor
  1031  0070                     ___awmod@divisor:	; 2 bytes @ 0x0
  1032                           	global	___aldiv@divisor
  1033  0070                     ___aldiv@divisor:	; 4 bytes @ 0x0
  1034  0070                     	ds	1
  1035                           	global	??_Print_Name
  1036  0071                     ??_Print_Name:	; 0 bytes @ 0x1
  1037                           	global	??_Print_Menu
  1038  0071                     ??_Print_Menu:	; 0 bytes @ 0x1
  1039                           	global	??___bmul
  1040  0071                     ??___bmul:	; 0 bytes @ 0x1
  1041  0071                     	ds	1
  1042                           	global	??_strlen
  1043  0072                     ??_strlen:	; 0 bytes @ 0x2
  1044                           	global	??_GetADCValue
  1045  0072                     ??_GetADCValue:	; 0 bytes @ 0x2
  1046                           	global	___bmul@product
  1047  0072                     ___bmul@product:	; 1 bytes @ 0x2
  1048                           	global	___lwmod@dividend
  1049  0072                     ___lwmod@dividend:	; 2 bytes @ 0x2
  1050                           	global	___awdiv@dividend
  1051  0072                     ___awdiv@dividend:	; 2 bytes @ 0x2
  1052                           	global	___awmod@dividend
  1053  0072                     ___awmod@dividend:	; 2 bytes @ 0x2
  1054  0072                     	ds	1
  1055                           	global	___bmul@multiplier
  1056  0073                     ___bmul@multiplier:	; 1 bytes @ 0x3
  1057  0073                     	ds	1
  1058                           	global	??___lwmod
  1059  0074                     ??___lwmod:	; 0 bytes @ 0x4
  1060                           	global	??___awdiv
  1061  0074                     ??___awdiv:	; 0 bytes @ 0x4
  1062                           	global	??___awmod
  1063  0074                     ??___awmod:	; 0 bytes @ 0x4
  1064                           	global	?_eeprom_read
  1065  0074                     ?_eeprom_read:	; 1 bytes @ 0x4
  1066                           	global	GetADCValue@Channel
  1067  0074                     GetADCValue@Channel:	; 1 bytes @ 0x4
  1068                           	global	eeprom_read@addr
  1069  0074                     eeprom_read@addr:	; 1 bytes @ 0x4
  1070                           	global	___aldiv@dividend
  1071  0074                     ___aldiv@dividend:	; 4 bytes @ 0x4
  1072  0074                     	ds	1
  1073                           	global	??_eeprom_read
  1074  0075                     ??_eeprom_read:	; 0 bytes @ 0x5
  1075                           	global	___lwmod@counter
  1076  0075                     ___lwmod@counter:	; 1 bytes @ 0x5
  1077                           	global	___awdiv@counter
  1078  0075                     ___awdiv@counter:	; 1 bytes @ 0x5
  1079                           	global	___awmod@counter
  1080  0075                     ___awmod@counter:	; 1 bytes @ 0x5
  1081  0075                     	ds	1
  1082                           	global	??_Read_ValveFrom_Memory
  1083  0076                     ??_Read_ValveFrom_Memory:	; 0 bytes @ 0x6
  1084                           	global	?_eeprom_write
  1085  0076                     ?_eeprom_write:	; 1 bytes @ 0x6
  1086                           	global	?___wmul
  1087  0076                     ?___wmul:	; 2 bytes @ 0x6
  1088                           	global	eeprom_write@value
  1089  0076                     eeprom_write@value:	; 1 bytes @ 0x6
  1090                           	global	___awdiv@sign
  1091  0076                     ___awdiv@sign:	; 1 bytes @ 0x6
  1092                           	global	___awmod@sign
  1093  0076                     ___awmod@sign:	; 1 bytes @ 0x6
  1094                           	global	___wmul@multiplier
  1095  0076                     ___wmul@multiplier:	; 2 bytes @ 0x6
  1096  0076                     	ds	1
  1097                           	global	??_eeprom_write
  1098  0077                     ??_eeprom_write:	; 0 bytes @ 0x7
  1099                           	global	___awdiv@quotient
  1100  0077                     ___awdiv@quotient:	; 2 bytes @ 0x7
  1101  0077                     	ds	1
  1102                           	global	??___aldiv
  1103  0078                     ??___aldiv:	; 0 bytes @ 0x8
  1104                           	global	eeprom_write@addr
  1105  0078                     eeprom_write@addr:	; 1 bytes @ 0x8
  1106                           	global	strlen@s
  1107  0078                     strlen@s:	; 1 bytes @ 0x8
  1108                           	global	___wmul@multiplicand
  1109  0078                     ___wmul@multiplicand:	; 2 bytes @ 0x8
  1110  0078                     	ds	1
  1111                           	global	?_count_write
  1112  0079                     ?_count_write:	; 0 bytes @ 0x9
  1113                           	global	?_Write_ValveIn_Memory
  1114  0079                     ?_Write_ValveIn_Memory:	; 0 bytes @ 0x9
  1115                           	global	count_write@addr2
  1116  0079                     count_write@addr2:	; 1 bytes @ 0x9
  1117                           	global	Write_ValveIn_Memory@loc
  1118  0079                     Write_ValveIn_Memory@loc:	; 1 bytes @ 0x9
  1119                           	global	Read_ValveFrom_Memory@MEM
  1120  0079                     Read_ValveFrom_Memory@MEM:	; 1 bytes @ 0x9
  1121                           	global	strlen@cp
  1122  0079                     strlen@cp:	; 1 bytes @ 0x9
  1123                           	global	Uart_Init@x
  1124  0079                     Uart_Init@x:	; 2 bytes @ 0x9
  1125  0079                     	ds	1
  1126                           	global	??_Write_ValveIn_Memory
  1127  007A                     ??_Write_ValveIn_Memory:	; 0 bytes @ 0xA
  1128                           	global	??_rev
  1129  007A                     ??_rev:	; 0 bytes @ 0xA
  1130                           	global	??___wmul
  1131  007A                     ??___wmul:	; 0 bytes @ 0xA
  1132                           	global	count_write@count
  1133  007A                     count_write@count:	; 2 bytes @ 0xA
  1134                           	global	___wmul@product
  1135  007A                     ___wmul@product:	; 2 bytes @ 0xA
  1136  007A                     	ds	1
  1137                           	global	?_myitoa
  1138  007B                     ?_myitoa:	; 0 bytes @ 0xB
  1139                           	global	myitoa@val
  1140  007B                     myitoa@val:	; 2 bytes @ 0xB
  1141  007B                     	ds	1
  1142                           	global	?_DelayMs
  1143  007C                     ?_DelayMs:	; 0 bytes @ 0xC
  1144                           	global	??___lwdiv
  1145  007C                     ??___lwdiv:	; 0 bytes @ 0xC
  1146                           	global	?_count_read
  1147  007C                     ?_count_read:	; 2 bytes @ 0xC
  1148                           	global	count_write@addr1
  1149  007C                     count_write@addr1:	; 1 bytes @ 0xC
  1150                           	global	count_read@addr2
  1151  007C                     count_read@addr2:	; 1 bytes @ 0xC
  1152                           	global	DelayMs@cnt
  1153  007C                     DelayMs@cnt:	; 2 bytes @ 0xC
  1154  007C                     	ds	1
  1155                           	global	myitoa@p
  1156  007D                     myitoa@p:	; 1 bytes @ 0xD
  1157  007D                     	ds	1
  1158                           	global	??_Inidcate_Buzzer
  1159  007E                     ??_Inidcate_Buzzer:	; 0 bytes @ 0xE
  1160                           	global	??_control_valve
  1161  007E                     ??_control_valve:	; 0 bytes @ 0xE
  1162                           	global	??_Lcd_Init
  1163  007E                     ??_Lcd_Init:	; 0 bytes @ 0xE
  1164                           	global	??_Lcd_String
  1165  007E                     ??_Lcd_String:	; 0 bytes @ 0xE
  1166                           psect	cstackBANK0,class=BANK0,space=1
  1167                           global __pcstackBANK0
  1168  0049                     __pcstackBANK0:
  1169                           	global	??_DelayMs
  1170  0049                     ??_DelayMs:	; 0 bytes @ 0x0
  1171                           	global	??_count_write
  1172  0049                     ??_count_write:	; 0 bytes @ 0x0
  1173                           	global	??_count_read
  1174  0049                     ??_count_read:	; 0 bytes @ 0x0
  1175                           	global	?___lwdiv
  1176  0049                     ?___lwdiv:	; 2 bytes @ 0x0
  1177                           	global	rev@t
  1178  0049                     rev@t:	; 1 bytes @ 0x0
  1179                           	global	___aldiv@counter
  1180  0049                     ___aldiv@counter:	; 1 bytes @ 0x0
  1181                           	global	_Write_ValveIn_Memory$4130
  1182  0049                     _Write_ValveIn_Memory$4130:	; 2 bytes @ 0x0
  1183                           	global	___lwdiv@divisor
  1184  0049                     ___lwdiv@divisor:	; 2 bytes @ 0x0
  1185  0049                     	ds	1
  1186                           	global	rev@f
  1187  004A                     rev@f:	; 1 bytes @ 0x1
  1188                           	global	DelayMs@i
  1189  004A                     DelayMs@i:	; 1 bytes @ 0x1
  1190                           	global	___aldiv@sign
  1191  004A                     ___aldiv@sign:	; 1 bytes @ 0x1
  1192  004A                     	ds	1
  1193                           	global	rev@l
  1194  004B                     rev@l:	; 1 bytes @ 0x2
  1195                           	global	DelayMs@_dcnt
  1196  004B                     DelayMs@_dcnt:	; 1 bytes @ 0x2
  1197                           	global	_Write_ValveIn_Memory$4131
  1198  004B                     _Write_ValveIn_Memory$4131:	; 2 bytes @ 0x2
  1199                           	global	___lwdiv@dividend
  1200  004B                     ___lwdiv@dividend:	; 2 bytes @ 0x2
  1201                           	global	___aldiv@quotient
  1202  004B                     ___aldiv@quotient:	; 4 bytes @ 0x2
  1203  004B                     	ds	1
  1204                           	global	??_Lcd_Cmd
  1205  004C                     ??_Lcd_Cmd:	; 0 bytes @ 0x3
  1206                           	global	?_control_valve
  1207  004C                     ?_control_valve:	; 0 bytes @ 0x3
  1208                           	global	??_Lcd_Data
  1209  004C                     ??_Lcd_Data:	; 0 bytes @ 0x3
  1210                           	global	rev@buf
  1211  004C                     rev@buf:	; 1 bytes @ 0x3
  1212                           	global	control_valve@load_time
  1213  004C                     control_valve@load_time:	; 2 bytes @ 0x3
  1214  004C                     	ds	1
  1215                           	global	??_myitoa
  1216  004D                     ??_myitoa:	; 0 bytes @ 0x4
  1217                           	global	Lcd_Cmd@s
  1218  004D                     Lcd_Cmd@s:	; 1 bytes @ 0x4
  1219                           	global	Lcd_Data@x
  1220  004D                     Lcd_Data@x:	; 1 bytes @ 0x4
  1221                           	global	_Write_ValveIn_Memory$4132
  1222  004D                     _Write_ValveIn_Memory$4132:	; 2 bytes @ 0x4
  1223                           	global	___lwdiv@quotient
  1224  004D                     ___lwdiv@quotient:	; 2 bytes @ 0x4
  1225  004D                     	ds	1
  1226                           	global	??_print_yes_no
  1227  004E                     ??_print_yes_no:	; 0 bytes @ 0x5
  1228                           	global	?_Lcd_String
  1229  004E                     ?_Lcd_String:	; 0 bytes @ 0x5
  1230                           	global	count_read@addr1
  1231  004E                     count_read@addr1:	; 1 bytes @ 0x5
  1232                           	global	Lcd_String@st
  1233  004E                     Lcd_String@st:	; 2 bytes @ 0x5
  1234                           	global	control_valve@delay_time
  1235  004E                     control_valve@delay_time:	; 2 bytes @ 0x5
  1236  004E                     	ds	1
  1237                           	global	?_Uart_Init
  1238  004F                     ?_Uart_Init:	; 0 bytes @ 0x6
  1239                           	global	print_yes_no@MEM
  1240  004F                     print_yes_no@MEM:	; 1 bytes @ 0x6
  1241                           	global	___lwdiv@counter
  1242  004F                     ___lwdiv@counter:	; 1 bytes @ 0x6
  1243                           	global	_Write_ValveIn_Memory$4133
  1244  004F                     _Write_ValveIn_Memory$4133:	; 2 bytes @ 0x6
  1245                           	global	Uart_Init@baudrate
  1246  004F                     Uart_Init@baudrate:	; 4 bytes @ 0x6
  1247  004F                     	ds	1
  1248                           	global	?_Num_Disp
  1249  0050                     ?_Num_Disp:	; 0 bytes @ 0x7
  1250                           	global	Lcd_String@clear
  1251  0050                     Lcd_String@clear:	; 1 bytes @ 0x7
  1252                           	global	Num_Disp@dat
  1253  0050                     Num_Disp@dat:	; 2 bytes @ 0x7
  1254  0050                     	ds	1
  1255                           	global	Lcd_String@second_line
  1256  0051                     Lcd_String@second_line:	; 1 bytes @ 0x8
  1257                           	global	_Write_ValveIn_Memory$4134
  1258  0051                     _Write_ValveIn_Memory$4134:	; 2 bytes @ 0x8
  1259  0051                     	ds	1
  1260                           	global	??_call_control_valve
  1261  0052                     ??_call_control_valve:	; 0 bytes @ 0x9
  1262                           	global	Num_Disp@digit
  1263  0052                     Num_Disp@digit:	; 1 bytes @ 0x9
  1264  0052                     	ds	1
  1265                           	global	??_Uart_Init
  1266  0053                     ??_Uart_Init:	; 0 bytes @ 0xA
  1267                           	global	Num_Disp@dot
  1268  0053                     Num_Disp@dot:	; 1 bytes @ 0xA
  1269                           	global	Write_ValveIn_Memory@VALVE
  1270  0053                     Write_ValveIn_Memory@VALVE:	; 1 bytes @ 0xA
  1271  0053                     	ds	1
  1272                           	global	??_Num_Disp
  1273  0054                     ??_Num_Disp:	; 0 bytes @ 0xB
  1274                           	global	Write_ValveIn_Memory@chr
  1275  0054                     Write_ValveIn_Memory@chr:	; 1 bytes @ 0xB
  1276  0054                     	ds	2
  1277                           	global	Num_Disp@i
  1278  0056                     Num_Disp@i:	; 2 bytes @ 0xD
  1279  0056                     	ds	2
  1280                           	global	Num_Disp@temp
  1281  0058                     Num_Disp@temp:	; 2 bytes @ 0xF
  1282  0058                     	ds	2
  1283                           	global	??_change_modes
  1284  005A                     ??_change_modes:	; 0 bytes @ 0x11
  1285                           	global	_call_control_valve$6339
  1286  005A                     _call_control_valve$6339:	; 2 bytes @ 0x11
  1287  005A                     	ds	2
  1288                           	global	??_Mode_Init
  1289  005C                     ??_Mode_Init:	; 0 bytes @ 0x13
  1290                           	global	??_enable_valves
  1291  005C                     ??_enable_valves:	; 0 bytes @ 0x13
  1292  005C                     	ds	2
  1293                           	global	Mode_Init@option
  1294  005E                     Mode_Init@option:	; 1 bytes @ 0x15
  1295  005E                     	ds	3
  1296                           	global	_enable_valves$6338
  1297  0061                     _enable_valves$6338:	; 2 bytes @ 0x18
  1298  0061                     	ds	2
  1299                           	global	enable_valves@i
  1300  0063                     enable_valves@i:	; 2 bytes @ 0x1A
  1301  0063                     	ds	2
  1302                           	global	enable_valves@index
  1303  0065                     enable_valves@index:	; 1 bytes @ 0x1C
  1304  0065                     	ds	1
  1305                           	global	??_main
  1306  0066                     ??_main:	; 0 bytes @ 0x1D
  1307  0066                     	ds	5
  1308 ;;Data sizes: Strings 269, constant 0, data 10, bss 41, persistent 0 stack 0
  1309 ;;Auto spaces:   Size  Autos    Used
  1310 ;; COMMON          14     14      14
  1311 ;; BANK0           80     34      79
  1312 ;; BANK1           80      0      10
  1313 ;; BANK3           96      0       0
  1314 ;; BANK2           96      0       0
  1315                           
  1316 ;;
  1317 ;; Pointer list with targets:
  1318                           
  1319 ;; ?___aldiv	long  size(1) Largest target is 0
  1320 ;;
  1321 ;; ?_count_read	int  size(1) Largest target is 0
  1322 ;;
  1323 ;; ?___awdiv	int  size(1) Largest target is 0
  1324 ;;
  1325 ;; ?___awmod	int  size(1) Largest target is 0
  1326 ;;
  1327 ;; ?_strlen	unsigned int  size(1) Largest target is 4
  1328 ;;		 -> buff(BANK0[4]), 
  1329 ;;
  1330 ;; ?___lwmod	unsigned int  size(1) Largest target is 0
  1331 ;;
  1332 ;; ?___lwdiv	unsigned int  size(1) Largest target is 0
  1333 ;;
  1334 ;; ?___wmul	unsigned int  size(1) Largest target is 0
  1335 ;;
  1336 ;; ?_GetADCValue	unsigned int  size(1) Largest target is 0
  1337 ;;
  1338 ;; strlen@s	PTR const unsigned char  size(1) Largest target is 4
  1339 ;;		 -> buff(BANK0[4]), 
  1340 ;;
  1341 ;; strlen@cp	PTR const unsigned char  size(1) Largest target is 4
  1342 ;;		 -> buff(BANK0[4]), 
  1343 ;;
  1344 ;; myitoa@p	PTR unsigned char  size(1) Largest target is 4
  1345 ;;		 -> buff(BANK0[4]), 
  1346 ;;
  1347 ;; rev@l	PTR unsigned char  size(1) Largest target is 4
  1348 ;;		 -> buff(BANK0[4]), 
  1349 ;;
  1350 ;; rev@buf	PTR unsigned char  size(1) Largest target is 4
  1351 ;;		 -> buff(BANK0[4]), 
  1352 ;;
  1353 ;; rev@f	PTR unsigned char  size(1) Largest target is 4
  1354 ;;		 -> buff(BANK0[4]), 
  1355 ;;
  1356 ;; Lcd_String@st	PTR const unsigned char  size(2) Largest target is 17
  1357 ;;		 -> STR_30(CODE[12]), STR_29(CODE[10]), STR_28(CODE[6]), STR_27(CODE[10]), 
  1358 ;;		 -> STR_26(CODE[6]), STR_25(CODE[15]), STR_24(CODE[12]), STR_23(CODE[6]), 
  1359 ;;		 -> STR_22(CODE[13]), STR_21(CODE[6]), STR_20(CODE[16]), STR_19(CODE[6]), 
  1360 ;;		 -> STR_18(CODE[10]), STR_17(CODE[7]), STR_16(CODE[15]), STR_15(CODE[11]), 
  1361 ;;		 -> STR_14(CODE[9]), STR_13(CODE[12]), STR_12(CODE[9]), STR_11(CODE[14]), 
  1362 ;;		 -> STR_10(CODE[14]), STR_9(CODE[13]), STR_8(CODE[15]), STR_7(CODE[16]), 
  1363 ;;		 -> STR_6(CODE[17]), STR_5(CODE[4]), STR_4(CODE[6]), STR_3(CODE[6]), 
  1364 ;;		 -> STR_2(CODE[17]), STR_1(CODE[16]), buff(BANK0[4]), 
  1365 ;;
  1366                           
  1367                           
  1368 ;;
  1369 ;; Critical Paths under _main in COMMON
  1370 ;;
  1371 ;;   _main->_DelayMs
  1372 ;;   _main->_myitoa
  1373 ;;   _enable_valves->_DelayMs
  1374 ;;   _enable_valves->_myitoa
  1375 ;;   _enable_valves->_count_read
  1376 ;;   _call_control_valve->_myitoa
  1377 ;;   _change_modes->_DelayMs
  1378 ;;   _change_modes->_count_read
  1379 ;;   _myitoa->_rev
  1380 ;;   _Num_Disp->_count_read
  1381 ;;   _Lcd_Init->_DelayMs
  1382 ;;   _control_valve->_DelayMs
  1383 ;;   _count_read->___wmul
  1384 ;;   _Write_ValveIn_Memory->_eeprom_write
  1385 ;;   _count_write->_eeprom_write
  1386 ;;   _Read_ValveFrom_Memory->_eeprom_read
  1387 ;;   _Print_Menu->_SendByteSerially
  1388 ;;   _Print_Name->_SendByteSerially
  1389 ;;   _Inidcate_Buzzer->_DelayMs
  1390 ;;   _Uart_Init->___aldiv
  1391 ;;   _rev->_strlen
  1392 ;;   _Lcd_Data->_DelayMs
  1393 ;;   _Lcd_Cmd->_DelayMs
  1394 ;;   ___lwdiv->___wmul
  1395 ;;   ___wmul->_eeprom_read
  1396 ;;   _eeprom_write->_eeprom_read
  1397 ;;   _eeprom_read->___bmul
  1398 ;;   _DelayMs->___wmul
  1399 ;;
  1400 ;; Critical Paths under _main in BANK0
  1401 ;;
  1402 ;;   _main->_enable_valves
  1403 ;;   _enable_valves->_call_control_valve
  1404 ;;   _Mode_Init->_call_control_valve
  1405 ;;   _call_control_valve->_Lcd_String
  1406 ;;   _change_modes->_Num_Disp
  1407 ;;   _print_yes_no->_Lcd_Cmd
  1408 ;;   _print_yes_no->_Lcd_Data
  1409 ;;   _myitoa->_rev
  1410 ;;   _Num_Disp->___lwdiv
  1411 ;;   _Lcd_String->_Lcd_Cmd
  1412 ;;   _Lcd_String->_Lcd_Data
  1413 ;;   _Lcd_Init->_Lcd_Cmd
  1414 ;;   _control_valve->_DelayMs
  1415 ;;   _Inidcate_Buzzer->_DelayMs
  1416 ;;   _Uart_Init->___aldiv
  1417 ;;   _Lcd_Data->_DelayMs
  1418 ;;   _Lcd_Cmd->_DelayMs
  1419 ;;
  1420 ;; Critical Paths under _main in BANK1
  1421 ;;
  1422 ;;   None.
  1423 ;;
  1424 ;; Critical Paths under _main in BANK3
  1425 ;;
  1426 ;;   None.
  1427 ;;
  1428 ;; Critical Paths under _main in BANK2
  1429 ;;
  1430 ;;   None.
  1431                           
  1432 ;;
  1433 ;;Main: autosize = 0, tempsize = 5, incstack = 0, save=0
  1434 ;;
  1435                           
  1436 ;;
  1437 ;;Call Graph Tables:
  1438 ;;
  1439 ;; ---------------------------------------------------------------------------------
  1440 ;; (Depth) Function   	        Calls       Base Space   Used Autos Params    Refs
  1441 ;; ---------------------------------------------------------------------------------
  1442 ;; (0) _main                                                 5     5      0   13999
  1443 ;;                                             29 BANK0      5     5      0
  1444 ;;                          _Port_Init
  1445 ;;                           _Lcd_Init
  1446 ;;                          _Uart_Init
  1447 ;;                    _Inidcate_Buzzer
  1448 ;;                         _Print_Name
  1449 ;;                            _InitADC
  1450 ;;                          _Mode_Init
  1451 ;;                        _GetADCValue
  1452 ;;                             ___wmul
  1453 ;;                            ___lwdiv
  1454 ;;                            _DelayMs
  1455 ;;                        _eeprom_read
  1456 ;;                             _myitoa
  1457 ;;                         _Lcd_String
  1458 ;;                            _Lcd_Cmd
  1459 ;;                          _key_press
  1460 ;;                      _enable_valves
  1461 ;;                       _change_modes
  1462 ;; ---------------------------------------------------------------------------------
  1463 ;; (1) _enable_valves                                       12    12      0    6919
  1464 ;;                                             19 BANK0     10    10      0
  1465 ;;                         _Print_Menu
  1466 ;;                    _Inidcate_Buzzer
  1467 ;;                        _eeprom_read
  1468 ;;                        _count_write
  1469 ;;                 _call_control_valve
  1470 ;;                         _Print_Name
  1471 ;;                          _key_press
  1472 ;;                        _offthevalve
  1473 ;;                       _eeprom_write
  1474 ;;                            _Lcd_Cmd
  1475 ;;                           _Num_Disp
  1476 ;;                            _DelayMs
  1477 ;;                             _myitoa
  1478 ;;                         _Lcd_String
  1479 ;;               _Write_ValveIn_Memory
  1480 ;;                       _print_yes_no
  1481 ;;                             ___bmul
  1482 ;;                   _SendByteSerially
  1483 ;;                            ___awdiv
  1484 ;;                           _Lcd_Data
  1485 ;;                         _onthevalve
  1486 ;;                             ___wmul
  1487 ;;                         _count_read
  1488 ;; ---------------------------------------------------------------------------------
  1489 ;; (1) _Mode_Init                                            3     3      0    2359
  1490 ;;                                             19 BANK0      3     3      0
  1491 ;;              _Read_ValveFrom_Memory
  1492 ;;                        _eeprom_read
  1493 ;;                   _SendByteSerially
  1494 ;;                       _eeprom_write
  1495 ;;                 _call_control_valve
  1496 ;; ---------------------------------------------------------------------------------
  1497 ;; (2) _call_control_valve                                  12    12      0    2043
  1498 ;;                                              9 BANK0     10    10      0
  1499 ;;                             ___bmul
  1500 ;;                        _eeprom_read
  1501 ;;                      _control_valve
  1502 ;;                            _Lcd_Cmd
  1503 ;;                             _myitoa
  1504 ;;                         _Lcd_String
  1505 ;;                       _eeprom_write
  1506 ;;                             ___wmul
  1507 ;; ---------------------------------------------------------------------------------
  1508 ;; (1) _change_modes                                         3     3      0    2138
  1509 ;;                                             17 BANK0      3     3      0
  1510 ;;                         _Print_Name
  1511 ;;                         _Lcd_String
  1512 ;;                            _DelayMs
  1513 ;;                            _Lcd_Cmd
  1514 ;;                           _Lcd_Data
  1515 ;;                       _print_yes_no
  1516 ;;                        _eeprom_read
  1517 ;;                         _count_read
  1518 ;;                           _Num_Disp
  1519 ;; ---------------------------------------------------------------------------------
  1520 ;; (2) _print_yes_no                                         2     2      0     378
  1521 ;;                                              5 BANK0      2     2      0
  1522 ;;              _Read_ValveFrom_Memory
  1523 ;;                            _Lcd_Cmd
  1524 ;;                           _Lcd_Data
  1525 ;; ---------------------------------------------------------------------------------
  1526 ;; (2) _myitoa                                               5     2      3    1066
  1527 ;;                                             11 COMMON     3     0      3
  1528 ;;                                              4 BANK0      2     2      0
  1529 ;;                            ___awmod
  1530 ;;                            ___awdiv
  1531 ;;                                _rev
  1532 ;; ---------------------------------------------------------------------------------
  1533 ;; (2) _Num_Disp                                            10     6      4     953
  1534 ;;                                              7 BANK0     10     6      4
  1535 ;;                             ___wmul
  1536 ;;                            ___lwdiv
  1537 ;;                           _Lcd_Data
  1538 ;;                            ___lwmod
  1539 ;;                         _count_read (ARG)
  1540 ;; ---------------------------------------------------------------------------------
  1541 ;; (2) _Lcd_String                                           4     0      4     313
  1542 ;;                                              5 BANK0      4     0      4
  1543 ;;                            _Lcd_Cmd
  1544 ;;                           _Lcd_Data
  1545 ;; ---------------------------------------------------------------------------------
  1546 ;; (1) _Lcd_Init                                             0     0      0     180
  1547 ;;                            _Lcd_Cmd
  1548 ;;                            _DelayMs
  1549 ;; ---------------------------------------------------------------------------------
  1550 ;; (3) _control_valve                                        4     0      4     204
  1551 ;;                                              3 BANK0      4     0      4
  1552 ;;                         _onthevalve
  1553 ;;                             ___wmul
  1554 ;;                            _DelayMs
  1555 ;;                        _offthevalve
  1556 ;;                        _eeprom_read (ARG)
  1557 ;;                             ___bmul (ARG)
  1558 ;; ---------------------------------------------------------------------------------
  1559 ;; (2) _count_read                                           8     6      2     158
  1560 ;;                                             12 COMMON     2     0      2
  1561 ;;                                              0 BANK0      6     6      0
  1562 ;;                        _eeprom_read
  1563 ;;                             ___wmul
  1564 ;; ---------------------------------------------------------------------------------
  1565 ;; (2) _Write_ValveIn_Memory                                15    14      1     550
  1566 ;;                                              9 COMMON     3     2      1
  1567 ;;                                              0 BANK0     12    12      0
  1568 ;;                       _eeprom_write
  1569 ;; ---------------------------------------------------------------------------------
  1570 ;; (2) _count_write                                          7     4      3     248
  1571 ;;                                              9 COMMON     4     1      3
  1572 ;;                                              0 BANK0      3     3      0
  1573 ;;                       _eeprom_write
  1574 ;;                        _eeprom_read
  1575 ;; ---------------------------------------------------------------------------------
  1576 ;; (3) _Read_ValveFrom_Memory                                4     4      0     132
  1577 ;;                                              6 COMMON     4     4      0
  1578 ;;                        _eeprom_read
  1579 ;; ---------------------------------------------------------------------------------
  1580 ;; (2) _Print_Menu                                           0     0      0      22
  1581 ;;                   _SendByteSerially
  1582 ;; ---------------------------------------------------------------------------------
  1583 ;; (2) _Print_Name                                           0     0      0      22
  1584 ;;                   _SendByteSerially
  1585 ;; ---------------------------------------------------------------------------------
  1586 ;; (2) _Inidcate_Buzzer                                      0     0      0      68
  1587 ;;                            _DelayMs
  1588 ;; ---------------------------------------------------------------------------------
  1589 ;; (1) _Uart_Init                                           18    14      4     456
  1590 ;;                                              9 COMMON     2     2      0
  1591 ;;                                              6 BANK0     16    12      4
  1592 ;;                            ___aldiv
  1593 ;; ---------------------------------------------------------------------------------
  1594 ;; (3) _rev                                                  5     5      0     337
  1595 ;;                                             10 COMMON     1     1      0
  1596 ;;                                              0 BANK0      4     4      0
  1597 ;;                             _strlen
  1598 ;; ---------------------------------------------------------------------------------
  1599 ;; (3) _Lcd_Data                                             2     2      0     112
  1600 ;;                                              3 BANK0      2     2      0
  1601 ;;                            _DelayMs
  1602 ;; ---------------------------------------------------------------------------------
  1603 ;; (3) _Lcd_Cmd                                              2     2      0     112
  1604 ;;                                              3 BANK0      2     2      0
  1605 ;;                            _DelayMs
  1606 ;; ---------------------------------------------------------------------------------
  1607 ;; (1) _GetADCValue                                          5     3      2      22
  1608 ;;                                              0 COMMON     5     3      2
  1609 ;; ---------------------------------------------------------------------------------
  1610 ;; (3) ___awmod                                              7     3      4     296
  1611 ;;                                              0 COMMON     7     3      4
  1612 ;; ---------------------------------------------------------------------------------
  1613 ;; (2) ___aldiv                                             15     7      8     300
  1614 ;;                                              0 COMMON     9     1      8
  1615 ;;                                              0 BANK0      6     6      0
  1616 ;; ---------------------------------------------------------------------------------
  1617 ;; (2) ___awdiv                                              9     5      4     300
  1618 ;;                                              0 COMMON     9     5      4
  1619 ;; ---------------------------------------------------------------------------------
  1620 ;; (3) ___lwmod                                              6     2      4     159
  1621 ;;                                              0 COMMON     6     2      4
  1622 ;; ---------------------------------------------------------------------------------
  1623 ;; (3) ___lwdiv                                              8     4      4     162
  1624 ;;                                             12 COMMON     1     1      0
  1625 ;;                                              0 BANK0      7     3      4
  1626 ;;                             ___wmul (ARG)
  1627 ;; ---------------------------------------------------------------------------------
  1628 ;; (3) ___wmul                                               6     2      4      92
  1629 ;;                                              6 COMMON     6     2      4
  1630 ;;                        _eeprom_read (ARG)
  1631 ;; ---------------------------------------------------------------------------------
  1632 ;; (2) ___bmul                                               4     3      1      92
  1633 ;;                                              0 COMMON     4     3      1
  1634 ;; ---------------------------------------------------------------------------------
  1635 ;; (2) _onthevalve                                           0     0      0       0
  1636 ;; ---------------------------------------------------------------------------------
  1637 ;; (2) _offthevalve                                          0     0      0       0
  1638 ;; ---------------------------------------------------------------------------------
  1639 ;; (3) _eeprom_write                                         3     2      1      50
  1640 ;;                                              6 COMMON     3     2      1
  1641 ;;                             ___bmul (ARG)
  1642 ;;                        _eeprom_read (ARG)
  1643 ;; ---------------------------------------------------------------------------------
  1644 ;; (3) _SendByteSerially                                     1     1      0      22
  1645 ;;                                              0 COMMON     1     1      0
  1646 ;; ---------------------------------------------------------------------------------
  1647 ;; (2) _key_press                                            1     1      0       0
  1648 ;;                                              0 COMMON     1     1      0
  1649 ;; ---------------------------------------------------------------------------------
  1650 ;; (3) _eeprom_read                                          2     1      1      22
  1651 ;;                                              4 COMMON     2     1      1
  1652 ;;                             ___bmul (ARG)
  1653 ;; ---------------------------------------------------------------------------------
  1654 ;; (1) _Port_Init                                            0     0      0       0
  1655 ;; ---------------------------------------------------------------------------------
  1656 ;; (4) _strlen                                              10     8      2      89
  1657 ;;                                              0 COMMON    10     8      2
  1658 ;; ---------------------------------------------------------------------------------
  1659 ;; (4) _DelayMs                                              5     3      2      68
  1660 ;;                                             12 COMMON     2     0      2
  1661 ;;                                              0 BANK0      3     3      0
  1662 ;;                             ___wmul (ARG)
  1663 ;; ---------------------------------------------------------------------------------
  1664 ;; (1) _InitADC                                              0     0      0       0
  1665 ;; ---------------------------------------------------------------------------------
  1666 ;; Estimated maximum stack depth 4
  1667 ;; ---------------------------------------------------------------------------------
  1668                           
  1669 ;; Call Graph Graphs:
  1670                           
  1671 ;; _main (ROOT)
  1672 ;;   _Port_Init
  1673 ;;   _Lcd_Init
  1674 ;;     _Lcd_Cmd
  1675 ;;       _DelayMs
  1676 ;;         ___wmul (ARG)
  1677 ;;           _eeprom_read (ARG)
  1678 ;;             ___bmul (ARG)
  1679 ;;     _DelayMs
  1680 ;;       ___wmul (ARG)
  1681 ;;         _eeprom_read (ARG)
  1682 ;;           ___bmul (ARG)
  1683 ;;   _Uart_Init
  1684 ;;     ___aldiv
  1685 ;;   _Inidcate_Buzzer
  1686 ;;     _DelayMs
  1687 ;;       ___wmul (ARG)
  1688 ;;         _eeprom_read (ARG)
  1689 ;;           ___bmul (ARG)
  1690 ;;   _Print_Name
  1691 ;;     _SendByteSerially
  1692 ;;   _InitADC
  1693 ;;   _Mode_Init
  1694 ;;     _Read_ValveFrom_Memory
  1695 ;;       _eeprom_read
  1696 ;;         ___bmul (ARG)
  1697 ;;     _eeprom_read
  1698 ;;       ___bmul (ARG)
  1699 ;;     _SendByteSerially
  1700 ;;     _eeprom_write
  1701 ;;       ___bmul (ARG)
  1702 ;;       _eeprom_read (ARG)
  1703 ;;         ___bmul (ARG)
  1704 ;;     _call_control_valve
  1705 ;;       ___bmul
  1706 ;;       _eeprom_read
  1707 ;;         ___bmul (ARG)
  1708 ;;       _control_valve
  1709 ;;         _onthevalve
  1710 ;;         ___wmul
  1711 ;;           _eeprom_read (ARG)
  1712 ;;             ___bmul (ARG)
  1713 ;;         _DelayMs
  1714 ;;           ___wmul (ARG)
  1715 ;;             _eeprom_read (ARG)
  1716 ;;               ___bmul (ARG)
  1717 ;;         _offthevalve
  1718 ;;         _eeprom_read (ARG)
  1719 ;;           ___bmul (ARG)
  1720 ;;         ___bmul (ARG)
  1721 ;;       _Lcd_Cmd
  1722 ;;         _DelayMs
  1723 ;;           ___wmul (ARG)
  1724 ;;             _eeprom_read (ARG)
  1725 ;;               ___bmul (ARG)
  1726 ;;       _myitoa
  1727 ;;         ___awmod
  1728 ;;         ___awdiv
  1729 ;;         _rev
  1730 ;;           _strlen
  1731 ;;       _Lcd_String
  1732 ;;         _Lcd_Cmd
  1733 ;;           _DelayMs
  1734 ;;             ___wmul (ARG)
  1735 ;;               _eeprom_read (ARG)
  1736 ;;                 ___bmul (ARG)
  1737 ;;         _Lcd_Data
  1738 ;;           _DelayMs
  1739 ;;             ___wmul (ARG)
  1740 ;;               _eeprom_read (ARG)
  1741 ;;                 ___bmul (ARG)
  1742 ;;       _eeprom_write
  1743 ;;         ___bmul (ARG)
  1744 ;;         _eeprom_read (ARG)
  1745 ;;           ___bmul (ARG)
  1746 ;;       ___wmul
  1747 ;;         _eeprom_read (ARG)
  1748 ;;           ___bmul (ARG)
  1749 ;;   _GetADCValue
  1750 ;;   ___wmul
  1751 ;;     _eeprom_read (ARG)
  1752 ;;       ___bmul (ARG)
  1753 ;;   ___lwdiv
  1754 ;;     ___wmul (ARG)
  1755 ;;       _eeprom_read (ARG)
  1756 ;;         ___bmul (ARG)
  1757 ;;   _DelayMs
  1758 ;;     ___wmul (ARG)
  1759 ;;       _eeprom_read (ARG)
  1760 ;;         ___bmul (ARG)
  1761 ;;   _eeprom_read
  1762 ;;     ___bmul (ARG)
  1763 ;;   _myitoa
  1764 ;;     ___awmod
  1765 ;;     ___awdiv
  1766 ;;     _rev
  1767 ;;       _strlen
  1768 ;;   _Lcd_String
  1769 ;;     _Lcd_Cmd
  1770 ;;       _DelayMs
  1771 ;;         ___wmul (ARG)
  1772 ;;           _eeprom_read (ARG)
  1773 ;;             ___bmul (ARG)
  1774 ;;     _Lcd_Data
  1775 ;;       _DelayMs
  1776 ;;         ___wmul (ARG)
  1777 ;;           _eeprom_read (ARG)
  1778 ;;             ___bmul (ARG)
  1779 ;;   _Lcd_Cmd
  1780 ;;     _DelayMs
  1781 ;;       ___wmul (ARG)
  1782 ;;         _eeprom_read (ARG)
  1783 ;;           ___bmul (ARG)
  1784 ;;   _key_press
  1785 ;;   _enable_valves
  1786 ;;     _Print_Menu
  1787 ;;       _SendByteSerially
  1788 ;;     _Inidcate_Buzzer
  1789 ;;       _DelayMs
  1790 ;;         ___wmul (ARG)
  1791 ;;           _eeprom_read (ARG)
  1792 ;;             ___bmul (ARG)
  1793 ;;     _eeprom_read
  1794 ;;       ___bmul (ARG)
  1795 ;;     _count_write
  1796 ;;       _eeprom_write
  1797 ;;         ___bmul (ARG)
  1798 ;;         _eeprom_read (ARG)
  1799 ;;           ___bmul (ARG)
  1800 ;;       _eeprom_read
  1801 ;;         ___bmul (ARG)
  1802 ;;     _call_control_valve
  1803 ;;       ___bmul
  1804 ;;       _eeprom_read
  1805 ;;         ___bmul (ARG)
  1806 ;;       _control_valve
  1807 ;;         _onthevalve
  1808 ;;         ___wmul
  1809 ;;           _eeprom_read (ARG)
  1810 ;;             ___bmul (ARG)
  1811 ;;         _DelayMs
  1812 ;;           ___wmul (ARG)
  1813 ;;             _eeprom_read (ARG)
  1814 ;;               ___bmul (ARG)
  1815 ;;         _offthevalve
  1816 ;;         _eeprom_read (ARG)
  1817 ;;           ___bmul (ARG)
  1818 ;;         ___bmul (ARG)
  1819 ;;       _Lcd_Cmd
  1820 ;;         _DelayMs
  1821 ;;           ___wmul (ARG)
  1822 ;;             _eeprom_read (ARG)
  1823 ;;               ___bmul (ARG)
  1824 ;;       _myitoa
  1825 ;;         ___awmod
  1826 ;;         ___awdiv
  1827 ;;         _rev
  1828 ;;           _strlen
  1829 ;;       _Lcd_String
  1830 ;;         _Lcd_Cmd
  1831 ;;           _DelayMs
  1832 ;;             ___wmul (ARG)
  1833 ;;               _eeprom_read (ARG)
  1834 ;;                 ___bmul (ARG)
  1835 ;;         _Lcd_Data
  1836 ;;           _DelayMs
  1837 ;;             ___wmul (ARG)
  1838 ;;               _eeprom_read (ARG)
  1839 ;;                 ___bmul (ARG)
  1840 ;;       _eeprom_write
  1841 ;;         ___bmul (ARG)
  1842 ;;         _eeprom_read (ARG)
  1843 ;;           ___bmul (ARG)
  1844 ;;       ___wmul
  1845 ;;         _eeprom_read (ARG)
  1846 ;;           ___bmul (ARG)
  1847 ;;     _Print_Name
  1848 ;;       _SendByteSerially
  1849 ;;     _key_press
  1850 ;;     _offthevalve
  1851 ;;     _eeprom_write
  1852 ;;       ___bmul (ARG)
  1853 ;;       _eeprom_read (ARG)
  1854 ;;         ___bmul (ARG)
  1855 ;;     _Lcd_Cmd
  1856 ;;       _DelayMs
  1857 ;;         ___wmul (ARG)
  1858 ;;           _eeprom_read (ARG)
  1859 ;;             ___bmul (ARG)
  1860 ;;     _Num_Disp
  1861 ;;       ___wmul
  1862 ;;         _eeprom_read (ARG)
  1863 ;;           ___bmul (ARG)
  1864 ;;       ___lwdiv
  1865 ;;         ___wmul (ARG)
  1866 ;;           _eeprom_read (ARG)
  1867 ;;             ___bmul (ARG)
  1868 ;;       _Lcd_Data
  1869 ;;         _DelayMs
  1870 ;;           ___wmul (ARG)
  1871 ;;             _eeprom_read (ARG)
  1872 ;;               ___bmul (ARG)
  1873 ;;       ___lwmod
  1874 ;;       _count_read (ARG)
  1875 ;;         _eeprom_read
  1876 ;;           ___bmul (ARG)
  1877 ;;         ___wmul
  1878 ;;           _eeprom_read (ARG)
  1879 ;;             ___bmul (ARG)
  1880 ;;     _DelayMs
  1881 ;;       ___wmul (ARG)
  1882 ;;         _eeprom_read (ARG)
  1883 ;;           ___bmul (ARG)
  1884 ;;     _myitoa
  1885 ;;       ___awmod
  1886 ;;       ___awdiv
  1887 ;;       _rev
  1888 ;;         _strlen
  1889 ;;     _Lcd_String
  1890 ;;       _Lcd_Cmd
  1891 ;;         _DelayMs
  1892 ;;           ___wmul (ARG)
  1893 ;;             _eeprom_read (ARG)
  1894 ;;               ___bmul (ARG)
  1895 ;;       _Lcd_Data
  1896 ;;         _DelayMs
  1897 ;;           ___wmul (ARG)
  1898 ;;             _eeprom_read (ARG)
  1899 ;;               ___bmul (ARG)
  1900 ;;     _Write_ValveIn_Memory
  1901 ;;       _eeprom_write
  1902 ;;         ___bmul (ARG)
  1903 ;;         _eeprom_read (ARG)
  1904 ;;           ___bmul (ARG)
  1905 ;;     _print_yes_no
  1906 ;;       _Read_ValveFrom_Memory
  1907 ;;         _eeprom_read
  1908 ;;           ___bmul (ARG)
  1909 ;;       _Lcd_Cmd
  1910 ;;         _DelayMs
  1911 ;;           ___wmul (ARG)
  1912 ;;             _eeprom_read (ARG)
  1913 ;;               ___bmul (ARG)
  1914 ;;       _Lcd_Data
  1915 ;;         _DelayMs
  1916 ;;           ___wmul (ARG)
  1917 ;;             _eeprom_read (ARG)
  1918 ;;               ___bmul (ARG)
  1919 ;;     ___bmul
  1920 ;;     _SendByteSerially
  1921 ;;     ___awdiv
  1922 ;;     _Lcd_Data
  1923 ;;       _DelayMs
  1924 ;;         ___wmul (ARG)
  1925 ;;           _eeprom_read (ARG)
  1926 ;;             ___bmul (ARG)
  1927 ;;     _onthevalve
  1928 ;;     ___wmul
  1929 ;;       _eeprom_read (ARG)
  1930 ;;         ___bmul (ARG)
  1931 ;;     _count_read
  1932 ;;       _eeprom_read
  1933 ;;         ___bmul (ARG)
  1934 ;;       ___wmul
  1935 ;;         _eeprom_read (ARG)
  1936 ;;           ___bmul (ARG)
  1937 ;;   _change_modes
  1938 ;;     _Print_Name
  1939 ;;       _SendByteSerially
  1940 ;;     _Lcd_String
  1941 ;;       _Lcd_Cmd
  1942 ;;         _DelayMs
  1943 ;;           ___wmul (ARG)
  1944 ;;             _eeprom_read (ARG)
  1945 ;;               ___bmul (ARG)
  1946 ;;       _Lcd_Data
  1947 ;;         _DelayMs
  1948 ;;           ___wmul (ARG)
  1949 ;;             _eeprom_read (ARG)
  1950 ;;               ___bmul (ARG)
  1951 ;;     _DelayMs
  1952 ;;       ___wmul (ARG)
  1953 ;;         _eeprom_read (ARG)
  1954 ;;           ___bmul (ARG)
  1955 ;;     _Lcd_Cmd
  1956 ;;       _DelayMs
  1957 ;;         ___wmul (ARG)
  1958 ;;           _eeprom_read (ARG)
  1959 ;;             ___bmul (ARG)
  1960 ;;     _Lcd_Data
  1961 ;;       _DelayMs
  1962 ;;         ___wmul (ARG)
  1963 ;;           _eeprom_read (ARG)
  1964 ;;             ___bmul (ARG)
  1965 ;;     _print_yes_no
  1966 ;;       _Read_ValveFrom_Memory
  1967 ;;         _eeprom_read
  1968 ;;           ___bmul (ARG)
  1969 ;;       _Lcd_Cmd
  1970 ;;         _DelayMs
  1971 ;;           ___wmul (ARG)
  1972 ;;             _eeprom_read (ARG)
  1973 ;;               ___bmul (ARG)
  1974 ;;       _Lcd_Data
  1975 ;;         _DelayMs
  1976 ;;           ___wmul (ARG)
  1977 ;;             _eeprom_read (ARG)
  1978 ;;               ___bmul (ARG)
  1979 ;;     _eeprom_read
  1980 ;;       ___bmul (ARG)
  1981 ;;     _count_read
  1982 ;;       _eeprom_read
  1983 ;;         ___bmul (ARG)
  1984 ;;       ___wmul
  1985 ;;         _eeprom_read (ARG)
  1986 ;;           ___bmul (ARG)
  1987 ;;     _Num_Disp
  1988 ;;       ___wmul
  1989 ;;         _eeprom_read (ARG)
  1990 ;;           ___bmul (ARG)
  1991 ;;       ___lwdiv
  1992 ;;         ___wmul (ARG)
  1993 ;;           _eeprom_read (ARG)
  1994 ;;             ___bmul (ARG)
  1995 ;;       _Lcd_Data
  1996 ;;         _DelayMs
  1997 ;;           ___wmul (ARG)
  1998 ;;             _eeprom_read (ARG)
  1999 ;;               ___bmul (ARG)
  2000 ;;       ___lwmod
  2001 ;;       _count_read (ARG)
  2002 ;;         _eeprom_read
  2003 ;;           ___bmul (ARG)
  2004 ;;         ___wmul
  2005 ;;           _eeprom_read (ARG)
  2006 ;;             ___bmul (ARG)
  2007 ;;
  2008                           
  2009 ;; Address spaces:
  2010                           
  2011 ;;Name               Size   Autos  Total    Cost      Usage
  2012 ;;BANK3               60      0       0       9        0.0%
  2013 ;;BITBANK3            60      0       0       8        0.0%
  2014 ;;SFR3                 0      0       0       4        0.0%
  2015 ;;BITSFR3              0      0       0       4        0.0%
  2016 ;;BANK2               60      0       0      11        0.0%
  2017 ;;BITBANK2            60      0       0      10        0.0%
  2018 ;;SFR2                 0      0       0       5        0.0%
  2019 ;;BITSFR2              0      0       0       5        0.0%
  2020 ;;SFR1                 0      0       0       2        0.0%
  2021 ;;BITSFR1              0      0       0       2        0.0%
  2022 ;;BANK1               50      0       A       7       12.5%
  2023 ;;BITBANK1            50      0       0       6        0.0%
  2024 ;;CODE                 0      0       0       0        0.0%
  2025 ;;DATA                 0      0      6C      12        0.0%
  2026 ;;ABS                  0      0      67       3        0.0%
  2027 ;;NULL                 0      0       0       0        0.0%
  2028 ;;STACK                0      0       5       2        0.0%
  2029 ;;BANK0               50     22      4F       5       98.8%
  2030 ;;BITBANK0            50      0       4       4        5.0%
  2031 ;;SFR0                 0      0       0       1        0.0%
  2032 ;;BITSFR0              0      0       0       1        0.0%
  2033 ;;COMMON               E      E       E       1      100.0%
  2034 ;;BITCOMMON            E      0       0       0        0.0%
  2035 ;;EEDATA             100      0       0       0        0.0%
  2036                           
  2037                           	global	_main
  2038                           psect	maintext,global,class=CODE,delta=2
  2039                           global __pmaintext
  2040  1437                     __pmaintext:
  2041                           
  2042 ;; *************** function _main *****************
  2043 ;; Defined at:
  2044 ;;		line 32 in file "F:\BEVERAGES_ENHANCEMENT\SOFTWARE_DESIGN\MASTER_PIC_16F877A\2015_09_13\Beverage.c"
  2045 ;; Parameters:    Size  Location     Type
  2046 ;;		None
  2047 ;; Auto vars:     Size  Location     Type
  2048 ;;		None
  2049 ;; Return value:  Size  Location     Type
  2050 ;;		None               void
  2051 ;; Registers used:
  2052 ;;		wreg, fsr0l, fsr0h, status,2, status,0, btemp+1, pclath, cstack
  2053 ;; Tracked objects:
  2054 ;;		On entry : 17F/0
  2055 ;;		On exit  : 0/0
  2056 ;;		Unchanged: 0/0
  2057 ;; Data sizes:     COMMON   BANK0   BANK1   BANK3   BANK2
  2058 ;;      Params:         0       0       0       0       0
  2059 ;;      Locals:         0       0       0       0       0
  2060 ;;      Temps:          0       5       0       0       0
  2061 ;;      Totals:         0       5       0       0       0
  2062 ;;Total ram usage:        5 bytes
  2063 ;; Hardware stack levels required when called:    5
  2064 ;; This function calls:
  2065 ;;		_Port_Init
  2066 ;;		_Lcd_Init
  2067 ;;		_Uart_Init
  2068 ;;		_Inidcate_Buzzer
  2069 ;;		_Print_Name
  2070 ;;		_InitADC
  2071 ;;		_Mode_Init
  2072 ;;		_GetADCValue
  2073 ;;		___wmul
  2074 ;;		___lwdiv
  2075 ;;		_DelayMs
  2076 ;;		_eeprom_read
  2077 ;;		_myitoa
  2078 ;;		_Lcd_String
  2079 ;;		_Lcd_Cmd
  2080 ;;		_key_press
  2081 ;;		_enable_valves
  2082 ;;		_change_modes
  2083 ;; This function is called by:
  2084 ;;		Startup code after reset
  2085 ;; This function uses a non-reentrant model
  2086 ;;
  2087                           psect	maintext
  2088                           	file	"F:\BEVERAGES_ENHANCEMENT\SOFTWARE_DESIGN\MASTER_PIC_16F877A\2015_09_13\Beverage.c
                                 "
  2089                           	line	32
  2090                           	global	__size_of_main
  2091  0123                     	__size_of_main	equ	__end_of_main-_main
  2092                           	
  2093  1437                     _main:	
  2094                           	opt	stack 3
  2095                           ; Regs used in _main: [wreg-fsr0h+status,2+status,0+btemp+1+pclath+cstack]
  2096                           	line	34
  2097                           	
  2098  1437                     l11001:	
  2099                           ;Beverage.c: 34: Port_Init();
  2100  1437  160A  158A  219E   	fcall	_Port_Init
              160A  118A         
  2101                           	line	35
  2102                           ;Beverage.c: 35: Lcd_Init();
  2103  143C  120A  118A  2004   	fcall	_Lcd_Init
              160A  118A         
  2104                           	line	36
  2105                           ;Beverage.c: 36: Uart_Init(38400);
  2106  1441  3000               	movlw	0
  2107  1442  1283               	bcf	status, 5	;RP0=0, select bank0
  2108  1443  1303               	bcf	status, 6	;RP1=0, select bank0
  2109  1444  00D2               	movwf	(?_Uart_Init+3)
  2110  1445  3000               	movlw	0
  2111  1446  00D1               	movwf	(?_Uart_Init+2)
  2112  1447  3096               	movlw	096h
  2113  1448  00D0               	movwf	(?_Uart_Init+1)
  2114  1449  3000               	movlw	0
  2115  144A  00CF               	movwf	(?_Uart_Init)
  2116                           
  2117  144B  120A  118A  2709   	fcall	_Uart_Init
              160A  118A         
  2118                           	line	37
  2119                           ;Beverage.c: 37: Inidcate_Buzzer();
  2120  1450  160A  158A  2176   	fcall	_Inidcate_Buzzer
              160A  118A         
  2121                           	line	38
  2122                           ;Beverage.c: 38: Print_Name();
  2123  1455  160A  158A  2150   	fcall	_Print_Name
              160A  118A         
  2124                           	line	39
  2125                           ;Beverage.c: 39: InitADC();
  2126  145A  160A  158A  2157   	fcall	_InitADC
              160A  118A         
  2127                           	line	40
  2128                           	
  2129  145F                     l11003:	
  2130                           ;Beverage.c: 40: Mode_Init();
  2131  145F  160A  118A  220C   	fcall	_Mode_Init
              160A  118A         
  2132                           	line	42
  2133                           	
  2134  1464                     l11005:	
  2135                           ;Beverage.c: 42: Enable_Config_Mode=1;
  2136  1464  1283               	bcf	status, 5	;RP0=0, select bank0
  2137  1465  1303               	bcf	status, 6	;RP1=0, select bank0
  2138  1466  15EB               	bsf	(_Enable_Config_Mode/8),(_Enable_Config_Mode)&7
  2139  1467  2C68               	goto	l11007
  2140                           	line	44
  2141                           ;Beverage.c: 44: while(1)
  2142                           	
  2143  1468                     l2250:	
  2144                           	line	46
  2145                           	
  2146  1468                     l11007:	
  2147                           ;Beverage.c: 45: {
  2148                           ;Beverage.c: 46: ADC_value=GetADCValue(0);
  2149  1468  3000               	movlw	(0)
  2150  1469  160A  158A  22DC   	fcall	_GetADCValue
              160A  118A         
  2151  146E  0871               	movf	(1+(?_GetADCValue)),w
  2152  146F  1283               	bcf	status, 5	;RP0=0, select bank0
  2153  1470  1303               	bcf	status, 6	;RP1=0, select bank0
  2154  1471  01AA               	clrf	(_ADC_value+1)
  2155  1472  07AA               	addwf	(_ADC_value+1)
  2156  1473  0870               	movf	(0+(?_GetADCValue)),w
  2157  1474  01A9               	clrf	(_ADC_value)
  2158  1475  07A9               	addwf	(_ADC_value)
  2159                           
  2160                           	line	47
  2161                           	
  2162  1476                     l11009:	
  2163                           ;Beverage.c: 47: temperature=(ADC_value*100)/204;
  2164  1476  30CC               	movlw	low(0CCh)
  2165  1477  00C9               	movwf	(?___lwdiv)
  2166  1478  3000               	movlw	high(0CCh)
  2167  1479  00CA               	movwf	((?___lwdiv))+1
  2168  147A  082A               	movf	(_ADC_value+1),w
  2169  147B  01F7               	clrf	(?___wmul+1)
  2170  147C  07F7               	addwf	(?___wmul+1)
  2171  147D  0829               	movf	(_ADC_value),w
  2172  147E  01F6               	clrf	(?___wmul)
  2173  147F  07F6               	addwf	(?___wmul)
  2174                           
  2175  1480  3064               	movlw	low(064h)
  2176  1481  00F8               	movwf	0+(?___wmul)+02h
  2177  1482  3000               	movlw	high(064h)
  2178  1483  00F9               	movwf	(0+(?___wmul)+02h)+1
  2179  1484  160A  158A  221B   	fcall	___wmul
              160A  118A         
  2180  1489  0877               	movf	(1+(?___wmul)),w
  2181  148A  1283               	bcf	status, 5	;RP0=0, select bank0
  2182  148B  1303               	bcf	status, 6	;RP1=0, select bank0
  2183  148C  01CC               	clrf	1+(?___lwdiv)+02h
  2184  148D  07CC               	addwf	1+(?___lwdiv)+02h
  2185  148E  0876               	movf	(0+(?___wmul)),w
  2186  148F  01CB               	clrf	0+(?___lwdiv)+02h
  2187  1490  07CB               	addwf	0+(?___lwdiv)+02h
  2188                           
  2189  1491  160A  158A  2553   	fcall	___lwdiv
              160A  118A         
  2190  1496  1283               	bcf	status, 5	;RP0=0, select bank0
  2191  1497  1303               	bcf	status, 6	;RP1=0, select bank0
  2192  1498  084A               	movf	(1+(?___lwdiv)),w
  2193  1499  01B2               	clrf	(_temperature+1)
  2194  149A  07B2               	addwf	(_temperature+1)
  2195  149B  0849               	movf	(0+(?___lwdiv)),w
  2196  149C  01B1               	clrf	(_temperature)
  2197  149D  07B1               	addwf	(_temperature)
  2198                           
  2199                           	line	48
  2200                           	
  2201  149E                     l11011:	
  2202                           ;Beverage.c: 48: DelayMs(100);
  2203  149E  3064               	movlw	low(064h)
  2204  149F  00FC               	movwf	(?_DelayMs)
  2205  14A0  3000               	movlw	high(064h)
  2206  14A1  00FD               	movwf	((?_DelayMs))+1
  2207  14A2  160A  158A  21F3   	fcall	_DelayMs
              160A  118A         
  2208                           	line	50
  2209                           	
  2210  14A7                     l11013:	
  2211                           ;Beverage.c: 50: if(temperature+10<=(eeprom_read(120)) && Enable_Config_Mode==1)
  2212  14A7  1283               	bcf	status, 5	;RP0=0, select bank0
  2213  14A8  1303               	bcf	status, 6	;RP1=0, select bank0
  2214  14A9  0831               	movf	(_temperature),w
  2215  14AA  3E0A               	addlw	low(0Ah)
  2216  14AB  00E6               	movwf	(??_main+0)+0
  2217  14AC  0832               	movf	(_temperature+1),w
  2218  14AD  1803               	skipnc
  2219  14AE  3E01               	addlw	1
  2220  14AF  3E00               	addlw	high(0Ah)
  2221  14B0  00E7               	movwf	1+(??_main+0)+0
  2222  14B1  3078               	movlw	(078h)
  2223  14B2  00E8               	movwf	(??_main+2)+0
  2224  14B3  0868               	movf	(??_main+2)+0,w
  2225  14B4  00F4               	movwf	(?_eeprom_read)
  2226  14B5  160A  158A  21B7   	fcall	_eeprom_read
              160A  118A         
  2227  14BA  1283               	bcf	status, 5	;RP0=0, select bank0
  2228  14BB  1303               	bcf	status, 6	;RP1=0, select bank0
  2229  14BC  00E9               	movwf	(??_main+3)+0
  2230  14BD  01EA               	clrf	(??_main+3)+0+1
  2231  14BE  0867               	movf	1+(??_main+0)+0,w
  2232  14BF  026A               	subwf	1+(??_main+3)+0,w
  2233  14C0  1D03               	skipz
  2234  14C1  2CC4               	goto	u7535
  2235  14C2  0866               	movf	0+(??_main+0)+0,w
  2236  14C3  0269               	subwf	0+(??_main+3)+0,w
  2237  14C4                     u7535:
  2238  14C4  1C03               	skipc
  2239  14C5  2CC7               	goto	u7531
  2240  14C6  2CC8               	goto	u7530
  2241  14C7                     u7531:
  2242  14C7  2D07               	goto	l2251
  2243  14C8                     u7530:
  2244                           	
  2245  14C8                     l11015:	
  2246  14C8  1DEB               	btfss	(_Enable_Config_Mode/8),(_Enable_Config_Mode)&7
  2247  14C9  2CCB               	goto	u7541
  2248  14CA  2CCC               	goto	u7540
  2249  14CB                     u7541:
  2250  14CB  2D07               	goto	l2251
  2251  14CC                     u7540:
  2252                           	line	52
  2253                           	
  2254  14CC                     l11017:	
  2255                           ;Beverage.c: 51: {
  2256                           ;Beverage.c: 52: RC3=1;
  2257  14CC  1587               	bsf	(59/8),(59)&7
  2258                           	line	53
  2259                           ;Beverage.c: 53: Enable_Normal_Mode=0;
  2260  14CD  13EC               	bcf	(_Enable_Normal_Mode/8),(_Enable_Normal_Mode)&7
  2261                           	line	54
  2262                           	
  2263  14CE                     l11019:	
  2264                           ;Beverage.c: 54: myitoa(temperature,buff);
  2265  14CE  0832               	movf	(_temperature+1),w
  2266  14CF  01FC               	clrf	(?_myitoa+1)
  2267  14D0  07FC               	addwf	(?_myitoa+1)
  2268  14D1  0831               	movf	(_temperature),w
  2269  14D2  01FB               	clrf	(?_myitoa)
  2270  14D3  07FB               	addwf	(?_myitoa)
  2271                           
  2272  14D4  3043               	movlw	(_buff)&0ffh
  2273  14D5  00E6               	movwf	(??_main+0)+0
  2274  14D6  0866               	movf	(??_main+0)+0,w
  2275  14D7  00FD               	movwf	0+(?_myitoa)+02h
  2276  14D8  160A  118A  2014   	fcall	_myitoa
              160A  118A         
  2277                           	line	55
  2278                           	
  2279  14DD                     l11021:	
  2280                           ;Beverage.c: 55: if(_temp_flag==0)
  2281  14DD  1283               	bcf	status, 5	;RP0=0, select bank0
  2282  14DE  1303               	bcf	status, 6	;RP1=0, select bank0
  2283  14DF  1A6E               	btfsc	(__temp_flag/8),(__temp_flag)&7
  2284  14E0  2CE2               	goto	u7551
  2285  14E1  2CE3               	goto	u7550
  2286  14E2                     u7551:
  2287  14E2  2CF1               	goto	l11025
  2288  14E3                     u7550:
  2289                           	line	56
  2290                           	
  2291  14E3                     l11023:	
  2292                           ;Beverage.c: 56: Lcd_String("LOW TEMPERATURE",1,0);
  2293  14E3  3042               	movlw	low(STR_1|8000h)
  2294  14E4  00CE               	movwf	(?_Lcd_String)
  2295  14E5  3098               	movlw	high(STR_1|8000h)
  2296  14E6  00CF               	movwf	((?_Lcd_String))+1
  2297  14E7  01D0               	clrf	0+(?_Lcd_String)+02h
  2298  14E8  1403               	bsf	status,0
  2299  14E9  0DD0               	rlf	0+(?_Lcd_String)+02h,f
  2300  14EA  01D1               	clrf	0+(?_Lcd_String)+03h
  2301  14EB  160A  158A  2509   	fcall	_Lcd_String
              160A  118A         
  2302  14F0  2CF1               	goto	l11025
  2303                           	
  2304  14F1                     l2252:	
  2305                           	line	57
  2306                           	
  2307  14F1                     l11025:	
  2308                           ;Beverage.c: 57: Lcd_Cmd(0xC7);
  2309  14F1  30C7               	movlw	(0C7h)
  2310  14F2  160A  158A  2314   	fcall	_Lcd_Cmd
              160A  118A         
  2311                           	line	58
  2312                           	
  2313  14F7                     l11027:	
  2314                           ;Beverage.c: 58: Lcd_String(buff,0,0);
  2315  14F7  3043               	movlw	(_buff&0ffh)
  2316  14F8  1283               	bcf	status, 5	;RP0=0, select bank0
  2317  14F9  1303               	bcf	status, 6	;RP1=0, select bank0
  2318  14FA  00CE               	movwf	(?_Lcd_String)
  2319  14FB  3000               	movlw	(0x0/2)
  2320  14FC  00CF               	movwf	(?_Lcd_String+1)
  2321  14FD  01D0               	clrf	0+(?_Lcd_String)+02h
  2322  14FE  01D1               	clrf	0+(?_Lcd_String)+03h
  2323  14FF  160A  158A  2509   	fcall	_Lcd_String
              160A  118A         
  2324                           	line	59
  2325                           	
  2326  1504                     l11029:	
  2327                           ;Beverage.c: 59: _temp_flag=1;
  2328  1504  1283               	bcf	status, 5	;RP0=0, select bank0
  2329  1505  1303               	bcf	status, 6	;RP1=0, select bank0
  2330  1506  166E               	bsf	(__temp_flag/8),(__temp_flag)&7
  2331                           	line	60
  2332                           	
  2333  1507                     l2251:	
  2334                           	line	61
  2335                           ;Beverage.c: 60: }
  2336                           ;Beverage.c: 61: if(temperature>eeprom_read(120) && _temp_flag==1)
  2337  1507  3078               	movlw	(078h)
  2338  1508  00E6               	movwf	(??_main+0)+0
  2339  1509  0866               	movf	(??_main+0)+0,w
  2340  150A  00F4               	movwf	(?_eeprom_read)
  2341  150B  160A  158A  21B7   	fcall	_eeprom_read
              160A  118A         
  2342  1510  1283               	bcf	status, 5	;RP0=0, select bank0
  2343  1511  1303               	bcf	status, 6	;RP1=0, select bank0
  2344  1512  00E7               	movwf	(??_main+1)+0
  2345  1513  01E8               	clrf	(??_main+1)+0+1
  2346  1514  0832               	movf	(_temperature+1),w
  2347  1515  0268               	subwf	1+(??_main+1)+0,w
  2348  1516  1D03               	skipz
  2349  1517  2D1A               	goto	u7565
  2350  1518  0831               	movf	(_temperature),w
  2351  1519  0267               	subwf	0+(??_main+1)+0,w
  2352  151A                     u7565:
  2353  151A  1803               	skipnc
  2354  151B  2D1D               	goto	u7561
  2355  151C  2D1E               	goto	u7560
  2356  151D                     u7561:
  2357  151D  2D46               	goto	l11047
  2358  151E                     u7560:
  2359                           	
  2360  151E                     l11031:	
  2361  151E  1E6E               	btfss	(__temp_flag/8),(__temp_flag)&7
  2362  151F  2D21               	goto	u7571
  2363  1520  2D22               	goto	u7570
  2364  1521                     u7571:
  2365  1521  2D46               	goto	l11047
  2366  1522                     u7570:
  2367                           	line	63
  2368                           	
  2369  1522                     l11033:	
  2370                           ;Beverage.c: 62: {
  2371                           ;Beverage.c: 63: RC3=0;
  2372  1522  1187               	bcf	(59/8),(59)&7
  2373                           	line	64
  2374                           	
  2375  1523                     l11035:	
  2376                           ;Beverage.c: 64: Lcd_String("HAVE A HOT SIP !",1,0);
  2377  1523  3011               	movlw	low(STR_2|8000h)
  2378  1524  00CE               	movwf	(?_Lcd_String)
  2379  1525  3098               	movlw	high(STR_2|8000h)
  2380  1526  00CF               	movwf	((?_Lcd_String))+1
  2381  1527  01D0               	clrf	0+(?_Lcd_String)+02h
  2382  1528  1403               	bsf	status,0
  2383  1529  0DD0               	rlf	0+(?_Lcd_String)+02h,f
  2384  152A  01D1               	clrf	0+(?_Lcd_String)+03h
  2385  152B  160A  158A  2509   	fcall	_Lcd_String
              160A  118A         
  2386                           	line	65
  2387                           	
  2388  1530                     l11037:	
  2389                           ;Beverage.c: 65: DelayMs(1500);
  2390  1530  30DC               	movlw	low(05DCh)
  2391  1531  00FC               	movwf	(?_DelayMs)
  2392  1532  3005               	movlw	high(05DCh)
  2393  1533  00FD               	movwf	((?_DelayMs))+1
  2394  1534  160A  158A  21F3   	fcall	_DelayMs
              160A  118A         
  2395                           	line	66
  2396                           	
  2397  1539                     l11039:	
  2398                           ;Beverage.c: 66: Enable_Normal_Mode=1;
  2399  1539  1283               	bcf	status, 5	;RP0=0, select bank0
  2400  153A  1303               	bcf	status, 6	;RP1=0, select bank0
  2401  153B  17EC               	bsf	(_Enable_Normal_Mode/8),(_Enable_Normal_Mode)&7
  2402                           	line	67
  2403                           	
  2404  153C                     l11041:	
  2405                           ;Beverage.c: 67: Enable_Config_Mode=1;
  2406  153C  15EB               	bsf	(_Enable_Config_Mode/8),(_Enable_Config_Mode)&7
  2407                           	line	68
  2408                           	
  2409  153D                     l11043:	
  2410                           ;Beverage.c: 68: Print_Name();
  2411  153D  160A  158A  2150   	fcall	_Print_Name
              160A  118A         
  2412                           	line	69
  2413                           	
  2414  1542                     l11045:	
  2415                           ;Beverage.c: 69: _temp_flag=0;
  2416  1542  1283               	bcf	status, 5	;RP0=0, select bank0
  2417  1543  1303               	bcf	status, 6	;RP1=0, select bank0
  2418  1544  126E               	bcf	(__temp_flag/8),(__temp_flag)&7
  2419  1545  2D46               	goto	l11047
  2420                           	line	70
  2421                           	
  2422  1546                     l2253:	
  2423                           	line	71
  2424                           	
  2425  1546                     l11047:	
  2426                           ;Beverage.c: 70: }
  2427                           ;Beverage.c: 71: key_press();
  2428  1546  160A  118A  2065   	fcall	_key_press
              160A  118A         
  2429                           	line	72
  2430                           	
  2431  154B                     l11049:	
  2432                           ;Beverage.c: 72: enable_valves();
  2433  154B  160A  118A  255A   	fcall	_enable_valves
              160A  118A         
  2434                           	line	73
  2435                           	
  2436  1550                     l11051:	
  2437                           ;Beverage.c: 73: change_modes();
  2438  1550  120A  118A  20F8   	fcall	_change_modes
              160A  118A         
  2439  1555  2C68               	goto	l11007
  2440                           	line	74
  2441                           	
  2442  1556                     l2254:	
  2443                           	line	44
  2444  1556  2C68               	goto	l11007
  2445                           	
  2446  1557                     l2255:	
  2447                           	line	75
  2448                           	
  2449  1557                     l2256:	
  2450                           	global	start
  2451  1557  120A  118A  2800   	ljmp	start
  2452                           	opt stack 0
  2453                           GLOBAL	__end_of_main
  2454  155A                     	__end_of_main:
  2455 ;; =============== function _main ends ============
  2456                           
  2457                           	signat	_main,88
  2458                           	global	_enable_valves
  2459                           psect	text848,local,class=CODE,delta=2
  2460                           global __ptext848
  2461  155A                     __ptext848:
  2462                           
  2463 ;; *************** function _enable_valves *****************
  2464 ;; Defined at:
  2465 ;;		line 153 in file "F:\BEVERAGES_ENHANCEMENT\SOFTWARE_DESIGN\MASTER_PIC_16F877A\2015_09_13\Beverage_services.c"
  2466 ;; Parameters:    Size  Location     Type
  2467 ;;		None
  2468 ;; Auto vars:     Size  Location     Type
  2469 ;;  index           1   28[BANK0 ] unsigned char 
  2470 ;;  i               2   26[BANK0 ] unsigned int 
  2471 ;; Return value:  Size  Location     Type
  2472 ;;		None               void
  2473 ;; Registers used:
  2474 ;;		wreg, fsr0l, fsr0h, status,2, status,0, btemp+1, pclath, cstack
  2475 ;; Tracked objects:
  2476 ;;		On entry : 0/0
  2477 ;;		On exit  : 0/0
  2478 ;;		Unchanged: 0/0
  2479 ;; Data sizes:     COMMON   BANK0   BANK1   BANK3   BANK2
  2480 ;;      Params:         0       0       0       0       0
  2481 ;;      Locals:         0       5       0       0       0
  2482 ;;      Temps:          0       5       0       0       0
  2483 ;;      Totals:         0      10       0       0       0
  2484 ;;Total ram usage:       10 bytes
  2485 ;; Hardware stack levels used:    1
  2486 ;; Hardware stack levels required when called:    4
  2487 ;; This function calls:
  2488 ;;		_Print_Menu
  2489 ;;		_Inidcate_Buzzer
  2490 ;;		_eeprom_read
  2491 ;;		_count_write
  2492 ;;		_call_control_valve
  2493 ;;		_Print_Name
  2494 ;;		_key_press
  2495 ;;		_offthevalve
  2496 ;;		_eeprom_write
  2497 ;;		_Lcd_Cmd
  2498 ;;		_Num_Disp
  2499 ;;		_DelayMs
  2500 ;;		_myitoa
  2501 ;;		_Lcd_String
  2502 ;;		_Write_ValveIn_Memory
  2503 ;;		_print_yes_no
  2504 ;;		___bmul
  2505 ;;		_SendByteSerially
  2506 ;;		___awdiv
  2507 ;;		_Lcd_Data
  2508 ;;		_onthevalve
  2509 ;;		___wmul
  2510 ;;		_count_read
  2511 ;; This function is called by:
  2512 ;;		_main
  2513 ;; This function uses a non-reentrant model
  2514 ;;
  2515                           psect	text848
  2516                           	file	"F:\BEVERAGES_ENHANCEMENT\SOFTWARE_DESIGN\MASTER_PIC_16F877A\2015_09_13\Beverage_s
                                 ervices.c"
  2517                           	line	153
  2518                           	global	__size_of_enable_valves
  2519  EAA6                     	__size_of_enable_valves	equ	__end_of_enable_valves-_enable_valves
  2520                           	
  2521  155A                     _enable_valves:	
  2522                           	opt	stack 3
  2523                           ; Regs used in _enable_valves: [wreg-fsr0h+status,2+status,0+btemp+1+pclath+cstack]
  2524                           	line	154
  2525                           	
  2526  155A                     l10263:	
  2527                           ;Beverage_services.c: 154: if(Enable_Normal_Mode && (_PRESSED!=_MENU_BUTTON))
  2528  155A  1283               	bcf	status, 5	;RP0=0, select bank0
  2529  155B  1303               	bcf	status, 6	;RP1=0, select bank0
  2530  155C  1FEC               	btfss	(_Enable_Normal_Mode/8),(_Enable_Normal_Mode)&7
  2531  155D  2D5F               	goto	u6261
  2532  155E  2D60               	goto	u6260
  2533  155F                     u6261:
  2534  155F  2E14               	goto	l10305
  2535  1560                     u6260:
  2536                           	
  2537  1560                     l10265:	
  2538  1560  083B               	movf	(__PRESSED),w
  2539  1561  3A0A               	xorlw	0Ah
  2540  1562  1903               	skipnz
  2541  1563  2D65               	goto	u6271
  2542  1564  2D66               	goto	u6270
  2543  1565                     u6271:
  2544  1565  2E14               	goto	l10305
  2545  1566                     u6270:
  2546                           	line	156
  2547                           	
  2548  1566                     l10267:	
  2549                           ;Beverage_services.c: 155: {
  2550                           ;Beverage_services.c: 156: Print_Menu();
  2551  1566  120A  158A  2002   	fcall	_Print_Menu
              160A  118A         
  2552                           	line	157
  2553                           	
  2554  156B                     l10269:	
  2555                           ;Beverage_services.c: 157: if(_PRESSED==_HOT_WATER_BUTTON)
  2556  156B  1283               	bcf	status, 5	;RP0=0, select bank0
  2557  156C  1303               	bcf	status, 6	;RP1=0, select bank0
  2558  156D  083B               	movf	(__PRESSED),w
  2559  156E  3A09               	xorlw	09h
  2560  156F  1D03               	skipz
  2561  1570  2D72               	goto	u6281
  2562  1571  2D73               	goto	u6280
  2563  1572                     u6281:
  2564  1572  2D75               	goto	l10273
  2565  1573                     u6280:
  2566                           	line	158
  2567                           	
  2568  1573                     l10271:	
  2569                           ;Beverage_services.c: 158: Enable_Hot_Water_Valve=1;
  2570  1573  156C               	bsf	(_Enable_Hot_Water_Valve/8),(_Enable_Hot_Water_Valve)&7
  2571  1574  2D75               	goto	l10273
  2572                           	
  2573  1575                     l3142:	
  2574                           	line	160
  2575                           	
  2576  1575                     l10273:	
  2577                           ;Beverage_services.c: 160: if(_PRESSED)
  2578  1575  083B               	movf	(__PRESSED),w
  2579  1576  1D03               	skipz
  2580  1577  2D79               	goto	u6290
  2581  1578  2E14               	goto	l10305
  2582  1579                     u6290:
  2583                           	line	162
  2584                           	
  2585  1579                     l10275:	
  2586                           ;Beverage_services.c: 161: {
  2587                           ;Beverage_services.c: 162: if(MENU[_PRESSED-1].COFFEE_DICATION)
  2588  1579  083B               	movf	(__PRESSED),w
  2589  157A  3EFF               	addlw	0FFh
  2590  157B  3E20               	addlw	_MENU&0ffh
  2591  157C  0084               	movwf	fsr0
  2592  157D  1383               	bcf	status, 7	;select IRP bank0
  2593  157E  1C00               	btfss	indf,0
  2594  157F  2D81               	goto	u6301
  2595  1580  2D82               	goto	u6300
  2596  1581                     u6301:
  2597  1581  2D84               	goto	l10279
  2598  1582                     u6300:
  2599                           	line	164
  2600                           	
  2601  1582                     l10277:	
  2602                           ;Beverage_services.c: 163: {
  2603                           ;Beverage_services.c: 164: Enable_Coffee_Valve = 1;
  2604  1582  156B               	bsf	(_Enable_Coffee_Valve/8),(_Enable_Coffee_Valve)&7
  2605  1583  2D84               	goto	l10279
  2606                           	line	165
  2607                           	
  2608  1584                     l3144:	
  2609                           	line	166
  2610                           	
  2611  1584                     l10279:	
  2612                           ;Beverage_services.c: 165: }
  2613                           ;Beverage_services.c: 166: if(MENU[_PRESSED-1].TEA_DICATION)
  2614  1584  083B               	movf	(__PRESSED),w
  2615  1585  3EFF               	addlw	0FFh
  2616  1586  3E20               	addlw	_MENU&0ffh
  2617  1587  0084               	movwf	fsr0
  2618  1588  1C80               	btfss	indf,1
  2619  1589  2D8B               	goto	u6311
  2620  158A  2D8C               	goto	u6310
  2621  158B                     u6311:
  2622  158B  2D8E               	goto	l10283
  2623  158C                     u6310:
  2624                           	line	168
  2625                           	
  2626  158C                     l10281:	
  2627                           ;Beverage_services.c: 167: {
  2628                           ;Beverage_services.c: 168: Enable_Tea_Valve = 1;
  2629  158C  16ED               	bsf	(_Enable_Tea_Valve/8),(_Enable_Tea_Valve)&7
  2630  158D  2D8E               	goto	l10283
  2631                           	line	169
  2632                           	
  2633  158E                     l3145:	
  2634                           	line	170
  2635                           	
  2636  158E                     l10283:	
  2637                           ;Beverage_services.c: 169: }
  2638                           ;Beverage_services.c: 170: if(MENU[_PRESSED-1].MIXING_HOT_WATER)
  2639  158E  083B               	movf	(__PRESSED),w
  2640  158F  3EFF               	addlw	0FFh
  2641  1590  3E20               	addlw	_MENU&0ffh
  2642  1591  0084               	movwf	fsr0
  2643  1592  1D00               	btfss	indf,2
  2644  1593  2D95               	goto	u6321
  2645  1594  2D96               	goto	u6320
  2646  1595                     u6321:
  2647  1595  2D98               	goto	l10287
  2648  1596                     u6320:
  2649                           	line	172
  2650                           	
  2651  1596                     l10285:	
  2652                           ;Beverage_services.c: 171: {
  2653                           ;Beverage_services.c: 172: Enable_Mixing_Hot_Water_Valve = 1;
  2654  1596  176C               	bsf	(_Enable_Mixing_Hot_Water_Valve/8),(_Enable_Mixing_Hot_Water_Valve)&7
  2655  1597  2D98               	goto	l10287
  2656                           	line	173
  2657                           	
  2658  1598                     l3146:	
  2659                           	line	174
  2660                           	
  2661  1598                     l10287:	
  2662                           ;Beverage_services.c: 173: }
  2663                           ;Beverage_services.c: 174: if(MENU[_PRESSED-1].MILK)
  2664  1598  083B               	movf	(__PRESSED),w
  2665  1599  3EFF               	addlw	0FFh
  2666  159A  3E20               	addlw	_MENU&0ffh
  2667  159B  0084               	movwf	fsr0
  2668  159C  1D80               	btfss	indf,3
  2669  159D  2D9F               	goto	u6331
  2670  159E  2DA0               	goto	u6330
  2671  159F                     u6331:
  2672  159F  2DA3               	goto	l10291
  2673  15A0                     u6330:
  2674                           	line	176
  2675                           	
  2676  15A0                     l10289:	
  2677                           ;Beverage_services.c: 175: {
  2678                           ;Beverage_services.c: 176: Enable_Milk_Forward = 1;
  2679  15A0  15EC               	bsf	(_Enable_Milk_Forward/8),(_Enable_Milk_Forward)&7
  2680                           	line	177
  2681                           ;Beverage_services.c: 177: Enable_Milk_Reverse = 1;
  2682  15A1  166C               	bsf	(_Enable_Milk_Reverse/8),(_Enable_Milk_Reverse)&7
  2683  15A2  2DA3               	goto	l10291
  2684                           	line	178
  2685                           	
  2686  15A3                     l3147:	
  2687                           	line	179
  2688                           	
  2689  15A3                     l10291:	
  2690                           ;Beverage_services.c: 178: }
  2691                           ;Beverage_services.c: 179: if(MENU[_PRESSED-1].VIBR_MOTOR)
  2692  15A3  083B               	movf	(__PRESSED),w
  2693  15A4  3EFF               	addlw	0FFh
  2694  15A5  3E20               	addlw	_MENU&0ffh
  2695  15A6  0084               	movwf	fsr0
  2696  15A7  1E00               	btfss	indf,4
  2697  15A8  2DAA               	goto	u6341
  2698  15A9  2DAB               	goto	u6340
  2699  15AA                     u6341:
  2700  15AA  2DAD               	goto	l10295
  2701  15AB                     u6340:
  2702                           	line	181
  2703                           	
  2704  15AB                     l10293:	
  2705                           ;Beverage_services.c: 180: {
  2706                           ;Beverage_services.c: 181: Enable_Viber_Motor = 1;
  2707  15AB  146E               	bsf	(_Enable_Viber_Motor/8),(_Enable_Viber_Motor)&7
  2708  15AC  2DAD               	goto	l10295
  2709                           	line	182
  2710                           	
  2711  15AD                     l3148:	
  2712                           	line	184
  2713                           	
  2714  15AD                     l10295:	
  2715                           ;Beverage_services.c: 182: }
  2716                           ;Beverage_services.c: 184: Inidcate_Buzzer();
  2717  15AD  160A  158A  2176   	fcall	_Inidcate_Buzzer
              160A  118A         
  2718                           	line	185
  2719                           	
  2720  15B2                     l10297:	
  2721                           ;Beverage_services.c: 185: if(_PRESSED!=_EXTRA_BUTTON)
  2722  15B2  1283               	bcf	status, 5	;RP0=0, select bank0
  2723  15B3  1303               	bcf	status, 6	;RP1=0, select bank0
  2724  15B4  083B               	movf	(__PRESSED),w
  2725  15B5  3A08               	xorlw	08h
  2726  15B6  1903               	skipnz
  2727  15B7  2DB9               	goto	u6351
  2728  15B8  2DBA               	goto	u6350
  2729  15B9                     u6351:
  2730  15B9  2E08               	goto	l10301
  2731  15BA                     u6350:
  2732                           	line	187
  2733                           	
  2734  15BA                     l10299:	
  2735                           ;Beverage_services.c: 186: {
  2736                           ;Beverage_services.c: 187: count_write(126,127,eeprom_read(126)+1);
  2737  15BA  307E               	movlw	(07Eh)
  2738  15BB  00DC               	movwf	(??_enable_valves+0)+0
  2739  15BC  085C               	movf	(??_enable_valves+0)+0,w
  2740  15BD  00F4               	movwf	(?_eeprom_read)
  2741  15BE  160A  158A  21B7   	fcall	_eeprom_read
              160A  118A         
  2742  15C3  3E01               	addlw	low(01h)
  2743  15C4  1283               	bcf	status, 5	;RP0=0, select bank0
  2744  15C5  1303               	bcf	status, 6	;RP1=0, select bank0
  2745  15C6  00E1               	movwf	(_enable_valves$6338)
  2746  15C7  3000               	movlw	high(01h)
  2747  15C8  1803               	skipnc
  2748  15C9  3001               	movlw	(high(01h)+1)&0ffh
  2749  15CA  00E2               	movwf	((_enable_valves$6338))+1
  2750                           ;Beverage_services.c: 186: {
  2751                           ;Beverage_services.c: 187: count_write(126,127,eeprom_read(126)+1);
  2752  15CB  307F               	movlw	(07Fh)
  2753  15CC  00DC               	movwf	(??_enable_valves+0)+0
  2754  15CD  085C               	movf	(??_enable_valves+0)+0,w
  2755  15CE  00F9               	movwf	(?_count_write)
  2756  15CF  0862               	movf	(_enable_valves$6338+1),w
  2757  15D0  01FB               	clrf	1+(?_count_write)+01h
  2758  15D1  07FB               	addwf	1+(?_count_write)+01h
  2759  15D2  0861               	movf	(_enable_valves$6338),w
  2760  15D3  01FA               	clrf	0+(?_count_write)+01h
  2761  15D4  07FA               	addwf	0+(?_count_write)+01h
  2762                           
  2763  15D5  307E               	movlw	(07Eh)
  2764  15D6  160A  158A  23FB   	fcall	_count_write
              160A  118A         
  2765                           	line	188
  2766                           ;Beverage_services.c: 188: count_write(126+(_PRESSED*2),127+(_PRESSED*2),eeprom_read(126
                                 +(_PRESSED*2))+1);
  2767  15DB  1283               	bcf	status, 5	;RP0=0, select bank0
  2768  15DC  1303               	bcf	status, 6	;RP1=0, select bank0
  2769  15DD  083B               	movf	(__PRESSED),w
  2770  15DE  00DC               	movwf	(??_enable_valves+0)+0
  2771  15DF  075C               	addwf	(??_enable_valves+0)+0,w
  2772  15E0  3E7E               	addlw	07Eh
  2773  15E1  00DD               	movwf	(??_enable_valves+1)+0
  2774  15E2  085D               	movf	(??_enable_valves+1)+0,w
  2775  15E3  00F4               	movwf	(?_eeprom_read)
  2776  15E4  160A  158A  21B7   	fcall	_eeprom_read
              160A  118A         
  2777  15E9  3E01               	addlw	low(01h)
  2778  15EA  1283               	bcf	status, 5	;RP0=0, select bank0
  2779  15EB  1303               	bcf	status, 6	;RP1=0, select bank0
  2780  15EC  00E1               	movwf	(_enable_valves$6338)
  2781  15ED  3000               	movlw	high(01h)
  2782  15EE  1803               	skipnc
  2783  15EF  3001               	movlw	(high(01h)+1)&0ffh
  2784  15F0  00E2               	movwf	((_enable_valves$6338))+1
  2785                           ;Beverage_services.c: 188: count_write(126+(_PRESSED*2),127+(_PRESSED*2),eeprom_read(126
                                 +(_PRESSED*2))+1);
  2786  15F1  083B               	movf	(__PRESSED),w
  2787  15F2  00DC               	movwf	(??_enable_valves+0)+0
  2788  15F3  075C               	addwf	(??_enable_valves+0)+0,w
  2789  15F4  3E7F               	addlw	07Fh
  2790  15F5  00DD               	movwf	(??_enable_valves+1)+0
  2791  15F6  085D               	movf	(??_enable_valves+1)+0,w
  2792  15F7  00F9               	movwf	(?_count_write)
  2793  15F8  0862               	movf	(_enable_valves$6338+1),w
  2794  15F9  01FB               	clrf	1+(?_count_write)+01h
  2795  15FA  07FB               	addwf	1+(?_count_write)+01h
  2796  15FB  0861               	movf	(_enable_valves$6338),w
  2797  15FC  01FA               	clrf	0+(?_count_write)+01h
  2798  15FD  07FA               	addwf	0+(?_count_write)+01h
  2799                           
  2800  15FE  083B               	movf	(__PRESSED),w
  2801  15FF  00DE               	movwf	(??_enable_valves+2)+0
  2802  1600  075E               	addwf	(??_enable_valves+2)+0,w
  2803  1601  3E7E               	addlw	07Eh
  2804  1602  160A  158A  23FB   	fcall	_count_write
              160A  118A         
  2805  1607  2E08               	goto	l10301
  2806                           	line	189
  2807                           	
  2808  1608                     l3149:	
  2809                           	line	190
  2810                           	
  2811  1608                     l10301:	
  2812                           ;Beverage_services.c: 189: }
  2813                           ;Beverage_services.c: 190: call_control_valve();
  2814  1608  120A  118A  23DB   	fcall	_call_control_valve
              160A  118A         
  2815                           	line	191
  2816                           	
  2817  160D                     l10303:	
  2818                           ;Beverage_services.c: 191: Print_Name();
  2819  160D  160A  158A  2150   	fcall	_Print_Name
              160A  118A         
  2820  1612  2E14               	goto	l10305
  2821                           	line	192
  2822                           	
  2823  1613                     l3143:	
  2824  1613  2E14               	goto	l10305
  2825                           	line	193
  2826                           	
  2827  1614                     l3141:	
  2828                           	line	195
  2829                           	
  2830  1614                     l10305:	
  2831                           ;Beverage_services.c: 192: }
  2832                           ;Beverage_services.c: 193: }
  2833                           ;Beverage_services.c: 195: if(Enable_Config_Mode || Enable_Normal_Mode || Enable_Shortcu
                                 t_Mode)
  2834  1614  1283               	bcf	status, 5	;RP0=0, select bank0
  2835  1615  1303               	bcf	status, 6	;RP1=0, select bank0
  2836  1616  19EB               	btfsc	(_Enable_Config_Mode/8),(_Enable_Config_Mode)&7
  2837  1617  2E19               	goto	u6361
  2838  1618  2E1C               	goto	u6360
  2839  1619                     u6361:
  2840  1619  160A  118A  2EAC   	goto	l10371
  2841  161C                     u6360:
  2842                           	
  2843  161C                     l10307:	
  2844  161C  1BEC               	btfsc	(_Enable_Normal_Mode/8),(_Enable_Normal_Mode)&7
  2845  161D  2E1F               	goto	u6371
  2846  161E  2E20               	goto	u6370
  2847  161F                     u6371:
  2848  161F  2E19               	goto	l10371
  2849  1620                     u6370:
  2850                           	
  2851  1620                     l10309:	
  2852  1620  1D6D               	btfss	(_Enable_Shortcut_Mode/8),(_Enable_Shortcut_Mode)&7
  2853  1621  2E23               	goto	u6381
  2854  1622  2E26               	goto	u6380
  2855  1623                     u6381:
  2856  1623  160A  118A  2EB1   	goto	l3150
  2857  1626                     u6380:
  2858  1626  2E19               	goto	l10371
  2859                           	
  2860  1627                     l3152:	
  2861                           	line	197
  2862                           ;Beverage_services.c: 196: {
  2863                           ;Beverage_services.c: 197: switch(_PRESSED)
  2864  1627  2E19               	goto	l10371
  2865                           	line	199
  2866                           ;Beverage_services.c: 198: {
  2867                           ;Beverage_services.c: 199: case _MENU_BUTTON: while(RC4==0 && (Enable_Normal_Mode || Ena
                                 ble_Config_Mode))
  2868                           	
  2869  1628                     l3154:	
  2870  1628  2E5F               	goto	l10333
  2871                           	
  2872  1629                     l3156:	
  2873                           	line	201
  2874                           	
  2875  1629                     l10311:	
  2876                           ;Beverage_services.c: 200: {
  2877                           ;Beverage_services.c: 201: i++;
  2878  1629  3001               	movlw	low(01h)
  2879  162A  07AB               	addwf	(_i),f
  2880  162B  1803               	skipnc
  2881  162C  0AAC               	incf	(_i+1),f
  2882  162D  3000               	movlw	high(01h)
  2883  162E  07AC               	addwf	(_i+1),f
  2884                           	line	202
  2885                           ;Beverage_services.c: 202: if(i==39999)
  2886  162F  309C               	movlw	high(09C3Fh)
  2887  1630  062C               	xorwf	(_i+1),w
  2888  1631  1D03               	skipz
  2889  1632  2E35               	goto	u6395
  2890  1633  303F               	movlw	low(09C3Fh)
  2891  1634  062B               	xorwf	(_i),w
  2892  1635                     u6395:
  2893                           
  2894  1635  1D03               	skipz
  2895  1636  2E38               	goto	u6391
  2896  1637  2E39               	goto	u6390
  2897  1638                     u6391:
  2898  1638  2E47               	goto	l10319
  2899  1639                     u6390:
  2900                           	line	204
  2901                           	
  2902  1639                     l10313:	
  2903                           ;Beverage_services.c: 203: {
  2904                           ;Beverage_services.c: 204: j++;
  2905  1639  3001               	movlw	low(01h)
  2906  163A  07AD               	addwf	(_j),f
  2907  163B  1803               	skipnc
  2908  163C  0AAE               	incf	(_j+1),f
  2909  163D  3000               	movlw	high(01h)
  2910  163E  07AE               	addwf	(_j+1),f
  2911                           	line	205
  2912                           	
  2913  163F                     l10315:	
  2914                           ;Beverage_services.c: 205: i=0;
  2915  163F  01AB               	clrf	(_i)
  2916  1640  01AC               	clrf	(_i+1)
  2917                           	line	206
  2918                           	
  2919  1641                     l10317:	
  2920                           ;Beverage_services.c: 206: key_press();
  2921  1641  160A  118A  2065   	fcall	_key_press
              160A  118A         
  2922  1646  2E47               	goto	l10319
  2923                           	line	207
  2924                           	
  2925  1647                     l3157:	
  2926                           	line	208
  2927                           	
  2928  1647                     l10319:	
  2929                           ;Beverage_services.c: 207: }
  2930                           ;Beverage_services.c: 208: if(j==5)
  2931  1647  3005               	movlw	05h
  2932  1648  1283               	bcf	status, 5	;RP0=0, select bank0
  2933  1649  1303               	bcf	status, 6	;RP1=0, select bank0
  2934  164A  062D               	xorwf	(_j),w
  2935  164B  042E               	iorwf	(_j+1),w
  2936  164C  1D03               	skipz
  2937  164D  2E4F               	goto	u6401
  2938  164E  2E50               	goto	u6400
  2939  164F                     u6401:
  2940  164F  2E5F               	goto	l10333
  2941  1650                     u6400:
  2942                           	line	210
  2943                           	
  2944  1650                     l10321:	
  2945                           ;Beverage_services.c: 209: {
  2946                           ;Beverage_services.c: 210: Enable_Normal_Mode=0;
  2947  1650  13EC               	bcf	(_Enable_Normal_Mode/8),(_Enable_Normal_Mode)&7
  2948                           	line	211
  2949                           ;Beverage_services.c: 211: Enable_Config_Mode=0;
  2950  1651  11EB               	bcf	(_Enable_Config_Mode/8),(_Enable_Config_Mode)&7
  2951                           	line	212
  2952                           	
  2953  1652                     l10323:	
  2954                           ;Beverage_services.c: 212: _DISABLE_MODE=_Normal_Mode;
  2955  1652  01B7               	clrf	(__DISABLE_MODE)
  2956  1653  1403               	bsf	status,0
  2957  1654  0DB7               	rlf	(__DISABLE_MODE),f
  2958                           	line	213
  2959                           	
  2960  1655                     l10325:	
  2961                           ;Beverage_services.c: 213: _ENABLE_MODE=_Password;
  2962  1655  3002               	movlw	(02h)
  2963  1656  00DC               	movwf	(??_enable_valves+0)+0
  2964  1657  085C               	movf	(??_enable_valves+0)+0,w
  2965  1658  00B8               	movwf	(__ENABLE_MODE)
  2966                           	line	214
  2967                           	
  2968  1659                     l10327:	
  2969                           ;Beverage_services.c: 214: j=0;
  2970  1659  01AD               	clrf	(_j)
  2971  165A  01AE               	clrf	(_j+1)
  2972                           	line	215
  2973                           	
  2974  165B                     l10329:	
  2975                           ;Beverage_services.c: 215: Enable_Config_Mode=0;
  2976  165B  11EB               	bcf	(_Enable_Config_Mode/8),(_Enable_Config_Mode)&7
  2977                           	line	216
  2978                           	
  2979  165C                     l10331:	
  2980                           ;Beverage_services.c: 216: _SHORTCUT=0;
  2981  165C  116E               	bcf	(__SHORTCUT/8),(__SHORTCUT)&7
  2982  165D  2E5F               	goto	l10333
  2983                           	line	217
  2984                           	
  2985  165E                     l3158:	
  2986  165E  2E5F               	goto	l10333
  2987                           	line	218
  2988                           	
  2989  165F                     l3155:	
  2990                           	line	199
  2991                           	
  2992  165F                     l10333:	
  2993  165F  1A07               	btfsc	(60/8),(60)&7
  2994  1660  2E62               	goto	u6411
  2995  1661  2E63               	goto	u6410
  2996  1662                     u6411:
  2997  1662  2E6C               	goto	l3161
  2998  1663                     u6410:
  2999                           	
  3000  1663                     l10335:	
  3001  1663  1BEC               	btfsc	(_Enable_Normal_Mode/8),(_Enable_Normal_Mode)&7
  3002  1664  2E66               	goto	u6421
  3003  1665  2E67               	goto	u6420
  3004  1666                     u6421:
  3005  1666  2E29               	goto	l10311
  3006  1667                     u6420:
  3007                           	
  3008  1667                     l10337:	
  3009  1667  19EB               	btfsc	(_Enable_Config_Mode/8),(_Enable_Config_Mode)&7
  3010  1668  2E6A               	goto	u6431
  3011  1669  2E6B               	goto	u6430
  3012  166A                     u6431:
  3013  166A  2E29               	goto	l10311
  3014  166B                     u6430:
  3015  166B  2E6C               	goto	l3161
  3016                           	
  3017  166C                     l3160:	
  3018                           	
  3019  166C                     l3161:	
  3020                           	line	219
  3021                           ;Beverage_services.c: 217: }
  3022                           ;Beverage_services.c: 218: }
  3023                           ;Beverage_services.c: 219: if(_SHORTCUT==1 && Enable_Shortcut_Mode==0)
  3024  166C  1D6E               	btfss	(__SHORTCUT/8),(__SHORTCUT)&7
  3025  166D  2E6F               	goto	u6441
  3026  166E  2E70               	goto	u6440
  3027  166F                     u6441:
  3028  166F  2E82               	goto	l10351
  3029  1670                     u6440:
  3030                           	
  3031  1670                     l10339:	
  3032  1670  196D               	btfsc	(_Enable_Shortcut_Mode/8),(_Enable_Shortcut_Mode)&7
  3033  1671  2E73               	goto	u6451
  3034  1672  2E74               	goto	u6450
  3035  1673                     u6451:
  3036  1673  2E82               	goto	l10351
  3037  1674                     u6450:
  3038                           	line	221
  3039                           	
  3040  1674                     l10341:	
  3041                           ;Beverage_services.c: 220: {
  3042                           ;Beverage_services.c: 221: Enable_Normal_Mode=0;
  3043  1674  13EC               	bcf	(_Enable_Normal_Mode/8),(_Enable_Normal_Mode)&7
  3044                           	line	222
  3045                           ;Beverage_services.c: 222: Enable_Config_Mode=0;
  3046  1675  11EB               	bcf	(_Enable_Config_Mode/8),(_Enable_Config_Mode)&7
  3047                           	line	223
  3048                           	
  3049  1676                     l10343:	
  3050                           ;Beverage_services.c: 223: _ENABLE_MODE=_Shortcut_Mode;
  3051  1676  300E               	movlw	(0Eh)
  3052  1677  00DC               	movwf	(??_enable_valves+0)+0
  3053  1678  085C               	movf	(??_enable_valves+0)+0,w
  3054  1679  00B8               	movwf	(__ENABLE_MODE)
  3055                           	line	224
  3056                           	
  3057  167A                     l10345:	
  3058                           ;Beverage_services.c: 224: _PROCESS=_Countdisplay;
  3059  167A  01BE               	clrf	(__PROCESS)
  3060  167B  1403               	bsf	status,0
  3061  167C  0DBE               	rlf	(__PROCESS),f
  3062                           	line	225
  3063                           	
  3064  167D                     l10347:	
  3065                           ;Beverage_services.c: 225: i=0;j=0;
  3066  167D  01AB               	clrf	(_i)
  3067  167E  01AC               	clrf	(_i+1)
  3068                           	
  3069  167F                     l10349:	
  3070  167F  01AD               	clrf	(_j)
  3071  1680  01AE               	clrf	(_j+1)
  3072  1681  2E82               	goto	l10351
  3073                           	line	226
  3074                           	
  3075  1682                     l3162:	
  3076                           	line	227
  3077                           	
  3078  1682                     l10351:	
  3079                           ;Beverage_services.c: 226: }
  3080                           ;Beverage_services.c: 227: if(_SHORTCUT==0 && Enable_Shortcut_Mode==1)
  3081  1682  196E               	btfsc	(__SHORTCUT/8),(__SHORTCUT)&7
  3082  1683  2E85               	goto	u6461
  3083  1684  2E86               	goto	u6460
  3084  1685                     u6461:
  3085  1685  2E23               	goto	l3150
  3086  1686                     u6460:
  3087                           	
  3088  1686                     l10353:	
  3089  1686  1D6D               	btfss	(_Enable_Shortcut_Mode/8),(_Enable_Shortcut_Mode)&7
  3090  1687  2E89               	goto	u6471
  3091  1688  2E8A               	goto	u6470
  3092  1689                     u6471:
  3093  1689  2E23               	goto	l3150
  3094  168A                     u6470:
  3095                           	line	229
  3096                           	
  3097  168A                     l10355:	
  3098                           ;Beverage_services.c: 228: {
  3099                           ;Beverage_services.c: 229: _OFF=_Mixing_Hot_Water_Valve;
  3100  168A  3003               	movlw	(03h)
  3101  168B  00DC               	movwf	(??_enable_valves+0)+0
  3102  168C  085C               	movf	(??_enable_valves+0)+0,w
  3103  168D  00B9               	movwf	(__OFF)
  3104                           	line	230
  3105                           	
  3106  168E                     l10357:	
  3107                           ;Beverage_services.c: 230: offthevalve();
  3108  168E  160A  158A  2386   	fcall	_offthevalve
              160A  118A         
  3109                           	line	231
  3110                           	
  3111  1693                     l10359:	
  3112                           ;Beverage_services.c: 231: _OFF=_Viber_Motor;
  3113  1693  3009               	movlw	(09h)
  3114  1694  1283               	bcf	status, 5	;RP0=0, select bank0
  3115  1695  1303               	bcf	status, 6	;RP1=0, select bank0
  3116  1696  00DC               	movwf	(??_enable_valves+0)+0
  3117  1697  085C               	movf	(??_enable_valves+0)+0,w
  3118  1698  00B9               	movwf	(__OFF)
  3119                           	line	232
  3120                           ;Beverage_services.c: 232: offthevalve();
  3121  1699  160A  158A  2386   	fcall	_offthevalve
              160A  118A         
  3122                           	line	233
  3123                           	
  3124  169E                     l10361:	
  3125                           ;Beverage_services.c: 233: _DISABLE_MODE=_Shortcut_Mode;
  3126  169E  300E               	movlw	(0Eh)
  3127  169F  1283               	bcf	status, 5	;RP0=0, select bank0
  3128  16A0  1303               	bcf	status, 6	;RP1=0, select bank0
  3129  16A1  00DC               	movwf	(??_enable_valves+0)+0
  3130  16A2  085C               	movf	(??_enable_valves+0)+0,w
  3131  16A3  00B7               	movwf	(__DISABLE_MODE)
  3132                           	line	234
  3133                           	
  3134  16A4                     l10363:	
  3135                           ;Beverage_services.c: 234: _ENABLE_MODE=_Normal_Mode;
  3136  16A4  01B8               	clrf	(__ENABLE_MODE)
  3137  16A5  1403               	bsf	status,0
  3138  16A6  0DB8               	rlf	(__ENABLE_MODE),f
  3139                           	line	235
  3140                           	
  3141  16A7                     l10365:	
  3142                           ;Beverage_services.c: 235: _PROCESS=0;
  3143  16A7  01BE               	clrf	(__PROCESS)
  3144                           	line	236
  3145                           	
  3146  16A8                     l10367:	
  3147                           ;Beverage_services.c: 236: _PREVIOUS_PROCESS=0;
  3148  16A8  01BD               	clrf	(__PREVIOUS_PROCESS)
  3149  16A9  2E23               	goto	l3150
  3150                           	line	237
  3151                           	
  3152  16AA                     l3163:	
  3153                           	line	238
  3154                           ;Beverage_services.c: 237: }
  3155                           ;Beverage_services.c: 238: break;
  3156  16AA  2EB1               	goto	l3150
  3157                           	line	239
  3158                           	
  3159  16AB                     l10369:	
  3160                           ;Beverage_services.c: 239: }
  3161  16AB  2EB1               	goto	l3150
  3162                           	line	197
  3163                           	
  3164  16AC                     l3153:	
  3165                           	
  3166  16AC                     l10371:	
  3167  16AC  083B               	movf	(__PRESSED),w
  3168                           	; Switch size 1, requested type "space"
  3169                           ; Number of cases is 1, Range of values is 10 to 10
  3170                           ; switch strategies available:
  3171                           ; Name         Instructions Cycles
  3172                           ; simple_byte            4     3 (average)
  3173                           ; direct_byte           14    11 (fixed)
  3174                           ; jumptable            263     9 (fixed)
  3175                           ;	Chosen strategy is simple_byte
  3176                           
  3177                           	opt asmopt_off
  3178  16AD  3A0A               	xorlw	10^0	; case 10
  3179  16AE  1903               	skipnz
  3180  16AF  2FFD               	goto	l10333
  3181  16B0  2EB1               	goto	l3150
  3182                           	opt asmopt_on
  3183                           
  3184                           	line	239
  3185                           	
  3186  16B1                     l3164:	
  3187                           	line	240
  3188                           	
  3189  16B1                     l3150:	
  3190                           	line	241
  3191                           ;Beverage_services.c: 240: }
  3192                           ;Beverage_services.c: 241: if(Enable_Password)
  3193  16B1  1C6D               	btfss	(_Enable_Password/8),(_Enable_Password)&7
  3194  16B2  2EB4               	goto	u6481
  3195  16B3  2EB5               	goto	u6480
  3196  16B4                     u6481:
  3197  16B4  2F45               	goto	l10415
  3198  16B5                     u6480:
  3199  16B5  2F07               	goto	l10403
  3200                           	line	243
  3201                           	
  3202  16B6                     l10373:	
  3203                           ;Beverage_services.c: 242: {
  3204                           ;Beverage_services.c: 243: switch(_PRESSED)
  3205  16B6  2F07               	goto	l10403
  3206                           	line	245
  3207                           ;Beverage_services.c: 244: {
  3208                           ;Beverage_services.c: 245: case _NORMAL_COFFEE_BUTTON:
  3209                           	
  3210  16B7                     l3167:	
  3211                           	line	246
  3212                           	
  3213  16B7                     l10375:	
  3214                           ;Beverage_services.c: 246: for(unsigned int i=0;i<256;i++)
  3215  16B7  01E3               	clrf	(enable_valves@i)
  3216  16B8  01E4               	clrf	(enable_valves@i+1)
  3217                           	
  3218  16B9                     l10377:	
  3219  16B9  3001               	movlw	high(0100h)
  3220  16BA  0264               	subwf	(enable_valves@i+1),w
  3221  16BB  3000               	movlw	low(0100h)
  3222  16BC  1903               	skipnz
  3223  16BD  0263               	subwf	(enable_valves@i),w
  3224  16BE  1C03               	skipc
  3225  16BF  2EC1               	goto	u6491
  3226  16C0  2EC2               	goto	u6490
  3227  16C1                     u6491:
  3228  16C1  2EC4               	goto	l10381
  3229  16C2                     u6490:
  3230  16C2  2F15               	goto	l10405
  3231                           	
  3232  16C3                     l10379:	
  3233  16C3  2F15               	goto	l10405
  3234                           	line	247
  3235                           	
  3236  16C4                     l3168:	
  3237                           	line	248
  3238                           	
  3239  16C4                     l10381:	
  3240                           ;Beverage_services.c: 247: {
  3241                           ;Beverage_services.c: 248: eeprom_write(i,0x00);
  3242  16C4  01F6               	clrf	(?_eeprom_write)
  3243  16C5  0863               	movf	(enable_valves@i),w
  3244  16C6  160A  158A  2276   	fcall	_eeprom_write
              160A  118A         
  3245                           	line	246
  3246                           	
  3247  16CB                     l10383:	
  3248  16CB  3001               	movlw	low(01h)
  3249  16CC  1283               	bcf	status, 5	;RP0=0, select bank0
  3250  16CD  1303               	bcf	status, 6	;RP1=0, select bank0
  3251  16CE  07E3               	addwf	(enable_valves@i),f
  3252  16CF  1803               	skipnc
  3253  16D0  0AE4               	incf	(enable_valves@i+1),f
  3254  16D1  3000               	movlw	high(01h)
  3255  16D2  07E4               	addwf	(enable_valves@i+1),f
  3256                           	
  3257  16D3                     l10385:	
  3258  16D3  3001               	movlw	high(0100h)
  3259  16D4  0264               	subwf	(enable_valves@i+1),w
  3260  16D5  3000               	movlw	low(0100h)
  3261  16D6  1903               	skipnz
  3262  16D7  0263               	subwf	(enable_valves@i),w
  3263  16D8  1C03               	skipc
  3264  16D9  2EDB               	goto	u6501
  3265  16DA  2EDC               	goto	u6500
  3266  16DB                     u6501:
  3267  16DB  2EC4               	goto	l10381
  3268  16DC                     u6500:
  3269  16DC  2F15               	goto	l10405
  3270                           	
  3271  16DD                     l3169:	
  3272                           	line	250
  3273                           ;Beverage_services.c: 249: }
  3274                           ;Beverage_services.c: 250: break;
  3275  16DD  2F15               	goto	l10405
  3276                           	line	251
  3277                           ;Beverage_services.c: 251: case _MILK_BUTTON: if(password>0)
  3278                           	
  3279  16DE                     l3171:	
  3280                           	
  3281  16DE                     l10387:	
  3282  16DE  0830               	movf	(_password+1),w
  3283  16DF  042F               	iorwf	(_password),w
  3284  16E0  1903               	skipnz
  3285  16E1  2EE3               	goto	u6511
  3286  16E2  2EE4               	goto	u6510
  3287  16E3                     u6511:
  3288  16E3  2F15               	goto	l10405
  3289  16E4                     u6510:
  3290                           	line	253
  3291                           	
  3292  16E4                     l10389:	
  3293                           ;Beverage_services.c: 252: {
  3294                           ;Beverage_services.c: 253: password--;
  3295  16E4  3001               	movlw	low(01h)
  3296  16E5  02AF               	subwf	(_password),f
  3297  16E6  3000               	movlw	high(01h)
  3298  16E7  1C03               	skipc
  3299  16E8  03B0               	decf	(_password+1),f
  3300  16E9  02B0               	subwf	(_password+1),f
  3301  16EA  2F15               	goto	l10405
  3302                           	line	254
  3303                           	
  3304  16EB                     l3172:	
  3305                           	line	255
  3306                           ;Beverage_services.c: 254: }
  3307                           ;Beverage_services.c: 255: break;
  3308  16EB  2F15               	goto	l10405
  3309                           	line	256
  3310                           ;Beverage_services.c: 256: case _HOT_WATER_BUTTON: password++;
  3311                           	
  3312  16EC                     l3173:	
  3313                           	
  3314  16EC                     l10391:	
  3315  16EC  3001               	movlw	low(01h)
  3316  16ED  07AF               	addwf	(_password),f
  3317  16EE  1803               	skipnc
  3318  16EF  0AB0               	incf	(_password+1),f
  3319  16F0  3000               	movlw	high(01h)
  3320  16F1  07B0               	addwf	(_password+1),f
  3321                           	line	257
  3322                           ;Beverage_services.c: 257: break;
  3323  16F2  2F15               	goto	l10405
  3324                           	line	258
  3325                           ;Beverage_services.c: 258: case _MENU_BUTTON: if(password==(0+2))
  3326                           	
  3327  16F3                     l3174:	
  3328                           	
  3329  16F3                     l10393:	
  3330  16F3  3002               	movlw	02h
  3331  16F4  062F               	xorwf	(_password),w
  3332  16F5  0430               	iorwf	(_password+1),w
  3333  16F6  1D03               	skipz
  3334  16F7  2EF9               	goto	u6521
  3335  16F8  2EFA               	goto	u6520
  3336  16F9                     u6521:
  3337  16F9  2F15               	goto	l10405
  3338  16FA                     u6520:
  3339                           	line	260
  3340                           	
  3341  16FA                     l10395:	
  3342                           ;Beverage_services.c: 259: {
  3343                           ;Beverage_services.c: 260: password=0;
  3344  16FA  01AF               	clrf	(_password)
  3345  16FB  01B0               	clrf	(_password+1)
  3346                           	line	261
  3347                           	
  3348  16FC                     l10397:	
  3349                           ;Beverage_services.c: 261: _DISABLE_MODE=_Password;
  3350  16FC  3002               	movlw	(02h)
  3351  16FD  00DC               	movwf	(??_enable_valves+0)+0
  3352  16FE  085C               	movf	(??_enable_valves+0)+0,w
  3353  16FF  00B7               	movwf	(__DISABLE_MODE)
  3354                           	line	262
  3355                           	
  3356  1700                     l10399:	
  3357                           ;Beverage_services.c: 262: _ENABLE_MODE=_Valves;
  3358  1700  3004               	movlw	(04h)
  3359  1701  00DC               	movwf	(??_enable_valves+0)+0
  3360  1702  085C               	movf	(??_enable_valves+0)+0,w
  3361  1703  00B8               	movwf	(__ENABLE_MODE)
  3362  1704  2F15               	goto	l10405
  3363                           	line	263
  3364                           	
  3365  1705                     l3175:	
  3366                           	line	264
  3367                           ;Beverage_services.c: 263: }
  3368                           ;Beverage_services.c: 264: break;
  3369  1705  2F15               	goto	l10405
  3370                           	line	265
  3371                           	
  3372  1706                     l10401:	
  3373                           ;Beverage_services.c: 265: }
  3374  1706  2F15               	goto	l10405
  3375                           	line	243
  3376                           	
  3377  1707                     l3166:	
  3378                           	
  3379  1707                     l10403:	
  3380  1707  083B               	movf	(__PRESSED),w
  3381                           	; Switch size 1, requested type "space"
  3382                           ; Number of cases is 4, Range of values is 1 to 10
  3383                           ; switch strategies available:
  3384                           ; Name         Instructions Cycles
  3385                           ; simple_byte           13     7 (average)
  3386                           ; direct_byte           41    11 (fixed)
  3387                           ; jumptable            263     9 (fixed)
  3388                           ;	Chosen strategy is simple_byte
  3389                           
  3390                           	opt asmopt_off
  3391  1708  3A01               	xorlw	1^0	; case 1
  3392  1709  1903               	skipnz
  3393  170A  2EB7               	goto	l10375
  3394  170B  3A06               	xorlw	7^1	; case 7
  3395  170C  1903               	skipnz
  3396  170D  2EDE               	goto	l10387
  3397  170E  3A0E               	xorlw	9^7	; case 9
  3398  170F  1903               	skipnz
  3399  1710  2EEC               	goto	l10391
  3400  1711  3A03               	xorlw	10^9	; case 10
  3401  1712  1903               	skipnz
  3402  1713  2EF3               	goto	l10393
  3403  1714  2F15               	goto	l10405
  3404                           	opt asmopt_on
  3405                           
  3406                           	line	265
  3407                           	
  3408  1715                     l3170:	
  3409                           	line	266
  3410                           	
  3411  1715                     l10405:	
  3412                           ;Beverage_services.c: 266: if(_PRESSED==_MILK_BUTTON || _PRESSED==_HOT_WATER_BUTTON)
  3413  1715  083B               	movf	(__PRESSED),w
  3414  1716  3A07               	xorlw	07h
  3415  1717  1903               	skipnz
  3416  1718  2F1A               	goto	u6531
  3417  1719  2F1B               	goto	u6530
  3418  171A                     u6531:
  3419  171A  2F22               	goto	l10409
  3420  171B                     u6530:
  3421                           	
  3422  171B                     l10407:	
  3423  171B  083B               	movf	(__PRESSED),w
  3424  171C  3A09               	xorlw	09h
  3425  171D  1D03               	skipz
  3426  171E  2F20               	goto	u6541
  3427  171F  2F21               	goto	u6540
  3428  1720                     u6541:
  3429  1720  2F45               	goto	l10415
  3430  1721                     u6540:
  3431  1721  2F22               	goto	l10409
  3432                           	
  3433  1722                     l3178:	
  3434                           	line	268
  3435                           	
  3436  1722                     l10409:	
  3437                           ;Beverage_services.c: 267: {
  3438                           ;Beverage_services.c: 268: Lcd_Cmd(0x8C);
  3439  1722  308C               	movlw	(08Ch)
  3440  1723  160A  158A  2314   	fcall	_Lcd_Cmd
              160A  118A         
  3441                           	line	269
  3442                           	
  3443  1728                     l10411:	
  3444                           ;Beverage_services.c: 269: Num_Disp(password,4,0);
  3445  1728  1283               	bcf	status, 5	;RP0=0, select bank0
  3446  1729  1303               	bcf	status, 6	;RP1=0, select bank0
  3447  172A  0830               	movf	(_password+1),w
  3448  172B  01D1               	clrf	(?_Num_Disp+1)
  3449  172C  07D1               	addwf	(?_Num_Disp+1)
  3450  172D  082F               	movf	(_password),w
  3451  172E  01D0               	clrf	(?_Num_Disp)
  3452  172F  07D0               	addwf	(?_Num_Disp)
  3453                           
  3454  1730  3004               	movlw	(04h)
  3455  1731  00DC               	movwf	(??_enable_valves+0)+0
  3456  1732  085C               	movf	(??_enable_valves+0)+0,w
  3457  1733  00D2               	movwf	0+(?_Num_Disp)+02h
  3458  1734  01D3               	clrf	0+(?_Num_Disp)+03h
  3459  1735  160A  118A  2101   	fcall	_Num_Disp
              160A  118A         
  3460                           	line	270
  3461                           	
  3462  173A                     l10413:	
  3463                           ;Beverage_services.c: 270: DelayMs(150);
  3464  173A  3096               	movlw	low(096h)
  3465  173B  00FC               	movwf	(?_DelayMs)
  3466  173C  3000               	movlw	high(096h)
  3467  173D  00FD               	movwf	((?_DelayMs))+1
  3468  173E  160A  158A  21F3   	fcall	_DelayMs
              160A  118A         
  3469  1743  2F45               	goto	l10415
  3470                           	line	271
  3471                           	
  3472  1744                     l3176:	
  3473  1744  2F45               	goto	l10415
  3474                           	line	272
  3475                           	
  3476  1745                     l3165:	
  3477                           	line	273
  3478                           	
  3479  1745                     l10415:	
  3480                           ;Beverage_services.c: 271: }
  3481                           ;Beverage_services.c: 272: }
  3482                           ;Beverage_services.c: 273: if(Enable_Valves)
  3483  1745  1283               	bcf	status, 5	;RP0=0, select bank0
  3484  1746  1303               	bcf	status, 6	;RP1=0, select bank0
  3485  1747  1FED               	btfss	(_Enable_Valves/8),(_Enable_Valves)&7
  3486  1748  2F4A               	goto	u6551
  3487  1749  2F4D               	goto	u6550
  3488  174A                     u6551:
  3489  174A  160A  118A  2B78   	goto	l10465
  3490  174D                     u6550:
  3491  174D  2FD7               	goto	l10443
  3492                           	line	275
  3493                           	
  3494  174E                     l10417:	
  3495                           ;Beverage_services.c: 274: {
  3496                           ;Beverage_services.c: 275: switch(_PRESSED)
  3497  174E  2FD7               	goto	l10443
  3498                           	line	277
  3499                           ;Beverage_services.c: 276: {
  3500                           ;Beverage_services.c: 277: case _NORMAL_COFFEE_BUTTON: MENU[Next].COFFEE_DICATION=~MENU[
                                 Next].COFFEE_DICATION;
  3501                           	
  3502  174F                     l3181:	
  3503                           	
  3504  174F                     l10419:	
  3505  174F  0835               	movf	(_Next),w
  3506  1750  3E20               	addlw	_MENU&0ffh
  3507  1751  0084               	movwf	fsr0
  3508  1752  1003               	clrc
  3509  1753  1383               	bcf	status, 7	;select IRP bank0
  3510  1754  1C00               	btfss	indf,0
  3511  1755  1403               	setc
  3512  1756  1803               	btfsc	status,0
  3513  1757  2F5C               	goto	u6561
  3514  1758  2F5F               	goto	u6560
  3515  1759  0835               	movf	(_Next),w
  3516  175A  3E20               	addlw	_MENU&0ffh
  3517  175B  0084               	movwf	fsr0
  3518                           	
  3519  175C                     u6561:
  3520  175C  1383               	bcf	status, 7	;select IRP bank0
  3521  175D  1400               	bsf	indf,0
  3522  175E  2F61               	goto	u6574
  3523  175F                     u6560:
  3524  175F  1383               	bcf	status, 7	;select IRP bank0
  3525  1760  1000               	bcf	indf,0
  3526  1761                     u6574:
  3527                           	line	278
  3528                           ;Beverage_services.c: 278: break;
  3529  1761  2FF1               	goto	l10445
  3530                           	line	279
  3531                           ;Beverage_services.c: 279: case _NORMAL_TEA_BUTTON: MENU[Next].TEA_DICATION=~MENU[Next].
                                 TEA_DICATION;
  3532                           	
  3533  1762                     l3183:	
  3534                           	
  3535  1762                     l10421:	
  3536  1762  1283               	bcf	status, 5	;RP0=0, select bank0
  3537  1763  1303               	bcf	status, 6	;RP1=0, select bank0
  3538  1764  0835               	movf	(_Next),w
  3539  1765  3E20               	addlw	_MENU&0ffh
  3540  1766  0084               	movwf	fsr0
  3541  1767  1003               	clrc
  3542  1768  1383               	bcf	status, 7	;select IRP bank0
  3543  1769  1C80               	btfss	indf,1
  3544  176A  1403               	setc
  3545  176B  1803               	btfsc	status,0
  3546  176C  2F71               	goto	u6581
  3547  176D  2F74               	goto	u6580
  3548  176E  0835               	movf	(_Next),w
  3549  176F  3E20               	addlw	_MENU&0ffh
  3550  1770  0084               	movwf	fsr0
  3551                           	
  3552  1771                     u6581:
  3553  1771  1383               	bcf	status, 7	;select IRP bank0
  3554  1772  1480               	bsf	indf,1
  3555  1773  2F76               	goto	u6594
  3556  1774                     u6580:
  3557  1774  1383               	bcf	status, 7	;select IRP bank0
  3558  1775  1080               	bcf	indf,1
  3559  1776                     u6594:
  3560                           	line	280
  3561                           ;Beverage_services.c: 280: break;
  3562  1776  2FF1               	goto	l10445
  3563                           	line	281
  3564                           ;Beverage_services.c: 281: case _LIGHT_COFFEE_BUTTON: MENU[Next].MIXING_HOT_WATER=~MENU[
                                 Next].MIXING_HOT_WATER;
  3565                           	
  3566  1777                     l3184:	
  3567                           	
  3568  1777                     l10423:	
  3569  1777  1283               	bcf	status, 5	;RP0=0, select bank0
  3570  1778  1303               	bcf	status, 6	;RP1=0, select bank0
  3571  1779  0835               	movf	(_Next),w
  3572  177A  3E20               	addlw	_MENU&0ffh
  3573  177B  0084               	movwf	fsr0
  3574  177C  1003               	clrc
  3575  177D  1383               	bcf	status, 7	;select IRP bank0
  3576  177E  1D00               	btfss	indf,2
  3577  177F  1403               	setc
  3578  1780  1803               	btfsc	status,0
  3579  1781  2F86               	goto	u6601
  3580  1782  2F89               	goto	u6600
  3581  1783  0835               	movf	(_Next),w
  3582  1784  3E20               	addlw	_MENU&0ffh
  3583  1785  0084               	movwf	fsr0
  3584                           	
  3585  1786                     u6601:
  3586  1786  1383               	bcf	status, 7	;select IRP bank0
  3587  1787  1500               	bsf	indf,2
  3588  1788  2F8B               	goto	u6614
  3589  1789                     u6600:
  3590  1789  1383               	bcf	status, 7	;select IRP bank0
  3591  178A  1100               	bcf	indf,2
  3592  178B                     u6614:
  3593                           	line	282
  3594                           ;Beverage_services.c: 282: break;
  3595  178B  2FF1               	goto	l10445
  3596                           	line	283
  3597                           ;Beverage_services.c: 283: case _LIGHT_TEA_BUTTON: MENU[Next].MILK=~MENU[Next].MILK;
  3598                           	
  3599  178C                     l3185:	
  3600                           	
  3601  178C                     l10425:	
  3602  178C  1283               	bcf	status, 5	;RP0=0, select bank0
  3603  178D  1303               	bcf	status, 6	;RP1=0, select bank0
  3604  178E  0835               	movf	(_Next),w
  3605  178F  3E20               	addlw	_MENU&0ffh
  3606  1790  0084               	movwf	fsr0
  3607  1791  1003               	clrc
  3608  1792  1383               	bcf	status, 7	;select IRP bank0
  3609  1793  1D80               	btfss	indf,3
  3610  1794  1403               	setc
  3611  1795  1803               	btfsc	status,0
  3612  1796  2F9B               	goto	u6621
  3613  1797  2F9E               	goto	u6620
  3614  1798  0835               	movf	(_Next),w
  3615  1799  3E20               	addlw	_MENU&0ffh
  3616  179A  0084               	movwf	fsr0
  3617                           	
  3618  179B                     u6621:
  3619  179B  1383               	bcf	status, 7	;select IRP bank0
  3620  179C  1580               	bsf	indf,3
  3621  179D  2FA0               	goto	u6634
  3622  179E                     u6620:
  3623  179E  1383               	bcf	status, 7	;select IRP bank0
  3624  179F  1180               	bcf	indf,3
  3625  17A0                     u6634:
  3626                           	line	284
  3627                           ;Beverage_services.c: 284: break;
  3628  17A0  2FF1               	goto	l10445
  3629                           	line	285
  3630                           ;Beverage_services.c: 285: case _BLACK_COFFEE_BUTTON: MENU[Next].VIBR_MOTOR=~MENU[Next].
                                 VIBR_MOTOR;
  3631                           	
  3632  17A1                     l3186:	
  3633                           	
  3634  17A1                     l10427:	
  3635  17A1  1283               	bcf	status, 5	;RP0=0, select bank0
  3636  17A2  1303               	bcf	status, 6	;RP1=0, select bank0
  3637  17A3  0835               	movf	(_Next),w
  3638  17A4  3E20               	addlw	_MENU&0ffh
  3639  17A5  0084               	movwf	fsr0
  3640  17A6  1003               	clrc
  3641  17A7  1383               	bcf	status, 7	;select IRP bank0
  3642  17A8  1E00               	btfss	indf,4
  3643  17A9  1403               	setc
  3644  17AA  1803               	btfsc	status,0
  3645  17AB  2FB0               	goto	u6641
  3646  17AC  2FB3               	goto	u6640
  3647  17AD  0835               	movf	(_Next),w
  3648  17AE  3E20               	addlw	_MENU&0ffh
  3649  17AF  0084               	movwf	fsr0
  3650                           	
  3651  17B0                     u6641:
  3652  17B0  1383               	bcf	status, 7	;select IRP bank0
  3653  17B1  1600               	bsf	indf,4
  3654  17B2  2FB5               	goto	u6654
  3655  17B3                     u6640:
  3656  17B3  1383               	bcf	status, 7	;select IRP bank0
  3657  17B4  1200               	bcf	indf,4
  3658  17B5                     u6654:
  3659                           	line	286
  3660                           ;Beverage_services.c: 286: break;
  3661  17B5  2FF1               	goto	l10445
  3662                           	line	287
  3663                           ;Beverage_services.c: 287: case _MILK_BUTTON: if(Next>0)
  3664                           	
  3665  17B6                     l3187:	
  3666                           	
  3667  17B6                     l10429:	
  3668  17B6  1283               	bcf	status, 5	;RP0=0, select bank0
  3669  17B7  1303               	bcf	status, 6	;RP1=0, select bank0
  3670  17B8  0835               	movf	(_Next),w
  3671  17B9  1D03               	skipz
  3672  17BA  2FBC               	goto	u6660
  3673  17BB  2FF1               	goto	l10445
  3674  17BC                     u6660:
  3675                           	line	289
  3676                           	
  3677  17BC                     l10431:	
  3678                           ;Beverage_services.c: 288: {
  3679                           ;Beverage_services.c: 289: Next--;
  3680  17BC  3001               	movlw	low(01h)
  3681  17BD  02B5               	subwf	(_Next),f
  3682  17BE  2FF1               	goto	l10445
  3683                           	line	290
  3684                           	
  3685  17BF                     l3188:	
  3686                           	line	291
  3687                           ;Beverage_services.c: 290: }
  3688                           ;Beverage_services.c: 291: break;
  3689  17BF  2FF1               	goto	l10445
  3690                           	line	292
  3691                           ;Beverage_services.c: 292: case _HOT_WATER_BUTTON: if(Next<7)
  3692                           	
  3693  17C0                     l3189:	
  3694                           	
  3695  17C0                     l10433:	
  3696  17C0  3007               	movlw	(07h)
  3697  17C1  0235               	subwf	(_Next),w
  3698  17C2  1803               	skipnc
  3699  17C3  2FC5               	goto	u6671
  3700  17C4  2FC6               	goto	u6670
  3701  17C5                     u6671:
  3702  17C5  2FF1               	goto	l10445
  3703  17C6                     u6670:
  3704                           	line	294
  3705                           	
  3706  17C6                     l10435:	
  3707                           ;Beverage_services.c: 293: {
  3708                           ;Beverage_services.c: 294: Next++;
  3709  17C6  3001               	movlw	(01h)
  3710  17C7  00DC               	movwf	(??_enable_valves+0)+0
  3711  17C8  085C               	movf	(??_enable_valves+0)+0,w
  3712  17C9  07B5               	addwf	(_Next),f
  3713  17CA  2FF1               	goto	l10445
  3714                           	line	295
  3715                           	
  3716  17CB                     l3190:	
  3717                           	line	296
  3718                           ;Beverage_services.c: 295: }
  3719                           ;Beverage_services.c: 296: break;
  3720  17CB  2FF1               	goto	l10445
  3721                           	line	297
  3722                           ;Beverage_services.c: 297: case _MENU_BUTTON: _DISABLE_MODE=_Valves;
  3723                           	
  3724  17CC                     l3191:	
  3725                           	
  3726  17CC                     l10437:	
  3727  17CC  3004               	movlw	(04h)
  3728  17CD  00DC               	movwf	(??_enable_valves+0)+0
  3729  17CE  085C               	movf	(??_enable_valves+0)+0,w
  3730  17CF  00B7               	movwf	(__DISABLE_MODE)
  3731                           	line	298
  3732                           ;Beverage_services.c: 298: _ENABLE_MODE=_Selection;
  3733  17D0  3005               	movlw	(05h)
  3734  17D1  00DC               	movwf	(??_enable_valves+0)+0
  3735  17D2  085C               	movf	(??_enable_valves+0)+0,w
  3736  17D3  00B8               	movwf	(__ENABLE_MODE)
  3737                           	line	299
  3738                           	
  3739  17D4                     l10439:	
  3740                           ;Beverage_services.c: 299: Next=0;
  3741  17D4  01B5               	clrf	(_Next)
  3742                           	line	300
  3743                           ;Beverage_services.c: 300: break;
  3744  17D5  2FF1               	goto	l10445
  3745                           	line	301
  3746                           	
  3747  17D6                     l10441:	
  3748                           ;Beverage_services.c: 301: }
  3749  17D6  2FF1               	goto	l10445
  3750                           	line	275
  3751                           	
  3752  17D7                     l3180:	
  3753                           	
  3754  17D7                     l10443:	
  3755  17D7  083B               	movf	(__PRESSED),w
  3756                           	; Switch size 1, requested type "space"
  3757                           ; Number of cases is 8, Range of values is 1 to 10
  3758                           ; switch strategies available:
  3759                           ; Name         Instructions Cycles
  3760                           ; simple_byte           25    13 (average)
  3761                           ; direct_byte           41    11 (fixed)
  3762                           ; jumptable            263     9 (fixed)
  3763                           ;	Chosen strategy is simple_byte
  3764                           
  3765                           	opt asmopt_off
  3766  17D8  3A01               	xorlw	1^0	; case 1
  3767  17D9  1903               	skipnz
  3768  17DA  2F4F               	goto	l10419
  3769  17DB  3A03               	xorlw	2^1	; case 2
  3770  17DC  1903               	skipnz
  3771  17DD  2F62               	goto	l10421
  3772  17DE  3A01               	xorlw	3^2	; case 3
  3773  17DF  1903               	skipnz
  3774  17E0  2F77               	goto	l10423
  3775  17E1  3A07               	xorlw	4^3	; case 4
  3776  17E2  1903               	skipnz
  3777  17E3  2F8C               	goto	l10425
  3778  17E4  3A01               	xorlw	5^4	; case 5
  3779  17E5  1903               	skipnz
  3780  17E6  2FA1               	goto	l10427
  3781  17E7  3A02               	xorlw	7^5	; case 7
  3782  17E8  1903               	skipnz
  3783  17E9  2FB6               	goto	l10429
  3784  17EA  3A0E               	xorlw	9^7	; case 9
  3785  17EB  1903               	skipnz
  3786  17EC  2FC0               	goto	l10433
  3787  17ED  3A03               	xorlw	10^9	; case 10
  3788  17EE  1903               	skipnz
  3789  17EF  2FCC               	goto	l10437
  3790  17F0  2FF1               	goto	l10445
  3791                           	opt asmopt_on
  3792                           
  3793                           	line	301
  3794                           	
  3795  17F1                     l3182:	
  3796                           	line	302
  3797                           	
  3798  17F1                     l10445:	
  3799                           ;Beverage_services.c: 302: if(_PRESSED==_MILK_BUTTON || _PRESSED==_HOT_WATER_BUTTON)
  3800  17F1  1283               	bcf	status, 5	;RP0=0, select bank0
  3801  17F2  1303               	bcf	status, 6	;RP1=0, select bank0
  3802  17F3  083B               	movf	(__PRESSED),w
  3803  17F4  3A07               	xorlw	07h
  3804  17F5  1903               	skipnz
  3805  17F6  2FFA               	goto	u6681
  3806  17F7  160A  118A  2B1E   	goto	u6680
  3807  17FA                     u6681:
  3808  17FA  160A  118A  2B25   	goto	l10449
      + 17FD                     L3:	
      + 17FD  120A  158A  2FFD   	ljmp	L1
  3809  131E                     u6680:
  3810                           	
  3811  131E                     l10447:	
  3812  131E  083B               	movf	(__PRESSED),w
  3813  131F  3A09               	xorlw	09h
  3814  1320  1D03               	skipz
  3815  1321  2B23               	goto	u6691
  3816  1322  2B24               	goto	u6690
  3817  1323                     u6691:
  3818  1323  2B4B               	goto	l10455
  3819  1324                     u6690:
  3820  1324  2B25               	goto	l10449
  3821                           	
  3822  1325                     l3194:	
  3823                           	line	304
  3824                           	
  3825  1325                     l10449:	
  3826                           ;Beverage_services.c: 303: {
  3827                           ;Beverage_services.c: 304: Lcd_Cmd(0x86);
  3828  1325  3086               	movlw	(086h)
  3829  1326  160A  158A  2314   	fcall	_Lcd_Cmd
              160A  118A         
  3830                           	line	305
  3831                           	
  3832  132B                     l10451:	
  3833                           ;Beverage_services.c: 305: myitoa(Next+1,buff);
  3834  132B  1283               	bcf	status, 5	;RP0=0, select bank0
  3835  132C  1303               	bcf	status, 6	;RP1=0, select bank0
  3836  132D  0835               	movf	(_Next),w
  3837  132E  3E01               	addlw	low(01h)
  3838  132F  00FB               	movwf	(?_myitoa)
  3839  1330  3000               	movlw	high(01h)
  3840  1331  1803               	skipnc
  3841  1332  3001               	movlw	(high(01h)+1)&0ffh
  3842  1333  00FC               	movwf	((?_myitoa))+1
  3843  1334  3043               	movlw	(_buff)&0ffh
  3844  1335  00DC               	movwf	(??_enable_valves+0)+0
  3845  1336  085C               	movf	(??_enable_valves+0)+0,w
  3846  1337  00FD               	movwf	0+(?_myitoa)+02h
  3847  1338  160A  118A  2014   	fcall	_myitoa
              160A  118A         
  3848                           	line	306
  3849                           	
  3850  133D                     l10453:	
  3851                           ;Beverage_services.c: 306: Lcd_String(buff,0,0);
  3852  133D  3043               	movlw	(_buff&0ffh)
  3853  133E  1283               	bcf	status, 5	;RP0=0, select bank0
  3854  133F  1303               	bcf	status, 6	;RP1=0, select bank0
  3855  1340  00CE               	movwf	(?_Lcd_String)
  3856  1341  3000               	movlw	(0x0/2)
  3857  1342  00CF               	movwf	(?_Lcd_String+1)
  3858  1343  01D0               	clrf	0+(?_Lcd_String)+02h
  3859  1344  01D1               	clrf	0+(?_Lcd_String)+03h
  3860  1345  160A  158A  2509   	fcall	_Lcd_String
              160A  118A         
  3861  134A  2B4B               	goto	l10455
  3862                           	line	307
  3863                           	
  3864  134B                     l3192:	
  3865                           	line	308
  3866                           	
  3867  134B                     l10455:	
  3868                           ;Beverage_services.c: 307: }
  3869                           ;Beverage_services.c: 308: if(_PRESSED && (_PRESSED!=_MENU_BUTTON))
  3870  134B  1283               	bcf	status, 5	;RP0=0, select bank0
  3871  134C  1303               	bcf	status, 6	;RP1=0, select bank0
  3872  134D  083B               	movf	(__PRESSED),w
  3873  134E  1D03               	skipz
  3874  134F  2B51               	goto	u6700
  3875  1350  2B78               	goto	l10465
  3876  1351                     u6700:
  3877                           	
  3878  1351                     l10457:	
  3879  1351  083B               	movf	(__PRESSED),w
  3880  1352  3A0A               	xorlw	0Ah
  3881  1353  1903               	skipnz
  3882  1354  2B56               	goto	u6711
  3883  1355  2B57               	goto	u6710
  3884  1356                     u6711:
  3885  1356  2B78               	goto	l10465
  3886  1357                     u6710:
  3887                           	line	310
  3888                           	
  3889  1357                     l10459:	
  3890                           ;Beverage_services.c: 309: {
  3891                           ;Beverage_services.c: 310: Write_ValveIn_Memory(MENU[Next],Next);
  3892  1357  0835               	movf	(_Next),w
  3893  1358  00DC               	movwf	(??_enable_valves+0)+0
  3894  1359  085C               	movf	(??_enable_valves+0)+0,w
  3895  135A  00F9               	movwf	(?_Write_ValveIn_Memory)
  3896  135B  0835               	movf	(_Next),w
  3897  135C  3E20               	addlw	_MENU&0ffh
  3898  135D  0084               	movwf	fsr0
  3899  135E  1383               	bcf	status, 7	;select IRP bank0
  3900  135F  0800               	movf	indf,w
  3901  1360  160A  158A  26F1   	fcall	_Write_ValveIn_Memory
              160A  118A         
  3902                           	line	311
  3903                           	
  3904  1365                     l10461:	
  3905                           ;Beverage_services.c: 311: print_yes_no(Next);
  3906  1365  1283               	bcf	status, 5	;RP0=0, select bank0
  3907  1366  1303               	bcf	status, 6	;RP1=0, select bank0
  3908  1367  0835               	movf	(_Next),w
  3909  1368  160A  158A  276E   	fcall	_print_yes_no
              160A  118A         
  3910                           	line	312
  3911                           	
  3912  136D                     l10463:	
  3913                           ;Beverage_services.c: 312: DelayMs(50);
  3914  136D  3032               	movlw	low(032h)
  3915  136E  00FC               	movwf	(?_DelayMs)
  3916  136F  3000               	movlw	high(032h)
  3917  1370  00FD               	movwf	((?_DelayMs))+1
  3918  1371  160A  158A  21F3   	fcall	_DelayMs
              160A  118A         
  3919  1376  2B78               	goto	l10465
  3920                           	line	313
  3921                           	
  3922  1377                     l3195:	
  3923  1377  2B78               	goto	l10465
  3924                           	line	314
  3925                           	
  3926  1378                     l3179:	
  3927                           	line	315
  3928                           	
  3929  1378                     l10465:	
  3930                           ;Beverage_services.c: 313: }
  3931                           ;Beverage_services.c: 314: }
  3932                           ;Beverage_services.c: 315: if(Enable_Selection)
  3933  1378  1283               	bcf	status, 5	;RP0=0, select bank0
  3934  1379  1303               	bcf	status, 6	;RP1=0, select bank0
  3935  137A  1CED               	btfss	(_Enable_Selection/8),(_Enable_Selection)&7
  3936  137B  2B7D               	goto	u6721
  3937  137C  2B80               	goto	u6720
  3938  137D                     u6721:
  3939  137D  120A  158A  29A6   	goto	l10571
  3940  1380                     u6720:
  3941  1380  2BDA               	goto	l10507
  3942                           	line	317
  3943                           	
  3944  1381                     l10467:	
  3945                           ;Beverage_services.c: 316: {
  3946                           ;Beverage_services.c: 317: switch(_PRESSED)
  3947  1381  2BDA               	goto	l10507
  3948                           	line	319
  3949                           ;Beverage_services.c: 318: {
  3950                           ;Beverage_services.c: 319: case _NORMAL_COFFEE_BUTTON: if(Selection_Next>0)
  3951                           	
  3952  1382                     l3198:	
  3953                           	
  3954  1382                     l10469:	
  3955  1382  0847               	movf	(_Selection_Next),w
  3956  1383  1D03               	skipz
  3957  1384  2B86               	goto	u6730
  3958  1385  2BFA               	goto	l10509
  3959  1386                     u6730:
  3960                           	line	321
  3961                           	
  3962  1386                     l10471:	
  3963                           ;Beverage_services.c: 320: {
  3964                           ;Beverage_services.c: 321: Selection_Next--;
  3965  1386  3001               	movlw	low(01h)
  3966  1387  02C7               	subwf	(_Selection_Next),f
  3967                           	line	322
  3968                           	
  3969  1388                     l10473:	
  3970                           ;Beverage_services.c: 322: Next=0;
  3971  1388  01B5               	clrf	(_Next)
  3972  1389  2BFA               	goto	l10509
  3973                           	line	323
  3974                           	
  3975  138A                     l3199:	
  3976                           	line	324
  3977                           ;Beverage_services.c: 323: }
  3978                           ;Beverage_services.c: 324: break;
  3979  138A  2BFA               	goto	l10509
  3980                           	line	325
  3981                           ;Beverage_services.c: 325: case _NORMAL_TEA_BUTTON: if(Selection_Next<7)
  3982                           	
  3983  138B                     l3201:	
  3984                           	
  3985  138B                     l10475:	
  3986  138B  3007               	movlw	(07h)
  3987  138C  0247               	subwf	(_Selection_Next),w
  3988  138D  1803               	skipnc
  3989  138E  2B90               	goto	u6741
  3990  138F  2B91               	goto	u6740
  3991  1390                     u6741:
  3992  1390  2BFA               	goto	l10509
  3993  1391                     u6740:
  3994                           	line	327
  3995                           	
  3996  1391                     l10477:	
  3997                           ;Beverage_services.c: 326: {
  3998                           ;Beverage_services.c: 327: Selection_Next++;
  3999  1391  3001               	movlw	(01h)
  4000  1392  00DC               	movwf	(??_enable_valves+0)+0
  4001  1393  085C               	movf	(??_enable_valves+0)+0,w
  4002  1394  07C7               	addwf	(_Selection_Next),f
  4003                           	line	328
  4004                           	
  4005  1395                     l10479:	
  4006                           ;Beverage_services.c: 328: Next=0;
  4007  1395  01B5               	clrf	(_Next)
  4008  1396  2BFA               	goto	l10509
  4009                           	line	329
  4010                           	
  4011  1397                     l3202:	
  4012                           	line	330
  4013                           ;Beverage_services.c: 329: }
  4014                           ;Beverage_services.c: 330: break;
  4015  1397  2BFA               	goto	l10509
  4016                           	line	331
  4017                           ;Beverage_services.c: 331: case _LIGHT_COFFEE_BUTTON: if(Next>0)
  4018                           	
  4019  1398                     l3203:	
  4020                           	
  4021  1398                     l10481:	
  4022  1398  0835               	movf	(_Next),w
  4023  1399  1D03               	skipz
  4024  139A  2B9C               	goto	u6750
  4025  139B  2BFA               	goto	l10509
  4026  139C                     u6750:
  4027                           	line	333
  4028                           	
  4029  139C                     l10483:	
  4030                           ;Beverage_services.c: 332: {
  4031                           ;Beverage_services.c: 333: Next--;
  4032  139C  3001               	movlw	low(01h)
  4033  139D  02B5               	subwf	(_Next),f
  4034  139E  2BFA               	goto	l10509
  4035                           	line	334
  4036                           	
  4037  139F                     l3204:	
  4038                           	line	335
  4039                           ;Beverage_services.c: 334: }
  4040                           ;Beverage_services.c: 335: break;
  4041  139F  2BFA               	goto	l10509
  4042                           	line	336
  4043                           ;Beverage_services.c: 336: case _LIGHT_TEA_BUTTON: if(Next<9)
  4044                           	
  4045  13A0                     l3205:	
  4046                           	
  4047  13A0                     l10485:	
  4048  13A0  3009               	movlw	(09h)
  4049  13A1  0235               	subwf	(_Next),w
  4050  13A2  1803               	skipnc
  4051  13A3  2BA5               	goto	u6761
  4052  13A4  2BA6               	goto	u6760
  4053  13A5                     u6761:
  4054  13A5  2BFA               	goto	l10509
  4055  13A6                     u6760:
  4056                           	line	338
  4057                           	
  4058  13A6                     l10487:	
  4059                           ;Beverage_services.c: 337: {
  4060                           ;Beverage_services.c: 338: Next++;
  4061  13A6  3001               	movlw	(01h)
  4062  13A7  00DC               	movwf	(??_enable_valves+0)+0
  4063  13A8  085C               	movf	(??_enable_valves+0)+0,w
  4064  13A9  07B5               	addwf	(_Next),f
  4065  13AA  2BFA               	goto	l10509
  4066                           	line	339
  4067                           	
  4068  13AB                     l3206:	
  4069                           	line	340
  4070                           ;Beverage_services.c: 339: }
  4071                           ;Beverage_services.c: 340: break;
  4072  13AB  2BFA               	goto	l10509
  4073                           	line	341
  4074                           ;Beverage_services.c: 341: case _BLACK_COFFEE_BUTTON:
  4075                           	
  4076  13AC                     l3207:	
  4077                           	line	342
  4078                           ;Beverage_services.c: 342: break;
  4079  13AC  2BFA               	goto	l10509
  4080                           	line	343
  4081                           ;Beverage_services.c: 343: case _BLACK_TEA_BUTTON: _Demo=1;
  4082                           	
  4083  13AD                     l3208:	
  4084  13AD  14EE               	bsf	(__Demo/8),(__Demo)&7
  4085                           	line	344
  4086                           ;Beverage_services.c: 344: break;
  4087  13AE  2BFA               	goto	l10509
  4088                           	line	345
  4089                           ;Beverage_services.c: 345: case _MILK_BUTTON: if(time>0)
  4090                           	
  4091  13AF                     l3209:	
  4092                           	
  4093  13AF                     l10489:	
  4094  13AF  0834               	movf	(_time+1),w
  4095  13B0  0433               	iorwf	(_time),w
  4096  13B1  1903               	skipnz
  4097  13B2  2BB4               	goto	u6771
  4098  13B3  2BB5               	goto	u6770
  4099  13B4                     u6771:
  4100  13B4  2BFA               	goto	l10509
  4101  13B5                     u6770:
  4102                           	line	347
  4103                           	
  4104  13B5                     l10491:	
  4105                           ;Beverage_services.c: 346: {
  4106                           ;Beverage_services.c: 347: time--;
  4107  13B5  3001               	movlw	low(01h)
  4108  13B6  02B3               	subwf	(_time),f
  4109  13B7  3000               	movlw	high(01h)
  4110  13B8  1C03               	skipc
  4111  13B9  03B4               	decf	(_time+1),f
  4112  13BA  02B4               	subwf	(_time+1),f
  4113  13BB  2BFA               	goto	l10509
  4114                           	line	348
  4115                           	
  4116  13BC                     l3210:	
  4117                           	line	349
  4118                           ;Beverage_services.c: 348: }
  4119                           ;Beverage_services.c: 349: break;
  4120  13BC  2BFA               	goto	l10509
  4121                           	line	350
  4122                           ;Beverage_services.c: 350: case _HOT_WATER_BUTTON: time++;
  4123                           	
  4124  13BD                     l3211:	
  4125                           	
  4126  13BD                     l10493:	
  4127  13BD  3001               	movlw	low(01h)
  4128  13BE  07B3               	addwf	(_time),f
  4129  13BF  1803               	skipnc
  4130  13C0  0AB4               	incf	(_time+1),f
  4131  13C1  3000               	movlw	high(01h)
  4132  13C2  07B4               	addwf	(_time+1),f
  4133                           	line	351
  4134                           ;Beverage_services.c: 351: break;
  4135  13C3  2BFA               	goto	l10509
  4136                           	line	352
  4137                           ;Beverage_services.c: 352: case _EXTRA_BUTTON: _DISABLE_MODE=_Selection;
  4138                           	
  4139  13C4                     l3212:	
  4140                           	
  4141  13C4                     l10495:	
  4142  13C4  3005               	movlw	(05h)
  4143  13C5  00DC               	movwf	(??_enable_valves+0)+0
  4144  13C6  085C               	movf	(??_enable_valves+0)+0,w
  4145  13C7  00B7               	movwf	(__DISABLE_MODE)
  4146                           	line	353
  4147                           ;Beverage_services.c: 353: _ENABLE_MODE=_Valves;
  4148  13C8  3004               	movlw	(04h)
  4149  13C9  00DC               	movwf	(??_enable_valves+0)+0
  4150  13CA  085C               	movf	(??_enable_valves+0)+0,w
  4151  13CB  00B8               	movwf	(__ENABLE_MODE)
  4152                           	line	354
  4153                           	
  4154  13CC                     l10497:	
  4155                           ;Beverage_services.c: 354: Selection_Next=0;
  4156  13CC  01C7               	clrf	(_Selection_Next)
  4157                           	line	355
  4158                           	
  4159  13CD                     l10499:	
  4160                           ;Beverage_services.c: 355: Next=0;
  4161  13CD  01B5               	clrf	(_Next)
  4162                           	line	356
  4163                           ;Beverage_services.c: 356: break;
  4164  13CE  2BFA               	goto	l10509
  4165                           	line	357
  4166                           ;Beverage_services.c: 357: case _MENU_BUTTON: _DISABLE_MODE=_Selection;
  4167                           	
  4168  13CF                     l3213:	
  4169                           	
  4170  13CF                     l10501:	
  4171  13CF  3005               	movlw	(05h)
  4172  13D0  00DC               	movwf	(??_enable_valves+0)+0
  4173  13D1  085C               	movf	(??_enable_valves+0)+0,w
  4174  13D2  00B7               	movwf	(__DISABLE_MODE)
  4175                           	line	358
  4176                           ;Beverage_services.c: 358: _ENABLE_MODE=_Coffee_Dication_Time;
  4177  13D3  3006               	movlw	(06h)
  4178  13D4  00DC               	movwf	(??_enable_valves+0)+0
  4179  13D5  085C               	movf	(??_enable_valves+0)+0,w
  4180  13D6  00B8               	movwf	(__ENABLE_MODE)
  4181                           	line	359
  4182                           	
  4183  13D7                     l10503:	
  4184                           ;Beverage_services.c: 359: Selection_Next=0;
  4185  13D7  01C7               	clrf	(_Selection_Next)
  4186                           	line	360
  4187                           ;Beverage_services.c: 360: break;
  4188  13D8  2BFA               	goto	l10509
  4189                           	line	361
  4190                           	
  4191  13D9                     l10505:	
  4192                           ;Beverage_services.c: 361: }
  4193  13D9  2BFA               	goto	l10509
  4194                           	line	317
  4195                           	
  4196  13DA                     l3197:	
  4197                           	
  4198  13DA                     l10507:	
  4199  13DA  083B               	movf	(__PRESSED),w
  4200                           	; Switch size 1, requested type "space"
  4201                           ; Number of cases is 10, Range of values is 1 to 10
  4202                           ; switch strategies available:
  4203                           ; Name         Instructions Cycles
  4204                           ; simple_byte           31    16 (average)
  4205                           ; direct_byte           41    11 (fixed)
  4206                           ; jumptable            263     9 (fixed)
  4207                           ;	Chosen strategy is simple_byte
  4208                           
  4209                           	opt asmopt_off
  4210  13DB  3A01               	xorlw	1^0	; case 1
  4211  13DC  1903               	skipnz
  4212  13DD  2B82               	goto	l10469
  4213  13DE  3A03               	xorlw	2^1	; case 2
  4214  13DF  1903               	skipnz
  4215  13E0  2B8B               	goto	l10475
  4216  13E1  3A01               	xorlw	3^2	; case 3
  4217  13E2  1903               	skipnz
  4218  13E3  2B98               	goto	l10481
  4219  13E4  3A07               	xorlw	4^3	; case 4
  4220  13E5  1903               	skipnz
  4221  13E6  2BA0               	goto	l10485
  4222  13E7  3A01               	xorlw	5^4	; case 5
  4223  13E8  1903               	skipnz
  4224  13E9  2BFA               	goto	l10509
  4225  13EA  3A03               	xorlw	6^5	; case 6
  4226  13EB  1903               	skipnz
  4227  13EC  2BAD               	goto	l3208
  4228  13ED  3A01               	xorlw	7^6	; case 7
  4229  13EE  1903               	skipnz
  4230  13EF  2BAF               	goto	l10489
  4231  13F0  3A0F               	xorlw	8^7	; case 8
  4232  13F1  1903               	skipnz
  4233  13F2  2BC4               	goto	l10495
  4234  13F3  3A01               	xorlw	9^8	; case 9
  4235  13F4  1903               	skipnz
  4236  13F5  2BBD               	goto	l10493
  4237  13F6  3A03               	xorlw	10^9	; case 10
  4238  13F7  1903               	skipnz
  4239  13F8  2BCF               	goto	l10501
  4240  13F9  2BFA               	goto	l10509
  4241                           	opt asmopt_on
  4242                           
  4243                           	line	361
  4244                           	
  4245  13FA                     l3200:	
  4246                           	line	362
  4247                           	
  4248  13FA                     l10509:	
  4249                           ;Beverage_services.c: 362: if(_PRESSED==_NORMAL_COFFEE_BUTTON || _PRESSED==_NORMAL_TEA_B
                                 UTTON || _PRESSED==_LIGHT_COFFEE_BUTTON || _PRESSED==_LIGHT_TEA_BUTTON)
  4250  13FA  083B               	movf	(__PRESSED),w
  4251  13FB  3A01               	xorlw	01h
  4252  13FC  1903               	skipnz
  4253  13FD  2BFF               	goto	u6781
  4254  13FE  2C00               	goto	u6780
  4255  13FF                     u6781:
  4256  13FF  2C15               	goto	l10517
  4257  1400                     u6780:
  4258                           	
  4259  1400                     l10511:	
  4260  1400  083B               	movf	(__PRESSED),w
  4261  1401  3A02               	xorlw	02h
  4262  1402  1903               	skipnz
  4263  1403  2C05               	goto	u6791
  4264  1404  2C06               	goto	u6790
  4265  1405                     u6791:
  4266  1405  2C15               	goto	l10517
  4267  1406                     u6790:
  4268                           	
  4269  1406                     l10513:	
  4270  1406  083B               	movf	(__PRESSED),w
  4271  1407  3A03               	xorlw	03h
  4272  1408  1903               	skipnz
  4273  1409  2C0B               	goto	u6801
  4274  140A  2C0C               	goto	u6800
  4275  140B                     u6801:
  4276  140B  2C15               	goto	l10517
  4277  140C                     u6800:
  4278                           	
  4279  140C                     l10515:	
  4280  140C  083B               	movf	(__PRESSED),w
  4281  140D  3A04               	xorlw	04h
  4282  140E  1D03               	skipz
  4283  140F  2C11               	goto	u6811
  4284  1410  2C14               	goto	u6810
  4285  1411                     u6811:
  4286  1411  120A  158A  2863   	goto	l10519
  4287  1414                     u6810:
  4288  1414  2C15               	goto	l10517
  4289                           	
  4290  1415                     l3216:	
  4291                           	line	364
  4292                           	
  4293  1415                     l10517:	
  4294                           ;Beverage_services.c: 363: {
  4295                           ;Beverage_services.c: 364: time=eeprom_read(((12*(Selection_Next+1))-2)+Next);
  4296  1415  300C               	movlw	(0Ch)
  4297  1416  00DC               	movwf	(??_enable_valves+0)+0
  4298  1417  085C               	movf	(??_enable_valves+0)+0,w
  4299  1418  00F0               	movwf	(?___bmul)
  4300  1419  0847               	movf	(_Selection_Next),w
  4301  141A  3E01               	addlw	01h
  4302  141B  160A  158A  2186   	fcall	___bmul
              160A  118A         
  4303  1420  1283               	bcf	status, 5	;RP0=0, select bank0
  4304  1421  1303               	bcf	status, 6	;RP1=0, select bank0
  4305  1422  00DD               	movwf	(??_enable_valves+1)+0
  4306  1423  0835               	movf	(_Next),w
  4307  1424  075D               	addwf	0+(??_enable_valves+1)+0,w
  4308  1425  3EFE               	addlw	0FEh
  4309  1426  00DE               	movwf	(??_enable_valves+2)+0
  4310  1427  085E               	movf	(??_enable_valves+2)+0,w
  4311  1428  00F4               	movwf	(?_eeprom_read)
  4312  1429  160A  158A  21B7   	fcall	_eeprom_read
              160A  118A         
  4313  142E  1283               	bcf	status, 5	;RP0=0, select bank0
  4314  142F  1303               	bcf	status, 6	;RP1=0, select bank0
  4315  1430  00DF               	movwf	(??_enable_valves+3)+0
  4316  1431  01E0               	clrf	(??_enable_valves+3)+0+1
  4317  1432  085F               	movf	0+(??_enable_valves+3)+0,w
  4318  1433  00B3               	movwf	(_time)
  4319  1434  0860               	movf	1+(??_enable_valves+3)+0,w
  4320  1435  00B4               	movwf	(_time+1)
  4321  1436  2C11               	goto	l10519
  4322                           	line	365
  4323                           	
  4324  0863                     l3214:	
  4325                           	line	366
  4326                           	
  4327  0863                     l10519:	
  4328                           ;Beverage_services.c: 365: }
  4329                           ;Beverage_services.c: 366: if(_PRESSED && (_PRESSED!=_MENU_BUTTON) && (_PRESSED!=_EXTRA_
                                 BUTTON))
  4330  0863  083B               	movf	(__PRESSED),w
  4331  0864  1D03               	skipz
  4332  0865  2867               	goto	u6820
  4333  0866  29A6               	goto	l10571
  4334  0867                     u6820:
  4335                           	
  4336  0867                     l10521:	
  4337  0867  083B               	movf	(__PRESSED),w
  4338  0868  3A0A               	xorlw	0Ah
  4339  0869  1903               	skipnz
  4340  086A  286C               	goto	u6831
  4341  086B  286D               	goto	u6830
  4342  086C                     u6831:
  4343  086C  29A6               	goto	l10571
  4344  086D                     u6830:
  4345                           	
  4346  086D                     l10523:	
  4347  086D  083B               	movf	(__PRESSED),w
  4348  086E  3A08               	xorlw	08h
  4349  086F  1903               	skipnz
  4350  0870  2872               	goto	u6841
  4351  0871  2873               	goto	u6840
  4352  0872                     u6841:
  4353  0872  29A6               	goto	l10571
  4354  0873                     u6840:
  4355                           	line	368
  4356                           	
  4357  0873                     l10525:	
  4358                           ;Beverage_services.c: 367: {
  4359                           ;Beverage_services.c: 368: SendByteSerially(0x0D);
  4360  0873  300D               	movlw	(0Dh)
  4361  0874  160A  158A  216A   	fcall	_SendByteSerially
              120A  158A         
  4362                           	line	369
  4363                           	
  4364  0879                     l10527:	
  4365                           ;Beverage_services.c: 369: myitoa(Selection_Next+1,buff);
  4366  0879  1283               	bcf	status, 5	;RP0=0, select bank0
  4367  087A  1303               	bcf	status, 6	;RP1=0, select bank0
  4368  087B  0847               	movf	(_Selection_Next),w
  4369  087C  3E01               	addlw	low(01h)
  4370  087D  00FB               	movwf	(?_myitoa)
  4371  087E  3000               	movlw	high(01h)
  4372  087F  1803               	skipnc
  4373  0880  3001               	movlw	(high(01h)+1)&0ffh
  4374  0881  00FC               	movwf	((?_myitoa))+1
  4375  0882  3043               	movlw	(_buff)&0ffh
  4376  0883  00DC               	movwf	(??_enable_valves+0)+0
  4377  0884  085C               	movf	(??_enable_valves+0)+0,w
  4378  0885  00FD               	movwf	0+(?_myitoa)+02h
  4379  0886  160A  118A  2014   	fcall	_myitoa
              120A  158A         
  4380                           	line	370
  4381                           	
  4382  088B                     l10529:	
  4383                           ;Beverage_services.c: 370: Lcd_String(buff,0,0);
  4384  088B  3043               	movlw	(_buff&0ffh)
  4385  088C  1283               	bcf	status, 5	;RP0=0, select bank0
  4386  088D  1303               	bcf	status, 6	;RP1=0, select bank0
  4387  088E  00CE               	movwf	(?_Lcd_String)
  4388  088F  3000               	movlw	(0x0/2)
  4389  0890  00CF               	movwf	(?_Lcd_String+1)
  4390  0891  01D0               	clrf	0+(?_Lcd_String)+02h
  4391  0892  01D1               	clrf	0+(?_Lcd_String)+03h
  4392  0893  160A  158A  2509   	fcall	_Lcd_String
              120A  158A         
  4393                           	line	371
  4394                           	
  4395  0898                     l10531:	
  4396                           ;Beverage_services.c: 371: if(!(Next%2))
  4397  0898  1283               	bcf	status, 5	;RP0=0, select bank0
  4398  0899  1303               	bcf	status, 6	;RP1=0, select bank0
  4399  089A  1835               	btfsc	(_Next),(0)&7
  4400  089B  289D               	goto	u6851
  4401  089C  289E               	goto	u6850
  4402  089D                     u6851:
  4403  089D  2930               	goto	l10559
  4404  089E                     u6850:
  4405                           	line	373
  4406                           	
  4407  089E                     l10533:	
  4408                           ;Beverage_services.c: 372: {
  4409                           ;Beverage_services.c: 373: Lcd_String("LOAD ",0,1);
  4410  089E  30FD               	movlw	low(STR_3|8000h)
  4411  089F  00CE               	movwf	(?_Lcd_String)
  4412  08A0  3098               	movlw	high(STR_3|8000h)
  4413  08A1  00CF               	movwf	((?_Lcd_String))+1
  4414  08A2  01D0               	clrf	0+(?_Lcd_String)+02h
  4415  08A3  01D1               	clrf	0+(?_Lcd_String)+03h
  4416  08A4  1403               	bsf	status,0
  4417  08A5  0DD1               	rlf	0+(?_Lcd_String)+03h,f
  4418  08A6  160A  158A  2509   	fcall	_Lcd_String
              120A  158A         
  4419                           	line	374
  4420                           	
  4421  08AB                     l10535:	
  4422                           ;Beverage_services.c: 374: Lcd_Data(asciitable[(Next/2)+1]);
  4423  08AB  3002               	movlw	low(02h)
  4424  08AC  00F0               	movwf	(?___awdiv)
  4425  08AD  3000               	movlw	high(02h)
  4426  08AE  00F1               	movwf	((?___awdiv))+1
  4427  08AF  1283               	bcf	status, 5	;RP0=0, select bank0
  4428  08B0  1303               	bcf	status, 6	;RP1=0, select bank0
  4429  08B1  0835               	movf	(_Next),w
  4430  08B2  00DC               	movwf	(??_enable_valves+0)+0
  4431  08B3  01DD               	clrf	(??_enable_valves+0)+0+1
  4432  08B4  085C               	movf	0+(??_enable_valves+0)+0,w
  4433  08B5  00F2               	movwf	0+(?___awdiv)+02h
  4434  08B6  085D               	movf	1+(??_enable_valves+0)+0,w
  4435  08B7  00F3               	movwf	1+(?___awdiv)+02h
  4436  08B8  160A  158A  2609   	fcall	___awdiv
              120A  158A         
  4437  08BD  0870               	movf	(0+(?___awdiv)),w
  4438  08BE  3E01               	addlw	01h
  4439  08BF  3EA0               	addlw	_asciitable&0ffh
  4440  08C0  0084               	movwf	fsr0
  4441  08C1  1383               	bcf	status, 7	;select IRP bank1
  4442  08C2  0800               	movf	indf,w
  4443  08C3  160A  158A  234D   	fcall	_Lcd_Data
              120A  158A         
  4444                           	line	375
  4445                           	
  4446  08C8                     l10537:	
  4447                           ;Beverage_services.c: 375: if(_Demo==1)
  4448  08C8  1283               	bcf	status, 5	;RP0=0, select bank0
  4449  08C9  1303               	bcf	status, 6	;RP1=0, select bank0
  4450  08CA  1CEE               	btfss	(__Demo/8),(__Demo)&7
  4451  08CB  28CD               	goto	u6861
  4452  08CC  28CE               	goto	u6860
  4453  08CD                     u6861:
  4454  08CD  295B               	goto	l10563
  4455  08CE                     u6860:
  4456                           	line	377
  4457                           	
  4458  08CE                     l10539:	
  4459                           ;Beverage_services.c: 376: {
  4460                           ;Beverage_services.c: 377: if(Next==0)
  4461  08CE  08B5               	movf	(_Next),f
  4462  08CF  1D03               	skipz
  4463  08D0  28D2               	goto	u6871
  4464  08D1  28D3               	goto	u6870
  4465  08D2                     u6871:
  4466  08D2  28D8               	goto	l3220
  4467  08D3                     u6870:
  4468                           	line	378
  4469                           	
  4470  08D3                     l10541:	
  4471                           ;Beverage_services.c: 378: _ON=_OFF=_Coffee_Valve;
  4472  08D3  3006               	movlw	(06h)
  4473  08D4  00B9               	movwf	(__OFF)
  4474  08D5  00DC               	movwf	(??_enable_valves+0)+0
  4475  08D6  085C               	movf	(??_enable_valves+0)+0,w
  4476  08D7  00BA               	movwf	(__ON)
  4477                           	
  4478  08D8                     l3220:	
  4479                           	line	379
  4480                           ;Beverage_services.c: 379: if(Next==2)
  4481  08D8  0835               	movf	(_Next),w
  4482  08D9  3A02               	xorlw	02h
  4483  08DA  1D03               	skipz
  4484  08DB  28DD               	goto	u6881
  4485  08DC  28DE               	goto	u6880
  4486  08DD                     u6881:
  4487  08DD  28E3               	goto	l3221
  4488  08DE                     u6880:
  4489                           	line	380
  4490                           	
  4491  08DE                     l10543:	
  4492                           ;Beverage_services.c: 380: _ON=_OFF=_Tea_Valve;
  4493  08DE  3008               	movlw	(08h)
  4494  08DF  00B9               	movwf	(__OFF)
  4495  08E0  00DC               	movwf	(??_enable_valves+0)+0
  4496  08E1  085C               	movf	(??_enable_valves+0)+0,w
  4497  08E2  00BA               	movwf	(__ON)
  4498                           	
  4499  08E3                     l3221:	
  4500                           	line	381
  4501                           ;Beverage_services.c: 381: if(Next==4)
  4502  08E3  0835               	movf	(_Next),w
  4503  08E4  3A04               	xorlw	04h
  4504  08E5  1D03               	skipz
  4505  08E6  28E8               	goto	u6891
  4506  08E7  28E9               	goto	u6890
  4507  08E8                     u6891:
  4508  08E8  28EE               	goto	l3222
  4509  08E9                     u6890:
  4510                           	line	382
  4511                           	
  4512  08E9                     l10545:	
  4513                           ;Beverage_services.c: 382: _ON=_OFF=_Mixing_Hot_Water_Valve;
  4514  08E9  3003               	movlw	(03h)
  4515  08EA  00B9               	movwf	(__OFF)
  4516  08EB  00DC               	movwf	(??_enable_valves+0)+0
  4517  08EC  085C               	movf	(??_enable_valves+0)+0,w
  4518  08ED  00BA               	movwf	(__ON)
  4519                           	
  4520  08EE                     l3222:	
  4521                           	line	383
  4522                           ;Beverage_services.c: 383: if(Next==6)
  4523  08EE  0835               	movf	(_Next),w
  4524  08EF  3A06               	xorlw	06h
  4525  08F0  1D03               	skipz
  4526  08F1  28F3               	goto	u6901
  4527  08F2  28F4               	goto	u6900
  4528  08F3                     u6901:
  4529  08F3  28F9               	goto	l3223
  4530  08F4                     u6900:
  4531                           	line	384
  4532                           	
  4533  08F4                     l10547:	
  4534                           ;Beverage_services.c: 384: _ON=_OFF=_Milk_Valve_Forward;
  4535  08F4  3001               	movlw	(01h)
  4536  08F5  00B9               	movwf	(__OFF)
  4537  08F6  00DC               	movwf	(??_enable_valves+0)+0
  4538  08F7  085C               	movf	(??_enable_valves+0)+0,w
  4539  08F8  00BA               	movwf	(__ON)
  4540                           	
  4541  08F9                     l3223:	
  4542                           	line	385
  4543                           ;Beverage_services.c: 385: if(Next==8)
  4544  08F9  0835               	movf	(_Next),w
  4545  08FA  3A08               	xorlw	08h
  4546  08FB  1D03               	skipz
  4547  08FC  28FE               	goto	u6911
  4548  08FD  28FF               	goto	u6910
  4549  08FE                     u6911:
  4550  08FE  2905               	goto	l10551
  4551  08FF                     u6910:
  4552                           	line	386
  4553                           	
  4554  08FF                     l10549:	
  4555                           ;Beverage_services.c: 386: _ON=_OFF=_Viber_Motor;
  4556  08FF  3009               	movlw	(09h)
  4557  0900  00B9               	movwf	(__OFF)
  4558  0901  00DC               	movwf	(??_enable_valves+0)+0
  4559  0902  085C               	movf	(??_enable_valves+0)+0,w
  4560  0903  00BA               	movwf	(__ON)
  4561  0904  2905               	goto	l10551
  4562                           	
  4563  0905                     l3224:	
  4564                           	line	387
  4565                           	
  4566  0905                     l10551:	
  4567                           ;Beverage_services.c: 387: onthevalve();
  4568  0905  160A  158A  23C0   	fcall	_onthevalve
              120A  158A         
  4569                           	line	388
  4570                           	
  4571  090A                     l10553:	
  4572                           ;Beverage_services.c: 388: DelayMs(time*100);
  4573  090A  1283               	bcf	status, 5	;RP0=0, select bank0
  4574  090B  1303               	bcf	status, 6	;RP1=0, select bank0
  4575  090C  0834               	movf	(_time+1),w
  4576  090D  01F7               	clrf	(?___wmul+1)
  4577  090E  07F7               	addwf	(?___wmul+1)
  4578  090F  0833               	movf	(_time),w
  4579  0910  01F6               	clrf	(?___wmul)
  4580  0911  07F6               	addwf	(?___wmul)
  4581                           
  4582  0912  3064               	movlw	low(064h)
  4583  0913  00F8               	movwf	0+(?___wmul)+02h
  4584  0914  3000               	movlw	high(064h)
  4585  0915  00F9               	movwf	(0+(?___wmul)+02h)+1
  4586  0916  160A  158A  221B   	fcall	___wmul
              120A  158A         
  4587  091B  0877               	movf	(1+(?___wmul)),w
  4588  091C  01FD               	clrf	(?_DelayMs+1)
  4589  091D  07FD               	addwf	(?_DelayMs+1)
  4590  091E  0876               	movf	(0+(?___wmul)),w
  4591  091F  01FC               	clrf	(?_DelayMs)
  4592  0920  07FC               	addwf	(?_DelayMs)
  4593                           
  4594  0921  160A  158A  21F3   	fcall	_DelayMs
              120A  158A         
  4595                           	line	389
  4596                           	
  4597  0926                     l10555:	
  4598                           ;Beverage_services.c: 389: offthevalve();
  4599  0926  160A  158A  2386   	fcall	_offthevalve
              120A  158A         
  4600                           	line	390
  4601                           	
  4602  092B                     l10557:	
  4603                           ;Beverage_services.c: 390: _Demo=0;
  4604  092B  1283               	bcf	status, 5	;RP0=0, select bank0
  4605  092C  1303               	bcf	status, 6	;RP1=0, select bank0
  4606  092D  10EE               	bcf	(__Demo/8),(__Demo)&7
  4607  092E  295B               	goto	l10563
  4608                           	line	391
  4609                           	
  4610  092F                     l3219:	
  4611                           	line	392
  4612                           ;Beverage_services.c: 391: }
  4613                           ;Beverage_services.c: 392: }
  4614  092F  295B               	goto	l10563
  4615                           	line	393
  4616                           	
  4617  0930                     l3218:	
  4618                           	line	395
  4619                           	
  4620  0930                     l10559:	
  4621                           ;Beverage_services.c: 393: else
  4622                           ;Beverage_services.c: 394: {
  4623                           ;Beverage_services.c: 395: Lcd_String("DELAY",0,1);
  4624  0930  3079               	movlw	low(STR_4|8000h)
  4625  0931  00CE               	movwf	(?_Lcd_String)
  4626  0932  3098               	movlw	high(STR_4|8000h)
  4627  0933  00CF               	movwf	((?_Lcd_String))+1
  4628  0934  01D0               	clrf	0+(?_Lcd_String)+02h
  4629  0935  01D1               	clrf	0+(?_Lcd_String)+03h
  4630  0936  1403               	bsf	status,0
  4631  0937  0DD1               	rlf	0+(?_Lcd_String)+03h,f
  4632  0938  160A  158A  2509   	fcall	_Lcd_String
              120A  158A         
  4633                           	line	396
  4634                           	
  4635  093D                     l10561:	
  4636                           ;Beverage_services.c: 396: Lcd_Data(asciitable[(Next/2)+1]);
  4637  093D  3002               	movlw	low(02h)
  4638  093E  00F0               	movwf	(?___awdiv)
  4639  093F  3000               	movlw	high(02h)
  4640  0940  00F1               	movwf	((?___awdiv))+1
  4641  0941  1283               	bcf	status, 5	;RP0=0, select bank0
  4642  0942  1303               	bcf	status, 6	;RP1=0, select bank0
  4643  0943  0835               	movf	(_Next),w
  4644  0944  00DC               	movwf	(??_enable_valves+0)+0
  4645  0945  01DD               	clrf	(??_enable_valves+0)+0+1
  4646  0946  085C               	movf	0+(??_enable_valves+0)+0,w
  4647  0947  00F2               	movwf	0+(?___awdiv)+02h
  4648  0948  085D               	movf	1+(??_enable_valves+0)+0,w
  4649  0949  00F3               	movwf	1+(?___awdiv)+02h
  4650  094A  160A  158A  2609   	fcall	___awdiv
              120A  158A         
  4651  094F  0870               	movf	(0+(?___awdiv)),w
  4652  0950  3E01               	addlw	01h
  4653  0951  3EA0               	addlw	_asciitable&0ffh
  4654  0952  0084               	movwf	fsr0
  4655  0953  1383               	bcf	status, 7	;select IRP bank1
  4656  0954  0800               	movf	indf,w
  4657  0955  160A  158A  234D   	fcall	_Lcd_Data
              120A  158A         
  4658  095A  295B               	goto	l10563
  4659                           	line	397
  4660                           	
  4661  095B                     l3225:	
  4662                           	line	398
  4663                           	
  4664  095B                     l10563:	
  4665                           ;Beverage_services.c: 397: }
  4666                           ;Beverage_services.c: 398: Lcd_Cmd(0xC9);
  4667  095B  30C9               	movlw	(0C9h)
  4668  095C  160A  158A  2314   	fcall	_Lcd_Cmd
              120A  158A         
  4669                           	line	399
  4670                           	
  4671  0961                     l10565:	
  4672                           ;Beverage_services.c: 399: Num_Disp(time,2,1);
  4673  0961  1283               	bcf	status, 5	;RP0=0, select bank0
  4674  0962  1303               	bcf	status, 6	;RP1=0, select bank0
  4675  0963  0834               	movf	(_time+1),w
  4676  0964  01D1               	clrf	(?_Num_Disp+1)
  4677  0965  07D1               	addwf	(?_Num_Disp+1)
  4678  0966  0833               	movf	(_time),w
  4679  0967  01D0               	clrf	(?_Num_Disp)
  4680  0968  07D0               	addwf	(?_Num_Disp)
  4681                           
  4682  0969  3002               	movlw	(02h)
  4683  096A  00DC               	movwf	(??_enable_valves+0)+0
  4684  096B  085C               	movf	(??_enable_valves+0)+0,w
  4685  096C  00D2               	movwf	0+(?_Num_Disp)+02h
  4686  096D  01D3               	clrf	0+(?_Num_Disp)+03h
  4687  096E  1403               	bsf	status,0
  4688  096F  0DD3               	rlf	0+(?_Num_Disp)+03h,f
  4689  0970  160A  118A  2101   	fcall	_Num_Disp
              120A  158A         
  4690                           	line	400
  4691                           	
  4692  0975                     l10567:	
  4693                           ;Beverage_services.c: 400: Lcd_Cmd(0xCD);
  4694  0975  30CD               	movlw	(0CDh)
  4695  0976  160A  158A  2314   	fcall	_Lcd_Cmd
              120A  158A         
  4696                           	line	401
  4697                           ;Beverage_services.c: 401: Lcd_String("SEC",0,0);
  4698  097B  3009               	movlw	low(STR_5|8000h)
  4699  097C  1283               	bcf	status, 5	;RP0=0, select bank0
  4700  097D  1303               	bcf	status, 6	;RP1=0, select bank0
  4701  097E  00CE               	movwf	(?_Lcd_String)
  4702  097F  3099               	movlw	high(STR_5|8000h)
  4703  0980  00CF               	movwf	((?_Lcd_String))+1
  4704  0981  01D0               	clrf	0+(?_Lcd_String)+02h
  4705  0982  01D1               	clrf	0+(?_Lcd_String)+03h
  4706  0983  160A  158A  2509   	fcall	_Lcd_String
              120A  158A         
  4707                           	line	402
  4708                           	
  4709  0988                     l10569:	
  4710                           ;Beverage_services.c: 402: eeprom_write(((12*(Selection_Next+1))-2)+Next,time);
  4711  0988  1283               	bcf	status, 5	;RP0=0, select bank0
  4712  0989  1303               	bcf	status, 6	;RP1=0, select bank0
  4713  098A  0833               	movf	(_time),w
  4714  098B  00DC               	movwf	(??_enable_valves+0)+0
  4715  098C  085C               	movf	(??_enable_valves+0)+0,w
  4716  098D  00F6               	movwf	(?_eeprom_write)
  4717  098E  300C               	movlw	(0Ch)
  4718  098F  00DD               	movwf	(??_enable_valves+1)+0
  4719  0990  085D               	movf	(??_enable_valves+1)+0,w
  4720  0991  00F0               	movwf	(?___bmul)
  4721  0992  0847               	movf	(_Selection_Next),w
  4722  0993  3E01               	addlw	01h
  4723  0994  160A  158A  2186   	fcall	___bmul
              120A  158A         
  4724  0999  1283               	bcf	status, 5	;RP0=0, select bank0
  4725  099A  1303               	bcf	status, 6	;RP1=0, select bank0
  4726  099B  00DE               	movwf	(??_enable_valves+2)+0
  4727  099C  0835               	movf	(_Next),w
  4728  099D  075E               	addwf	0+(??_enable_valves+2)+0,w
  4729  099E  3EFE               	addlw	0FEh
  4730  099F  160A  158A  2276   	fcall	_eeprom_write
              120A  158A         
  4731  09A4  29A6               	goto	l10571
  4732                           	line	403
  4733                           	
  4734  09A5                     l3217:	
  4735  09A5  29A6               	goto	l10571
  4736                           	line	405
  4737                           	
  4738  09A6                     l3196:	
  4739                           	line	406
  4740                           	
  4741  09A6                     l10571:	
  4742                           ;Beverage_services.c: 403: }
  4743                           ;Beverage_services.c: 405: }
  4744                           ;Beverage_services.c: 406: if(Enable_Coffee_Dication_Time)
  4745  09A6  1283               	bcf	status, 5	;RP0=0, select bank0
  4746  09A7  1303               	bcf	status, 6	;RP1=0, select bank0
  4747  09A8  1C6B               	btfss	(_Enable_Coffee_Dication_Time/8),(_Enable_Coffee_Dication_Time)&7
  4748  09A9  29AB               	goto	u6921
  4749  09AA  29AC               	goto	u6920
  4750  09AB                     u6921:
  4751  09AB  2A2F               	goto	l10609
  4752  09AC                     u6920:
  4753  09AC  29EE               	goto	l10595
  4754                           	line	408
  4755                           	
  4756  09AD                     l10573:	
  4757                           ;Beverage_services.c: 407: {
  4758                           ;Beverage_services.c: 408: switch(_PRESSED)
  4759  09AD  29EE               	goto	l10595
  4760                           	line	410
  4761                           ;Beverage_services.c: 409: {
  4762                           ;Beverage_services.c: 410: case _MILK_BUTTON: if(time>0)
  4763                           	
  4764  09AE                     l3228:	
  4765                           	
  4766  09AE                     l10575:	
  4767  09AE  0834               	movf	(_time+1),w
  4768  09AF  0433               	iorwf	(_time),w
  4769  09B0  1903               	skipnz
  4770  09B1  29B3               	goto	u6931
  4771  09B2  29B4               	goto	u6930
  4772  09B3                     u6931:
  4773  09B3  29FC               	goto	l10597
  4774  09B4                     u6930:
  4775                           	line	412
  4776                           	
  4777  09B4                     l10577:	
  4778                           ;Beverage_services.c: 411: {
  4779                           ;Beverage_services.c: 412: time--;
  4780  09B4  3001               	movlw	low(01h)
  4781  09B5  02B3               	subwf	(_time),f
  4782  09B6  3000               	movlw	high(01h)
  4783  09B7  1C03               	skipc
  4784  09B8  03B4               	decf	(_time+1),f
  4785  09B9  02B4               	subwf	(_time+1),f
  4786  09BA  29FC               	goto	l10597
  4787                           	line	413
  4788                           	
  4789  09BB                     l3229:	
  4790                           	line	414
  4791                           ;Beverage_services.c: 413: }
  4792                           ;Beverage_services.c: 414: break;
  4793  09BB  29FC               	goto	l10597
  4794                           	line	415
  4795                           ;Beverage_services.c: 415: case _HOT_WATER_BUTTON: time++;
  4796                           	
  4797  09BC                     l3231:	
  4798                           	
  4799  09BC                     l10579:	
  4800  09BC  3001               	movlw	low(01h)
  4801  09BD  07B3               	addwf	(_time),f
  4802  09BE  1803               	skipnc
  4803  09BF  0AB4               	incf	(_time+1),f
  4804  09C0  3000               	movlw	high(01h)
  4805  09C1  07B4               	addwf	(_time+1),f
  4806                           	line	416
  4807                           ;Beverage_services.c: 416: break;
  4808  09C2  29FC               	goto	l10597
  4809                           	line	417
  4810                           ;Beverage_services.c: 417: case _EXTRA_BUTTON: eeprom_write(118,time);
  4811                           	
  4812  09C3                     l3232:	
  4813                           	
  4814  09C3                     l10581:	
  4815  09C3  0833               	movf	(_time),w
  4816  09C4  00DC               	movwf	(??_enable_valves+0)+0
  4817  09C5  085C               	movf	(??_enable_valves+0)+0,w
  4818  09C6  00F6               	movwf	(?_eeprom_write)
  4819  09C7  3076               	movlw	(076h)
  4820  09C8  160A  158A  2276   	fcall	_eeprom_write
              120A  158A         
  4821                           	line	418
  4822                           	
  4823  09CD                     l10583:	
  4824                           ;Beverage_services.c: 418: _DISABLE_MODE=_Coffee_Dication_Time;
  4825  09CD  3006               	movlw	(06h)
  4826  09CE  1283               	bcf	status, 5	;RP0=0, select bank0
  4827  09CF  1303               	bcf	status, 6	;RP1=0, select bank0
  4828  09D0  00DC               	movwf	(??_enable_valves+0)+0
  4829  09D1  085C               	movf	(??_enable_valves+0)+0,w
  4830  09D2  00B7               	movwf	(__DISABLE_MODE)
  4831                           	line	419
  4832                           	
  4833  09D3                     l10585:	
  4834                           ;Beverage_services.c: 419: _ENABLE_MODE=_Selection;
  4835  09D3  3005               	movlw	(05h)
  4836  09D4  00DC               	movwf	(??_enable_valves+0)+0
  4837  09D5  085C               	movf	(??_enable_valves+0)+0,w
  4838  09D6  00B8               	movwf	(__ENABLE_MODE)
  4839                           	line	420
  4840                           ;Beverage_services.c: 420: break;
  4841  09D7  29FC               	goto	l10597
  4842                           	line	421
  4843                           ;Beverage_services.c: 421: case _MENU_BUTTON: eeprom_write(118,time);
  4844                           	
  4845  09D8                     l3233:	
  4846                           	
  4847  09D8                     l10587:	
  4848  09D8  0833               	movf	(_time),w
  4849  09D9  00DC               	movwf	(??_enable_valves+0)+0
  4850  09DA  085C               	movf	(??_enable_valves+0)+0,w
  4851  09DB  00F6               	movwf	(?_eeprom_write)
  4852  09DC  3076               	movlw	(076h)
  4853  09DD  160A  158A  2276   	fcall	_eeprom_write
              120A  158A         
  4854                           	line	422
  4855                           	
  4856  09E2                     l10589:	
  4857                           ;Beverage_services.c: 422: _DISABLE_MODE=_Coffee_Dication_Time;
  4858  09E2  3006               	movlw	(06h)
  4859  09E3  1283               	bcf	status, 5	;RP0=0, select bank0
  4860  09E4  1303               	bcf	status, 6	;RP1=0, select bank0
  4861  09E5  00DC               	movwf	(??_enable_valves+0)+0
  4862  09E6  085C               	movf	(??_enable_valves+0)+0,w
  4863  09E7  00B7               	movwf	(__DISABLE_MODE)
  4864                           	line	423
  4865                           	
  4866  09E8                     l10591:	
  4867                           ;Beverage_services.c: 423: _ENABLE_MODE=_Tea_Dication_Time;
  4868  09E8  3007               	movlw	(07h)
  4869  09E9  00DC               	movwf	(??_enable_valves+0)+0
  4870  09EA  085C               	movf	(??_enable_valves+0)+0,w
  4871  09EB  00B8               	movwf	(__ENABLE_MODE)
  4872                           	line	424
  4873                           ;Beverage_services.c: 424: break;
  4874  09EC  29FC               	goto	l10597
  4875                           	line	425
  4876                           	
  4877  09ED                     l10593:	
  4878                           ;Beverage_services.c: 425: }
  4879  09ED  29FC               	goto	l10597
  4880                           	line	408
  4881                           	
  4882  09EE                     l3227:	
  4883                           	
  4884  09EE                     l10595:	
  4885  09EE  083B               	movf	(__PRESSED),w
  4886                           	; Switch size 1, requested type "space"
  4887                           ; Number of cases is 4, Range of values is 7 to 10
  4888                           ; switch strategies available:
  4889                           ; Name         Instructions Cycles
  4890                           ; simple_byte           13     7 (average)
  4891                           ; direct_byte           23    11 (fixed)
  4892                           ; jumptable            263     9 (fixed)
  4893                           ;	Chosen strategy is simple_byte
  4894                           
  4895                           	opt asmopt_off
  4896  09EF  3A07               	xorlw	7^0	; case 7
  4897  09F0  1903               	skipnz
  4898  09F1  29AE               	goto	l10575
  4899  09F2  3A0F               	xorlw	8^7	; case 8
  4900  09F3  1903               	skipnz
  4901  09F4  29C3               	goto	l10581
  4902  09F5  3A01               	xorlw	9^8	; case 9
  4903  09F6  1903               	skipnz
  4904  09F7  29BC               	goto	l10579
  4905  09F8  3A03               	xorlw	10^9	; case 10
  4906  09F9  1903               	skipnz
  4907  09FA  29D8               	goto	l10587
  4908  09FB  29FC               	goto	l10597
  4909                           	opt asmopt_on
  4910                           
  4911                           	line	425
  4912                           	
  4913  09FC                     l3230:	
  4914                           	line	426
  4915                           	
  4916  09FC                     l10597:	
  4917                           ;Beverage_services.c: 426: if(_PRESSED && (_PRESSED!=_MENU_BUTTON) && (_PRESSED!=_EXTRA_
                                 BUTTON))
  4918  09FC  083B               	movf	(__PRESSED),w
  4919  09FD  1D03               	skipz
  4920  09FE  2A00               	goto	u6940
  4921  09FF  2A25               	goto	l10607
  4922  0A00                     u6940:
  4923                           	
  4924  0A00                     l10599:	
  4925  0A00  083B               	movf	(__PRESSED),w
  4926  0A01  3A0A               	xorlw	0Ah
  4927  0A02  1903               	skipnz
  4928  0A03  2A05               	goto	u6951
  4929  0A04  2A06               	goto	u6950
  4930  0A05                     u6951:
  4931  0A05  2A25               	goto	l10607
  4932  0A06                     u6950:
  4933                           	
  4934  0A06                     l10601:	
  4935  0A06  083B               	movf	(__PRESSED),w
  4936  0A07  3A08               	xorlw	08h
  4937  0A08  1903               	skipnz
  4938  0A09  2A0B               	goto	u6961
  4939  0A0A  2A0C               	goto	u6960
  4940  0A0B                     u6961:
  4941  0A0B  2A25               	goto	l10607
  4942  0A0C                     u6960:
  4943                           	line	428
  4944                           	
  4945  0A0C                     l10603:	
  4946                           ;Beverage_services.c: 427: {
  4947                           ;Beverage_services.c: 428: Lcd_Cmd(0xC8);
  4948  0A0C  30C8               	movlw	(0C8h)
  4949  0A0D  160A  158A  2314   	fcall	_Lcd_Cmd
              120A  158A         
  4950                           	line	429
  4951                           	
  4952  0A12                     l10605:	
  4953                           ;Beverage_services.c: 429: Num_Disp(time,3,0);
  4954  0A12  1283               	bcf	status, 5	;RP0=0, select bank0
  4955  0A13  1303               	bcf	status, 6	;RP1=0, select bank0
  4956  0A14  0834               	movf	(_time+1),w
  4957  0A15  01D1               	clrf	(?_Num_Disp+1)
  4958  0A16  07D1               	addwf	(?_Num_Disp+1)
  4959  0A17  0833               	movf	(_time),w
  4960  0A18  01D0               	clrf	(?_Num_Disp)
  4961  0A19  07D0               	addwf	(?_Num_Disp)
  4962                           
  4963  0A1A  3003               	movlw	(03h)
  4964  0A1B  00DC               	movwf	(??_enable_valves+0)+0
  4965  0A1C  085C               	movf	(??_enable_valves+0)+0,w
  4966  0A1D  00D2               	movwf	0+(?_Num_Disp)+02h
  4967  0A1E  01D3               	clrf	0+(?_Num_Disp)+03h
  4968  0A1F  160A  118A  2101   	fcall	_Num_Disp
              120A  158A         
  4969  0A24  2A25               	goto	l10607
  4970                           	line	430
  4971                           	
  4972  0A25                     l3234:	
  4973                           	line	431
  4974                           	
  4975  0A25                     l10607:	
  4976                           ;Beverage_services.c: 430: }
  4977                           ;Beverage_services.c: 431: DelayMs(20);
  4978  0A25  3014               	movlw	low(014h)
  4979  0A26  00FC               	movwf	(?_DelayMs)
  4980  0A27  3000               	movlw	high(014h)
  4981  0A28  00FD               	movwf	((?_DelayMs))+1
  4982  0A29  160A  158A  21F3   	fcall	_DelayMs
              120A  158A         
  4983  0A2E  2A2F               	goto	l10609
  4984                           	line	432
  4985                           	
  4986  0A2F                     l3226:	
  4987                           	line	433
  4988                           	
  4989  0A2F                     l10609:	
  4990                           ;Beverage_services.c: 432: }
  4991                           ;Beverage_services.c: 433: if(Enable_Tea_Dication_Time)
  4992  0A2F  1283               	bcf	status, 5	;RP0=0, select bank0
  4993  0A30  1303               	bcf	status, 6	;RP1=0, select bank0
  4994  0A31  1DED               	btfss	(_Enable_Tea_Dication_Time/8),(_Enable_Tea_Dication_Time)&7
  4995  0A32  2A34               	goto	u6971
  4996  0A33  2A35               	goto	u6970
  4997  0A34                     u6971:
  4998  0A34  2AB8               	goto	l10647
  4999  0A35                     u6970:
  5000  0A35  2A77               	goto	l10633
  5001                           	line	435
  5002                           	
  5003  0A36                     l10611:	
  5004                           ;Beverage_services.c: 434: {
  5005                           ;Beverage_services.c: 435: switch(_PRESSED)
  5006  0A36  2A77               	goto	l10633
  5007                           	line	437
  5008                           ;Beverage_services.c: 436: {
  5009                           ;Beverage_services.c: 437: case _MILK_BUTTON: if(time>0)
  5010                           	
  5011  0A37                     l3237:	
  5012                           	
  5013  0A37                     l10613:	
  5014  0A37  0834               	movf	(_time+1),w
  5015  0A38  0433               	iorwf	(_time),w
  5016  0A39  1903               	skipnz
  5017  0A3A  2A3C               	goto	u6981
  5018  0A3B  2A3D               	goto	u6980
  5019  0A3C                     u6981:
  5020  0A3C  2A85               	goto	l10635
  5021  0A3D                     u6980:
  5022                           	line	439
  5023                           	
  5024  0A3D                     l10615:	
  5025                           ;Beverage_services.c: 438: {
  5026                           ;Beverage_services.c: 439: time--;
  5027  0A3D  3001               	movlw	low(01h)
  5028  0A3E  02B3               	subwf	(_time),f
  5029  0A3F  3000               	movlw	high(01h)
  5030  0A40  1C03               	skipc
  5031  0A41  03B4               	decf	(_time+1),f
  5032  0A42  02B4               	subwf	(_time+1),f
  5033  0A43  2A85               	goto	l10635
  5034                           	line	440
  5035                           	
  5036  0A44                     l3238:	
  5037                           	line	441
  5038                           ;Beverage_services.c: 440: }
  5039                           ;Beverage_services.c: 441: break;
  5040  0A44  2A85               	goto	l10635
  5041                           	line	442
  5042                           ;Beverage_services.c: 442: case _HOT_WATER_BUTTON: time++;
  5043                           	
  5044  0A45                     l3240:	
  5045                           	
  5046  0A45                     l10617:	
  5047  0A45  3001               	movlw	low(01h)
  5048  0A46  07B3               	addwf	(_time),f
  5049  0A47  1803               	skipnc
  5050  0A48  0AB4               	incf	(_time+1),f
  5051  0A49  3000               	movlw	high(01h)
  5052  0A4A  07B4               	addwf	(_time+1),f
  5053                           	line	443
  5054                           ;Beverage_services.c: 443: break;
  5055  0A4B  2A85               	goto	l10635
  5056                           	line	444
  5057                           ;Beverage_services.c: 444: case _EXTRA_BUTTON: eeprom_write(119,time);
  5058                           	
  5059  0A4C                     l3241:	
  5060                           	
  5061  0A4C                     l10619:	
  5062  0A4C  0833               	movf	(_time),w
  5063  0A4D  00DC               	movwf	(??_enable_valves+0)+0
  5064  0A4E  085C               	movf	(??_enable_valves+0)+0,w
  5065  0A4F  00F6               	movwf	(?_eeprom_write)
  5066  0A50  3077               	movlw	(077h)
  5067  0A51  160A  158A  2276   	fcall	_eeprom_write
              120A  158A         
  5068                           	line	445
  5069                           	
  5070  0A56                     l10621:	
  5071                           ;Beverage_services.c: 445: _DISABLE_MODE=_Tea_Dication_Time;
  5072  0A56  3007               	movlw	(07h)
  5073  0A57  1283               	bcf	status, 5	;RP0=0, select bank0
  5074  0A58  1303               	bcf	status, 6	;RP1=0, select bank0
  5075  0A59  00DC               	movwf	(??_enable_valves+0)+0
  5076  0A5A  085C               	movf	(??_enable_valves+0)+0,w
  5077  0A5B  00B7               	movwf	(__DISABLE_MODE)
  5078                           	line	446
  5079                           	
  5080  0A5C                     l10623:	
  5081                           ;Beverage_services.c: 446: _ENABLE_MODE=_Coffee_Dication_Time;
  5082  0A5C  3006               	movlw	(06h)
  5083  0A5D  00DC               	movwf	(??_enable_valves+0)+0
  5084  0A5E  085C               	movf	(??_enable_valves+0)+0,w
  5085  0A5F  00B8               	movwf	(__ENABLE_MODE)
  5086                           	line	447
  5087                           ;Beverage_services.c: 447: break;
  5088  0A60  2A85               	goto	l10635
  5089                           	line	448
  5090                           ;Beverage_services.c: 448: case _MENU_BUTTON: eeprom_write(119,time);
  5091                           	
  5092  0A61                     l3242:	
  5093                           	
  5094  0A61                     l10625:	
  5095  0A61  0833               	movf	(_time),w
  5096  0A62  00DC               	movwf	(??_enable_valves+0)+0
  5097  0A63  085C               	movf	(??_enable_valves+0)+0,w
  5098  0A64  00F6               	movwf	(?_eeprom_write)
  5099  0A65  3077               	movlw	(077h)
  5100  0A66  160A  158A  2276   	fcall	_eeprom_write
              120A  158A         
  5101                           	line	449
  5102                           	
  5103  0A6B                     l10627:	
  5104                           ;Beverage_services.c: 449: _DISABLE_MODE=_Tea_Dication_Time;
  5105  0A6B  3007               	movlw	(07h)
  5106  0A6C  1283               	bcf	status, 5	;RP0=0, select bank0
  5107  0A6D  1303               	bcf	status, 6	;RP1=0, select bank0
  5108  0A6E  00DC               	movwf	(??_enable_valves+0)+0
  5109  0A6F  085C               	movf	(??_enable_valves+0)+0,w
  5110  0A70  00B7               	movwf	(__DISABLE_MODE)
  5111                           	line	450
  5112                           	
  5113  0A71                     l10629:	
  5114                           ;Beverage_services.c: 450: _ENABLE_MODE=_Dication_Delay;
  5115  0A71  3008               	movlw	(08h)
  5116  0A72  00DC               	movwf	(??_enable_valves+0)+0
  5117  0A73  085C               	movf	(??_enable_valves+0)+0,w
  5118  0A74  00B8               	movwf	(__ENABLE_MODE)
  5119                           	line	451
  5120                           ;Beverage_services.c: 451: break;
  5121  0A75  2A85               	goto	l10635
  5122                           	line	452
  5123                           	
  5124  0A76                     l10631:	
  5125                           ;Beverage_services.c: 452: }
  5126  0A76  2A85               	goto	l10635
  5127                           	line	435
  5128                           	
  5129  0A77                     l3236:	
  5130                           	
  5131  0A77                     l10633:	
  5132  0A77  083B               	movf	(__PRESSED),w
  5133                           	; Switch size 1, requested type "space"
  5134                           ; Number of cases is 4, Range of values is 7 to 10
  5135                           ; switch strategies available:
  5136                           ; Name         Instructions Cycles
  5137                           ; simple_byte           13     7 (average)
  5138                           ; direct_byte           23    11 (fixed)
  5139                           ; jumptable            263     9 (fixed)
  5140                           ;	Chosen strategy is simple_byte
  5141                           
  5142                           	opt asmopt_off
  5143  0A78  3A07               	xorlw	7^0	; case 7
  5144  0A79  1903               	skipnz
  5145  0A7A  2A37               	goto	l10613
  5146  0A7B  3A0F               	xorlw	8^7	; case 8
  5147  0A7C  1903               	skipnz
  5148  0A7D  2A4C               	goto	l10619
  5149  0A7E  3A01               	xorlw	9^8	; case 9
  5150  0A7F  1903               	skipnz
  5151  0A80  2A45               	goto	l10617
  5152  0A81  3A03               	xorlw	10^9	; case 10
  5153  0A82  1903               	skipnz
  5154  0A83  2A61               	goto	l10625
  5155  0A84  2A85               	goto	l10635
  5156                           	opt asmopt_on
  5157                           
  5158                           	line	452
  5159                           	
  5160  0A85                     l3239:	
  5161                           	line	453
  5162                           	
  5163  0A85                     l10635:	
  5164                           ;Beverage_services.c: 453: if(_PRESSED && (_PRESSED!=_MENU_BUTTON) && (_PRESSED!=_EXTRA_
                                 BUTTON))
  5165  0A85  083B               	movf	(__PRESSED),w
  5166  0A86  1D03               	skipz
  5167  0A87  2A89               	goto	u6990
  5168  0A88  2AAE               	goto	l10645
  5169  0A89                     u6990:
  5170                           	
  5171  0A89                     l10637:	
  5172  0A89  083B               	movf	(__PRESSED),w
  5173  0A8A  3A0A               	xorlw	0Ah
  5174  0A8B  1903               	skipnz
  5175  0A8C  2A8E               	goto	u7001
  5176  0A8D  2A8F               	goto	u7000
  5177  0A8E                     u7001:
  5178  0A8E  2AAE               	goto	l10645
  5179  0A8F                     u7000:
  5180                           	
  5181  0A8F                     l10639:	
  5182  0A8F  083B               	movf	(__PRESSED),w
  5183  0A90  3A08               	xorlw	08h
  5184  0A91  1903               	skipnz
  5185  0A92  2A94               	goto	u7011
  5186  0A93  2A95               	goto	u7010
  5187  0A94                     u7011:
  5188  0A94  2AAE               	goto	l10645
  5189  0A95                     u7010:
  5190                           	line	455
  5191                           	
  5192  0A95                     l10641:	
  5193                           ;Beverage_services.c: 454: {
  5194                           ;Beverage_services.c: 455: Lcd_Cmd(0xC8);
  5195  0A95  30C8               	movlw	(0C8h)
  5196  0A96  160A  158A  2314   	fcall	_Lcd_Cmd
              120A  158A         
  5197                           	line	456
  5198                           	
  5199  0A9B                     l10643:	
  5200                           ;Beverage_services.c: 456: Num_Disp(time,3,0);
  5201  0A9B  1283               	bcf	status, 5	;RP0=0, select bank0
  5202  0A9C  1303               	bcf	status, 6	;RP1=0, select bank0
  5203  0A9D  0834               	movf	(_time+1),w
  5204  0A9E  01D1               	clrf	(?_Num_Disp+1)
  5205  0A9F  07D1               	addwf	(?_Num_Disp+1)
  5206  0AA0  0833               	movf	(_time),w
  5207  0AA1  01D0               	clrf	(?_Num_Disp)
  5208  0AA2  07D0               	addwf	(?_Num_Disp)
  5209                           
  5210  0AA3  3003               	movlw	(03h)
  5211  0AA4  00DC               	movwf	(??_enable_valves+0)+0
  5212  0AA5  085C               	movf	(??_enable_valves+0)+0,w
  5213  0AA6  00D2               	movwf	0+(?_Num_Disp)+02h
  5214  0AA7  01D3               	clrf	0+(?_Num_Disp)+03h
  5215  0AA8  160A  118A  2101   	fcall	_Num_Disp
              120A  158A         
  5216  0AAD  2AAE               	goto	l10645
  5217                           	line	457
  5218                           	
  5219  0AAE                     l3243:	
  5220                           	line	458
  5221                           	
  5222  0AAE                     l10645:	
  5223                           ;Beverage_services.c: 457: }
  5224                           ;Beverage_services.c: 458: DelayMs(20);
  5225  0AAE  3014               	movlw	low(014h)
  5226  0AAF  00FC               	movwf	(?_DelayMs)
  5227  0AB0  3000               	movlw	high(014h)
  5228  0AB1  00FD               	movwf	((?_DelayMs))+1
  5229  0AB2  160A  158A  21F3   	fcall	_DelayMs
              120A  158A         
  5230  0AB7  2AB8               	goto	l10647
  5231                           	line	459
  5232                           	
  5233  0AB8                     l3235:	
  5234                           	line	460
  5235                           	
  5236  0AB8                     l10647:	
  5237                           ;Beverage_services.c: 459: }
  5238                           ;Beverage_services.c: 460: if(Enable_Dication_Delay)
  5239  0AB8  1283               	bcf	status, 5	;RP0=0, select bank0
  5240  0AB9  1303               	bcf	status, 6	;RP1=0, select bank0
  5241  0ABA  1F6B               	btfss	(_Enable_Dication_Delay/8),(_Enable_Dication_Delay)&7
  5242  0ABB  2ABD               	goto	u7021
  5243  0ABC  2ABE               	goto	u7020
  5244  0ABD                     u7021:
  5245  0ABD  2B4E               	goto	l10685
  5246  0ABE                     u7020:
  5247  0ABE  2B0B               	goto	l10671
  5248                           	line	462
  5249                           	
  5250  0ABF                     l10649:	
  5251                           ;Beverage_services.c: 461: {
  5252                           ;Beverage_services.c: 462: switch(_PRESSED)
  5253  0ABF  2B0B               	goto	l10671
  5254                           	line	464
  5255                           ;Beverage_services.c: 463: {
  5256                           ;Beverage_services.c: 464: case _MILK_BUTTON: if(time>0)
  5257                           	
  5258  0AC0                     l3246:	
  5259                           	
  5260  0AC0                     l10651:	
  5261  0AC0  0834               	movf	(_time+1),w
  5262  0AC1  0433               	iorwf	(_time),w
  5263  0AC2  1903               	skipnz
  5264  0AC3  2AC5               	goto	u7031
  5265  0AC4  2AC6               	goto	u7030
  5266  0AC5                     u7031:
  5267  0AC5  2B19               	goto	l10673
  5268  0AC6                     u7030:
  5269                           	line	466
  5270                           	
  5271  0AC6                     l10653:	
  5272                           ;Beverage_services.c: 465: {
  5273                           ;Beverage_services.c: 466: time--;
  5274  0AC6  3001               	movlw	low(01h)
  5275  0AC7  02B3               	subwf	(_time),f
  5276  0AC8  3000               	movlw	high(01h)
  5277  0AC9  1C03               	skipc
  5278  0ACA  03B4               	decf	(_time+1),f
  5279  0ACB  02B4               	subwf	(_time+1),f
  5280  0ACC  2B19               	goto	l10673
  5281                           	line	467
  5282                           	
  5283  0ACD                     l3247:	
  5284                           	line	468
  5285                           ;Beverage_services.c: 467: }
  5286                           ;Beverage_services.c: 468: break;
  5287  0ACD  2B19               	goto	l10673
  5288                           	line	469
  5289                           ;Beverage_services.c: 469: case _HOT_WATER_BUTTON: time++;
  5290                           	
  5291  0ACE                     l3249:	
  5292                           	
  5293  0ACE                     l10655:	
  5294  0ACE  3001               	movlw	low(01h)
  5295  0ACF  07B3               	addwf	(_time),f
  5296  0AD0  1803               	skipnc
  5297  0AD1  0AB4               	incf	(_time+1),f
  5298  0AD2  3000               	movlw	high(01h)
  5299  0AD3  07B4               	addwf	(_time+1),f
  5300                           	line	470
  5301                           ;Beverage_services.c: 470: break;
  5302  0AD4  2B19               	goto	l10673
  5303                           	line	471
  5304                           ;Beverage_services.c: 471: case _EXTRA_BUTTON: eeprom_write(121,time);
  5305                           	
  5306  0AD5                     l3250:	
  5307                           	
  5308  0AD5                     l10657:	
  5309  0AD5  0833               	movf	(_time),w
  5310  0AD6  00DC               	movwf	(??_enable_valves+0)+0
  5311  0AD7  085C               	movf	(??_enable_valves+0)+0,w
  5312  0AD8  00F6               	movwf	(?_eeprom_write)
  5313  0AD9  3079               	movlw	(079h)
  5314  0ADA  160A  158A  2276   	fcall	_eeprom_write
              120A  158A         
  5315                           	line	472
  5316                           	
  5317  0ADF                     l10659:	
  5318                           ;Beverage_services.c: 472: _DISABLE_MODE=_Dication_Delay;
  5319  0ADF  3008               	movlw	(08h)
  5320  0AE0  1283               	bcf	status, 5	;RP0=0, select bank0
  5321  0AE1  1303               	bcf	status, 6	;RP1=0, select bank0
  5322  0AE2  00DC               	movwf	(??_enable_valves+0)+0
  5323  0AE3  085C               	movf	(??_enable_valves+0)+0,w
  5324  0AE4  00B7               	movwf	(__DISABLE_MODE)
  5325                           	line	473
  5326                           	
  5327  0AE5                     l10661:	
  5328                           ;Beverage_services.c: 473: _ENABLE_MODE=_Tea_Dication_Time;
  5329  0AE5  3007               	movlw	(07h)
  5330  0AE6  00DC               	movwf	(??_enable_valves+0)+0
  5331  0AE7  085C               	movf	(??_enable_valves+0)+0,w
  5332  0AE8  00B8               	movwf	(__ENABLE_MODE)
  5333                           	line	474
  5334                           ;Beverage_services.c: 474: DelayMs(100);
  5335  0AE9  3064               	movlw	low(064h)
  5336  0AEA  00FC               	movwf	(?_DelayMs)
  5337  0AEB  3000               	movlw	high(064h)
  5338  0AEC  00FD               	movwf	((?_DelayMs))+1
  5339  0AED  160A  158A  21F3   	fcall	_DelayMs
              120A  158A         
  5340                           	line	475
  5341                           ;Beverage_services.c: 475: break;
  5342  0AF2  2B19               	goto	l10673
  5343                           	line	476
  5344                           ;Beverage_services.c: 476: case _MENU_BUTTON: eeprom_write(121,time);
  5345                           	
  5346  0AF3                     l3251:	
  5347                           	
  5348  0AF3                     l10663:	
  5349  0AF3  1283               	bcf	status, 5	;RP0=0, select bank0
  5350  0AF4  1303               	bcf	status, 6	;RP1=0, select bank0
  5351  0AF5  0833               	movf	(_time),w
  5352  0AF6  00DC               	movwf	(??_enable_valves+0)+0
  5353  0AF7  085C               	movf	(??_enable_valves+0)+0,w
  5354  0AF8  00F6               	movwf	(?_eeprom_write)
  5355  0AF9  3079               	movlw	(079h)
  5356  0AFA  160A  158A  2276   	fcall	_eeprom_write
              120A  158A         
  5357                           	line	477
  5358                           	
  5359  0AFF                     l10665:	
  5360                           ;Beverage_services.c: 477: _DISABLE_MODE=_Dication_Delay;
  5361  0AFF  3008               	movlw	(08h)
  5362  0B00  1283               	bcf	status, 5	;RP0=0, select bank0
  5363  0B01  1303               	bcf	status, 6	;RP1=0, select bank0
  5364  0B02  00DC               	movwf	(??_enable_valves+0)+0
  5365  0B03  085C               	movf	(??_enable_valves+0)+0,w
  5366  0B04  00B7               	movwf	(__DISABLE_MODE)
  5367                           	line	478
  5368                           	
  5369  0B05                     l10667:	
  5370                           ;Beverage_services.c: 478: _ENABLE_MODE=_Hot_Water_Time;
  5371  0B05  3009               	movlw	(09h)
  5372  0B06  00DC               	movwf	(??_enable_valves+0)+0
  5373  0B07  085C               	movf	(??_enable_valves+0)+0,w
  5374  0B08  00B8               	movwf	(__ENABLE_MODE)
  5375                           	line	479
  5376                           ;Beverage_services.c: 479: break;
  5377  0B09  2B19               	goto	l10673
  5378                           	line	480
  5379                           	
  5380  0B0A                     l10669:	
  5381                           ;Beverage_services.c: 480: }
  5382  0B0A  2B19               	goto	l10673
  5383                           	line	462
  5384                           	
  5385  0B0B                     l3245:	
  5386                           	
  5387  0B0B                     l10671:	
  5388  0B0B  083B               	movf	(__PRESSED),w
  5389                           	; Switch size 1, requested type "space"
  5390                           ; Number of cases is 4, Range of values is 7 to 10
  5391                           ; switch strategies available:
  5392                           ; Name         Instructions Cycles
  5393                           ; simple_byte           13     7 (average)
  5394                           ; direct_byte           23    11 (fixed)
  5395                           ; jumptable            263     9 (fixed)
  5396                           ;	Chosen strategy is simple_byte
  5397                           
  5398                           	opt asmopt_off
  5399  0B0C  3A07               	xorlw	7^0	; case 7
  5400  0B0D  1903               	skipnz
  5401  0B0E  2AC0               	goto	l10651
  5402  0B0F  3A0F               	xorlw	8^7	; case 8
  5403  0B10  1903               	skipnz
  5404  0B11  2AD5               	goto	l10657
  5405  0B12  3A01               	xorlw	9^8	; case 9
  5406  0B13  1903               	skipnz
  5407  0B14  2ACE               	goto	l10655
  5408  0B15  3A03               	xorlw	10^9	; case 10
  5409  0B16  1903               	skipnz
  5410  0B17  2AF3               	goto	l10663
  5411  0B18  2B19               	goto	l10673
  5412                           	opt asmopt_on
  5413                           
  5414                           	line	480
  5415                           	
  5416  0B19                     l3248:	
  5417                           	line	481
  5418                           	
  5419  0B19                     l10673:	
  5420                           ;Beverage_services.c: 481: if(_PRESSED && (_PRESSED!=_MENU_BUTTON) && (_PRESSED!=_EXTRA_
                                 BUTTON))
  5421  0B19  1283               	bcf	status, 5	;RP0=0, select bank0
  5422  0B1A  1303               	bcf	status, 6	;RP1=0, select bank0
  5423  0B1B  083B               	movf	(__PRESSED),w
  5424  0B1C  1D03               	skipz
  5425  0B1D  2B1F               	goto	u7040
  5426  0B1E  2B44               	goto	l10683
  5427  0B1F                     u7040:
  5428                           	
  5429  0B1F                     l10675:	
  5430  0B1F  083B               	movf	(__PRESSED),w
  5431  0B20  3A0A               	xorlw	0Ah
  5432  0B21  1903               	skipnz
  5433  0B22  2B24               	goto	u7051
  5434  0B23  2B25               	goto	u7050
  5435  0B24                     u7051:
  5436  0B24  2B44               	goto	l10683
  5437  0B25                     u7050:
  5438                           	
  5439  0B25                     l10677:	
  5440  0B25  083B               	movf	(__PRESSED),w
  5441  0B26  3A08               	xorlw	08h
  5442  0B27  1903               	skipnz
  5443  0B28  2B2A               	goto	u7061
  5444  0B29  2B2B               	goto	u7060
  5445  0B2A                     u7061:
  5446  0B2A  2B44               	goto	l10683
  5447  0B2B                     u7060:
  5448                           	line	483
  5449                           	
  5450  0B2B                     l10679:	
  5451                           ;Beverage_services.c: 482: {
  5452                           ;Beverage_services.c: 483: Lcd_Cmd(0xC8);
  5453  0B2B  30C8               	movlw	(0C8h)
  5454  0B2C  160A  158A  2314   	fcall	_Lcd_Cmd
              120A  158A         
  5455                           	line	484
  5456                           	
  5457  0B31                     l10681:	
  5458                           ;Beverage_services.c: 484: Num_Disp(time,3,0);
  5459  0B31  1283               	bcf	status, 5	;RP0=0, select bank0
  5460  0B32  1303               	bcf	status, 6	;RP1=0, select bank0
  5461  0B33  0834               	movf	(_time+1),w
  5462  0B34  01D1               	clrf	(?_Num_Disp+1)
  5463  0B35  07D1               	addwf	(?_Num_Disp+1)
  5464  0B36  0833               	movf	(_time),w
  5465  0B37  01D0               	clrf	(?_Num_Disp)
  5466  0B38  07D0               	addwf	(?_Num_Disp)
  5467                           
  5468  0B39  3003               	movlw	(03h)
  5469  0B3A  00DC               	movwf	(??_enable_valves+0)+0
  5470  0B3B  085C               	movf	(??_enable_valves+0)+0,w
  5471  0B3C  00D2               	movwf	0+(?_Num_Disp)+02h
  5472  0B3D  01D3               	clrf	0+(?_Num_Disp)+03h
  5473  0B3E  160A  118A  2101   	fcall	_Num_Disp
              120A  158A         
  5474  0B43  2B44               	goto	l10683
  5475                           	line	485
  5476                           	
  5477  0B44                     l3252:	
  5478                           	line	486
  5479                           	
  5480  0B44                     l10683:	
  5481                           ;Beverage_services.c: 485: }
  5482                           ;Beverage_services.c: 486: DelayMs(10);
  5483  0B44  300A               	movlw	low(0Ah)
  5484  0B45  00FC               	movwf	(?_DelayMs)
  5485  0B46  3000               	movlw	high(0Ah)
  5486  0B47  00FD               	movwf	((?_DelayMs))+1
  5487  0B48  160A  158A  21F3   	fcall	_DelayMs
              120A  158A         
  5488  0B4D  2B4E               	goto	l10685
  5489                           	line	487
  5490                           	
  5491  0B4E                     l3244:	
  5492                           	line	488
  5493                           	
  5494  0B4E                     l10685:	
  5495                           ;Beverage_services.c: 487: }
  5496                           ;Beverage_services.c: 488: if(Enable_Hot_Water_Time)
  5497  0B4E  1283               	bcf	status, 5	;RP0=0, select bank0
  5498  0B4F  1303               	bcf	status, 6	;RP1=0, select bank0
  5499  0B50  1CEC               	btfss	(_Enable_Hot_Water_Time/8),(_Enable_Hot_Water_Time)&7
  5500  0B51  2B53               	goto	u7071
  5501  0B52  2B54               	goto	u7070
  5502  0B53                     u7071:
  5503  0B53  2BE4               	goto	l10723
  5504  0B54                     u7070:
  5505  0B54  2BA1               	goto	l10709
  5506                           	line	490
  5507                           	
  5508  0B55                     l10687:	
  5509                           ;Beverage_services.c: 489: {
  5510                           ;Beverage_services.c: 490: switch(_PRESSED)
  5511  0B55  2BA1               	goto	l10709
  5512                           	line	492
  5513                           ;Beverage_services.c: 491: {
  5514                           ;Beverage_services.c: 492: case _MILK_BUTTON: if(time>0)
  5515                           	
  5516  0B56                     l3255:	
  5517                           	
  5518  0B56                     l10689:	
  5519  0B56  0834               	movf	(_time+1),w
  5520  0B57  0433               	iorwf	(_time),w
  5521  0B58  1903               	skipnz
  5522  0B59  2B5B               	goto	u7081
  5523  0B5A  2B5C               	goto	u7080
  5524  0B5B                     u7081:
  5525  0B5B  2BAF               	goto	l10711
  5526  0B5C                     u7080:
  5527                           	line	494
  5528                           	
  5529  0B5C                     l10691:	
  5530                           ;Beverage_services.c: 493: {
  5531                           ;Beverage_services.c: 494: time--;
  5532  0B5C  3001               	movlw	low(01h)
  5533  0B5D  02B3               	subwf	(_time),f
  5534  0B5E  3000               	movlw	high(01h)
  5535  0B5F  1C03               	skipc
  5536  0B60  03B4               	decf	(_time+1),f
  5537  0B61  02B4               	subwf	(_time+1),f
  5538  0B62  2BAF               	goto	l10711
  5539                           	line	495
  5540                           	
  5541  0B63                     l3256:	
  5542                           	line	496
  5543                           ;Beverage_services.c: 495: }
  5544                           ;Beverage_services.c: 496: break;
  5545  0B63  2BAF               	goto	l10711
  5546                           	line	497
  5547                           ;Beverage_services.c: 497: case _HOT_WATER_BUTTON: time++;
  5548                           	
  5549  0B64                     l3258:	
  5550                           	
  5551  0B64                     l10693:	
  5552  0B64  3001               	movlw	low(01h)
  5553  0B65  07B3               	addwf	(_time),f
  5554  0B66  1803               	skipnc
  5555  0B67  0AB4               	incf	(_time+1),f
  5556  0B68  3000               	movlw	high(01h)
  5557  0B69  07B4               	addwf	(_time+1),f
  5558                           	line	498
  5559                           ;Beverage_services.c: 498: break;
  5560  0B6A  2BAF               	goto	l10711
  5561                           	line	499
  5562                           ;Beverage_services.c: 499: case _EXTRA_BUTTON: eeprom_write(147,time);
  5563                           	
  5564  0B6B                     l3259:	
  5565                           	
  5566  0B6B                     l10695:	
  5567  0B6B  0833               	movf	(_time),w
  5568  0B6C  00DC               	movwf	(??_enable_valves+0)+0
  5569  0B6D  085C               	movf	(??_enable_valves+0)+0,w
  5570  0B6E  00F6               	movwf	(?_eeprom_write)
  5571  0B6F  3093               	movlw	(093h)
  5572  0B70  160A  158A  2276   	fcall	_eeprom_write
              120A  158A         
  5573                           	line	500
  5574                           	
  5575  0B75                     l10697:	
  5576                           ;Beverage_services.c: 500: _DISABLE_MODE=_Hot_Water_Time;
  5577  0B75  3009               	movlw	(09h)
  5578  0B76  1283               	bcf	status, 5	;RP0=0, select bank0
  5579  0B77  1303               	bcf	status, 6	;RP1=0, select bank0
  5580  0B78  00DC               	movwf	(??_enable_valves+0)+0
  5581  0B79  085C               	movf	(??_enable_valves+0)+0,w
  5582  0B7A  00B7               	movwf	(__DISABLE_MODE)
  5583                           	line	501
  5584                           	
  5585  0B7B                     l10699:	
  5586                           ;Beverage_services.c: 501: _ENABLE_MODE=_Dication_Delay;
  5587  0B7B  3008               	movlw	(08h)
  5588  0B7C  00DC               	movwf	(??_enable_valves+0)+0
  5589  0B7D  085C               	movf	(??_enable_valves+0)+0,w
  5590  0B7E  00B8               	movwf	(__ENABLE_MODE)
  5591                           	line	502
  5592                           ;Beverage_services.c: 502: DelayMs(100);
  5593  0B7F  3064               	movlw	low(064h)
  5594  0B80  00FC               	movwf	(?_DelayMs)
  5595  0B81  3000               	movlw	high(064h)
  5596  0B82  00FD               	movwf	((?_DelayMs))+1
  5597  0B83  160A  158A  21F3   	fcall	_DelayMs
              120A  158A         
  5598                           	line	503
  5599                           ;Beverage_services.c: 503: break;
  5600  0B88  2BAF               	goto	l10711
  5601                           	line	504
  5602                           ;Beverage_services.c: 504: case _MENU_BUTTON: eeprom_write(147,time);
  5603                           	
  5604  0B89                     l3260:	
  5605                           	
  5606  0B89                     l10701:	
  5607  0B89  1283               	bcf	status, 5	;RP0=0, select bank0
  5608  0B8A  1303               	bcf	status, 6	;RP1=0, select bank0
  5609  0B8B  0833               	movf	(_time),w
  5610  0B8C  00DC               	movwf	(??_enable_valves+0)+0
  5611  0B8D  085C               	movf	(??_enable_valves+0)+0,w
  5612  0B8E  00F6               	movwf	(?_eeprom_write)
  5613  0B8F  3093               	movlw	(093h)
  5614  0B90  160A  158A  2276   	fcall	_eeprom_write
              120A  158A         
  5615                           	line	505
  5616                           	
  5617  0B95                     l10703:	
  5618                           ;Beverage_services.c: 505: _DISABLE_MODE=_Hot_Water_Time;
  5619  0B95  3009               	movlw	(09h)
  5620  0B96  1283               	bcf	status, 5	;RP0=0, select bank0
  5621  0B97  1303               	bcf	status, 6	;RP1=0, select bank0
  5622  0B98  00DC               	movwf	(??_enable_valves+0)+0
  5623  0B99  085C               	movf	(??_enable_valves+0)+0,w
  5624  0B9A  00B7               	movwf	(__DISABLE_MODE)
  5625                           	line	506
  5626                           	
  5627  0B9B                     l10705:	
  5628                           ;Beverage_services.c: 506: _ENABLE_MODE=_Temperature;
  5629  0B9B  300B               	movlw	(0Bh)
  5630  0B9C  00DC               	movwf	(??_enable_valves+0)+0
  5631  0B9D  085C               	movf	(??_enable_valves+0)+0,w
  5632  0B9E  00B8               	movwf	(__ENABLE_MODE)
  5633                           	line	507
  5634                           ;Beverage_services.c: 507: break;
  5635  0B9F  2BAF               	goto	l10711
  5636                           	line	508
  5637                           	
  5638  0BA0                     l10707:	
  5639                           ;Beverage_services.c: 508: }
  5640  0BA0  2BAF               	goto	l10711
  5641                           	line	490
  5642                           	
  5643  0BA1                     l3254:	
  5644                           	
  5645  0BA1                     l10709:	
  5646  0BA1  083B               	movf	(__PRESSED),w
  5647                           	; Switch size 1, requested type "space"
  5648                           ; Number of cases is 4, Range of values is 7 to 10
  5649                           ; switch strategies available:
  5650                           ; Name         Instructions Cycles
  5651                           ; simple_byte           13     7 (average)
  5652                           ; direct_byte           23    11 (fixed)
  5653                           ; jumptable            263     9 (fixed)
  5654                           ;	Chosen strategy is simple_byte
  5655                           
  5656                           	opt asmopt_off
  5657  0BA2  3A07               	xorlw	7^0	; case 7
  5658  0BA3  1903               	skipnz
  5659  0BA4  2B56               	goto	l10689
  5660  0BA5  3A0F               	xorlw	8^7	; case 8
  5661  0BA6  1903               	skipnz
  5662  0BA7  2B6B               	goto	l10695
  5663  0BA8  3A01               	xorlw	9^8	; case 9
  5664  0BA9  1903               	skipnz
  5665  0BAA  2B64               	goto	l10693
  5666  0BAB  3A03               	xorlw	10^9	; case 10
  5667  0BAC  1903               	skipnz
  5668  0BAD  2B89               	goto	l10701
  5669  0BAE  2BAF               	goto	l10711
  5670                           	opt asmopt_on
  5671                           
  5672                           	line	508
  5673                           	
  5674  0BAF                     l3257:	
  5675                           	line	509
  5676                           	
  5677  0BAF                     l10711:	
  5678                           ;Beverage_services.c: 509: if(_PRESSED && (_PRESSED!=_MENU_BUTTON) && (_PRESSED!=_EXTRA_
                                 BUTTON))
  5679  0BAF  1283               	bcf	status, 5	;RP0=0, select bank0
  5680  0BB0  1303               	bcf	status, 6	;RP1=0, select bank0
  5681  0BB1  083B               	movf	(__PRESSED),w
  5682  0BB2  1D03               	skipz
  5683  0BB3  2BB5               	goto	u7090
  5684  0BB4  2BDA               	goto	l10721
  5685  0BB5                     u7090:
  5686                           	
  5687  0BB5                     l10713:	
  5688  0BB5  083B               	movf	(__PRESSED),w
  5689  0BB6  3A0A               	xorlw	0Ah
  5690  0BB7  1903               	skipnz
  5691  0BB8  2BBA               	goto	u7101
  5692  0BB9  2BBB               	goto	u7100
  5693  0BBA                     u7101:
  5694  0BBA  2BDA               	goto	l10721
  5695  0BBB                     u7100:
  5696                           	
  5697  0BBB                     l10715:	
  5698  0BBB  083B               	movf	(__PRESSED),w
  5699  0BBC  3A08               	xorlw	08h
  5700  0BBD  1903               	skipnz
  5701  0BBE  2BC0               	goto	u7111
  5702  0BBF  2BC1               	goto	u7110
  5703  0BC0                     u7111:
  5704  0BC0  2BDA               	goto	l10721
  5705  0BC1                     u7110:
  5706                           	line	511
  5707                           	
  5708  0BC1                     l10717:	
  5709                           ;Beverage_services.c: 510: {
  5710                           ;Beverage_services.c: 511: Lcd_Cmd(0xC8);
  5711  0BC1  30C8               	movlw	(0C8h)
  5712  0BC2  160A  158A  2314   	fcall	_Lcd_Cmd
              120A  158A         
  5713                           	line	512
  5714                           	
  5715  0BC7                     l10719:	
  5716                           ;Beverage_services.c: 512: Num_Disp(time,3,0);
  5717  0BC7  1283               	bcf	status, 5	;RP0=0, select bank0
  5718  0BC8  1303               	bcf	status, 6	;RP1=0, select bank0
  5719  0BC9  0834               	movf	(_time+1),w
  5720  0BCA  01D1               	clrf	(?_Num_Disp+1)
  5721  0BCB  07D1               	addwf	(?_Num_Disp+1)
  5722  0BCC  0833               	movf	(_time),w
  5723  0BCD  01D0               	clrf	(?_Num_Disp)
  5724  0BCE  07D0               	addwf	(?_Num_Disp)
  5725                           
  5726  0BCF  3003               	movlw	(03h)
  5727  0BD0  00DC               	movwf	(??_enable_valves+0)+0
  5728  0BD1  085C               	movf	(??_enable_valves+0)+0,w
  5729  0BD2  00D2               	movwf	0+(?_Num_Disp)+02h
  5730  0BD3  01D3               	clrf	0+(?_Num_Disp)+03h
  5731  0BD4  160A  118A  2101   	fcall	_Num_Disp
              120A  158A         
  5732  0BD9  2BDA               	goto	l10721
  5733                           	line	513
  5734                           	
  5735  0BDA                     l3261:	
  5736                           	line	514
  5737                           	
  5738  0BDA                     l10721:	
  5739                           ;Beverage_services.c: 513: }
  5740                           ;Beverage_services.c: 514: DelayMs(10);
  5741  0BDA  300A               	movlw	low(0Ah)
  5742  0BDB  00FC               	movwf	(?_DelayMs)
  5743  0BDC  3000               	movlw	high(0Ah)
  5744  0BDD  00FD               	movwf	((?_DelayMs))+1
  5745  0BDE  160A  158A  21F3   	fcall	_DelayMs
              120A  158A         
  5746  0BE3  2BE4               	goto	l10723
  5747                           	line	515
  5748                           	
  5749  0BE4                     l3253:	
  5750                           	line	516
  5751                           	
  5752  0BE4                     l10723:	
  5753                           ;Beverage_services.c: 515: }
  5754                           ;Beverage_services.c: 516: if(Enable_Temperature)
  5755  0BE4  1283               	bcf	status, 5	;RP0=0, select bank0
  5756  0BE5  1303               	bcf	status, 6	;RP1=0, select bank0
  5757  0BE6  1F6D               	btfss	(_Enable_Temperature/8),(_Enable_Temperature)&7
  5758  0BE7  2BE9               	goto	u7121
  5759  0BE8  2BEA               	goto	u7120
  5760  0BE9                     u7121:
  5761  0BE9  2C70               	goto	l10761
  5762  0BEA                     u7120:
  5763  0BEA  2C2F               	goto	l10747
  5764                           	line	518
  5765                           	
  5766  0BEB                     l10725:	
  5767                           ;Beverage_services.c: 517: {
  5768                           ;Beverage_services.c: 518: switch(_PRESSED)
  5769  0BEB  2C2F               	goto	l10747
  5770                           	line	520
  5771                           ;Beverage_services.c: 519: {
  5772                           ;Beverage_services.c: 520: case _MILK_BUTTON: if(time>20)
  5773                           	
  5774  0BEC                     l3264:	
  5775                           	
  5776  0BEC                     l10727:	
  5777  0BEC  3000               	movlw	high(015h)
  5778  0BED  0234               	subwf	(_time+1),w
  5779  0BEE  3015               	movlw	low(015h)
  5780  0BEF  1903               	skipnz
  5781  0BF0  0233               	subwf	(_time),w
  5782  0BF1  1C03               	skipc
  5783  0BF2  2BF4               	goto	u7131
  5784  0BF3  2BF5               	goto	u7130
  5785  0BF4                     u7131:
  5786  0BF4  2C3D               	goto	l10749
  5787  0BF5                     u7130:
  5788                           	line	522
  5789                           	
  5790  0BF5                     l10729:	
  5791                           ;Beverage_services.c: 521: {
  5792                           ;Beverage_services.c: 522: time--;
  5793  0BF5  3001               	movlw	low(01h)
  5794  0BF6  02B3               	subwf	(_time),f
  5795  0BF7  3000               	movlw	high(01h)
  5796  0BF8  1C03               	skipc
  5797  0BF9  03B4               	decf	(_time+1),f
  5798  0BFA  02B4               	subwf	(_time+1),f
  5799  0BFB  2C3D               	goto	l10749
  5800                           	line	523
  5801                           	
  5802  0BFC                     l3265:	
  5803                           	line	524
  5804                           ;Beverage_services.c: 523: }
  5805                           ;Beverage_services.c: 524: break;
  5806  0BFC  2C3D               	goto	l10749
  5807                           	line	525
  5808                           ;Beverage_services.c: 525: case _HOT_WATER_BUTTON: time++;
  5809                           	
  5810  0BFD                     l3267:	
  5811                           	
  5812  0BFD                     l10731:	
  5813  0BFD  3001               	movlw	low(01h)
  5814  0BFE  07B3               	addwf	(_time),f
  5815  0BFF  1803               	skipnc
  5816  0C00  0AB4               	incf	(_time+1),f
  5817  0C01  3000               	movlw	high(01h)
  5818  0C02  07B4               	addwf	(_time+1),f
  5819                           	line	526
  5820                           ;Beverage_services.c: 526: break;
  5821  0C03  2C3D               	goto	l10749
  5822                           	line	527
  5823                           ;Beverage_services.c: 527: case _EXTRA_BUTTON: eeprom_write(120,time);
  5824                           	
  5825  0C04                     l3268:	
  5826                           	
  5827  0C04                     l10733:	
  5828  0C04  0833               	movf	(_time),w
  5829  0C05  00DC               	movwf	(??_enable_valves+0)+0
  5830  0C06  085C               	movf	(??_enable_valves+0)+0,w
  5831  0C07  00F6               	movwf	(?_eeprom_write)
  5832  0C08  3078               	movlw	(078h)
  5833  0C09  160A  158A  2276   	fcall	_eeprom_write
              120A  158A         
  5834                           	line	528
  5835                           	
  5836  0C0E                     l10735:	
  5837                           ;Beverage_services.c: 528: _DISABLE_MODE=_Temperature;
  5838  0C0E  300B               	movlw	(0Bh)
  5839  0C0F  1283               	bcf	status, 5	;RP0=0, select bank0
  5840  0C10  1303               	bcf	status, 6	;RP1=0, select bank0
  5841  0C11  00DC               	movwf	(??_enable_valves+0)+0
  5842  0C12  085C               	movf	(??_enable_valves+0)+0,w
  5843  0C13  00B7               	movwf	(__DISABLE_MODE)
  5844                           	line	529
  5845                           	
  5846  0C14                     l10737:	
  5847                           ;Beverage_services.c: 529: _ENABLE_MODE=_Hot_Water_Time;
  5848  0C14  3009               	movlw	(09h)
  5849  0C15  00DC               	movwf	(??_enable_valves+0)+0
  5850  0C16  085C               	movf	(??_enable_valves+0)+0,w
  5851  0C17  00B8               	movwf	(__ENABLE_MODE)
  5852                           	line	530
  5853                           ;Beverage_services.c: 530: break;
  5854  0C18  2C3D               	goto	l10749
  5855                           	line	531
  5856                           ;Beverage_services.c: 531: case _MENU_BUTTON: eeprom_write(120,time);
  5857                           	
  5858  0C19                     l3269:	
  5859                           	
  5860  0C19                     l10739:	
  5861  0C19  0833               	movf	(_time),w
  5862  0C1A  00DC               	movwf	(??_enable_valves+0)+0
  5863  0C1B  085C               	movf	(??_enable_valves+0)+0,w
  5864  0C1C  00F6               	movwf	(?_eeprom_write)
  5865  0C1D  3078               	movlw	(078h)
  5866  0C1E  160A  158A  2276   	fcall	_eeprom_write
              120A  158A         
  5867                           	line	532
  5868                           	
  5869  0C23                     l10741:	
  5870                           ;Beverage_services.c: 532: _DISABLE_MODE=_Temperature;
  5871  0C23  300B               	movlw	(0Bh)
  5872  0C24  1283               	bcf	status, 5	;RP0=0, select bank0
  5873  0C25  1303               	bcf	status, 6	;RP1=0, select bank0
  5874  0C26  00DC               	movwf	(??_enable_valves+0)+0
  5875  0C27  085C               	movf	(??_enable_valves+0)+0,w
  5876  0C28  00B7               	movwf	(__DISABLE_MODE)
  5877                           	line	533
  5878                           	
  5879  0C29                     l10743:	
  5880                           ;Beverage_services.c: 533: _ENABLE_MODE=_Cup_Count;
  5881  0C29  300C               	movlw	(0Ch)
  5882  0C2A  00DC               	movwf	(??_enable_valves+0)+0
  5883  0C2B  085C               	movf	(??_enable_valves+0)+0,w
  5884  0C2C  00B8               	movwf	(__ENABLE_MODE)
  5885                           	line	534
  5886                           ;Beverage_services.c: 534: break;
  5887  0C2D  2C3D               	goto	l10749
  5888                           	line	535
  5889                           	
  5890  0C2E                     l10745:	
  5891                           ;Beverage_services.c: 535: }
  5892  0C2E  2C3D               	goto	l10749
  5893                           	line	518
  5894                           	
  5895  0C2F                     l3263:	
  5896                           	
  5897  0C2F                     l10747:	
  5898  0C2F  083B               	movf	(__PRESSED),w
  5899                           	; Switch size 1, requested type "space"
  5900                           ; Number of cases is 4, Range of values is 7 to 10
  5901                           ; switch strategies available:
  5902                           ; Name         Instructions Cycles
  5903                           ; simple_byte           13     7 (average)
  5904                           ; direct_byte           23    11 (fixed)
  5905                           ; jumptable            263     9 (fixed)
  5906                           ;	Chosen strategy is simple_byte
  5907                           
  5908                           	opt asmopt_off
  5909  0C30  3A07               	xorlw	7^0	; case 7
  5910  0C31  1903               	skipnz
  5911  0C32  2BEC               	goto	l10727
  5912  0C33  3A0F               	xorlw	8^7	; case 8
  5913  0C34  1903               	skipnz
  5914  0C35  2C04               	goto	l10733
  5915  0C36  3A01               	xorlw	9^8	; case 9
  5916  0C37  1903               	skipnz
  5917  0C38  2BFD               	goto	l10731
  5918  0C39  3A03               	xorlw	10^9	; case 10
  5919  0C3A  1903               	skipnz
  5920  0C3B  2C19               	goto	l10739
  5921  0C3C  2C3D               	goto	l10749
  5922                           	opt asmopt_on
  5923                           
  5924                           	line	535
  5925                           	
  5926  0C3D                     l3266:	
  5927                           	line	536
  5928                           	
  5929  0C3D                     l10749:	
  5930                           ;Beverage_services.c: 536: if(_PRESSED && (_PRESSED!=_MENU_BUTTON) && (_PRESSED!=_EXTRA_
                                 BUTTON))
  5931  0C3D  083B               	movf	(__PRESSED),w
  5932  0C3E  1D03               	skipz
  5933  0C3F  2C41               	goto	u7140
  5934  0C40  2C66               	goto	l10759
  5935  0C41                     u7140:
  5936                           	
  5937  0C41                     l10751:	
  5938  0C41  083B               	movf	(__PRESSED),w
  5939  0C42  3A0A               	xorlw	0Ah
  5940  0C43  1903               	skipnz
  5941  0C44  2C46               	goto	u7151
  5942  0C45  2C47               	goto	u7150
  5943  0C46                     u7151:
  5944  0C46  2C66               	goto	l10759
  5945  0C47                     u7150:
  5946                           	
  5947  0C47                     l10753:	
  5948  0C47  083B               	movf	(__PRESSED),w
  5949  0C48  3A08               	xorlw	08h
  5950  0C49  1903               	skipnz
  5951  0C4A  2C4C               	goto	u7161
  5952  0C4B  2C4D               	goto	u7160
  5953  0C4C                     u7161:
  5954  0C4C  2C66               	goto	l10759
  5955  0C4D                     u7160:
  5956                           	line	538
  5957                           	
  5958  0C4D                     l10755:	
  5959                           ;Beverage_services.c: 537: {
  5960                           ;Beverage_services.c: 538: Lcd_Cmd(0xC8);
  5961  0C4D  30C8               	movlw	(0C8h)
  5962  0C4E  160A  158A  2314   	fcall	_Lcd_Cmd
              120A  158A         
  5963                           	line	539
  5964                           	
  5965  0C53                     l10757:	
  5966                           ;Beverage_services.c: 539: Num_Disp(time,3,0);
  5967  0C53  1283               	bcf	status, 5	;RP0=0, select bank0
  5968  0C54  1303               	bcf	status, 6	;RP1=0, select bank0
  5969  0C55  0834               	movf	(_time+1),w
  5970  0C56  01D1               	clrf	(?_Num_Disp+1)
  5971  0C57  07D1               	addwf	(?_Num_Disp+1)
  5972  0C58  0833               	movf	(_time),w
  5973  0C59  01D0               	clrf	(?_Num_Disp)
  5974  0C5A  07D0               	addwf	(?_Num_Disp)
  5975                           
  5976  0C5B  3003               	movlw	(03h)
  5977  0C5C  00DC               	movwf	(??_enable_valves+0)+0
  5978  0C5D  085C               	movf	(??_enable_valves+0)+0,w
  5979  0C5E  00D2               	movwf	0+(?_Num_Disp)+02h
  5980  0C5F  01D3               	clrf	0+(?_Num_Disp)+03h
  5981  0C60  160A  118A  2101   	fcall	_Num_Disp
              120A  158A         
  5982  0C65  2C66               	goto	l10759
  5983                           	line	540
  5984                           	
  5985  0C66                     l3270:	
  5986                           	line	541
  5987                           	
  5988  0C66                     l10759:	
  5989                           ;Beverage_services.c: 540: }
  5990                           ;Beverage_services.c: 541: DelayMs(10);
  5991  0C66  300A               	movlw	low(0Ah)
  5992  0C67  00FC               	movwf	(?_DelayMs)
  5993  0C68  3000               	movlw	high(0Ah)
  5994  0C69  00FD               	movwf	((?_DelayMs))+1
  5995  0C6A  160A  158A  21F3   	fcall	_DelayMs
              120A  158A         
  5996  0C6F  2C70               	goto	l10761
  5997                           	line	542
  5998                           	
  5999  0C70                     l3262:	
  6000                           	line	543
  6001                           	
  6002  0C70                     l10761:	
  6003                           ;Beverage_services.c: 542: }
  6004                           ;Beverage_services.c: 543: if(Enable_Cup_Count)
  6005  0C70  1283               	bcf	status, 5	;RP0=0, select bank0
  6006  0C71  1303               	bcf	status, 6	;RP1=0, select bank0
  6007  0C72  1EEB               	btfss	(_Enable_Cup_Count/8),(_Enable_Cup_Count)&7
  6008  0C73  2C75               	goto	u7171
  6009  0C74  2C76               	goto	u7170
  6010  0C75                     u7171:
  6011  0C75  2C9D               	goto	l10775
  6012  0C76                     u7170:
  6013  0C76  2C8B               	goto	l10771
  6014                           	line	545
  6015                           	
  6016  0C77                     l10763:	
  6017                           ;Beverage_services.c: 544: {
  6018                           ;Beverage_services.c: 545: switch(_PRESSED)
  6019  0C77  2C8B               	goto	l10771
  6020                           	line	547
  6021                           ;Beverage_services.c: 546: {
  6022                           ;Beverage_services.c: 547: case _EXTRA_BUTTON: _DISABLE_MODE=_Cup_Count;
  6023                           	
  6024  0C78                     l3273:	
  6025                           	
  6026  0C78                     l10765:	
  6027  0C78  300C               	movlw	(0Ch)
  6028  0C79  00DC               	movwf	(??_enable_valves+0)+0
  6029  0C7A  085C               	movf	(??_enable_valves+0)+0,w
  6030  0C7B  00B7               	movwf	(__DISABLE_MODE)
  6031                           	line	548
  6032                           ;Beverage_services.c: 548: _ENABLE_MODE=_Temperature;
  6033  0C7C  300B               	movlw	(0Bh)
  6034  0C7D  00DC               	movwf	(??_enable_valves+0)+0
  6035  0C7E  085C               	movf	(??_enable_valves+0)+0,w
  6036  0C7F  00B8               	movwf	(__ENABLE_MODE)
  6037                           	line	549
  6038                           ;Beverage_services.c: 549: break;
  6039  0C80  2C93               	goto	l10773
  6040                           	line	550
  6041                           ;Beverage_services.c: 550: case _MENU_BUTTON: _DISABLE_MODE=_Cup_Count;
  6042                           	
  6043  0C81                     l3275:	
  6044                           	
  6045  0C81                     l10767:	
  6046  0C81  300C               	movlw	(0Ch)
  6047  0C82  00DC               	movwf	(??_enable_valves+0)+0
  6048  0C83  085C               	movf	(??_enable_valves+0)+0,w
  6049  0C84  00B7               	movwf	(__DISABLE_MODE)
  6050                           	line	551
  6051                           ;Beverage_services.c: 551: _ENABLE_MODE=_Count_Reset;
  6052  0C85  300D               	movlw	(0Dh)
  6053  0C86  00DC               	movwf	(??_enable_valves+0)+0
  6054  0C87  085C               	movf	(??_enable_valves+0)+0,w
  6055  0C88  00B8               	movwf	(__ENABLE_MODE)
  6056                           	line	552
  6057                           ;Beverage_services.c: 552: break;
  6058  0C89  2C93               	goto	l10773
  6059                           	line	553
  6060                           	
  6061  0C8A                     l10769:	
  6062                           ;Beverage_services.c: 553: }
  6063  0C8A  2C93               	goto	l10773
  6064                           	line	545
  6065                           	
  6066  0C8B                     l3272:	
  6067                           	
  6068  0C8B                     l10771:	
  6069  0C8B  083B               	movf	(__PRESSED),w
  6070                           	; Switch size 1, requested type "space"
  6071                           ; Number of cases is 2, Range of values is 8 to 10
  6072                           ; switch strategies available:
  6073                           ; Name         Instructions Cycles
  6074                           ; simple_byte            7     4 (average)
  6075                           ; direct_byte           20    11 (fixed)
  6076                           ; jumptable            263     9 (fixed)
  6077                           ;	Chosen strategy is simple_byte
  6078                           
  6079                           	opt asmopt_off
  6080  0C8C  3A08               	xorlw	8^0	; case 8
  6081  0C8D  1903               	skipnz
  6082  0C8E  2C78               	goto	l10765
  6083  0C8F  3A02               	xorlw	10^8	; case 10
  6084  0C90  1903               	skipnz
  6085  0C91  2C81               	goto	l10767
  6086  0C92  2C93               	goto	l10773
  6087                           	opt asmopt_on
  6088                           
  6089                           	line	553
  6090                           	
  6091  0C93                     l3274:	
  6092                           	line	554
  6093                           	
  6094  0C93                     l10773:	
  6095                           ;Beverage_services.c: 554: DelayMs(10);
  6096  0C93  300A               	movlw	low(0Ah)
  6097  0C94  00FC               	movwf	(?_DelayMs)
  6098  0C95  3000               	movlw	high(0Ah)
  6099  0C96  00FD               	movwf	((?_DelayMs))+1
  6100  0C97  160A  158A  21F3   	fcall	_DelayMs
              120A  158A         
  6101  0C9C  2C9D               	goto	l10775
  6102                           	line	555
  6103                           	
  6104  0C9D                     l3271:	
  6105                           	line	556
  6106                           	
  6107  0C9D                     l10775:	
  6108                           ;Beverage_services.c: 555: }
  6109                           ;Beverage_services.c: 556: if(Enable_Count_Reset)
  6110  0C9D  1283               	bcf	status, 5	;RP0=0, select bank0
  6111  0C9E  1303               	bcf	status, 6	;RP1=0, select bank0
  6112  0C9F  1E6B               	btfss	(_Enable_Count_Reset/8),(_Enable_Count_Reset)&7
  6113  0CA0  2CA2               	goto	u7181
  6114  0CA1  2CA3               	goto	u7180
  6115  0CA2                     u7181:
  6116  0CA2  2D45               	goto	l10829
  6117  0CA3                     u7180:
  6118  0CA3  2CF6               	goto	l10805
  6119                           	line	558
  6120                           	
  6121  0CA4                     l10777:	
  6122                           ;Beverage_services.c: 557: {
  6123                           ;Beverage_services.c: 558: switch(_PRESSED)
  6124  0CA4  2CF6               	goto	l10805
  6125                           	line	560
  6126                           ;Beverage_services.c: 559: {
  6127                           ;Beverage_services.c: 560: case _EXTRA_BUTTON: eeprom_write(124,time);
  6128                           	
  6129  0CA5                     l3278:	
  6130                           	
  6131  0CA5                     l10779:	
  6132  0CA5  0833               	movf	(_time),w
  6133  0CA6  00DC               	movwf	(??_enable_valves+0)+0
  6134  0CA7  085C               	movf	(??_enable_valves+0)+0,w
  6135  0CA8  00F6               	movwf	(?_eeprom_write)
  6136  0CA9  307C               	movlw	(07Ch)
  6137  0CAA  160A  158A  2276   	fcall	_eeprom_write
              120A  158A         
  6138                           	line	561
  6139                           	
  6140  0CAF                     l10781:	
  6141                           ;Beverage_services.c: 561: _DISABLE_MODE=_Count_Reset;
  6142  0CAF  300D               	movlw	(0Dh)
  6143  0CB0  1283               	bcf	status, 5	;RP0=0, select bank0
  6144  0CB1  1303               	bcf	status, 6	;RP1=0, select bank0
  6145  0CB2  00DC               	movwf	(??_enable_valves+0)+0
  6146  0CB3  085C               	movf	(??_enable_valves+0)+0,w
  6147  0CB4  00B7               	movwf	(__DISABLE_MODE)
  6148                           	line	562
  6149                           	
  6150  0CB5                     l10783:	
  6151                           ;Beverage_services.c: 562: _ENABLE_MODE=_Cup_Count;
  6152  0CB5  300C               	movlw	(0Ch)
  6153  0CB6  00DC               	movwf	(??_enable_valves+0)+0
  6154  0CB7  085C               	movf	(??_enable_valves+0)+0,w
  6155  0CB8  00B8               	movwf	(__ENABLE_MODE)
  6156                           	line	564
  6157                           ;Beverage_services.c: 564: break;
  6158  0CB9  2CFE               	goto	l10807
  6159                           	line	565
  6160                           ;Beverage_services.c: 565: case _MENU_BUTTON: eeprom_write(124,time);
  6161                           	
  6162  0CBA                     l3280:	
  6163                           	
  6164  0CBA                     l10785:	
  6165  0CBA  0833               	movf	(_time),w
  6166  0CBB  00DC               	movwf	(??_enable_valves+0)+0
  6167  0CBC  085C               	movf	(??_enable_valves+0)+0,w
  6168  0CBD  00F6               	movwf	(?_eeprom_write)
  6169  0CBE  307C               	movlw	(07Ch)
  6170  0CBF  160A  158A  2276   	fcall	_eeprom_write
              120A  158A         
  6171                           	line	566
  6172                           	
  6173  0CC4                     l10787:	
  6174                           ;Beverage_services.c: 566: if(time)
  6175  0CC4  1283               	bcf	status, 5	;RP0=0, select bank0
  6176  0CC5  1303               	bcf	status, 6	;RP1=0, select bank0
  6177  0CC6  0834               	movf	(_time+1),w
  6178  0CC7  0433               	iorwf	(_time),w
  6179  0CC8  1903               	skipnz
  6180  0CC9  2CCB               	goto	u7191
  6181  0CCA  2CCC               	goto	u7190
  6182  0CCB                     u7191:
  6183  0CCB  2CED               	goto	l10799
  6184  0CCC                     u7190:
  6185                           	line	568
  6186                           	
  6187  0CCC                     l10789:	
  6188                           ;Beverage_services.c: 567: {
  6189                           ;Beverage_services.c: 568: for(unsigned char index=126;index<=143;index++)
  6190  0CCC  307E               	movlw	(07Eh)
  6191  0CCD  00DC               	movwf	(??_enable_valves+0)+0
  6192  0CCE  085C               	movf	(??_enable_valves+0)+0,w
  6193  0CCF  00E5               	movwf	(enable_valves@index)
  6194  0CD0  3090               	movlw	(090h)
  6195  0CD1  0265               	subwf	(enable_valves@index),w
  6196  0CD2  1C03               	skipc
  6197  0CD3  2CD5               	goto	u7201
  6198  0CD4  2CD6               	goto	u7200
  6199  0CD5                     u7201:
  6200  0CD5  2CD8               	goto	l10793
  6201  0CD6                     u7200:
  6202  0CD6  2CED               	goto	l10799
  6203                           	
  6204  0CD7                     l10791:	
  6205  0CD7  2CED               	goto	l10799
  6206                           	line	569
  6207                           	
  6208  0CD8                     l3282:	
  6209                           	line	570
  6210                           	
  6211  0CD8                     l10793:	
  6212                           ;Beverage_services.c: 569: {
  6213                           ;Beverage_services.c: 570: eeprom_write(index,0x00);
  6214  0CD8  01F6               	clrf	(?_eeprom_write)
  6215  0CD9  0865               	movf	(enable_valves@index),w
  6216  0CDA  160A  158A  2276   	fcall	_eeprom_write
              120A  158A         
  6217                           	line	568
  6218                           	
  6219  0CDF                     l10795:	
  6220  0CDF  3001               	movlw	(01h)
  6221  0CE0  1283               	bcf	status, 5	;RP0=0, select bank0
  6222  0CE1  1303               	bcf	status, 6	;RP1=0, select bank0
  6223  0CE2  00DC               	movwf	(??_enable_valves+0)+0
  6224  0CE3  085C               	movf	(??_enable_valves+0)+0,w
  6225  0CE4  07E5               	addwf	(enable_valves@index),f
  6226                           	
  6227  0CE5                     l10797:	
  6228  0CE5  3090               	movlw	(090h)
  6229  0CE6  0265               	subwf	(enable_valves@index),w
  6230  0CE7  1C03               	skipc
  6231  0CE8  2CEA               	goto	u7211
  6232  0CE9  2CEB               	goto	u7210
  6233  0CEA                     u7211:
  6234  0CEA  2CD8               	goto	l10793
  6235  0CEB                     u7210:
  6236  0CEB  2CED               	goto	l10799
  6237                           	
  6238  0CEC                     l3283:	
  6239  0CEC  2CED               	goto	l10799
  6240                           	line	572
  6241                           	
  6242  0CED                     l3281:	
  6243                           	line	573
  6244                           	
  6245  0CED                     l10799:	
  6246                           ;Beverage_services.c: 571: }
  6247                           ;Beverage_services.c: 572: }
  6248                           ;Beverage_services.c: 573: _DISABLE_MODE=_Count_Reset;
  6249  0CED  300D               	movlw	(0Dh)
  6250  0CEE  00DC               	movwf	(??_enable_valves+0)+0
  6251  0CEF  085C               	movf	(??_enable_valves+0)+0,w
  6252  0CF0  00B7               	movwf	(__DISABLE_MODE)
  6253                           	line	574
  6254                           	
  6255  0CF1                     l10801:	
  6256                           ;Beverage_services.c: 574: _ENABLE_MODE=_Normal_Mode;
  6257  0CF1  01B8               	clrf	(__ENABLE_MODE)
  6258  0CF2  1403               	bsf	status,0
  6259  0CF3  0DB8               	rlf	(__ENABLE_MODE),f
  6260                           	line	575
  6261                           ;Beverage_services.c: 575: break;
  6262  0CF4  2CFE               	goto	l10807
  6263                           	line	576
  6264                           	
  6265  0CF5                     l10803:	
  6266                           ;Beverage_services.c: 576: }
  6267  0CF5  2CFE               	goto	l10807
  6268                           	line	558
  6269                           	
  6270  0CF6                     l3277:	
  6271                           	
  6272  0CF6                     l10805:	
  6273  0CF6  083B               	movf	(__PRESSED),w
  6274                           	; Switch size 1, requested type "space"
  6275                           ; Number of cases is 2, Range of values is 8 to 10
  6276                           ; switch strategies available:
  6277                           ; Name         Instructions Cycles
  6278                           ; simple_byte            7     4 (average)
  6279                           ; direct_byte           20    11 (fixed)
  6280                           ; jumptable            263     9 (fixed)
  6281                           ;	Chosen strategy is simple_byte
  6282                           
  6283                           	opt asmopt_off
  6284  0CF7  3A08               	xorlw	8^0	; case 8
  6285  0CF8  1903               	skipnz
  6286  0CF9  2CA5               	goto	l10779
  6287  0CFA  3A02               	xorlw	10^8	; case 10
  6288  0CFB  1903               	skipnz
  6289  0CFC  2CBA               	goto	l10785
  6290  0CFD  2CFE               	goto	l10807
  6291                           	opt asmopt_on
  6292                           
  6293                           	line	576
  6294                           	
  6295  0CFE                     l3279:	
  6296                           	line	577
  6297                           	
  6298  0CFE                     l10807:	
  6299                           ;Beverage_services.c: 577: if(_PRESSED && (_PRESSED!=_MENU_BUTTON) && (_PRESSED!=_EXTRA_
                                 BUTTON))
  6300  0CFE  083B               	movf	(__PRESSED),w
  6301  0CFF  1D03               	skipz
  6302  0D00  2D02               	goto	u7220
  6303  0D01  2D3B               	goto	l10827
  6304  0D02                     u7220:
  6305                           	
  6306  0D02                     l10809:	
  6307  0D02  083B               	movf	(__PRESSED),w
  6308  0D03  3A0A               	xorlw	0Ah
  6309  0D04  1903               	skipnz
  6310  0D05  2D07               	goto	u7231
  6311  0D06  2D08               	goto	u7230
  6312  0D07                     u7231:
  6313  0D07  2D3B               	goto	l10827
  6314  0D08                     u7230:
  6315                           	
  6316  0D08                     l10811:	
  6317  0D08  083B               	movf	(__PRESSED),w
  6318  0D09  3A08               	xorlw	08h
  6319  0D0A  1903               	skipnz
  6320  0D0B  2D0D               	goto	u7241
  6321  0D0C  2D0E               	goto	u7240
  6322  0D0D                     u7241:
  6323  0D0D  2D3B               	goto	l10827
  6324  0D0E                     u7240:
  6325                           	line	579
  6326                           	
  6327  0D0E                     l10813:	
  6328                           ;Beverage_services.c: 578: {
  6329                           ;Beverage_services.c: 579: Lcd_Cmd(0xC6);
  6330  0D0E  30C6               	movlw	(0C6h)
  6331  0D0F  160A  158A  2314   	fcall	_Lcd_Cmd
              120A  158A         
  6332                           	line	580
  6333                           	
  6334  0D14                     l10815:	
  6335                           ;Beverage_services.c: 580: if(_PRESSED==_HOT_WATER_BUTTON)
  6336  0D14  1283               	bcf	status, 5	;RP0=0, select bank0
  6337  0D15  1303               	bcf	status, 6	;RP1=0, select bank0
  6338  0D16  083B               	movf	(__PRESSED),w
  6339  0D17  3A09               	xorlw	09h
  6340  0D18  1D03               	skipz
  6341  0D19  2D1B               	goto	u7251
  6342  0D1A  2D1C               	goto	u7250
  6343  0D1B                     u7251:
  6344  0D1B  2D29               	goto	l10821
  6345  0D1C                     u7250:
  6346                           	line	582
  6347                           	
  6348  0D1C                     l10817:	
  6349                           ;Beverage_services.c: 581: {
  6350                           ;Beverage_services.c: 582: Lcd_Data('Y');;
  6351  0D1C  3059               	movlw	(059h)
  6352  0D1D  160A  158A  234D   	fcall	_Lcd_Data
              120A  158A         
  6353                           	line	583
  6354                           	
  6355  0D22                     l10819:	
  6356                           ;Beverage_services.c: 583: time=1;
  6357  0D22  3001               	movlw	low(01h)
  6358  0D23  1283               	bcf	status, 5	;RP0=0, select bank0
  6359  0D24  1303               	bcf	status, 6	;RP1=0, select bank0
  6360  0D25  00B3               	movwf	(_time)
  6361  0D26  3000               	movlw	high(01h)
  6362  0D27  00B4               	movwf	((_time))+1
  6363  0D28  2D29               	goto	l10821
  6364                           	line	584
  6365                           	
  6366  0D29                     l3285:	
  6367                           	line	585
  6368                           	
  6369  0D29                     l10821:	
  6370                           ;Beverage_services.c: 584: }
  6371                           ;Beverage_services.c: 585: if(_PRESSED==_MILK_BUTTON)
  6372  0D29  083B               	movf	(__PRESSED),w
  6373  0D2A  3A07               	xorlw	07h
  6374  0D2B  1D03               	skipz
  6375  0D2C  2D2E               	goto	u7261
  6376  0D2D  2D2F               	goto	u7260
  6377  0D2E                     u7261:
  6378  0D2E  2D3B               	goto	l10827
  6379  0D2F                     u7260:
  6380                           	line	587
  6381                           	
  6382  0D2F                     l10823:	
  6383                           ;Beverage_services.c: 586: {
  6384                           ;Beverage_services.c: 587: Lcd_Data('N');;
  6385  0D2F  304E               	movlw	(04Eh)
  6386  0D30  160A  158A  234D   	fcall	_Lcd_Data
              120A  158A         
  6387                           	line	588
  6388                           	
  6389  0D35                     l10825:	
  6390                           ;Beverage_services.c: 588: time=0;
  6391  0D35  1283               	bcf	status, 5	;RP0=0, select bank0
  6392  0D36  1303               	bcf	status, 6	;RP1=0, select bank0
  6393  0D37  01B3               	clrf	(_time)
  6394  0D38  01B4               	clrf	(_time+1)
  6395  0D39  2D3B               	goto	l10827
  6396                           	line	589
  6397                           	
  6398  0D3A                     l3286:	
  6399  0D3A  2D3B               	goto	l10827
  6400                           	line	590
  6401                           	
  6402  0D3B                     l3284:	
  6403                           	line	591
  6404                           	
  6405  0D3B                     l10827:	
  6406                           ;Beverage_services.c: 589: }
  6407                           ;Beverage_services.c: 590: }
  6408                           ;Beverage_services.c: 591: DelayMs(10);
  6409  0D3B  300A               	movlw	low(0Ah)
  6410  0D3C  00FC               	movwf	(?_DelayMs)
  6411  0D3D  3000               	movlw	high(0Ah)
  6412  0D3E  00FD               	movwf	((?_DelayMs))+1
  6413  0D3F  160A  158A  21F3   	fcall	_DelayMs
              120A  158A         
  6414  0D44  2D45               	goto	l10829
  6415                           	line	592
  6416                           	
  6417  0D45                     l3276:	
  6418                           	line	593
  6419                           	
  6420  0D45                     l10829:	
  6421                           ;Beverage_services.c: 592: }
  6422                           ;Beverage_services.c: 593: if(Enable_Shortcut_Mode)
  6423  0D45  1283               	bcf	status, 5	;RP0=0, select bank0
  6424  0D46  1303               	bcf	status, 6	;RP1=0, select bank0
  6425  0D47  1D6D               	btfss	(_Enable_Shortcut_Mode/8),(_Enable_Shortcut_Mode)&7
  6426  0D48  2D4A               	goto	u7271
  6427  0D49  2D4B               	goto	u7270
  6428  0D4A                     u7271:
  6429  0D4A  2FEF               	goto	l10995
  6430  0D4B                     u7270:
  6431  0D4B  2F06               	goto	l10947
  6432                           	line	595
  6433                           	
  6434  0D4C                     l10831:	
  6435                           ;Beverage_services.c: 594: {
  6436                           ;Beverage_services.c: 595: switch(_PRESSED)
  6437  0D4C  2F06               	goto	l10947
  6438                           	line	597
  6439                           ;Beverage_services.c: 596: {
  6440                           ;Beverage_services.c: 597: case _NORMAL_COFFEE_BUTTON: if(_PROCESS==_Preparation)
  6441                           	
  6442  0D4D                     l3289:	
  6443                           	
  6444  0D4D                     l10833:	
  6445  0D4D  083E               	movf	(__PROCESS),w
  6446  0D4E  3A02               	xorlw	02h
  6447  0D4F  1D03               	skipz
  6448  0D50  2D52               	goto	u7281
  6449  0D51  2D53               	goto	u7280
  6450  0D52                     u7281:
  6451  0D52  2D6E               	goto	l10841
  6452  0D53                     u7280:
  6453                           	line	599
  6454                           	
  6455  0D53                     l10835:	
  6456                           ;Beverage_services.c: 598: {
  6457                           ;Beverage_services.c: 599: eeprom_write(145,5);
  6458  0D53  3005               	movlw	(05h)
  6459  0D54  00DC               	movwf	(??_enable_valves+0)+0
  6460  0D55  085C               	movf	(??_enable_valves+0)+0,w
  6461  0D56  00F6               	movwf	(?_eeprom_write)
  6462  0D57  3091               	movlw	(091h)
  6463  0D58  160A  158A  2276   	fcall	_eeprom_write
              120A  158A         
  6464                           	line	600
  6465                           	
  6466  0D5D                     l10837:	
  6467                           ;Beverage_services.c: 600: Enable_Coffee_Hot_Water_Valve = 1;
  6468  0D5D  1283               	bcf	status, 5	;RP0=0, select bank0
  6469  0D5E  1303               	bcf	status, 6	;RP1=0, select bank0
  6470  0D5F  14EB               	bsf	(_Enable_Coffee_Hot_Water_Valve/8),(_Enable_Coffee_Hot_Water_Valve)&7
  6471                           	line	601
  6472                           	
  6473  0D60                     l10839:	
  6474                           ;Beverage_services.c: 601: Lcd_String("PREPARING COFFEE",1,0);
  6475  0D60  3000               	movlw	low(STR_6|8000h)
  6476  0D61  00CE               	movwf	(?_Lcd_String)
  6477  0D62  3098               	movlw	high(STR_6|8000h)
  6478  0D63  00CF               	movwf	((?_Lcd_String))+1
  6479  0D64  01D0               	clrf	0+(?_Lcd_String)+02h
  6480  0D65  1403               	bsf	status,0
  6481  0D66  0DD0               	rlf	0+(?_Lcd_String)+02h,f
  6482  0D67  01D1               	clrf	0+(?_Lcd_String)+03h
  6483  0D68  160A  158A  2509   	fcall	_Lcd_String
              120A  158A         
  6484  0D6D  2D6E               	goto	l10841
  6485                           	line	602
  6486                           	
  6487  0D6E                     l3290:	
  6488                           	line	603
  6489                           	
  6490  0D6E                     l10841:	
  6491                           ;Beverage_services.c: 602: }
  6492                           ;Beverage_services.c: 603: if(_PROCESS==_Cleaning)
  6493  0D6E  1283               	bcf	status, 5	;RP0=0, select bank0
  6494  0D6F  1303               	bcf	status, 6	;RP1=0, select bank0
  6495  0D70  083E               	movf	(__PROCESS),w
  6496  0D71  3A03               	xorlw	03h
  6497  0D72  1D03               	skipz
  6498  0D73  2D75               	goto	u7291
  6499  0D74  2D76               	goto	u7290
  6500  0D75                     u7291:
  6501  0D75  2DC0               	goto	l10861
  6502  0D76                     u7290:
  6503                           	line	605
  6504                           	
  6505  0D76                     l10843:	
  6506                           ;Beverage_services.c: 604: {
  6507                           ;Beverage_services.c: 605: Lcd_String("COFFEE CLEANING",1,0);
  6508  0D76  3022               	movlw	low(STR_7|8000h)
  6509  0D77  00CE               	movwf	(?_Lcd_String)
  6510  0D78  3098               	movlw	high(STR_7|8000h)
  6511  0D79  00CF               	movwf	((?_Lcd_String))+1
  6512  0D7A  01D0               	clrf	0+(?_Lcd_String)+02h
  6513  0D7B  1403               	bsf	status,0
  6514  0D7C  0DD0               	rlf	0+(?_Lcd_String)+02h,f
  6515  0D7D  01D1               	clrf	0+(?_Lcd_String)+03h
  6516  0D7E  160A  158A  2509   	fcall	_Lcd_String
              120A  158A         
  6517                           	line	606
  6518                           	
  6519  0D83                     l10845:	
  6520                           ;Beverage_services.c: 606: _ON=_Coffee_Valve;
  6521  0D83  3006               	movlw	(06h)
  6522  0D84  1283               	bcf	status, 5	;RP0=0, select bank0
  6523  0D85  1303               	bcf	status, 6	;RP1=0, select bank0
  6524  0D86  00DC               	movwf	(??_enable_valves+0)+0
  6525  0D87  085C               	movf	(??_enable_valves+0)+0,w
  6526  0D88  00BA               	movwf	(__ON)
  6527                           	line	607
  6528                           	
  6529  0D89                     l10847:	
  6530                           ;Beverage_services.c: 607: onthevalve();
  6531  0D89  160A  158A  23C0   	fcall	_onthevalve
              120A  158A         
  6532                           	line	608
  6533                           ;Beverage_services.c: 608: while(RB6!=0)
  6534  0D8E  2DB8               	goto	l10859
  6535                           	
  6536  0D8F                     l3293:	
  6537                           	line	610
  6538                           	
  6539  0D8F                     l10849:	
  6540                           ;Beverage_services.c: 609: {
  6541                           ;Beverage_services.c: 610: _ON=_Coffee_Valve;
  6542  0D8F  3006               	movlw	(06h)
  6543  0D90  1283               	bcf	status, 5	;RP0=0, select bank0
  6544  0D91  1303               	bcf	status, 6	;RP1=0, select bank0
  6545  0D92  00DC               	movwf	(??_enable_valves+0)+0
  6546  0D93  085C               	movf	(??_enable_valves+0)+0,w
  6547  0D94  00BA               	movwf	(__ON)
  6548                           	line	611
  6549                           	
  6550  0D95                     l10851:	
  6551                           ;Beverage_services.c: 611: onthevalve();
  6552  0D95  160A  158A  23C0   	fcall	_onthevalve
              120A  158A         
  6553                           	line	612
  6554                           	
  6555  0D9A                     l10853:	
  6556                           ;Beverage_services.c: 612: DelayMs(750);
  6557  0D9A  30EE               	movlw	low(02EEh)
  6558  0D9B  00FC               	movwf	(?_DelayMs)
  6559  0D9C  3002               	movlw	high(02EEh)
  6560  0D9D  00FD               	movwf	((?_DelayMs))+1
  6561  0D9E  160A  158A  21F3   	fcall	_DelayMs
              120A  158A         
  6562                           	line	613
  6563                           	
  6564  0DA3                     l10855:	
  6565                           ;Beverage_services.c: 613: _OFF=_Coffee_Valve;
  6566  0DA3  3006               	movlw	(06h)
  6567  0DA4  1283               	bcf	status, 5	;RP0=0, select bank0
  6568  0DA5  1303               	bcf	status, 6	;RP1=0, select bank0
  6569  0DA6  00DC               	movwf	(??_enable_valves+0)+0
  6570  0DA7  085C               	movf	(??_enable_valves+0)+0,w
  6571  0DA8  00B9               	movwf	(__OFF)
  6572                           	line	614
  6573                           	
  6574  0DA9                     l10857:	
  6575                           ;Beverage_services.c: 614: offthevalve();
  6576  0DA9  160A  158A  2386   	fcall	_offthevalve
              120A  158A         
  6577                           	line	615
  6578                           ;Beverage_services.c: 615: DelayMs(250);
  6579  0DAE  30FA               	movlw	low(0FAh)
  6580  0DAF  00FC               	movwf	(?_DelayMs)
  6581  0DB0  3000               	movlw	high(0FAh)
  6582  0DB1  00FD               	movwf	((?_DelayMs))+1
  6583  0DB2  160A  158A  21F3   	fcall	_DelayMs
              120A  158A         
  6584  0DB7  2DB8               	goto	l10859
  6585                           	line	616
  6586                           	
  6587  0DB8                     l3292:	
  6588                           	line	608
  6589                           	
  6590  0DB8                     l10859:	
  6591  0DB8  1283               	bcf	status, 5	;RP0=0, select bank0
  6592  0DB9  1303               	bcf	status, 6	;RP1=0, select bank0
  6593  0DBA  1B06               	btfsc	(54/8),(54)&7
  6594  0DBB  2DBD               	goto	u7301
  6595  0DBC  2DBE               	goto	u7300
  6596  0DBD                     u7301:
  6597  0DBD  2D8F               	goto	l10849
  6598  0DBE                     u7300:
  6599  0DBE  2DC0               	goto	l10861
  6600                           	
  6601  0DBF                     l3294:	
  6602  0DBF  2DC0               	goto	l10861
  6603                           	line	617
  6604                           	
  6605  0DC0                     l3291:	
  6606                           	line	618
  6607                           	
  6608  0DC0                     l10861:	
  6609                           ;Beverage_services.c: 616: }
  6610                           ;Beverage_services.c: 617: }
  6611                           ;Beverage_services.c: 618: mem_index1=128; mem_index2=129;
  6612  0DC0  3080               	movlw	(080h)
  6613  0DC1  00DC               	movwf	(??_enable_valves+0)+0
  6614  0DC2  085C               	movf	(??_enable_valves+0)+0,w
  6615  0DC3  00C1               	movwf	(_mem_index1)
  6616  0DC4  3081               	movlw	(081h)
  6617  0DC5  00DC               	movwf	(??_enable_valves+0)+0
  6618  0DC6  085C               	movf	(??_enable_valves+0)+0,w
  6619  0DC7  00C2               	movwf	(_mem_index2)
  6620                           	line	619
  6621                           ;Beverage_services.c: 619: break;
  6622  0DC8  2F23               	goto	l10949
  6623                           	line	620
  6624                           ;Beverage_services.c: 620: case _NORMAL_TEA_BUTTON: if(_PROCESS==_Preparation)
  6625                           	
  6626  0DC9                     l3296:	
  6627                           	
  6628  0DC9                     l10863:	
  6629  0DC9  083E               	movf	(__PROCESS),w
  6630  0DCA  3A02               	xorlw	02h
  6631  0DCB  1D03               	skipz
  6632  0DCC  2DCE               	goto	u7311
  6633  0DCD  2DCF               	goto	u7310
  6634  0DCE                     u7311:
  6635  0DCE  2DEA               	goto	l10871
  6636  0DCF                     u7310:
  6637                           	line	622
  6638                           	
  6639  0DCF                     l10865:	
  6640                           ;Beverage_services.c: 621: {
  6641                           ;Beverage_services.c: 622: eeprom_write(146,5);
  6642  0DCF  3005               	movlw	(05h)
  6643  0DD0  00DC               	movwf	(??_enable_valves+0)+0
  6644  0DD1  085C               	movf	(??_enable_valves+0)+0,w
  6645  0DD2  00F6               	movwf	(?_eeprom_write)
  6646  0DD3  3092               	movlw	(092h)
  6647  0DD4  160A  158A  2276   	fcall	_eeprom_write
              120A  158A         
  6648                           	line	623
  6649                           	
  6650  0DD9                     l10867:	
  6651                           ;Beverage_services.c: 623: Enable_Tea_Hot_Water_Valve = 1;
  6652  0DD9  1283               	bcf	status, 5	;RP0=0, select bank0
  6653  0DDA  1303               	bcf	status, 6	;RP1=0, select bank0
  6654  0DDB  166D               	bsf	(_Enable_Tea_Hot_Water_Valve/8),(_Enable_Tea_Hot_Water_Valve)&7
  6655                           	line	624
  6656                           	
  6657  0DDC                     l10869:	
  6658                           ;Beverage_services.c: 624: Lcd_String(" PREPARING TEA",1,0);
  6659  0DDC  3052               	movlw	low(STR_8|8000h)
  6660  0DDD  00CE               	movwf	(?_Lcd_String)
  6661  0DDE  3098               	movlw	high(STR_8|8000h)
  6662  0DDF  00CF               	movwf	((?_Lcd_String))+1
  6663  0DE0  01D0               	clrf	0+(?_Lcd_String)+02h
  6664  0DE1  1403               	bsf	status,0
  6665  0DE2  0DD0               	rlf	0+(?_Lcd_String)+02h,f
  6666  0DE3  01D1               	clrf	0+(?_Lcd_String)+03h
  6667  0DE4  160A  158A  2509   	fcall	_Lcd_String
              120A  158A         
  6668  0DE9  2DEA               	goto	l10871
  6669                           	line	625
  6670                           	
  6671  0DEA                     l3297:	
  6672                           	line	626
  6673                           	
  6674  0DEA                     l10871:	
  6675                           ;Beverage_services.c: 625: }
  6676                           ;Beverage_services.c: 626: if(_PROCESS==_Cleaning)
  6677  0DEA  1283               	bcf	status, 5	;RP0=0, select bank0
  6678  0DEB  1303               	bcf	status, 6	;RP1=0, select bank0
  6679  0DEC  083E               	movf	(__PROCESS),w
  6680  0DED  3A03               	xorlw	03h
  6681  0DEE  1D03               	skipz
  6682  0DEF  2DF1               	goto	u7321
  6683  0DF0  2DF2               	goto	u7320
  6684  0DF1                     u7321:
  6685  0DF1  2E3C               	goto	l10891
  6686  0DF2                     u7320:
  6687                           	line	628
  6688                           	
  6689  0DF2                     l10873:	
  6690                           ;Beverage_services.c: 627: {
  6691                           ;Beverage_services.c: 628: Lcd_String("TEA CLEANING",1,0);
  6692  0DF2  309B               	movlw	low(STR_9|8000h)
  6693  0DF3  00CE               	movwf	(?_Lcd_String)
  6694  0DF4  3098               	movlw	high(STR_9|8000h)
  6695  0DF5  00CF               	movwf	((?_Lcd_String))+1
  6696  0DF6  01D0               	clrf	0+(?_Lcd_String)+02h
  6697  0DF7  1403               	bsf	status,0
  6698  0DF8  0DD0               	rlf	0+(?_Lcd_String)+02h,f
  6699  0DF9  01D1               	clrf	0+(?_Lcd_String)+03h
  6700  0DFA  160A  158A  2509   	fcall	_Lcd_String
              120A  158A         
  6701                           	line	629
  6702                           	
  6703  0DFF                     l10875:	
  6704                           ;Beverage_services.c: 629: _ON=_Tea_Valve;
  6705  0DFF  3008               	movlw	(08h)
  6706  0E00  1283               	bcf	status, 5	;RP0=0, select bank0
  6707  0E01  1303               	bcf	status, 6	;RP1=0, select bank0
  6708  0E02  00DC               	movwf	(??_enable_valves+0)+0
  6709  0E03  085C               	movf	(??_enable_valves+0)+0,w
  6710  0E04  00BA               	movwf	(__ON)
  6711                           	line	630
  6712                           	
  6713  0E05                     l10877:	
  6714                           ;Beverage_services.c: 630: onthevalve();
  6715  0E05  160A  158A  23C0   	fcall	_onthevalve
              120A  158A         
  6716                           	line	631
  6717                           ;Beverage_services.c: 631: while(RB7!=0)
  6718  0E0A  2E34               	goto	l10889
  6719                           	
  6720  0E0B                     l3300:	
  6721                           	line	633
  6722                           	
  6723  0E0B                     l10879:	
  6724                           ;Beverage_services.c: 632: {
  6725                           ;Beverage_services.c: 633: _ON=_Tea_Valve;
  6726  0E0B  3008               	movlw	(08h)
  6727  0E0C  1283               	bcf	status, 5	;RP0=0, select bank0
  6728  0E0D  1303               	bcf	status, 6	;RP1=0, select bank0
  6729  0E0E  00DC               	movwf	(??_enable_valves+0)+0
  6730  0E0F  085C               	movf	(??_enable_valves+0)+0,w
  6731  0E10  00BA               	movwf	(__ON)
  6732                           	line	634
  6733                           	
  6734  0E11                     l10881:	
  6735                           ;Beverage_services.c: 634: onthevalve();
  6736  0E11  160A  158A  23C0   	fcall	_onthevalve
              120A  158A         
  6737                           	line	635
  6738                           	
  6739  0E16                     l10883:	
  6740                           ;Beverage_services.c: 635: DelayMs(750);
  6741  0E16  30EE               	movlw	low(02EEh)
  6742  0E17  00FC               	movwf	(?_DelayMs)
  6743  0E18  3002               	movlw	high(02EEh)
  6744  0E19  00FD               	movwf	((?_DelayMs))+1
  6745  0E1A  160A  158A  21F3   	fcall	_DelayMs
              120A  158A         
  6746                           	line	636
  6747                           	
  6748  0E1F                     l10885:	
  6749                           ;Beverage_services.c: 636: _OFF=_Tea_Valve;
  6750  0E1F  3008               	movlw	(08h)
  6751  0E20  1283               	bcf	status, 5	;RP0=0, select bank0
  6752  0E21  1303               	bcf	status, 6	;RP1=0, select bank0
  6753  0E22  00DC               	movwf	(??_enable_valves+0)+0
  6754  0E23  085C               	movf	(??_enable_valves+0)+0,w
  6755  0E24  00B9               	movwf	(__OFF)
  6756                           	line	637
  6757                           	
  6758  0E25                     l10887:	
  6759                           ;Beverage_services.c: 637: offthevalve();
  6760  0E25  160A  158A  2386   	fcall	_offthevalve
              120A  158A         
  6761                           	line	638
  6762                           ;Beverage_services.c: 638: DelayMs(250);
  6763  0E2A  30FA               	movlw	low(0FAh)
  6764  0E2B  00FC               	movwf	(?_DelayMs)
  6765  0E2C  3000               	movlw	high(0FAh)
  6766  0E2D  00FD               	movwf	((?_DelayMs))+1
  6767  0E2E  160A  158A  21F3   	fcall	_DelayMs
              120A  158A         
  6768  0E33  2E34               	goto	l10889
  6769                           	line	639
  6770                           	
  6771  0E34                     l3299:	
  6772                           	line	631
  6773                           	
  6774  0E34                     l10889:	
  6775  0E34  1283               	bcf	status, 5	;RP0=0, select bank0
  6776  0E35  1303               	bcf	status, 6	;RP1=0, select bank0
  6777  0E36  1B86               	btfsc	(55/8),(55)&7
  6778  0E37  2E39               	goto	u7331
  6779  0E38  2E3A               	goto	u7330
  6780  0E39                     u7331:
  6781  0E39  2E0B               	goto	l10879
  6782  0E3A                     u7330:
  6783  0E3A  2E3C               	goto	l10891
  6784                           	
  6785  0E3B                     l3301:	
  6786  0E3B  2E3C               	goto	l10891
  6787                           	line	640
  6788                           	
  6789  0E3C                     l3298:	
  6790                           	line	641
  6791                           	
  6792  0E3C                     l10891:	
  6793                           ;Beverage_services.c: 639: }
  6794                           ;Beverage_services.c: 640: }
  6795                           ;Beverage_services.c: 641: mem_index1=130; mem_index2=131;
  6796  0E3C  3082               	movlw	(082h)
  6797  0E3D  00DC               	movwf	(??_enable_valves+0)+0
  6798  0E3E  085C               	movf	(??_enable_valves+0)+0,w
  6799  0E3F  00C1               	movwf	(_mem_index1)
  6800  0E40  3083               	movlw	(083h)
  6801  0E41  00DC               	movwf	(??_enable_valves+0)+0
  6802  0E42  085C               	movf	(??_enable_valves+0)+0,w
  6803  0E43  00C2               	movwf	(_mem_index2)
  6804                           	line	642
  6805                           ;Beverage_services.c: 642: break;
  6806  0E44  2F23               	goto	l10949
  6807                           	line	643
  6808                           ;Beverage_services.c: 643: case _LIGHT_COFFEE_BUTTON: mem_index1=132; mem_index2=133;
  6809                           	
  6810  0E45                     l3302:	
  6811                           	
  6812  0E45                     l10893:	
  6813  0E45  3084               	movlw	(084h)
  6814  0E46  00DC               	movwf	(??_enable_valves+0)+0
  6815  0E47  085C               	movf	(??_enable_valves+0)+0,w
  6816  0E48  00C1               	movwf	(_mem_index1)
  6817  0E49  3085               	movlw	(085h)
  6818  0E4A  00DC               	movwf	(??_enable_valves+0)+0
  6819  0E4B  085C               	movf	(??_enable_valves+0)+0,w
  6820  0E4C  00C2               	movwf	(_mem_index2)
  6821                           	line	644
  6822                           ;Beverage_services.c: 644: break;
  6823  0E4D  2F23               	goto	l10949
  6824                           	line	645
  6825                           ;Beverage_services.c: 645: case _LIGHT_TEA_BUTTON: mem_index1=134; mem_index2=135;
  6826                           	
  6827  0E4E                     l3303:	
  6828                           	
  6829  0E4E                     l10895:	
  6830  0E4E  3086               	movlw	(086h)
  6831  0E4F  00DC               	movwf	(??_enable_valves+0)+0
  6832  0E50  085C               	movf	(??_enable_valves+0)+0,w
  6833  0E51  00C1               	movwf	(_mem_index1)
  6834  0E52  3087               	movlw	(087h)
  6835  0E53  00DC               	movwf	(??_enable_valves+0)+0
  6836  0E54  085C               	movf	(??_enable_valves+0)+0,w
  6837  0E55  00C2               	movwf	(_mem_index2)
  6838                           	line	646
  6839                           ;Beverage_services.c: 646: break;
  6840  0E56  2F23               	goto	l10949
  6841                           	line	647
  6842                           ;Beverage_services.c: 647: case _BLACK_COFFEE_BUTTON: mem_index1=136; mem_index2=137;
  6843                           	
  6844  0E57                     l3304:	
  6845                           	
  6846  0E57                     l10897:	
  6847  0E57  3088               	movlw	(088h)
  6848  0E58  00DC               	movwf	(??_enable_valves+0)+0
  6849  0E59  085C               	movf	(??_enable_valves+0)+0,w
  6850  0E5A  00C1               	movwf	(_mem_index1)
  6851  0E5B  3089               	movlw	(089h)
  6852  0E5C  00DC               	movwf	(??_enable_valves+0)+0
  6853  0E5D  085C               	movf	(??_enable_valves+0)+0,w
  6854  0E5E  00C2               	movwf	(_mem_index2)
  6855                           	line	648
  6856                           ;Beverage_services.c: 648: break;
  6857  0E5F  2F23               	goto	l10949
  6858                           	line	649
  6859                           ;Beverage_services.c: 649: case _BLACK_TEA_BUTTON: mem_index1=138; mem_index2=139;
  6860                           	
  6861  0E60                     l3305:	
  6862                           	
  6863  0E60                     l10899:	
  6864  0E60  308A               	movlw	(08Ah)
  6865  0E61  00DC               	movwf	(??_enable_valves+0)+0
  6866  0E62  085C               	movf	(??_enable_valves+0)+0,w
  6867  0E63  00C1               	movwf	(_mem_index1)
  6868  0E64  308B               	movlw	(08Bh)
  6869  0E65  00DC               	movwf	(??_enable_valves+0)+0
  6870  0E66  085C               	movf	(??_enable_valves+0)+0,w
  6871  0E67  00C2               	movwf	(_mem_index2)
  6872                           	line	650
  6873                           ;Beverage_services.c: 650: break;
  6874  0E68  2F23               	goto	l10949
  6875                           	line	651
  6876                           ;Beverage_services.c: 651: case _MILK_BUTTON: if(_PROCESS==_Cleaning)
  6877                           	
  6878  0E69                     l3306:	
  6879                           	
  6880  0E69                     l10901:	
  6881  0E69  083E               	movf	(__PROCESS),w
  6882  0E6A  3A03               	xorlw	03h
  6883  0E6B  1D03               	skipz
  6884  0E6C  2E6E               	goto	u7341
  6885  0E6D  2E6F               	goto	u7340
  6886  0E6E                     u7341:
  6887  0E6E  2EC0               	goto	l10925
  6888  0E6F                     u7340:
  6889                           	line	653
  6890                           	
  6891  0E6F                     l10903:	
  6892                           ;Beverage_services.c: 652: {
  6893                           ;Beverage_services.c: 653: Lcd_String("MILK CLEANING",1,0);
  6894  0E6F  307F               	movlw	low(STR_10|8000h)
  6895  0E70  00CE               	movwf	(?_Lcd_String)
  6896  0E71  3098               	movlw	high(STR_10|8000h)
  6897  0E72  00CF               	movwf	((?_Lcd_String))+1
  6898  0E73  01D0               	clrf	0+(?_Lcd_String)+02h
  6899  0E74  1403               	bsf	status,0
  6900  0E75  0DD0               	rlf	0+(?_Lcd_String)+02h,f
  6901  0E76  01D1               	clrf	0+(?_Lcd_String)+03h
  6902  0E77  160A  158A  2509   	fcall	_Lcd_String
              120A  158A         
  6903                           	line	654
  6904                           	
  6905  0E7C                     l10905:	
  6906                           ;Beverage_services.c: 654: _ON=_Viber_Motor;
  6907  0E7C  3009               	movlw	(09h)
  6908  0E7D  1283               	bcf	status, 5	;RP0=0, select bank0
  6909  0E7E  1303               	bcf	status, 6	;RP1=0, select bank0
  6910  0E7F  00DC               	movwf	(??_enable_valves+0)+0
  6911  0E80  085C               	movf	(??_enable_valves+0)+0,w
  6912  0E81  00BA               	movwf	(__ON)
  6913                           	line	655
  6914                           	
  6915  0E82                     l10907:	
  6916                           ;Beverage_services.c: 655: onthevalve();
  6917  0E82  160A  158A  23C0   	fcall	_onthevalve
              120A  158A         
  6918                           	line	656
  6919                           ;Beverage_services.c: 656: while(RB0!=0)
  6920  0E87  2EAF               	goto	l10919
  6921                           	
  6922  0E88                     l3309:	
  6923                           	line	658
  6924                           	
  6925  0E88                     l10909:	
  6926                           ;Beverage_services.c: 657: {
  6927                           ;Beverage_services.c: 658: _ON=_Milk_Valve_Forward;
  6928  0E88  1283               	bcf	status, 5	;RP0=0, select bank0
  6929  0E89  1303               	bcf	status, 6	;RP1=0, select bank0
  6930  0E8A  01BA               	clrf	(__ON)
  6931  0E8B  1403               	bsf	status,0
  6932  0E8C  0DBA               	rlf	(__ON),f
  6933                           	line	659
  6934                           	
  6935  0E8D                     l10911:	
  6936                           ;Beverage_services.c: 659: onthevalve();
  6937  0E8D  160A  158A  23C0   	fcall	_onthevalve
              120A  158A         
  6938                           	line	660
  6939                           	
  6940  0E92                     l10913:	
  6941                           ;Beverage_services.c: 660: DelayMs(750);
  6942  0E92  30EE               	movlw	low(02EEh)
  6943  0E93  00FC               	movwf	(?_DelayMs)
  6944  0E94  3002               	movlw	high(02EEh)
  6945  0E95  00FD               	movwf	((?_DelayMs))+1
  6946  0E96  160A  158A  21F3   	fcall	_DelayMs
              120A  158A         
  6947                           	line	661
  6948                           	
  6949  0E9B                     l10915:	
  6950                           ;Beverage_services.c: 661: _OFF=_Milk_Valve_Forward;
  6951  0E9B  1283               	bcf	status, 5	;RP0=0, select bank0
  6952  0E9C  1303               	bcf	status, 6	;RP1=0, select bank0
  6953  0E9D  01B9               	clrf	(__OFF)
  6954  0E9E  1403               	bsf	status,0
  6955  0E9F  0DB9               	rlf	(__OFF),f
  6956                           	line	662
  6957                           	
  6958  0EA0                     l10917:	
  6959                           ;Beverage_services.c: 662: offthevalve();
  6960  0EA0  160A  158A  2386   	fcall	_offthevalve
              120A  158A         
  6961                           	line	663
  6962                           ;Beverage_services.c: 663: DelayMs(250);
  6963  0EA5  30FA               	movlw	low(0FAh)
  6964  0EA6  00FC               	movwf	(?_DelayMs)
  6965  0EA7  3000               	movlw	high(0FAh)
  6966  0EA8  00FD               	movwf	((?_DelayMs))+1
  6967  0EA9  160A  158A  21F3   	fcall	_DelayMs
              120A  158A         
  6968  0EAE  2EAF               	goto	l10919
  6969                           	line	664
  6970                           	
  6971  0EAF                     l3308:	
  6972                           	line	656
  6973                           	
  6974  0EAF                     l10919:	
  6975  0EAF  1283               	bcf	status, 5	;RP0=0, select bank0
  6976  0EB0  1303               	bcf	status, 6	;RP1=0, select bank0
  6977  0EB1  1806               	btfsc	(48/8),(48)&7
  6978  0EB2  2EB4               	goto	u7351
  6979  0EB3  2EB5               	goto	u7350
  6980  0EB4                     u7351:
  6981  0EB4  2E88               	goto	l10909
  6982  0EB5                     u7350:
  6983  0EB5  2EB6               	goto	l10921
  6984                           	
  6985  0EB6                     l3310:	
  6986                           	line	665
  6987                           	
  6988  0EB6                     l10921:	
  6989                           ;Beverage_services.c: 664: }
  6990                           ;Beverage_services.c: 665: _OFF=_Viber_Motor;
  6991  0EB6  3009               	movlw	(09h)
  6992  0EB7  00DC               	movwf	(??_enable_valves+0)+0
  6993  0EB8  085C               	movf	(??_enable_valves+0)+0,w
  6994  0EB9  00B9               	movwf	(__OFF)
  6995                           	line	666
  6996                           	
  6997  0EBA                     l10923:	
  6998                           ;Beverage_services.c: 666: offthevalve();
  6999  0EBA  160A  158A  2386   	fcall	_offthevalve
              120A  158A         
  7000  0EBF  2EC0               	goto	l10925
  7001                           	line	667
  7002                           	
  7003  0EC0                     l3307:	
  7004                           	line	668
  7005                           	
  7006  0EC0                     l10925:	
  7007                           ;Beverage_services.c: 667: }
  7008                           ;Beverage_services.c: 668: mem_index1=140; mem_index2=141;
  7009  0EC0  308C               	movlw	(08Ch)
  7010  0EC1  1283               	bcf	status, 5	;RP0=0, select bank0
  7011  0EC2  1303               	bcf	status, 6	;RP1=0, select bank0
  7012  0EC3  00DC               	movwf	(??_enable_valves+0)+0
  7013  0EC4  085C               	movf	(??_enable_valves+0)+0,w
  7014  0EC5  00C1               	movwf	(_mem_index1)
  7015                           	
  7016  0EC6                     l10927:	
  7017  0EC6  308D               	movlw	(08Dh)
  7018  0EC7  00DC               	movwf	(??_enable_valves+0)+0
  7019  0EC8  085C               	movf	(??_enable_valves+0)+0,w
  7020  0EC9  00C2               	movwf	(_mem_index2)
  7021                           	line	669
  7022                           ;Beverage_services.c: 669: break;
  7023  0ECA  2F23               	goto	l10949
  7024                           	line	670
  7025                           ;Beverage_services.c: 670: case _HOT_WATER_BUTTON: mem_index1=142; mem_index2=143;
  7026                           	
  7027  0ECB                     l3311:	
  7028                           	
  7029  0ECB                     l10929:	
  7030  0ECB  308E               	movlw	(08Eh)
  7031  0ECC  00DC               	movwf	(??_enable_valves+0)+0
  7032  0ECD  085C               	movf	(??_enable_valves+0)+0,w
  7033  0ECE  00C1               	movwf	(_mem_index1)
  7034  0ECF  308F               	movlw	(08Fh)
  7035  0ED0  00DC               	movwf	(??_enable_valves+0)+0
  7036  0ED1  085C               	movf	(??_enable_valves+0)+0,w
  7037  0ED2  00C2               	movwf	(_mem_index2)
  7038                           	line	671
  7039                           ;Beverage_services.c: 671: break;
  7040  0ED3  2F23               	goto	l10949
  7041                           	line	672
  7042                           ;Beverage_services.c: 672: case _EXTRA_BUTTON: if(_PROCESS==_Countdisplay && _PREVIOUS_P
                                 ROCESS==_Countdisplay)
  7043                           	
  7044  0ED4                     l3312:	
  7045                           	
  7046  0ED4                     l10931:	
  7047  0ED4  083E               	movf	(__PROCESS),w
  7048  0ED5  3A01               	xorlw	01h
  7049  0ED6  1D03               	skipz
  7050  0ED7  2ED9               	goto	u7361
  7051  0ED8  2EDA               	goto	u7360
  7052  0ED9                     u7361:
  7053  0ED9  2EE4               	goto	l3313
  7054  0EDA                     u7360:
  7055                           	
  7056  0EDA                     l10933:	
  7057  0EDA  083D               	movf	(__PREVIOUS_PROCESS),w
  7058  0EDB  3A01               	xorlw	01h
  7059  0EDC  1D03               	skipz
  7060  0EDD  2EDF               	goto	u7371
  7061  0EDE  2EE0               	goto	u7370
  7062  0EDF                     u7371:
  7063  0EDF  2EE4               	goto	l3313
  7064  0EE0                     u7370:
  7065                           	line	674
  7066                           	
  7067  0EE0                     l10935:	
  7068                           ;Beverage_services.c: 673: {
  7069                           ;Beverage_services.c: 674: _PROCESS=_Preparation;
  7070  0EE0  3002               	movlw	(02h)
  7071  0EE1  00DC               	movwf	(??_enable_valves+0)+0
  7072  0EE2  085C               	movf	(??_enable_valves+0)+0,w
  7073  0EE3  00BE               	movwf	(__PROCESS)
  7074                           	line	675
  7075                           	
  7076  0EE4                     l3313:	
  7077                           	line	676
  7078                           ;Beverage_services.c: 675: }
  7079                           ;Beverage_services.c: 676: if(_PROCESS==_Preparation && _PREVIOUS_PROCESS==_Preparation)
  7080  0EE4  083E               	movf	(__PROCESS),w
  7081  0EE5  3A02               	xorlw	02h
  7082  0EE6  1D03               	skipz
  7083  0EE7  2EE9               	goto	u7381
  7084  0EE8  2EEA               	goto	u7380
  7085  0EE9                     u7381:
  7086  0EE9  2EF4               	goto	l3314
  7087  0EEA                     u7380:
  7088                           	
  7089  0EEA                     l10937:	
  7090  0EEA  083D               	movf	(__PREVIOUS_PROCESS),w
  7091  0EEB  3A02               	xorlw	02h
  7092  0EEC  1D03               	skipz
  7093  0EED  2EEF               	goto	u7391
  7094  0EEE  2EF0               	goto	u7390
  7095  0EEF                     u7391:
  7096  0EEF  2EF4               	goto	l3314
  7097  0EF0                     u7390:
  7098                           	line	678
  7099                           	
  7100  0EF0                     l10939:	
  7101                           ;Beverage_services.c: 677: {
  7102                           ;Beverage_services.c: 678: _PROCESS=_Cleaning;
  7103  0EF0  3003               	movlw	(03h)
  7104  0EF1  00DC               	movwf	(??_enable_valves+0)+0
  7105  0EF2  085C               	movf	(??_enable_valves+0)+0,w
  7106  0EF3  00BE               	movwf	(__PROCESS)
  7107                           	line	679
  7108                           	
  7109  0EF4                     l3314:	
  7110                           	line	680
  7111                           ;Beverage_services.c: 679: }
  7112                           ;Beverage_services.c: 680: if(_PROCESS==_Cleaning&& _PREVIOUS_PROCESS==_Cleaning)
  7113  0EF4  083E               	movf	(__PROCESS),w
  7114  0EF5  3A03               	xorlw	03h
  7115  0EF6  1D03               	skipz
  7116  0EF7  2EF9               	goto	u7401
  7117  0EF8  2EFA               	goto	u7400
  7118  0EF9                     u7401:
  7119  0EF9  2F23               	goto	l10949
  7120  0EFA                     u7400:
  7121                           	
  7122  0EFA                     l10941:	
  7123  0EFA  083D               	movf	(__PREVIOUS_PROCESS),w
  7124  0EFB  3A03               	xorlw	03h
  7125  0EFC  1D03               	skipz
  7126  0EFD  2EFF               	goto	u7411
  7127  0EFE  2F00               	goto	u7410
  7128  0EFF                     u7411:
  7129  0EFF  2F23               	goto	l10949
  7130  0F00                     u7410:
  7131                           	line	682
  7132                           	
  7133  0F00                     l10943:	
  7134                           ;Beverage_services.c: 681: {
  7135                           ;Beverage_services.c: 682: _PROCESS=_Countdisplay;
  7136  0F00  01BE               	clrf	(__PROCESS)
  7137  0F01  1403               	bsf	status,0
  7138  0F02  0DBE               	rlf	(__PROCESS),f
  7139  0F03  2F23               	goto	l10949
  7140                           	line	683
  7141                           	
  7142  0F04                     l3315:	
  7143                           	line	684
  7144                           ;Beverage_services.c: 683: }
  7145                           ;Beverage_services.c: 684: break;
  7146  0F04  2F23               	goto	l10949
  7147                           	line	685
  7148                           	
  7149  0F05                     l10945:	
  7150                           ;Beverage_services.c: 685: }
  7151  0F05  2F23               	goto	l10949
  7152                           	line	595
  7153                           	
  7154  0F06                     l3288:	
  7155                           	
  7156  0F06                     l10947:	
  7157  0F06  083B               	movf	(__PRESSED),w
  7158                           	; Switch size 1, requested type "space"
  7159                           ; Number of cases is 9, Range of values is 1 to 9
  7160                           ; switch strategies available:
  7161                           ; Name         Instructions Cycles
  7162                           ; simple_byte           28    15 (average)
  7163                           ; direct_byte           38    11 (fixed)
  7164                           ; jumptable            263     9 (fixed)
  7165                           ;	Chosen strategy is simple_byte
  7166                           
  7167                           	opt asmopt_off
  7168  0F07  3A01               	xorlw	1^0	; case 1
  7169  0F08  1903               	skipnz
  7170  0F09  2D4D               	goto	l10833
  7171  0F0A  3A03               	xorlw	2^1	; case 2
  7172  0F0B  1903               	skipnz
  7173  0F0C  2DC9               	goto	l10863
  7174  0F0D  3A01               	xorlw	3^2	; case 3
  7175  0F0E  1903               	skipnz
  7176  0F0F  2E45               	goto	l10893
  7177  0F10  3A07               	xorlw	4^3	; case 4
  7178  0F11  1903               	skipnz
  7179  0F12  2E4E               	goto	l10895
  7180  0F13  3A01               	xorlw	5^4	; case 5
  7181  0F14  1903               	skipnz
  7182  0F15  2E57               	goto	l10897
  7183  0F16  3A03               	xorlw	6^5	; case 6
  7184  0F17  1903               	skipnz
  7185  0F18  2E60               	goto	l10899
  7186  0F19  3A01               	xorlw	7^6	; case 7
  7187  0F1A  1903               	skipnz
  7188  0F1B  2E69               	goto	l10901
  7189  0F1C  3A0F               	xorlw	8^7	; case 8
  7190  0F1D  1903               	skipnz
  7191  0F1E  2ED4               	goto	l10931
  7192  0F1F  3A01               	xorlw	9^8	; case 9
  7193  0F20  1903               	skipnz
  7194  0F21  2ECB               	goto	l10929
  7195  0F22  2F23               	goto	l10949
  7196                           	opt asmopt_on
  7197                           
  7198                           	line	685
  7199                           	
  7200  0F23                     l3295:	
  7201                           	line	686
  7202                           	
  7203  0F23                     l10949:	
  7204                           ;Beverage_services.c: 686: if(_PREVIOUS_PROCESS!=_PROCESS)
  7205  0F23  083D               	movf	(__PREVIOUS_PROCESS),w
  7206  0F24  063E               	xorwf	(__PROCESS),w
  7207  0F25  1903               	skipnz
  7208  0F26  2F28               	goto	u7421
  7209  0F27  2F29               	goto	u7420
  7210  0F28                     u7421:
  7211  0F28  2F88               	goto	l10967
  7212  0F29                     u7420:
  7213                           	line	688
  7214                           	
  7215  0F29                     l10951:	
  7216                           ;Beverage_services.c: 687: {
  7217                           ;Beverage_services.c: 688: if(_PROCESS==_Countdisplay)
  7218  0F29  083E               	movf	(__PROCESS),w
  7219  0F2A  3A01               	xorlw	01h
  7220  0F2B  1D03               	skipz
  7221  0F2C  2F2E               	goto	u7431
  7222  0F2D  2F2F               	goto	u7430
  7223  0F2E                     u7431:
  7224  0F2E  2F3D               	goto	l10955
  7225  0F2F                     u7430:
  7226                           	line	690
  7227                           	
  7228  0F2F                     l10953:	
  7229                           ;Beverage_services.c: 689: {
  7230                           ;Beverage_services.c: 690: Lcd_String("COUNT DISPLAY",1,0);
  7231  0F2F  308D               	movlw	low(STR_11|8000h)
  7232  0F30  00CE               	movwf	(?_Lcd_String)
  7233  0F31  3098               	movlw	high(STR_11|8000h)
  7234  0F32  00CF               	movwf	((?_Lcd_String))+1
  7235  0F33  01D0               	clrf	0+(?_Lcd_String)+02h
  7236  0F34  1403               	bsf	status,0
  7237  0F35  0DD0               	rlf	0+(?_Lcd_String)+02h,f
  7238  0F36  01D1               	clrf	0+(?_Lcd_String)+03h
  7239  0F37  160A  158A  2509   	fcall	_Lcd_String
              120A  158A         
  7240  0F3C  2F3D               	goto	l10955
  7241                           	line	691
  7242                           	
  7243  0F3D                     l3317:	
  7244                           	line	692
  7245                           	
  7246  0F3D                     l10955:	
  7247                           ;Beverage_services.c: 691: }
  7248                           ;Beverage_services.c: 692: if(_PROCESS==_Preparation)
  7249  0F3D  1283               	bcf	status, 5	;RP0=0, select bank0
  7250  0F3E  1303               	bcf	status, 6	;RP1=0, select bank0
  7251  0F3F  083E               	movf	(__PROCESS),w
  7252  0F40  3A02               	xorlw	02h
  7253  0F41  1D03               	skipz
  7254  0F42  2F44               	goto	u7441
  7255  0F43  2F45               	goto	u7440
  7256  0F44                     u7441:
  7257  0F44  2F62               	goto	l10959
  7258  0F45                     u7440:
  7259                           	line	694
  7260                           	
  7261  0F45                     l10957:	
  7262                           ;Beverage_services.c: 693: {
  7263                           ;Beverage_services.c: 694: Lcd_String("DICATION",1,0);
  7264  0F45  30AC               	movlw	low(STR_12|8000h)
  7265  0F46  00CE               	movwf	(?_Lcd_String)
  7266  0F47  3098               	movlw	high(STR_12|8000h)
  7267  0F48  00CF               	movwf	((?_Lcd_String))+1
  7268  0F49  01D0               	clrf	0+(?_Lcd_String)+02h
  7269  0F4A  1403               	bsf	status,0
  7270  0F4B  0DD0               	rlf	0+(?_Lcd_String)+02h,f
  7271  0F4C  01D1               	clrf	0+(?_Lcd_String)+03h
  7272  0F4D  160A  158A  2509   	fcall	_Lcd_String
              120A  158A         
  7273                           	line	695
  7274                           ;Beverage_services.c: 695: Lcd_String("PREPARATION",0,1);
  7275  0F52  30B5               	movlw	low(STR_13|8000h)
  7276  0F53  1283               	bcf	status, 5	;RP0=0, select bank0
  7277  0F54  1303               	bcf	status, 6	;RP1=0, select bank0
  7278  0F55  00CE               	movwf	(?_Lcd_String)
  7279  0F56  3098               	movlw	high(STR_13|8000h)
  7280  0F57  00CF               	movwf	((?_Lcd_String))+1
  7281  0F58  01D0               	clrf	0+(?_Lcd_String)+02h
  7282  0F59  01D1               	clrf	0+(?_Lcd_String)+03h
  7283  0F5A  1403               	bsf	status,0
  7284  0F5B  0DD1               	rlf	0+(?_Lcd_String)+03h,f
  7285  0F5C  160A  158A  2509   	fcall	_Lcd_String
              120A  158A         
  7286  0F61  2F62               	goto	l10959
  7287                           	line	696
  7288                           	
  7289  0F62                     l3318:	
  7290                           	line	697
  7291                           	
  7292  0F62                     l10959:	
  7293                           ;Beverage_services.c: 696: }
  7294                           ;Beverage_services.c: 697: if(_PROCESS==_Cleaning)
  7295  0F62  1283               	bcf	status, 5	;RP0=0, select bank0
  7296  0F63  1303               	bcf	status, 6	;RP1=0, select bank0
  7297  0F64  083E               	movf	(__PROCESS),w
  7298  0F65  3A03               	xorlw	03h
  7299  0F66  1D03               	skipz
  7300  0F67  2F69               	goto	u7451
  7301  0F68  2F6A               	goto	u7450
  7302  0F69                     u7451:
  7303  0F69  2F78               	goto	l10963
  7304  0F6A                     u7450:
  7305                           	line	699
  7306                           	
  7307  0F6A                     l10961:	
  7308                           ;Beverage_services.c: 698: {
  7309                           ;Beverage_services.c: 699: Lcd_String("CLEANING",1,0);
  7310  0F6A  309F               	movlw	low(STR_14|8000h)
  7311  0F6B  00CE               	movwf	(?_Lcd_String)
  7312  0F6C  3098               	movlw	high(STR_14|8000h)
  7313  0F6D  00CF               	movwf	((?_Lcd_String))+1
  7314  0F6E  01D0               	clrf	0+(?_Lcd_String)+02h
  7315  0F6F  1403               	bsf	status,0
  7316  0F70  0DD0               	rlf	0+(?_Lcd_String)+02h,f
  7317  0F71  01D1               	clrf	0+(?_Lcd_String)+03h
  7318  0F72  160A  158A  2509   	fcall	_Lcd_String
              120A  158A         
  7319  0F77  2F78               	goto	l10963
  7320                           	line	700
  7321                           	
  7322  0F78                     l3319:	
  7323                           	line	701
  7324                           	
  7325  0F78                     l10963:	
  7326                           ;Beverage_services.c: 700: }
  7327                           ;Beverage_services.c: 701: DelayMs(10);
  7328  0F78  300A               	movlw	low(0Ah)
  7329  0F79  00FC               	movwf	(?_DelayMs)
  7330  0F7A  3000               	movlw	high(0Ah)
  7331  0F7B  00FD               	movwf	((?_DelayMs))+1
  7332  0F7C  160A  158A  21F3   	fcall	_DelayMs
              120A  158A         
  7333                           	line	702
  7334                           	
  7335  0F81                     l10965:	
  7336                           ;Beverage_services.c: 702: _PREVIOUS_PROCESS=_PROCESS;
  7337  0F81  1283               	bcf	status, 5	;RP0=0, select bank0
  7338  0F82  1303               	bcf	status, 6	;RP1=0, select bank0
  7339  0F83  083E               	movf	(__PROCESS),w
  7340  0F84  00DC               	movwf	(??_enable_valves+0)+0
  7341  0F85  085C               	movf	(??_enable_valves+0)+0,w
  7342  0F86  00BD               	movwf	(__PREVIOUS_PROCESS)
  7343  0F87  2F88               	goto	l10967
  7344                           	line	703
  7345                           	
  7346  0F88                     l3316:	
  7347                           	line	704
  7348                           	
  7349  0F88                     l10967:	
  7350                           ;Beverage_services.c: 703: }
  7351                           ;Beverage_services.c: 704: if(_PRESSED && (_PRESSED!=_EXTRA_BUTTON))
  7352  0F88  083B               	movf	(__PRESSED),w
  7353  0F89  1D03               	skipz
  7354  0F8A  2F8C               	goto	u7460
  7355  0F8B  2FEF               	goto	l10995
  7356  0F8C                     u7460:
  7357                           	
  7358  0F8C                     l10969:	
  7359  0F8C  083B               	movf	(__PRESSED),w
  7360  0F8D  3A08               	xorlw	08h
  7361  0F8E  1903               	skipnz
  7362  0F8F  2F91               	goto	u7471
  7363  0F90  2F92               	goto	u7470
  7364  0F91                     u7471:
  7365  0F91  2FEF               	goto	l10995
  7366  0F92                     u7470:
  7367                           	line	706
  7368                           	
  7369  0F92                     l10971:	
  7370                           ;Beverage_services.c: 705: {
  7371                           ;Beverage_services.c: 706: Inidcate_Buzzer();
  7372  0F92  160A  158A  2176   	fcall	_Inidcate_Buzzer
              120A  158A         
  7373                           	line	707
  7374                           	
  7375  0F97                     l10973:	
  7376                           ;Beverage_services.c: 707: if(_PROCESS!=_Countdisplay)
  7377  0F97  1283               	bcf	status, 5	;RP0=0, select bank0
  7378  0F98  1303               	bcf	status, 6	;RP1=0, select bank0
  7379  0F99  083E               	movf	(__PROCESS),w
  7380  0F9A  3A01               	xorlw	01h
  7381  0F9B  1903               	skipnz
  7382  0F9C  2F9E               	goto	u7481
  7383  0F9D  2F9F               	goto	u7480
  7384  0F9E                     u7481:
  7385  0F9E  2FAE               	goto	l10981
  7386  0F9F                     u7480:
  7387                           	line	709
  7388                           	
  7389  0F9F                     l10975:	
  7390                           ;Beverage_services.c: 708: {
  7391                           ;Beverage_services.c: 709: call_control_valve();
  7392  0F9F  120A  118A  23DB   	fcall	_call_control_valve
              120A  158A         
  7393                           	line	711
  7394                           	
  7395  0FA4                     l10977:	
  7396                           ;Beverage_services.c: 711: _DISABLE_MODE=_Shortcut_Mode;
  7397  0FA4  300E               	movlw	(0Eh)
  7398  0FA5  1283               	bcf	status, 5	;RP0=0, select bank0
  7399  0FA6  1303               	bcf	status, 6	;RP1=0, select bank0
  7400  0FA7  00DC               	movwf	(??_enable_valves+0)+0
  7401  0FA8  085C               	movf	(??_enable_valves+0)+0,w
  7402  0FA9  00B7               	movwf	(__DISABLE_MODE)
  7403                           	line	712
  7404                           	
  7405  0FAA                     l10979:	
  7406                           ;Beverage_services.c: 712: _ENABLE_MODE=_Normal_Mode;
  7407  0FAA  01B8               	clrf	(__ENABLE_MODE)
  7408  0FAB  1403               	bsf	status,0
  7409  0FAC  0DB8               	rlf	(__ENABLE_MODE),f
  7410  0FAD  2FAE               	goto	l10981
  7411                           	line	713
  7412                           	
  7413  0FAE                     l3321:	
  7414                           	line	714
  7415                           	
  7416  0FAE                     l10981:	
  7417                           ;Beverage_services.c: 713: }
  7418                           ;Beverage_services.c: 714: if(_PROCESS!=_Cleaning && _PROCESS!=_Countdisplay)
  7419  0FAE  083E               	movf	(__PROCESS),w
  7420  0FAF  3A03               	xorlw	03h
  7421  0FB0  1903               	skipnz
  7422  0FB1  2FB3               	goto	u7491
  7423  0FB2  2FB4               	goto	u7490
  7424  0FB3                     u7491:
  7425  0FB3  2FBD               	goto	l10987
  7426  0FB4                     u7490:
  7427                           	
  7428  0FB4                     l10983:	
  7429  0FB4  083E               	movf	(__PROCESS),w
  7430  0FB5  3A01               	xorlw	01h
  7431  0FB6  1903               	skipnz
  7432  0FB7  2FB9               	goto	u7501
  7433  0FB8  2FBA               	goto	u7500
  7434  0FB9                     u7501:
  7435  0FB9  2FBD               	goto	l10987
  7436  0FBA                     u7500:
  7437                           	line	716
  7438                           	
  7439  0FBA                     l10985:	
  7440                           ;Beverage_services.c: 715: {
  7441                           ;Beverage_services.c: 716: Enable_Shortcut_Mode=0;
  7442  0FBA  116D               	bcf	(_Enable_Shortcut_Mode/8),(_Enable_Shortcut_Mode)&7
  7443                           	line	717
  7444                           ;Beverage_services.c: 717: Enable_Normal_Mode=1;
  7445  0FBB  17EC               	bsf	(_Enable_Normal_Mode/8),(_Enable_Normal_Mode)&7
  7446  0FBC  2FBD               	goto	l10987
  7447                           	line	718
  7448                           	
  7449  0FBD                     l3322:	
  7450                           	line	719
  7451                           	
  7452  0FBD                     l10987:	
  7453                           ;Beverage_services.c: 718: }
  7454                           ;Beverage_services.c: 719: if(_PROCESS==_Countdisplay)
  7455  0FBD  083E               	movf	(__PROCESS),w
  7456  0FBE  3A01               	xorlw	01h
  7457  0FBF  1D03               	skipz
  7458  0FC0  2FC2               	goto	u7511
  7459  0FC1  2FC3               	goto	u7510
  7460  0FC2                     u7511:
  7461  0FC2  2FEF               	goto	l10995
  7462  0FC3                     u7510:
  7463                           	line	721
  7464                           	
  7465  0FC3                     l10989:	
  7466                           ;Beverage_services.c: 720: {
  7467                           ;Beverage_services.c: 721: Print_Menu();
  7468  0FC3  120A  158A  2002   	fcall	_Print_Menu
              120A  158A         
  7469                           	line	722
  7470                           	
  7471  0FC8                     l10991:	
  7472                           ;Beverage_services.c: 722: Lcd_Cmd(0xC5); Num_Disp(count_read(mem_index1,mem_index2),5,0
                                 );
  7473  0FC8  30C5               	movlw	(0C5h)
  7474  0FC9  160A  158A  2314   	fcall	_Lcd_Cmd
              120A  158A         
  7475                           	
  7476  0FCE                     l10993:	
  7477  0FCE  1283               	bcf	status, 5	;RP0=0, select bank0
  7478  0FCF  1303               	bcf	status, 6	;RP1=0, select bank0
  7479  0FD0  0842               	movf	(_mem_index2),w
  7480  0FD1  00DC               	movwf	(??_enable_valves+0)+0
  7481  0FD2  085C               	movf	(??_enable_valves+0)+0,w
  7482  0FD3  00FC               	movwf	(?_count_read)
  7483  0FD4  0841               	movf	(_mem_index1),w
  7484  0FD5  160A  158A  22A7   	fcall	_count_read
              120A  158A         
  7485  0FDA  087D               	movf	(1+(?_count_read)),w
  7486  0FDB  1283               	bcf	status, 5	;RP0=0, select bank0
  7487  0FDC  1303               	bcf	status, 6	;RP1=0, select bank0
  7488  0FDD  01D1               	clrf	(?_Num_Disp+1)
  7489  0FDE  07D1               	addwf	(?_Num_Disp+1)
  7490  0FDF  087C               	movf	(0+(?_count_read)),w
  7491  0FE0  01D0               	clrf	(?_Num_Disp)
  7492  0FE1  07D0               	addwf	(?_Num_Disp)
  7493                           
  7494  0FE2  3005               	movlw	(05h)
  7495  0FE3  00DD               	movwf	(??_enable_valves+1)+0
  7496  0FE4  085D               	movf	(??_enable_valves+1)+0,w
  7497  0FE5  00D2               	movwf	0+(?_Num_Disp)+02h
  7498  0FE6  01D3               	clrf	0+(?_Num_Disp)+03h
  7499  0FE7  160A  118A  2101   	fcall	_Num_Disp
              120A  158A         
  7500  0FEC  2FEF               	goto	l10995
  7501                           	line	723
  7502                           	
  7503  0FED                     l3323:	
  7504  0FED  2FEF               	goto	l10995
  7505                           	line	724
  7506                           	
  7507  0FEE                     l3320:	
  7508  0FEE  2FEF               	goto	l10995
  7509                           	line	725
  7510                           	
  7511  0FEF                     l3287:	
  7512                           	line	727
  7513                           	
  7514  0FEF                     l10995:	
  7515                           ;Beverage_services.c: 723: }
  7516                           ;Beverage_services.c: 724: }
  7517                           ;Beverage_services.c: 725: }
  7518                           ;Beverage_services.c: 727: if(_PRESSED!=0)
  7519  0FEF  1283               	bcf	status, 5	;RP0=0, select bank0
  7520  0FF0  1303               	bcf	status, 6	;RP1=0, select bank0
  7521  0FF1  083B               	movf	(__PRESSED),w
  7522  0FF2  1D03               	skipz
  7523  0FF3  2FF5               	goto	u7520
  7524  0FF4  2FFC               	goto	l3325
  7525  0FF5                     u7520:
  7526                           	line	729
  7527                           	
  7528  0FF5                     l10997:	
  7529                           ;Beverage_services.c: 728: {
  7530                           ;Beverage_services.c: 729: _PRESSED=0;
  7531  0FF5  01BB               	clrf	(__PRESSED)
  7532                           	line	730
  7533                           ;Beverage_services.c: 730: _SHORTCUT_PRESSED=0;
  7534  0FF6  01BF               	clrf	(__SHORTCUT_PRESSED)
  7535                           	line	731
  7536                           	
  7537  0FF7                     l10999:	
  7538                           ;Beverage_services.c: 731: i=0;j=0;
  7539  0FF7  01AB               	clrf	(_i)
  7540  0FF8  01AC               	clrf	(_i+1)
  7541  0FF9  01AD               	clrf	(_j)
  7542  0FFA  01AE               	clrf	(_j+1)
  7543  0FFB  2FFC               	goto	l3325
  7544                           	line	732
  7545                           	
  7546  0FFC                     l3324:	
  7547                           	line	733
  7548                           	
  7549  0FFC                     l3325:	
  7550  0FFC  0008               	return
      + 0FFD                     L1:	
  7551                           	opt stack 0
  7552                           GLOBAL	__end_of_enable_valves
  7553  20AA                     	__end_of_enable_valves:
  7554 ;; =============== function _enable_valves ends ============
  7555                           
  7556                           	signat	_enable_valves,88
  7557                           	global	_Mode_Init
  7558                           psect	text849,local,class=CODE,delta=2
  7559                           global __ptext849
  7560  120C                     __ptext849:
  7561                           
  7562 ;; *************** function _Mode_Init *****************
  7563 ;; Defined at:
  7564 ;;		line 46 in file "F:\BEVERAGES_ENHANCEMENT\SOFTWARE_DESIGN\MASTER_PIC_16F877A\2015_09_13\Beverage_services.c"
  7565 ;; Parameters:    Size  Location     Type
  7566 ;;		None
  7567 ;; Auto vars:     Size  Location     Type
  7568 ;;  option          1   21[BANK0 ] unsigned char 
  7569 ;; Return value:  Size  Location     Type
  7570 ;;		None               void
  7571 ;; Registers used:
  7572 ;;		wreg, fsr0l, fsr0h, status,2, status,0, btemp+1, pclath, cstack
  7573 ;; Tracked objects:
  7574 ;;		On entry : 0/0
  7575 ;;		On exit  : 0/0
  7576 ;;		Unchanged: 0/0
  7577 ;; Data sizes:     COMMON   BANK0   BANK1   BANK3   BANK2
  7578 ;;      Params:         0       0       0       0       0
  7579 ;;      Locals:         0       1       0       0       0
  7580 ;;      Temps:          0       2       0       0       0
  7581 ;;      Totals:         0       3       0       0       0
  7582 ;;Total ram usage:        3 bytes
  7583 ;; Hardware stack levels used:    1
  7584 ;; Hardware stack levels required when called:    4
  7585 ;; This function calls:
  7586 ;;		_Read_ValveFrom_Memory
  7587 ;;		_eeprom_read
  7588 ;;		_SendByteSerially
  7589 ;;		_eeprom_write
  7590 ;;		_call_control_valve
  7591 ;; This function is called by:
  7592 ;;		_main
  7593 ;; This function uses a non-reentrant model
  7594 ;;
  7595                           psect	text849
  7596                           	file	"F:\BEVERAGES_ENHANCEMENT\SOFTWARE_DESIGN\MASTER_PIC_16F877A\2015_09_13\Beverage_s
                                 ervices.c"
  7597                           	line	46
  7598                           	global	__size_of_Mode_Init
  7599  0112                     	__size_of_Mode_Init	equ	__end_of_Mode_Init-_Mode_Init
  7600                           	
  7601  120C                     _Mode_Init:	
  7602                           	opt	stack 3
  7603                           ; Regs used in _Mode_Init: [wreg-fsr0h+status,2+status,0+btemp+1+pclath+cstack]
  7604                           	line	47
  7605                           	
  7606  120C                     l10217:	
  7607                           ;Beverage_services.c: 47: Enable_Normal_Mode=0;
  7608  120C  1283               	bcf	status, 5	;RP0=0, select bank0
  7609  120D  1303               	bcf	status, 6	;RP1=0, select bank0
  7610  120E  13EC               	bcf	(_Enable_Normal_Mode/8),(_Enable_Normal_Mode)&7
  7611                           	line	48
  7612                           ;Beverage_services.c: 48: Enable_Config_Mode=0;
  7613  120F  11EB               	bcf	(_Enable_Config_Mode/8),(_Enable_Config_Mode)&7
  7614                           	line	49
  7615                           ;Beverage_services.c: 49: Enable_Password=0;
  7616  1210  106D               	bcf	(_Enable_Password/8),(_Enable_Password)&7
  7617                           	line	50
  7618                           ;Beverage_services.c: 50: Enable_Valves=0;
  7619  1211  13ED               	bcf	(_Enable_Valves/8),(_Enable_Valves)&7
  7620                           	line	51
  7621                           ;Beverage_services.c: 51: Enable_Selection=0;
  7622  1212  10ED               	bcf	(_Enable_Selection/8),(_Enable_Selection)&7
  7623                           	line	52
  7624                           ;Beverage_services.c: 52: Enable_Coffee_Dication_Time=0;
  7625  1213  106B               	bcf	(_Enable_Coffee_Dication_Time/8),(_Enable_Coffee_Dication_Time)&7
  7626                           	line	53
  7627                           ;Beverage_services.c: 53: Enable_Tea_Dication_Time=0;
  7628  1214  11ED               	bcf	(_Enable_Tea_Dication_Time/8),(_Enable_Tea_Dication_Time)&7
  7629                           	line	54
  7630                           ;Beverage_services.c: 54: Enable_Dication_Delay=0;
  7631  1215  136B               	bcf	(_Enable_Dication_Delay/8),(_Enable_Dication_Delay)&7
  7632                           	line	55
  7633                           ;Beverage_services.c: 55: Enable_Hot_Water_Time=0;
  7634  1216  10EC               	bcf	(_Enable_Hot_Water_Time/8),(_Enable_Hot_Water_Time)&7
  7635                           	line	56
  7636                           ;Beverage_services.c: 56: Enable_Temperature=0;
  7637  1217  136D               	bcf	(_Enable_Temperature/8),(_Enable_Temperature)&7
  7638                           	line	57
  7639                           ;Beverage_services.c: 57: Enable_Cup_Count=0;
  7640  1218  12EB               	bcf	(_Enable_Cup_Count/8),(_Enable_Cup_Count)&7
  7641                           	line	58
  7642                           ;Beverage_services.c: 58: Enable_Count_Reset=0;
  7643  1219  126B               	bcf	(_Enable_Count_Reset/8),(_Enable_Count_Reset)&7
  7644                           	line	59
  7645                           ;Beverage_services.c: 59: Enable_Shortcut_Mode=0;
  7646  121A  116D               	bcf	(_Enable_Shortcut_Mode/8),(_Enable_Shortcut_Mode)&7
  7647                           	line	61
  7648                           ;Beverage_services.c: 61: for(unsigned char option=0;option<9;option++)
  7649  121B  01DE               	clrf	(Mode_Init@option)
  7650                           	
  7651  121C                     l10219:	
  7652  121C  3009               	movlw	(09h)
  7653  121D  025E               	subwf	(Mode_Init@option),w
  7654  121E  1C03               	skipc
  7655  121F  2A21               	goto	u6151
  7656  1220  2A22               	goto	u6150
  7657  1221                     u6151:
  7658  1221  2A24               	goto	l10223
  7659  1222                     u6150:
  7660  1222  2A3E               	goto	l10229
  7661                           	
  7662  1223                     l10221:	
  7663  1223  2A3E               	goto	l10229
  7664                           	line	62
  7665                           	
  7666  1224                     l3105:	
  7667                           	line	63
  7668                           	
  7669  1224                     l10223:	
  7670                           ;Beverage_services.c: 62: {
  7671                           ;Beverage_services.c: 63: MENU[option]=Read_ValveFrom_Memory(option);
  7672  1224  085E               	movf	(Mode_Init@option),w
  7673  1225  160A  158A  267D   	fcall	_Read_ValveFrom_Memory
              160A  118A         
  7674  122A  1283               	bcf	status, 5	;RP0=0, select bank0
  7675  122B  1303               	bcf	status, 6	;RP1=0, select bank0
  7676  122C  00DC               	movwf	(??_Mode_Init+0)+0
  7677  122D  085E               	movf	(Mode_Init@option),w
  7678  122E  3E20               	addlw	_MENU&0ffh
  7679  122F  0084               	movwf	fsr0
  7680  1230  085C               	movf	(??_Mode_Init+0)+0,w
  7681  1231  1383               	bcf	status, 7	;select IRP bank0
  7682  1232  0080               	movwf	indf
  7683                           	line	61
  7684                           	
  7685  1233                     l10225:	
  7686  1233  3001               	movlw	(01h)
  7687  1234  00DC               	movwf	(??_Mode_Init+0)+0
  7688  1235  085C               	movf	(??_Mode_Init+0)+0,w
  7689  1236  07DE               	addwf	(Mode_Init@option),f
  7690                           	
  7691  1237                     l10227:	
  7692  1237  3009               	movlw	(09h)
  7693  1238  025E               	subwf	(Mode_Init@option),w
  7694  1239  1C03               	skipc
  7695  123A  2A3C               	goto	u6161
  7696  123B  2A3D               	goto	u6160
  7697  123C                     u6161:
  7698  123C  2A24               	goto	l10223
  7699  123D                     u6160:
  7700  123D  2A3E               	goto	l10229
  7701                           	
  7702  123E                     l3106:	
  7703                           	line	65
  7704                           	
  7705  123E                     l10229:	
  7706                           ;Beverage_services.c: 64: }
  7707                           ;Beverage_services.c: 65: if(eeprom_read(145)>1 || eeprom_read(146)>1)
  7708  123E  3091               	movlw	(091h)
  7709  123F  00DC               	movwf	(??_Mode_Init+0)+0
  7710  1240  085C               	movf	(??_Mode_Init+0)+0,w
  7711  1241  00F4               	movwf	(?_eeprom_read)
  7712  1242  160A  158A  21B7   	fcall	_eeprom_read
              160A  118A         
  7713  1247  1283               	bcf	status, 5	;RP0=0, select bank0
  7714  1248  1303               	bcf	status, 6	;RP1=0, select bank0
  7715  1249  00DD               	movwf	(??_Mode_Init+1)+0
  7716  124A  3002               	movlw	(02h)
  7717  124B  025D               	subwf	0+(??_Mode_Init+1)+0,w
  7718  124C  1803               	skipnc
  7719  124D  2A4F               	goto	u6171
  7720  124E  2A50               	goto	u6170
  7721  124F                     u6171:
  7722  124F  2A63               	goto	l10233
  7723  1250                     u6170:
  7724                           	
  7725  1250                     l10231:	
  7726  1250  3092               	movlw	(092h)
  7727  1251  00DC               	movwf	(??_Mode_Init+0)+0
  7728  1252  085C               	movf	(??_Mode_Init+0)+0,w
  7729  1253  00F4               	movwf	(?_eeprom_read)
  7730  1254  160A  158A  21B7   	fcall	_eeprom_read
              160A  118A         
  7731  1259  1283               	bcf	status, 5	;RP0=0, select bank0
  7732  125A  1303               	bcf	status, 6	;RP1=0, select bank0
  7733  125B  00DD               	movwf	(??_Mode_Init+1)+0
  7734  125C  3002               	movlw	(02h)
  7735  125D  025D               	subwf	0+(??_Mode_Init+1)+0,w
  7736  125E  1C03               	skipc
  7737  125F  2A61               	goto	u6181
  7738  1260  2A62               	goto	u6180
  7739  1261                     u6181:
  7740  1261  2B1D               	goto	l3119
  7741  1262                     u6180:
  7742  1262  2A63               	goto	l10233
  7743                           	
  7744  1263                     l3109:	
  7745                           	line	67
  7746                           	
  7747  1263                     l10233:	
  7748                           ;Beverage_services.c: 66: {
  7749                           ;Beverage_services.c: 67: SendByteSerially(0x0B);
  7750  1263  300B               	movlw	(0Bh)
  7751  1264  160A  158A  216A   	fcall	_SendByteSerially
              160A  118A         
  7752  1269  2A6A               	goto	l10235
  7753                           	line	68
  7754                           ;Beverage_services.c: 68: while(1)
  7755                           	
  7756  126A                     l3110:	
  7757                           	line	70
  7758                           	
  7759  126A                     l10235:	
  7760                           ;Beverage_services.c: 69: {
  7761                           ;Beverage_services.c: 70: if(RC4==0)
  7762  126A  1283               	bcf	status, 5	;RP0=0, select bank0
  7763  126B  1303               	bcf	status, 6	;RP1=0, select bank0
  7764  126C  1A07               	btfsc	(60/8),(60)&7
  7765  126D  2A6F               	goto	u6191
  7766  126E  2A70               	goto	u6190
  7767  126F                     u6191:
  7768  126F  2AF9               	goto	l10253
  7769  1270                     u6190:
  7770                           	line	72
  7771                           	
  7772  1270                     l10237:	
  7773                           ;Beverage_services.c: 71: {
  7774                           ;Beverage_services.c: 72: eeprom_write(145,eeprom_read(145)-1);
  7775  1270  3091               	movlw	(091h)
  7776  1271  00DC               	movwf	(??_Mode_Init+0)+0
  7777  1272  085C               	movf	(??_Mode_Init+0)+0,w
  7778  1273  00F4               	movwf	(?_eeprom_read)
  7779  1274  160A  158A  21B7   	fcall	_eeprom_read
              160A  118A         
  7780  1279  3EFF               	addlw	0FFh
  7781  127A  1283               	bcf	status, 5	;RP0=0, select bank0
  7782  127B  1303               	bcf	status, 6	;RP1=0, select bank0
  7783  127C  00DD               	movwf	(??_Mode_Init+1)+0
  7784  127D  085D               	movf	(??_Mode_Init+1)+0,w
  7785  127E  00F6               	movwf	(?_eeprom_write)
  7786  127F  3091               	movlw	(091h)
  7787  1280  160A  158A  2276   	fcall	_eeprom_write
              160A  118A         
  7788                           	line	73
  7789                           ;Beverage_services.c: 73: eeprom_write(146,eeprom_read(146)-1);
  7790  1285  3092               	movlw	(092h)
  7791  1286  1283               	bcf	status, 5	;RP0=0, select bank0
  7792  1287  1303               	bcf	status, 6	;RP1=0, select bank0
  7793  1288  00DC               	movwf	(??_Mode_Init+0)+0
  7794  1289  085C               	movf	(??_Mode_Init+0)+0,w
  7795  128A  00F4               	movwf	(?_eeprom_read)
  7796  128B  160A  158A  21B7   	fcall	_eeprom_read
              160A  118A         
  7797  1290  3EFF               	addlw	0FFh
  7798  1291  1283               	bcf	status, 5	;RP0=0, select bank0
  7799  1292  1303               	bcf	status, 6	;RP1=0, select bank0
  7800  1293  00DD               	movwf	(??_Mode_Init+1)+0
  7801  1294  085D               	movf	(??_Mode_Init+1)+0,w
  7802  1295  00F6               	movwf	(?_eeprom_write)
  7803  1296  3092               	movlw	(092h)
  7804  1297  160A  158A  2276   	fcall	_eeprom_write
              160A  118A         
  7805                           	line	74
  7806                           ;Beverage_services.c: 74: SendByteSerially(0x0C);
  7807  129C  300C               	movlw	(0Ch)
  7808  129D  160A  158A  216A   	fcall	_SendByteSerially
              160A  118A         
  7809                           	line	75
  7810                           ;Beverage_services.c: 75: if(eeprom_read(145)>1 && eeprom_read(145)<10)
  7811  12A2  3091               	movlw	(091h)
  7812  12A3  1283               	bcf	status, 5	;RP0=0, select bank0
  7813  12A4  1303               	bcf	status, 6	;RP1=0, select bank0
  7814  12A5  00DC               	movwf	(??_Mode_Init+0)+0
  7815  12A6  085C               	movf	(??_Mode_Init+0)+0,w
  7816  12A7  00F4               	movwf	(?_eeprom_read)
  7817  12A8  160A  158A  21B7   	fcall	_eeprom_read
              160A  118A         
  7818  12AD  1283               	bcf	status, 5	;RP0=0, select bank0
  7819  12AE  1303               	bcf	status, 6	;RP1=0, select bank0
  7820  12AF  00DD               	movwf	(??_Mode_Init+1)+0
  7821  12B0  3002               	movlw	(02h)
  7822  12B1  025D               	subwf	0+(??_Mode_Init+1)+0,w
  7823  12B2  1C03               	skipc
  7824  12B3  2AB5               	goto	u6201
  7825  12B4  2AB6               	goto	u6200
  7826  12B5                     u6201:
  7827  12B5  2ACA               	goto	l10243
  7828  12B6                     u6200:
  7829                           	
  7830  12B6                     l10239:	
  7831  12B6  3091               	movlw	(091h)
  7832  12B7  00DC               	movwf	(??_Mode_Init+0)+0
  7833  12B8  085C               	movf	(??_Mode_Init+0)+0,w
  7834  12B9  00F4               	movwf	(?_eeprom_read)
  7835  12BA  160A  158A  21B7   	fcall	_eeprom_read
              160A  118A         
  7836  12BF  1283               	bcf	status, 5	;RP0=0, select bank0
  7837  12C0  1303               	bcf	status, 6	;RP1=0, select bank0
  7838  12C1  00DD               	movwf	(??_Mode_Init+1)+0
  7839  12C2  300A               	movlw	(0Ah)
  7840  12C3  025D               	subwf	0+(??_Mode_Init+1)+0,w
  7841  12C4  1803               	skipnc
  7842  12C5  2AC7               	goto	u6211
  7843  12C6  2AC8               	goto	u6210
  7844  12C7                     u6211:
  7845  12C7  2ACA               	goto	l10243
  7846  12C8                     u6210:
  7847                           	line	76
  7848                           	
  7849  12C8                     l10241:	
  7850                           ;Beverage_services.c: 76: Enable_Coffee_Hot_Water_Valve = 1;
  7851  12C8  14EB               	bsf	(_Enable_Coffee_Hot_Water_Valve/8),(_Enable_Coffee_Hot_Water_Valve)&7
  7852  12C9  2ACA               	goto	l10243
  7853                           	
  7854  12CA                     l3112:	
  7855                           	line	77
  7856                           	
  7857  12CA                     l10243:	
  7858                           ;Beverage_services.c: 77: if(eeprom_read(146)>1 && eeprom_read(146)<10)
  7859  12CA  3092               	movlw	(092h)
  7860  12CB  00DC               	movwf	(??_Mode_Init+0)+0
  7861  12CC  085C               	movf	(??_Mode_Init+0)+0,w
  7862  12CD  00F4               	movwf	(?_eeprom_read)
  7863  12CE  160A  158A  21B7   	fcall	_eeprom_read
              160A  118A         
  7864  12D3  1283               	bcf	status, 5	;RP0=0, select bank0
  7865  12D4  1303               	bcf	status, 6	;RP1=0, select bank0
  7866  12D5  00DD               	movwf	(??_Mode_Init+1)+0
  7867  12D6  3002               	movlw	(02h)
  7868  12D7  025D               	subwf	0+(??_Mode_Init+1)+0,w
  7869  12D8  1C03               	skipc
  7870  12D9  2ADB               	goto	u6221
  7871  12DA  2ADC               	goto	u6220
  7872  12DB                     u6221:
  7873  12DB  2AF0               	goto	l10249
  7874  12DC                     u6220:
  7875                           	
  7876  12DC                     l10245:	
  7877  12DC  3092               	movlw	(092h)
  7878  12DD  00DC               	movwf	(??_Mode_Init+0)+0
  7879  12DE  085C               	movf	(??_Mode_Init+0)+0,w
  7880  12DF  00F4               	movwf	(?_eeprom_read)
  7881  12E0  160A  158A  21B7   	fcall	_eeprom_read
              160A  118A         
  7882  12E5  1283               	bcf	status, 5	;RP0=0, select bank0
  7883  12E6  1303               	bcf	status, 6	;RP1=0, select bank0
  7884  12E7  00DD               	movwf	(??_Mode_Init+1)+0
  7885  12E8  300A               	movlw	(0Ah)
  7886  12E9  025D               	subwf	0+(??_Mode_Init+1)+0,w
  7887  12EA  1803               	skipnc
  7888  12EB  2AED               	goto	u6231
  7889  12EC  2AEE               	goto	u6230
  7890  12ED                     u6231:
  7891  12ED  2AF0               	goto	l10249
  7892  12EE                     u6230:
  7893                           	line	78
  7894                           	
  7895  12EE                     l10247:	
  7896                           ;Beverage_services.c: 78: Enable_Tea_Hot_Water_Valve = 1;
  7897  12EE  166D               	bsf	(_Enable_Tea_Hot_Water_Valve/8),(_Enable_Tea_Hot_Water_Valve)&7
  7898  12EF  2AF0               	goto	l10249
  7899                           	
  7900  12F0                     l3113:	
  7901                           	line	79
  7902                           	
  7903  12F0                     l10249:	
  7904                           ;Beverage_services.c: 79: call_control_valve();
  7905  12F0  120A  118A  23DB   	fcall	_call_control_valve
              160A  118A         
  7906                           	line	80
  7907                           	
  7908  12F5                     l10251:	
  7909                           ;Beverage_services.c: 80: _clear=1;
  7910  12F5  1283               	bcf	status, 5	;RP0=0, select bank0
  7911  12F6  1303               	bcf	status, 6	;RP1=0, select bank0
  7912  12F7  15EE               	bsf	(__clear/8),(__clear)&7
  7913  12F8  2AF9               	goto	l10253
  7914                           	line	81
  7915                           	
  7916  12F9                     l3111:	
  7917                           	line	82
  7918                           	
  7919  12F9                     l10253:	
  7920                           ;Beverage_services.c: 81: }
  7921                           ;Beverage_services.c: 82: if(RC5==0 || _clear==1)
  7922  12F9  1E87               	btfss	(61/8),(61)&7
  7923  12FA  2AFC               	goto	u6241
  7924  12FB  2AFD               	goto	u6240
  7925  12FC                     u6241:
  7926  12FC  2B01               	goto	l3116
  7927  12FD                     u6240:
  7928                           	
  7929  12FD                     l10255:	
  7930  12FD  1DEE               	btfss	(__clear/8),(__clear)&7
  7931  12FE  2B00               	goto	u6251
  7932  12FF  2B01               	goto	u6250
  7933  1300                     u6251:
  7934  1300  2A6A               	goto	l10235
  7935  1301                     u6250:
  7936                           	
  7937  1301                     l3116:	
  7938                           	line	84
  7939                           ;Beverage_services.c: 83: {
  7940                           ;Beverage_services.c: 84: _clear=0;
  7941  1301  11EE               	bcf	(__clear/8),(__clear)&7
  7942                           	line	85
  7943                           	
  7944  1302                     l10257:	
  7945                           ;Beverage_services.c: 85: eeprom_write(145,0);
  7946  1302  01F6               	clrf	(?_eeprom_write)
  7947  1303  3091               	movlw	(091h)
  7948  1304  160A  158A  2276   	fcall	_eeprom_write
              160A  118A         
  7949                           	line	86
  7950                           ;Beverage_services.c: 86: eeprom_write(146,0);
  7951  1309  01F6               	clrf	(?_eeprom_write)
  7952  130A  3092               	movlw	(092h)
  7953  130B  160A  158A  2276   	fcall	_eeprom_write
              160A  118A         
  7954                           	line	87
  7955                           	
  7956  1310                     l10259:	
  7957                           ;Beverage_services.c: 87: _DISABLE_MODE=_Shortcut_Mode;
  7958  1310  300E               	movlw	(0Eh)
  7959  1311  1283               	bcf	status, 5	;RP0=0, select bank0
  7960  1312  1303               	bcf	status, 6	;RP1=0, select bank0
  7961  1313  00DC               	movwf	(??_Mode_Init+0)+0
  7962  1314  085C               	movf	(??_Mode_Init+0)+0,w
  7963  1315  00B7               	movwf	(__DISABLE_MODE)
  7964                           	line	88
  7965                           	
  7966  1316                     l10261:	
  7967                           ;Beverage_services.c: 88: _ENABLE_MODE=_Normal_Mode;
  7968  1316  01B8               	clrf	(__ENABLE_MODE)
  7969  1317  1403               	bsf	status,0
  7970  1318  0DB8               	rlf	(__ENABLE_MODE),f
  7971                           	line	89
  7972                           ;Beverage_services.c: 89: break;
  7973  1319  2B1D               	goto	l3119
  7974                           	line	90
  7975                           	
  7976  131A                     l3114:	
  7977  131A  2A6A               	goto	l10235
  7978                           	line	91
  7979                           	
  7980  131B                     l3118:	
  7981                           	line	68
  7982  131B  2A6A               	goto	l10235
  7983                           	
  7984  131C                     l3117:	
  7985  131C  2B1D               	goto	l3119
  7986                           	line	92
  7987                           	
  7988  131D                     l3107:	
  7989                           	line	94
  7990                           	
  7991  131D                     l3119:	
  7992  131D  0008               	return
  7993                           	opt stack 0
  7994                           GLOBAL	__end_of_Mode_Init
  7995  131E                     	__end_of_Mode_Init:
  7996 ;; =============== function _Mode_Init ends ============
  7997                           
  7998                           	signat	_Mode_Init,88
  7999                           	global	_call_control_valve
  8000                           psect	text850,local,class=CODE,delta=2
  8001                           global __ptext850
  8002  03DB                     __ptext850:
  8003                           
  8004 ;; *************** function _call_control_valve *****************
  8005 ;; Defined at:
  8006 ;;		line 950 in file "F:\BEVERAGES_ENHANCEMENT\SOFTWARE_DESIGN\MASTER_PIC_16F877A\2015_09_13\Beverage_services.c"
  8007 ;; Parameters:    Size  Location     Type
  8008 ;;		None
  8009 ;; Auto vars:     Size  Location     Type
  8010 ;;		None
  8011 ;; Return value:  Size  Location     Type
  8012 ;;		None               void
  8013 ;; Registers used:
  8014 ;;		wreg, fsr0l, fsr0h, status,2, status,0, btemp+1, pclath, cstack
  8015 ;; Tracked objects:
  8016 ;;		On entry : 0/0
  8017 ;;		On exit  : 0/0
  8018 ;;		Unchanged: 0/0
  8019 ;; Data sizes:     COMMON   BANK0   BANK1   BANK3   BANK2
  8020 ;;      Params:         0       0       0       0       0
  8021 ;;      Locals:         0       2       0       0       0
  8022 ;;      Temps:          0       8       0       0       0
  8023 ;;      Totals:         0      10       0       0       0
  8024 ;;Total ram usage:       10 bytes
  8025 ;; Hardware stack levels used:    1
  8026 ;; Hardware stack levels required when called:    3
  8027 ;; This function calls:
  8028 ;;		___bmul
  8029 ;;		_eeprom_read
  8030 ;;		_control_valve
  8031 ;;		_Lcd_Cmd
  8032 ;;		_myitoa
  8033 ;;		_Lcd_String
  8034 ;;		_eeprom_write
  8035 ;;		___wmul
  8036 ;; This function is called by:
  8037 ;;		_Mode_Init
  8038 ;;		_enable_valves
  8039 ;; This function uses a non-reentrant model
  8040 ;;
  8041                           psect	text850
  8042                           	file	"F:\BEVERAGES_ENHANCEMENT\SOFTWARE_DESIGN\MASTER_PIC_16F877A\2015_09_13\Beverage_s
                                 ervices.c"
  8043                           	line	950
  8044                           	global	__size_of_call_control_valve
  8045  0325                     	__size_of_call_control_valve	equ	__end_of_call_control_valve-_call_control_valve
  8046                           	
  8047  03DB                     _call_control_valve:	
  8048                           	opt	stack 3
  8049                           ; Regs used in _call_control_valve: [wreg-fsr0h+status,2+status,0+btemp+1+pclath+cstack]
  8050                           	line	951
  8051                           	
  8052  03DB                     l10121:	
  8053                           ;Beverage_services.c: 951: if(Enable_Coffee_Valve)
  8054  03DB  1283               	bcf	status, 5	;RP0=0, select bank0
  8055  03DC  1303               	bcf	status, 6	;RP1=0, select bank0
  8056  03DD  1D6B               	btfss	(_Enable_Coffee_Valve/8),(_Enable_Coffee_Valve)&7
  8057  03DE  2BE0               	goto	u6031
  8058  03DF  2BE1               	goto	u6030
  8059  03E0                     u6031:
  8060  03E0  2C29               	goto	l10129
  8061  03E1                     u6030:
  8062                           	line	953
  8063                           	
  8064  03E1                     l10123:	
  8065                           ;Beverage_services.c: 952: {
  8066                           ;Beverage_services.c: 953: _ON=_OFF=_Coffee_Valve;
  8067  03E1  3006               	movlw	(06h)
  8068  03E2  00B9               	movwf	(__OFF)
  8069  03E3  00D2               	movwf	(??_call_control_valve+0)+0
  8070  03E4  0852               	movf	(??_call_control_valve+0)+0,w
  8071  03E5  00BA               	movwf	(__ON)
  8072                           	line	954
  8073                           	
  8074  03E6                     l10125:	
  8075                           ;Beverage_services.c: 954: control_valve(eeprom_read((12*_CHOICE_SELECTED)-2),eeprom_rea
                                 d((12*_CHOICE_SELECTED)-2+1));
  8076  03E6  300C               	movlw	(0Ch)
  8077  03E7  00D2               	movwf	(??_call_control_valve+0)+0
  8078  03E8  0852               	movf	(??_call_control_valve+0)+0,w
  8079  03E9  00F0               	movwf	(?___bmul)
  8080  03EA  0848               	movf	(__CHOICE_SELECTED),w
  8081  03EB  160A  158A  2186   	fcall	___bmul
              120A  118A         
  8082  03F0  3EFE               	addlw	0FEh
  8083  03F1  1283               	bcf	status, 5	;RP0=0, select bank0
  8084  03F2  1303               	bcf	status, 6	;RP1=0, select bank0
  8085  03F3  00D3               	movwf	(??_call_control_valve+1)+0
  8086  03F4  0853               	movf	(??_call_control_valve+1)+0,w
  8087  03F5  00F4               	movwf	(?_eeprom_read)
  8088  03F6  160A  158A  21B7   	fcall	_eeprom_read
              120A  118A         
  8089  03FB  1283               	bcf	status, 5	;RP0=0, select bank0
  8090  03FC  1303               	bcf	status, 6	;RP1=0, select bank0
  8091  03FD  00D4               	movwf	(??_call_control_valve+2)+0
  8092  03FE  01D5               	clrf	(??_call_control_valve+2)+0+1
  8093  03FF  0854               	movf	0+(??_call_control_valve+2)+0,w
  8094  0400  00CC               	movwf	(?_control_valve)
  8095  0401  0855               	movf	1+(??_call_control_valve+2)+0,w
  8096  0402  00CD               	movwf	(?_control_valve+1)
  8097  0403  300C               	movlw	(0Ch)
  8098  0404  00D6               	movwf	(??_call_control_valve+4)+0
  8099  0405  0856               	movf	(??_call_control_valve+4)+0,w
  8100  0406  00F0               	movwf	(?___bmul)
  8101  0407  0848               	movf	(__CHOICE_SELECTED),w
  8102  0408  160A  158A  2186   	fcall	___bmul
              120A  118A         
  8103  040D  3EFF               	addlw	0FFh
  8104  040E  1283               	bcf	status, 5	;RP0=0, select bank0
  8105  040F  1303               	bcf	status, 6	;RP1=0, select bank0
  8106  0410  00D7               	movwf	(??_call_control_valve+5)+0
  8107  0411  0857               	movf	(??_call_control_valve+5)+0,w
  8108  0412  00F4               	movwf	(?_eeprom_read)
  8109  0413  160A  158A  21B7   	fcall	_eeprom_read
              120A  118A         
  8110  0418  1283               	bcf	status, 5	;RP0=0, select bank0
  8111  0419  1303               	bcf	status, 6	;RP1=0, select bank0
  8112  041A  00D8               	movwf	(??_call_control_valve+6)+0
  8113  041B  01D9               	clrf	(??_call_control_valve+6)+0+1
  8114  041C  0858               	movf	0+(??_call_control_valve+6)+0,w
  8115  041D  00CE               	movwf	0+(?_control_valve)+02h
  8116  041E  0859               	movf	1+(??_call_control_valve+6)+0,w
  8117  041F  00CF               	movwf	1+(?_control_valve)+02h
  8118  0420  160A  158A  243B   	fcall	_control_valve
              120A  118A         
  8119                           	line	955
  8120                           	
  8121  0425                     l10127:	
  8122                           ;Beverage_services.c: 955: Enable_Coffee_Valve=0;
  8123  0425  1283               	bcf	status, 5	;RP0=0, select bank0
  8124  0426  1303               	bcf	status, 6	;RP1=0, select bank0
  8125  0427  116B               	bcf	(_Enable_Coffee_Valve/8),(_Enable_Coffee_Valve)&7
  8126  0428  2C29               	goto	l10129
  8127                           	line	956
  8128                           	
  8129  0429                     l3372:	
  8130                           	line	957
  8131                           	
  8132  0429                     l10129:	
  8133                           ;Beverage_services.c: 956: }
  8134                           ;Beverage_services.c: 957: if(Enable_Tea_Valve)
  8135  0429  1EED               	btfss	(_Enable_Tea_Valve/8),(_Enable_Tea_Valve)&7
  8136  042A  2C2C               	goto	u6041
  8137  042B  2C2D               	goto	u6040
  8138  042C                     u6041:
  8139  042C  2C74               	goto	l10137
  8140  042D                     u6040:
  8141                           	line	959
  8142                           	
  8143  042D                     l10131:	
  8144                           ;Beverage_services.c: 958: {
  8145                           ;Beverage_services.c: 959: _ON=_OFF=_Tea_Valve;
  8146  042D  3008               	movlw	(08h)
  8147  042E  00B9               	movwf	(__OFF)
  8148  042F  00D2               	movwf	(??_call_control_valve+0)+0
  8149  0430  0852               	movf	(??_call_control_valve+0)+0,w
  8150  0431  00BA               	movwf	(__ON)
  8151                           	line	960
  8152                           	
  8153  0432                     l10133:	
  8154                           ;Beverage_services.c: 960: control_valve(eeprom_read((12*_CHOICE_SELECTED)-2+2),eeprom_r
                                 ead((12*_CHOICE_SELECTED)-2+3));
  8155  0432  300C               	movlw	(0Ch)
  8156  0433  00D2               	movwf	(??_call_control_valve+0)+0
  8157  0434  0852               	movf	(??_call_control_valve+0)+0,w
  8158  0435  00F0               	movwf	(?___bmul)
  8159  0436  0848               	movf	(__CHOICE_SELECTED),w
  8160  0437  160A  158A  2186   	fcall	___bmul
              120A  118A         
  8161  043C  1283               	bcf	status, 5	;RP0=0, select bank0
  8162  043D  1303               	bcf	status, 6	;RP1=0, select bank0
  8163  043E  00D3               	movwf	(??_call_control_valve+1)+0
  8164  043F  0853               	movf	(??_call_control_valve+1)+0,w
  8165  0440  00F4               	movwf	(?_eeprom_read)
  8166  0441  160A  158A  21B7   	fcall	_eeprom_read
              120A  118A         
  8167  0446  1283               	bcf	status, 5	;RP0=0, select bank0
  8168  0447  1303               	bcf	status, 6	;RP1=0, select bank0
  8169  0448  00D4               	movwf	(??_call_control_valve+2)+0
  8170  0449  01D5               	clrf	(??_call_control_valve+2)+0+1
  8171  044A  0854               	movf	0+(??_call_control_valve+2)+0,w
  8172  044B  00CC               	movwf	(?_control_valve)
  8173  044C  0855               	movf	1+(??_call_control_valve+2)+0,w
  8174  044D  00CD               	movwf	(?_control_valve+1)
  8175  044E  300C               	movlw	(0Ch)
  8176  044F  00D6               	movwf	(??_call_control_valve+4)+0
  8177  0450  0856               	movf	(??_call_control_valve+4)+0,w
  8178  0451  00F0               	movwf	(?___bmul)
  8179  0452  0848               	movf	(__CHOICE_SELECTED),w
  8180  0453  160A  158A  2186   	fcall	___bmul
              120A  118A         
  8181  0458  3E01               	addlw	01h
  8182  0459  1283               	bcf	status, 5	;RP0=0, select bank0
  8183  045A  1303               	bcf	status, 6	;RP1=0, select bank0
  8184  045B  00D7               	movwf	(??_call_control_valve+5)+0
  8185  045C  0857               	movf	(??_call_control_valve+5)+0,w
  8186  045D  00F4               	movwf	(?_eeprom_read)
  8187  045E  160A  158A  21B7   	fcall	_eeprom_read
              120A  118A         
  8188  0463  1283               	bcf	status, 5	;RP0=0, select bank0
  8189  0464  1303               	bcf	status, 6	;RP1=0, select bank0
  8190  0465  00D8               	movwf	(??_call_control_valve+6)+0
  8191  0466  01D9               	clrf	(??_call_control_valve+6)+0+1
  8192  0467  0858               	movf	0+(??_call_control_valve+6)+0,w
  8193  0468  00CE               	movwf	0+(?_control_valve)+02h
  8194  0469  0859               	movf	1+(??_call_control_valve+6)+0,w
  8195  046A  00CF               	movwf	1+(?_control_valve)+02h
  8196  046B  160A  158A  243B   	fcall	_control_valve
              120A  118A         
  8197                           	line	961
  8198                           	
  8199  0470                     l10135:	
  8200                           ;Beverage_services.c: 961: Enable_Tea_Valve=0;
  8201  0470  1283               	bcf	status, 5	;RP0=0, select bank0
  8202  0471  1303               	bcf	status, 6	;RP1=0, select bank0
  8203  0472  12ED               	bcf	(_Enable_Tea_Valve/8),(_Enable_Tea_Valve)&7
  8204  0473  2C74               	goto	l10137
  8205                           	line	962
  8206                           	
  8207  0474                     l3373:	
  8208                           	line	963
  8209                           	
  8210  0474                     l10137:	
  8211                           ;Beverage_services.c: 962: }
  8212                           ;Beverage_services.c: 963: if(Enable_Mixing_Hot_Water_Valve)
  8213  0474  1F6C               	btfss	(_Enable_Mixing_Hot_Water_Valve/8),(_Enable_Mixing_Hot_Water_Valve)&7
  8214  0475  2C77               	goto	u6051
  8215  0476  2C78               	goto	u6050
  8216  0477                     u6051:
  8217  0477  2CC0               	goto	l10145
  8218  0478                     u6050:
  8219                           	line	965
  8220                           	
  8221  0478                     l10139:	
  8222                           ;Beverage_services.c: 964: {
  8223                           ;Beverage_services.c: 965: _ON=_OFF=_Mixing_Hot_Water_Valve;
  8224  0478  3003               	movlw	(03h)
  8225  0479  00B9               	movwf	(__OFF)
  8226  047A  00D2               	movwf	(??_call_control_valve+0)+0
  8227  047B  0852               	movf	(??_call_control_valve+0)+0,w
  8228  047C  00BA               	movwf	(__ON)
  8229                           	line	966
  8230                           	
  8231  047D                     l10141:	
  8232                           ;Beverage_services.c: 966: control_valve(eeprom_read((12*_CHOICE_SELECTED)-2+4),eeprom_r
                                 ead((12*_CHOICE_SELECTED)-2+5));
  8233  047D  300C               	movlw	(0Ch)
  8234  047E  00D2               	movwf	(??_call_control_valve+0)+0
  8235  047F  0852               	movf	(??_call_control_valve+0)+0,w
  8236  0480  00F0               	movwf	(?___bmul)
  8237  0481  0848               	movf	(__CHOICE_SELECTED),w
  8238  0482  160A  158A  2186   	fcall	___bmul
              120A  118A         
  8239  0487  3E02               	addlw	02h
  8240  0488  1283               	bcf	status, 5	;RP0=0, select bank0
  8241  0489  1303               	bcf	status, 6	;RP1=0, select bank0
  8242  048A  00D3               	movwf	(??_call_control_valve+1)+0
  8243  048B  0853               	movf	(??_call_control_valve+1)+0,w
  8244  048C  00F4               	movwf	(?_eeprom_read)
  8245  048D  160A  158A  21B7   	fcall	_eeprom_read
              120A  118A         
  8246  0492  1283               	bcf	status, 5	;RP0=0, select bank0
  8247  0493  1303               	bcf	status, 6	;RP1=0, select bank0
  8248  0494  00D4               	movwf	(??_call_control_valve+2)+0
  8249  0495  01D5               	clrf	(??_call_control_valve+2)+0+1
  8250  0496  0854               	movf	0+(??_call_control_valve+2)+0,w
  8251  0497  00CC               	movwf	(?_control_valve)
  8252  0498  0855               	movf	1+(??_call_control_valve+2)+0,w
  8253  0499  00CD               	movwf	(?_control_valve+1)
  8254  049A  300C               	movlw	(0Ch)
  8255  049B  00D6               	movwf	(??_call_control_valve+4)+0
  8256  049C  0856               	movf	(??_call_control_valve+4)+0,w
  8257  049D  00F0               	movwf	(?___bmul)
  8258  049E  0848               	movf	(__CHOICE_SELECTED),w
  8259  049F  160A  158A  2186   	fcall	___bmul
              120A  118A         
  8260  04A4  3E03               	addlw	03h
  8261  04A5  1283               	bcf	status, 5	;RP0=0, select bank0
  8262  04A6  1303               	bcf	status, 6	;RP1=0, select bank0
  8263  04A7  00D7               	movwf	(??_call_control_valve+5)+0
  8264  04A8  0857               	movf	(??_call_control_valve+5)+0,w
  8265  04A9  00F4               	movwf	(?_eeprom_read)
  8266  04AA  160A  158A  21B7   	fcall	_eeprom_read
              120A  118A         
  8267  04AF  1283               	bcf	status, 5	;RP0=0, select bank0
  8268  04B0  1303               	bcf	status, 6	;RP1=0, select bank0
  8269  04B1  00D8               	movwf	(??_call_control_valve+6)+0
  8270  04B2  01D9               	clrf	(??_call_control_valve+6)+0+1
  8271  04B3  0858               	movf	0+(??_call_control_valve+6)+0,w
  8272  04B4  00CE               	movwf	0+(?_control_valve)+02h
  8273  04B5  0859               	movf	1+(??_call_control_valve+6)+0,w
  8274  04B6  00CF               	movwf	1+(?_control_valve)+02h
  8275  04B7  160A  158A  243B   	fcall	_control_valve
              120A  118A         
  8276                           	line	967
  8277                           	
  8278  04BC                     l10143:	
  8279                           ;Beverage_services.c: 967: Enable_Mixing_Hot_Water_Valve=0;
  8280  04BC  1283               	bcf	status, 5	;RP0=0, select bank0
  8281  04BD  1303               	bcf	status, 6	;RP1=0, select bank0
  8282  04BE  136C               	bcf	(_Enable_Mixing_Hot_Water_Valve/8),(_Enable_Mixing_Hot_Water_Valve)&7
  8283  04BF  2CC0               	goto	l10145
  8284                           	line	968
  8285                           	
  8286  04C0                     l3374:	
  8287                           	line	969
  8288                           	
  8289  04C0                     l10145:	
  8290                           ;Beverage_services.c: 968: }
  8291                           ;Beverage_services.c: 969: if(Enable_Milk_Forward)
  8292  04C0  1DEC               	btfss	(_Enable_Milk_Forward/8),(_Enable_Milk_Forward)&7
  8293  04C1  2CC3               	goto	u6061
  8294  04C2  2CC4               	goto	u6060
  8295  04C3                     u6061:
  8296  04C3  2D0C               	goto	l10153
  8297  04C4                     u6060:
  8298                           	line	971
  8299                           	
  8300  04C4                     l10147:	
  8301                           ;Beverage_services.c: 970: {
  8302                           ;Beverage_services.c: 971: _ON=_OFF=_Milk_Valve_Forward;
  8303  04C4  3001               	movlw	(01h)
  8304  04C5  00B9               	movwf	(__OFF)
  8305  04C6  00D2               	movwf	(??_call_control_valve+0)+0
  8306  04C7  0852               	movf	(??_call_control_valve+0)+0,w
  8307  04C8  00BA               	movwf	(__ON)
  8308                           	line	972
  8309                           	
  8310  04C9                     l10149:	
  8311                           ;Beverage_services.c: 972: control_valve(eeprom_read((12*_CHOICE_SELECTED)-2+6),eeprom_r
                                 ead((12*_CHOICE_SELECTED)-2+7));
  8312  04C9  300C               	movlw	(0Ch)
  8313  04CA  00D2               	movwf	(??_call_control_valve+0)+0
  8314  04CB  0852               	movf	(??_call_control_valve+0)+0,w
  8315  04CC  00F0               	movwf	(?___bmul)
  8316  04CD  0848               	movf	(__CHOICE_SELECTED),w
  8317  04CE  160A  158A  2186   	fcall	___bmul
              120A  118A         
  8318  04D3  3E04               	addlw	04h
  8319  04D4  1283               	bcf	status, 5	;RP0=0, select bank0
  8320  04D5  1303               	bcf	status, 6	;RP1=0, select bank0
  8321  04D6  00D3               	movwf	(??_call_control_valve+1)+0
  8322  04D7  0853               	movf	(??_call_control_valve+1)+0,w
  8323  04D8  00F4               	movwf	(?_eeprom_read)
  8324  04D9  160A  158A  21B7   	fcall	_eeprom_read
              120A  118A         
  8325  04DE  1283               	bcf	status, 5	;RP0=0, select bank0
  8326  04DF  1303               	bcf	status, 6	;RP1=0, select bank0
  8327  04E0  00D4               	movwf	(??_call_control_valve+2)+0
  8328  04E1  01D5               	clrf	(??_call_control_valve+2)+0+1
  8329  04E2  0854               	movf	0+(??_call_control_valve+2)+0,w
  8330  04E3  00CC               	movwf	(?_control_valve)
  8331  04E4  0855               	movf	1+(??_call_control_valve+2)+0,w
  8332  04E5  00CD               	movwf	(?_control_valve+1)
  8333  04E6  300C               	movlw	(0Ch)
  8334  04E7  00D6               	movwf	(??_call_control_valve+4)+0
  8335  04E8  0856               	movf	(??_call_control_valve+4)+0,w
  8336  04E9  00F0               	movwf	(?___bmul)
  8337  04EA  0848               	movf	(__CHOICE_SELECTED),w
  8338  04EB  160A  158A  2186   	fcall	___bmul
              120A  118A         
  8339  04F0  3E05               	addlw	05h
  8340  04F1  1283               	bcf	status, 5	;RP0=0, select bank0
  8341  04F2  1303               	bcf	status, 6	;RP1=0, select bank0
  8342  04F3  00D7               	movwf	(??_call_control_valve+5)+0
  8343  04F4  0857               	movf	(??_call_control_valve+5)+0,w
  8344  04F5  00F4               	movwf	(?_eeprom_read)
  8345  04F6  160A  158A  21B7   	fcall	_eeprom_read
              120A  118A         
  8346  04FB  1283               	bcf	status, 5	;RP0=0, select bank0
  8347  04FC  1303               	bcf	status, 6	;RP1=0, select bank0
  8348  04FD  00D8               	movwf	(??_call_control_valve+6)+0
  8349  04FE  01D9               	clrf	(??_call_control_valve+6)+0+1
  8350  04FF  0858               	movf	0+(??_call_control_valve+6)+0,w
  8351  0500  00CE               	movwf	0+(?_control_valve)+02h
  8352  0501  0859               	movf	1+(??_call_control_valve+6)+0,w
  8353  0502  00CF               	movwf	1+(?_control_valve)+02h
  8354  0503  160A  158A  243B   	fcall	_control_valve
              120A  118A         
  8355                           	line	973
  8356                           	
  8357  0508                     l10151:	
  8358                           ;Beverage_services.c: 973: Enable_Milk_Forward=0;
  8359  0508  1283               	bcf	status, 5	;RP0=0, select bank0
  8360  0509  1303               	bcf	status, 6	;RP1=0, select bank0
  8361  050A  11EC               	bcf	(_Enable_Milk_Forward/8),(_Enable_Milk_Forward)&7
  8362  050B  2D0C               	goto	l10153
  8363                           	line	974
  8364                           	
  8365  050C                     l3375:	
  8366                           	line	975
  8367                           	
  8368  050C                     l10153:	
  8369                           ;Beverage_services.c: 974: }
  8370                           ;Beverage_services.c: 975: if(Enable_Viber_Motor)
  8371  050C  1C6E               	btfss	(_Enable_Viber_Motor/8),(_Enable_Viber_Motor)&7
  8372  050D  2D0F               	goto	u6071
  8373  050E  2D10               	goto	u6070
  8374  050F                     u6071:
  8375  050F  2D58               	goto	l10161
  8376  0510                     u6070:
  8377                           	line	977
  8378                           	
  8379  0510                     l10155:	
  8380                           ;Beverage_services.c: 976: {
  8381                           ;Beverage_services.c: 977: _ON=_OFF=_Viber_Motor;
  8382  0510  3009               	movlw	(09h)
  8383  0511  00B9               	movwf	(__OFF)
  8384  0512  00D2               	movwf	(??_call_control_valve+0)+0
  8385  0513  0852               	movf	(??_call_control_valve+0)+0,w
  8386  0514  00BA               	movwf	(__ON)
  8387                           	line	978
  8388                           	
  8389  0515                     l10157:	
  8390                           ;Beverage_services.c: 978: control_valve(eeprom_read((12*_CHOICE_SELECTED)-2+8),eeprom_r
                                 ead((12*_CHOICE_SELECTED)-2+9));
  8391  0515  300C               	movlw	(0Ch)
  8392  0516  00D2               	movwf	(??_call_control_valve+0)+0
  8393  0517  0852               	movf	(??_call_control_valve+0)+0,w
  8394  0518  00F0               	movwf	(?___bmul)
  8395  0519  0848               	movf	(__CHOICE_SELECTED),w
  8396  051A  160A  158A  2186   	fcall	___bmul
              120A  118A         
  8397  051F  3E06               	addlw	06h
  8398  0520  1283               	bcf	status, 5	;RP0=0, select bank0
  8399  0521  1303               	bcf	status, 6	;RP1=0, select bank0
  8400  0522  00D3               	movwf	(??_call_control_valve+1)+0
  8401  0523  0853               	movf	(??_call_control_valve+1)+0,w
  8402  0524  00F4               	movwf	(?_eeprom_read)
  8403  0525  160A  158A  21B7   	fcall	_eeprom_read
              120A  118A         
  8404  052A  1283               	bcf	status, 5	;RP0=0, select bank0
  8405  052B  1303               	bcf	status, 6	;RP1=0, select bank0
  8406  052C  00D4               	movwf	(??_call_control_valve+2)+0
  8407  052D  01D5               	clrf	(??_call_control_valve+2)+0+1
  8408  052E  0854               	movf	0+(??_call_control_valve+2)+0,w
  8409  052F  00CC               	movwf	(?_control_valve)
  8410  0530  0855               	movf	1+(??_call_control_valve+2)+0,w
  8411  0531  00CD               	movwf	(?_control_valve+1)
  8412  0532  300C               	movlw	(0Ch)
  8413  0533  00D6               	movwf	(??_call_control_valve+4)+0
  8414  0534  0856               	movf	(??_call_control_valve+4)+0,w
  8415  0535  00F0               	movwf	(?___bmul)
  8416  0536  0848               	movf	(__CHOICE_SELECTED),w
  8417  0537  160A  158A  2186   	fcall	___bmul
              120A  118A         
  8418  053C  3E07               	addlw	07h
  8419  053D  1283               	bcf	status, 5	;RP0=0, select bank0
  8420  053E  1303               	bcf	status, 6	;RP1=0, select bank0
  8421  053F  00D7               	movwf	(??_call_control_valve+5)+0
  8422  0540  0857               	movf	(??_call_control_valve+5)+0,w
  8423  0541  00F4               	movwf	(?_eeprom_read)
  8424  0542  160A  158A  21B7   	fcall	_eeprom_read
              120A  118A         
  8425  0547  1283               	bcf	status, 5	;RP0=0, select bank0
  8426  0548  1303               	bcf	status, 6	;RP1=0, select bank0
  8427  0549  00D8               	movwf	(??_call_control_valve+6)+0
  8428  054A  01D9               	clrf	(??_call_control_valve+6)+0+1
  8429  054B  0858               	movf	0+(??_call_control_valve+6)+0,w
  8430  054C  00CE               	movwf	0+(?_control_valve)+02h
  8431  054D  0859               	movf	1+(??_call_control_valve+6)+0,w
  8432  054E  00CF               	movwf	1+(?_control_valve)+02h
  8433  054F  160A  158A  243B   	fcall	_control_valve
              120A  118A         
  8434                           	line	979
  8435                           	
  8436  0554                     l10159:	
  8437                           ;Beverage_services.c: 979: Enable_Viber_Motor=0;
  8438  0554  1283               	bcf	status, 5	;RP0=0, select bank0
  8439  0555  1303               	bcf	status, 6	;RP1=0, select bank0
  8440  0556  106E               	bcf	(_Enable_Viber_Motor/8),(_Enable_Viber_Motor)&7
  8441  0557  2D58               	goto	l10161
  8442                           	line	980
  8443                           	
  8444  0558                     l3376:	
  8445                           	line	981
  8446                           	
  8447  0558                     l10161:	
  8448                           ;Beverage_services.c: 980: }
  8449                           ;Beverage_services.c: 981: if(Enable_Hot_Water_Valve)
  8450  0558  1D6C               	btfss	(_Enable_Hot_Water_Valve/8),(_Enable_Hot_Water_Valve)&7
  8451  0559  2D5B               	goto	u6081
  8452  055A  2D5C               	goto	u6080
  8453  055B                     u6081:
  8454  055B  2D7F               	goto	l10169
  8455  055C                     u6080:
  8456                           	line	983
  8457                           	
  8458  055C                     l10163:	
  8459                           ;Beverage_services.c: 982: {
  8460                           ;Beverage_services.c: 983: _ON=_OFF=_Hot_Water_Valve;
  8461  055C  3004               	movlw	(04h)
  8462  055D  00B9               	movwf	(__OFF)
  8463  055E  00D2               	movwf	(??_call_control_valve+0)+0
  8464  055F  0852               	movf	(??_call_control_valve+0)+0,w
  8465  0560  00BA               	movwf	(__ON)
  8466                           	line	985
  8467                           	
  8468  0561                     l10165:	
  8469                           ;Beverage_services.c: 985: control_valve(eeprom_read(147),2);
  8470  0561  3093               	movlw	(093h)
  8471  0562  00D2               	movwf	(??_call_control_valve+0)+0
  8472  0563  0852               	movf	(??_call_control_valve+0)+0,w
  8473  0564  00F4               	movwf	(?_eeprom_read)
  8474  0565  160A  158A  21B7   	fcall	_eeprom_read
              120A  118A         
  8475  056A  1283               	bcf	status, 5	;RP0=0, select bank0
  8476  056B  1303               	bcf	status, 6	;RP1=0, select bank0
  8477  056C  00D3               	movwf	(??_call_control_valve+1)+0
  8478  056D  01D4               	clrf	(??_call_control_valve+1)+0+1
  8479  056E  0853               	movf	0+(??_call_control_valve+1)+0,w
  8480  056F  00CC               	movwf	(?_control_valve)
  8481  0570  0854               	movf	1+(??_call_control_valve+1)+0,w
  8482  0571  00CD               	movwf	(?_control_valve+1)
  8483  0572  3002               	movlw	low(02h)
  8484  0573  00CE               	movwf	0+(?_control_valve)+02h
  8485  0574  3000               	movlw	high(02h)
  8486  0575  00CF               	movwf	(0+(?_control_valve)+02h)+1
  8487  0576  160A  158A  243B   	fcall	_control_valve
              120A  118A         
  8488                           	line	986
  8489                           	
  8490  057B                     l10167:	
  8491                           ;Beverage_services.c: 986: Enable_Hot_Water_Valve=0;
  8492  057B  1283               	bcf	status, 5	;RP0=0, select bank0
  8493  057C  1303               	bcf	status, 6	;RP1=0, select bank0
  8494  057D  116C               	bcf	(_Enable_Hot_Water_Valve/8),(_Enable_Hot_Water_Valve)&7
  8495  057E  2D7F               	goto	l10169
  8496                           	line	987
  8497                           	
  8498  057F                     l3377:	
  8499                           	line	988
  8500                           	
  8501  057F                     l10169:	
  8502                           ;Beverage_services.c: 987: }
  8503                           ;Beverage_services.c: 988: if(Enable_Coffee_Hot_Water_Valve)
  8504  057F  1CEB               	btfss	(_Enable_Coffee_Hot_Water_Valve/8),(_Enable_Coffee_Hot_Water_Valve)&7
  8505  0580  2D82               	goto	u6091
  8506  0581  2D83               	goto	u6090
  8507  0582                     u6091:
  8508  0582  2E2B               	goto	l3378
  8509  0583                     u6090:
  8510                           	line	990
  8511                           	
  8512  0583                     l10171:	
  8513                           ;Beverage_services.c: 989: {
  8514                           ;Beverage_services.c: 990: _ON=_OFF=_Coffee_Hot_Water_Valve;
  8515  0583  3005               	movlw	(05h)
  8516  0584  00B9               	movwf	(__OFF)
  8517  0585  00D2               	movwf	(??_call_control_valve+0)+0
  8518  0586  0852               	movf	(??_call_control_valve+0)+0,w
  8519  0587  00BA               	movwf	(__ON)
  8520                           	line	991
  8521                           	
  8522  0588                     l10173:	
  8523                           ;Beverage_services.c: 991: for(i=eeprom_read(145);i>0;i--)
  8524  0588  3091               	movlw	(091h)
  8525  0589  00D2               	movwf	(??_call_control_valve+0)+0
  8526  058A  0852               	movf	(??_call_control_valve+0)+0,w
  8527  058B  00F4               	movwf	(?_eeprom_read)
  8528  058C  160A  158A  21B7   	fcall	_eeprom_read
              120A  118A         
  8529  0591  1283               	bcf	status, 5	;RP0=0, select bank0
  8530  0592  1303               	bcf	status, 6	;RP1=0, select bank0
  8531  0593  00D3               	movwf	(??_call_control_valve+1)+0
  8532  0594  01D4               	clrf	(??_call_control_valve+1)+0+1
  8533  0595  0853               	movf	0+(??_call_control_valve+1)+0,w
  8534  0596  00AB               	movwf	(_i)
  8535  0597  0854               	movf	1+(??_call_control_valve+1)+0,w
  8536  0598  00AC               	movwf	(_i+1)
  8537  0599  2E24               	goto	l10189
  8538                           	line	992
  8539                           	
  8540  059A                     l3380:	
  8541                           	line	993
  8542                           	
  8543  059A                     l10175:	
  8544                           ;Beverage_services.c: 992: {
  8545                           ;Beverage_services.c: 993: Lcd_Cmd(0xC6);
  8546  059A  30C6               	movlw	(0C6h)
  8547  059B  160A  158A  2314   	fcall	_Lcd_Cmd
              120A  118A         
  8548                           	line	994
  8549                           	
  8550  05A0                     l10177:	
  8551                           ;Beverage_services.c: 994: myitoa(i,buff);
  8552  05A0  1283               	bcf	status, 5	;RP0=0, select bank0
  8553  05A1  1303               	bcf	status, 6	;RP1=0, select bank0
  8554  05A2  082C               	movf	(_i+1),w
  8555  05A3  01FC               	clrf	(?_myitoa+1)
  8556  05A4  07FC               	addwf	(?_myitoa+1)
  8557  05A5  082B               	movf	(_i),w
  8558  05A6  01FB               	clrf	(?_myitoa)
  8559  05A7  07FB               	addwf	(?_myitoa)
  8560                           
  8561  05A8  3043               	movlw	(_buff)&0ffh
  8562  05A9  00D2               	movwf	(??_call_control_valve+0)+0
  8563  05AA  0852               	movf	(??_call_control_valve+0)+0,w
  8564  05AB  00FD               	movwf	0+(?_myitoa)+02h
  8565  05AC  160A  118A  2014   	fcall	_myitoa
              120A  118A         
  8566                           	line	995
  8567                           	
  8568  05B1                     l10179:	
  8569                           ;Beverage_services.c: 995: Lcd_String(buff,0,0);
  8570  05B1  3043               	movlw	(_buff&0ffh)
  8571  05B2  1283               	bcf	status, 5	;RP0=0, select bank0
  8572  05B3  1303               	bcf	status, 6	;RP1=0, select bank0
  8573  05B4  00CE               	movwf	(?_Lcd_String)
  8574  05B5  3000               	movlw	(0x0/2)
  8575  05B6  00CF               	movwf	(?_Lcd_String+1)
  8576  05B7  01D0               	clrf	0+(?_Lcd_String)+02h
  8577  05B8  01D1               	clrf	0+(?_Lcd_String)+03h
  8578  05B9  160A  158A  2509   	fcall	_Lcd_String
              120A  118A         
  8579                           	line	996
  8580                           	
  8581  05BE                     l10181:	
  8582                           ;Beverage_services.c: 996: eeprom_write(145,i);
  8583  05BE  1283               	bcf	status, 5	;RP0=0, select bank0
  8584  05BF  1303               	bcf	status, 6	;RP1=0, select bank0
  8585  05C0  082B               	movf	(_i),w
  8586  05C1  00D2               	movwf	(??_call_control_valve+0)+0
  8587  05C2  0852               	movf	(??_call_control_valve+0)+0,w
  8588  05C3  00F6               	movwf	(?_eeprom_write)
  8589  05C4  3091               	movlw	(091h)
  8590  05C5  160A  158A  2276   	fcall	_eeprom_write
              120A  118A         
  8591                           	line	997
  8592                           	
  8593  05CA                     l10183:	
  8594                           ;Beverage_services.c: 997: control_valve(eeprom_read(118)*10,eeprom_read(121)*10);
  8595  05CA  3079               	movlw	(079h)
  8596  05CB  1283               	bcf	status, 5	;RP0=0, select bank0
  8597  05CC  1303               	bcf	status, 6	;RP1=0, select bank0
  8598  05CD  00D2               	movwf	(??_call_control_valve+0)+0
  8599  05CE  0852               	movf	(??_call_control_valve+0)+0,w
  8600  05CF  00F4               	movwf	(?_eeprom_read)
  8601  05D0  160A  158A  21B7   	fcall	_eeprom_read
              120A  118A         
  8602  05D5  1283               	bcf	status, 5	;RP0=0, select bank0
  8603  05D6  1303               	bcf	status, 6	;RP1=0, select bank0
  8604  05D7  00D3               	movwf	(??_call_control_valve+1)+0
  8605  05D8  01D4               	clrf	(??_call_control_valve+1)+0+1
  8606  05D9  0853               	movf	0+(??_call_control_valve+1)+0,w
  8607  05DA  00F6               	movwf	(?___wmul)
  8608  05DB  0854               	movf	1+(??_call_control_valve+1)+0,w
  8609  05DC  00F7               	movwf	(?___wmul+1)
  8610  05DD  300A               	movlw	low(0Ah)
  8611  05DE  00F8               	movwf	0+(?___wmul)+02h
  8612  05DF  3000               	movlw	high(0Ah)
  8613  05E0  00F9               	movwf	(0+(?___wmul)+02h)+1
  8614  05E1  160A  158A  221B   	fcall	___wmul
              120A  118A         
  8615  05E6  0877               	movf	(1+(?___wmul)),w
  8616  05E7  1283               	bcf	status, 5	;RP0=0, select bank0
  8617  05E8  1303               	bcf	status, 6	;RP1=0, select bank0
  8618  05E9  01DB               	clrf	(_call_control_valve$6339+1)
  8619  05EA  07DB               	addwf	(_call_control_valve$6339+1)
  8620  05EB  0876               	movf	(0+(?___wmul)),w
  8621  05EC  01DA               	clrf	(_call_control_valve$6339)
  8622  05ED  07DA               	addwf	(_call_control_valve$6339)
  8623                           
  8624                           	
  8625  05EE                     l10185:	
  8626                           ;Beverage_services.c: 997: control_valve(eeprom_read(118)*10,eeprom_read(121)*10);
  8627  05EE  3076               	movlw	(076h)
  8628  05EF  00D2               	movwf	(??_call_control_valve+0)+0
  8629  05F0  0852               	movf	(??_call_control_valve+0)+0,w
  8630  05F1  00F4               	movwf	(?_eeprom_read)
  8631  05F2  160A  158A  21B7   	fcall	_eeprom_read
              120A  118A         
  8632  05F7  1283               	bcf	status, 5	;RP0=0, select bank0
  8633  05F8  1303               	bcf	status, 6	;RP1=0, select bank0
  8634  05F9  00D3               	movwf	(??_call_control_valve+1)+0
  8635  05FA  01D4               	clrf	(??_call_control_valve+1)+0+1
  8636  05FB  0853               	movf	0+(??_call_control_valve+1)+0,w
  8637  05FC  00F6               	movwf	(?___wmul)
  8638  05FD  0854               	movf	1+(??_call_control_valve+1)+0,w
  8639  05FE  00F7               	movwf	(?___wmul+1)
  8640  05FF  300A               	movlw	low(0Ah)
  8641  0600  00F8               	movwf	0+(?___wmul)+02h
  8642  0601  3000               	movlw	high(0Ah)
  8643  0602  00F9               	movwf	(0+(?___wmul)+02h)+1
  8644  0603  160A  158A  221B   	fcall	___wmul
              120A  118A         
  8645  0608  0877               	movf	(1+(?___wmul)),w
  8646  0609  1283               	bcf	status, 5	;RP0=0, select bank0
  8647  060A  1303               	bcf	status, 6	;RP1=0, select bank0
  8648  060B  01CD               	clrf	(?_control_valve+1)
  8649  060C  07CD               	addwf	(?_control_valve+1)
  8650  060D  0876               	movf	(0+(?___wmul)),w
  8651  060E  01CC               	clrf	(?_control_valve)
  8652  060F  07CC               	addwf	(?_control_valve)
  8653                           
  8654  0610  085B               	movf	(_call_control_valve$6339+1),w
  8655  0611  01CF               	clrf	1+(?_control_valve)+02h
  8656  0612  07CF               	addwf	1+(?_control_valve)+02h
  8657  0613  085A               	movf	(_call_control_valve$6339),w
  8658  0614  01CE               	clrf	0+(?_control_valve)+02h
  8659  0615  07CE               	addwf	0+(?_control_valve)+02h
  8660                           
  8661  0616  160A  158A  243B   	fcall	_control_valve
              120A  118A         
  8662                           	line	991
  8663                           	
  8664  061B                     l10187:	
  8665  061B  3001               	movlw	low(01h)
  8666  061C  1283               	bcf	status, 5	;RP0=0, select bank0
  8667  061D  1303               	bcf	status, 6	;RP1=0, select bank0
  8668  061E  02AB               	subwf	(_i),f
  8669  061F  3000               	movlw	high(01h)
  8670  0620  1C03               	skipc
  8671  0621  03AC               	decf	(_i+1),f
  8672  0622  02AC               	subwf	(_i+1),f
  8673  0623  2E24               	goto	l10189
  8674                           	
  8675  0624                     l3379:	
  8676                           	
  8677  0624                     l10189:	
  8678  0624  082C               	movf	((_i+1)),w
  8679  0625  042B               	iorwf	((_i)),w
  8680  0626  1D03               	skipz
  8681  0627  2E29               	goto	u6101
  8682  0628  2E2A               	goto	u6100
  8683  0629                     u6101:
  8684  0629  2D9A               	goto	l10175
  8685  062A                     u6100:
  8686                           	
  8687  062A                     l3381:	
  8688                           	line	999
  8689                           ;Beverage_services.c: 998: }
  8690                           ;Beverage_services.c: 999: Enable_Coffee_Hot_Water_Valve=0;
  8691  062A  10EB               	bcf	(_Enable_Coffee_Hot_Water_Valve/8),(_Enable_Coffee_Hot_Water_Valve)&7
  8692                           	line	1000
  8693                           	
  8694  062B                     l3378:	
  8695                           	line	1001
  8696                           ;Beverage_services.c: 1000: }
  8697                           ;Beverage_services.c: 1001: if(Enable_Tea_Hot_Water_Valve)
  8698  062B  1E6D               	btfss	(_Enable_Tea_Hot_Water_Valve/8),(_Enable_Tea_Hot_Water_Valve)&7
  8699  062C  2E2E               	goto	u6111
  8700  062D  2E2F               	goto	u6110
  8701  062E                     u6111:
  8702  062E  2EB1               	goto	l3382
  8703  062F                     u6110:
  8704                           	line	1003
  8705                           	
  8706  062F                     l10191:	
  8707                           ;Beverage_services.c: 1002: {
  8708                           ;Beverage_services.c: 1003: _ON=_OFF=_Tea_Hot_Water_Valve;
  8709  062F  3007               	movlw	(07h)
  8710  0630  00B9               	movwf	(__OFF)
  8711  0631  00D2               	movwf	(??_call_control_valve+0)+0
  8712  0632  0852               	movf	(??_call_control_valve+0)+0,w
  8713  0633  00BA               	movwf	(__ON)
  8714                           	line	1004
  8715                           	
  8716  0634                     l10193:	
  8717                           ;Beverage_services.c: 1004: for(i=eeprom_read(146);i>0;i--)
  8718  0634  3092               	movlw	(092h)
  8719  0635  00D2               	movwf	(??_call_control_valve+0)+0
  8720  0636  0852               	movf	(??_call_control_valve+0)+0,w
  8721  0637  00F4               	movwf	(?_eeprom_read)
  8722  0638  160A  158A  21B7   	fcall	_eeprom_read
              120A  118A         
  8723  063D  1283               	bcf	status, 5	;RP0=0, select bank0
  8724  063E  1303               	bcf	status, 6	;RP1=0, select bank0
  8725  063F  00D3               	movwf	(??_call_control_valve+1)+0
  8726  0640  01D4               	clrf	(??_call_control_valve+1)+0+1
  8727  0641  0853               	movf	0+(??_call_control_valve+1)+0,w
  8728  0642  00AB               	movwf	(_i)
  8729  0643  0854               	movf	1+(??_call_control_valve+1)+0,w
  8730  0644  00AC               	movwf	(_i+1)
  8731  0645  2EAA               	goto	l10201
  8732                           	line	1005
  8733                           	
  8734  0646                     l3384:	
  8735                           	line	1006
  8736                           	
  8737  0646                     l10195:	
  8738                           ;Beverage_services.c: 1005: {
  8739                           ;Beverage_services.c: 1006: eeprom_write(146,i);
  8740  0646  082B               	movf	(_i),w
  8741  0647  00D2               	movwf	(??_call_control_valve+0)+0
  8742  0648  0852               	movf	(??_call_control_valve+0)+0,w
  8743  0649  00F6               	movwf	(?_eeprom_write)
  8744  064A  3092               	movlw	(092h)
  8745  064B  160A  158A  2276   	fcall	_eeprom_write
              120A  118A         
  8746                           	line	1007
  8747                           ;Beverage_services.c: 1007: control_valve(eeprom_read(119)*10,eeprom_read(121)*10);
  8748  0650  3079               	movlw	(079h)
  8749  0651  1283               	bcf	status, 5	;RP0=0, select bank0
  8750  0652  1303               	bcf	status, 6	;RP1=0, select bank0
  8751  0653  00D2               	movwf	(??_call_control_valve+0)+0
  8752  0654  0852               	movf	(??_call_control_valve+0)+0,w
  8753  0655  00F4               	movwf	(?_eeprom_read)
  8754  0656  160A  158A  21B7   	fcall	_eeprom_read
              120A  118A         
  8755  065B  1283               	bcf	status, 5	;RP0=0, select bank0
  8756  065C  1303               	bcf	status, 6	;RP1=0, select bank0
  8757  065D  00D3               	movwf	(??_call_control_valve+1)+0
  8758  065E  01D4               	clrf	(??_call_control_valve+1)+0+1
  8759  065F  0853               	movf	0+(??_call_control_valve+1)+0,w
  8760  0660  00F6               	movwf	(?___wmul)
  8761  0661  0854               	movf	1+(??_call_control_valve+1)+0,w
  8762  0662  00F7               	movwf	(?___wmul+1)
  8763  0663  300A               	movlw	low(0Ah)
  8764  0664  00F8               	movwf	0+(?___wmul)+02h
  8765  0665  3000               	movlw	high(0Ah)
  8766  0666  00F9               	movwf	(0+(?___wmul)+02h)+1
  8767  0667  160A  158A  221B   	fcall	___wmul
              120A  118A         
  8768  066C  0877               	movf	(1+(?___wmul)),w
  8769  066D  1283               	bcf	status, 5	;RP0=0, select bank0
  8770  066E  1303               	bcf	status, 6	;RP1=0, select bank0
  8771  066F  01DB               	clrf	(_call_control_valve$6339+1)
  8772  0670  07DB               	addwf	(_call_control_valve$6339+1)
  8773  0671  0876               	movf	(0+(?___wmul)),w
  8774  0672  01DA               	clrf	(_call_control_valve$6339)
  8775  0673  07DA               	addwf	(_call_control_valve$6339)
  8776                           
  8777                           	
  8778  0674                     l10197:	
  8779                           ;Beverage_services.c: 1007: control_valve(eeprom_read(119)*10,eeprom_read(121)*10);
  8780  0674  3077               	movlw	(077h)
  8781  0675  00D2               	movwf	(??_call_control_valve+0)+0
  8782  0676  0852               	movf	(??_call_control_valve+0)+0,w
  8783  0677  00F4               	movwf	(?_eeprom_read)
  8784  0678  160A  158A  21B7   	fcall	_eeprom_read
              120A  118A         
  8785  067D  1283               	bcf	status, 5	;RP0=0, select bank0
  8786  067E  1303               	bcf	status, 6	;RP1=0, select bank0
  8787  067F  00D3               	movwf	(??_call_control_valve+1)+0
  8788  0680  01D4               	clrf	(??_call_control_valve+1)+0+1
  8789  0681  0853               	movf	0+(??_call_control_valve+1)+0,w
  8790  0682  00F6               	movwf	(?___wmul)
  8791  0683  0854               	movf	1+(??_call_control_valve+1)+0,w
  8792  0684  00F7               	movwf	(?___wmul+1)
  8793  0685  300A               	movlw	low(0Ah)
  8794  0686  00F8               	movwf	0+(?___wmul)+02h
  8795  0687  3000               	movlw	high(0Ah)
  8796  0688  00F9               	movwf	(0+(?___wmul)+02h)+1
  8797  0689  160A  158A  221B   	fcall	___wmul
              120A  118A         
  8798  068E  0877               	movf	(1+(?___wmul)),w
  8799  068F  1283               	bcf	status, 5	;RP0=0, select bank0
  8800  0690  1303               	bcf	status, 6	;RP1=0, select bank0
  8801  0691  01CD               	clrf	(?_control_valve+1)
  8802  0692  07CD               	addwf	(?_control_valve+1)
  8803  0693  0876               	movf	(0+(?___wmul)),w
  8804  0694  01CC               	clrf	(?_control_valve)
  8805  0695  07CC               	addwf	(?_control_valve)
  8806                           
  8807  0696  085B               	movf	(_call_control_valve$6339+1),w
  8808  0697  01CF               	clrf	1+(?_control_valve)+02h
  8809  0698  07CF               	addwf	1+(?_control_valve)+02h
  8810  0699  085A               	movf	(_call_control_valve$6339),w
  8811  069A  01CE               	clrf	0+(?_control_valve)+02h
  8812  069B  07CE               	addwf	0+(?_control_valve)+02h
  8813                           
  8814  069C  160A  158A  243B   	fcall	_control_valve
              120A  118A         
  8815                           	line	1004
  8816                           	
  8817  06A1                     l10199:	
  8818  06A1  3001               	movlw	low(01h)
  8819  06A2  1283               	bcf	status, 5	;RP0=0, select bank0
  8820  06A3  1303               	bcf	status, 6	;RP1=0, select bank0
  8821  06A4  02AB               	subwf	(_i),f
  8822  06A5  3000               	movlw	high(01h)
  8823  06A6  1C03               	skipc
  8824  06A7  03AC               	decf	(_i+1),f
  8825  06A8  02AC               	subwf	(_i+1),f
  8826  06A9  2EAA               	goto	l10201
  8827                           	
  8828  06AA                     l3383:	
  8829                           	
  8830  06AA                     l10201:	
  8831  06AA  082C               	movf	((_i+1)),w
  8832  06AB  042B               	iorwf	((_i)),w
  8833  06AC  1D03               	skipz
  8834  06AD  2EAF               	goto	u6121
  8835  06AE  2EB0               	goto	u6120
  8836  06AF                     u6121:
  8837  06AF  2E46               	goto	l10195
  8838  06B0                     u6120:
  8839                           	
  8840  06B0                     l3385:	
  8841                           	line	1009
  8842                           ;Beverage_services.c: 1008: }
  8843                           ;Beverage_services.c: 1009: Enable_Tea_Hot_Water_Valve=0;
  8844  06B0  126D               	bcf	(_Enable_Tea_Hot_Water_Valve/8),(_Enable_Tea_Hot_Water_Valve)&7
  8845                           	line	1010
  8846                           	
  8847  06B1                     l3382:	
  8848                           	line	1011
  8849                           ;Beverage_services.c: 1010: }
  8850                           ;Beverage_services.c: 1011: if(Enable_Milk_Reverse)
  8851  06B1  1E6C               	btfss	(_Enable_Milk_Reverse/8),(_Enable_Milk_Reverse)&7
  8852  06B2  2EB4               	goto	u6131
  8853  06B3  2EB5               	goto	u6130
  8854  06B4                     u6131:
  8855  06B4  2ECB               	goto	l10209
  8856  06B5                     u6130:
  8857                           	line	1013
  8858                           	
  8859  06B5                     l10203:	
  8860                           ;Beverage_services.c: 1012: {
  8861                           ;Beverage_services.c: 1013: _ON=_OFF=_Milk_Valve_Reverse;
  8862  06B5  3002               	movlw	(02h)
  8863  06B6  00B9               	movwf	(__OFF)
  8864  06B7  00D2               	movwf	(??_call_control_valve+0)+0
  8865  06B8  0852               	movf	(??_call_control_valve+0)+0,w
  8866  06B9  00BA               	movwf	(__ON)
  8867                           	line	1014
  8868                           	
  8869  06BA                     l10205:	
  8870                           ;Beverage_services.c: 1014: control_valve(35,2);
  8871  06BA  3023               	movlw	low(023h)
  8872  06BB  00CC               	movwf	(?_control_valve)
  8873  06BC  3000               	movlw	high(023h)
  8874  06BD  00CD               	movwf	((?_control_valve))+1
  8875  06BE  3002               	movlw	low(02h)
  8876  06BF  00CE               	movwf	0+(?_control_valve)+02h
  8877  06C0  3000               	movlw	high(02h)
  8878  06C1  00CF               	movwf	(0+(?_control_valve)+02h)+1
  8879  06C2  160A  158A  243B   	fcall	_control_valve
              120A  118A         
  8880                           	line	1015
  8881                           	
  8882  06C7                     l10207:	
  8883                           ;Beverage_services.c: 1015: Enable_Milk_Reverse=0;
  8884  06C7  1283               	bcf	status, 5	;RP0=0, select bank0
  8885  06C8  1303               	bcf	status, 6	;RP1=0, select bank0
  8886  06C9  126C               	bcf	(_Enable_Milk_Reverse/8),(_Enable_Milk_Reverse)&7
  8887  06CA  2ECB               	goto	l10209
  8888                           	line	1016
  8889                           	
  8890  06CB                     l3386:	
  8891                           	line	1017
  8892                           	
  8893  06CB                     l10209:	
  8894                           ;Beverage_services.c: 1016: }
  8895                           ;Beverage_services.c: 1017: if(Enable_Heater1)
  8896  06CB  1FEB               	btfss	(_Enable_Heater1/8),(_Enable_Heater1)&7
  8897  06CC  2ECE               	goto	u6141
  8898  06CD  2ECF               	goto	u6140
  8899  06CE                     u6141:
  8900  06CE  2EFF               	goto	l3388
  8901  06CF                     u6140:
  8902                           	line	1019
  8903                           	
  8904  06CF                     l10211:	
  8905                           ;Beverage_services.c: 1018: {
  8906                           ;Beverage_services.c: 1019: _ON=_OFF=_Heater1;
  8907  06CF  300A               	movlw	(0Ah)
  8908  06D0  00B9               	movwf	(__OFF)
  8909  06D1  00D2               	movwf	(??_call_control_valve+0)+0
  8910  06D2  0852               	movf	(??_call_control_valve+0)+0,w
  8911  06D3  00BA               	movwf	(__ON)
  8912                           	line	1020
  8913                           	
  8914  06D4                     l10213:	
  8915                           ;Beverage_services.c: 1020: control_valve(eeprom_read(255),eeprom_read(255));
  8916  06D4  30FF               	movlw	(0FFh)
  8917  06D5  00D2               	movwf	(??_call_control_valve+0)+0
  8918  06D6  0852               	movf	(??_call_control_valve+0)+0,w
  8919  06D7  00F4               	movwf	(?_eeprom_read)
  8920  06D8  160A  158A  21B7   	fcall	_eeprom_read
              120A  118A         
  8921  06DD  1283               	bcf	status, 5	;RP0=0, select bank0
  8922  06DE  1303               	bcf	status, 6	;RP1=0, select bank0
  8923  06DF  00D3               	movwf	(??_call_control_valve+1)+0
  8924  06E0  01D4               	clrf	(??_call_control_valve+1)+0+1
  8925  06E1  0853               	movf	0+(??_call_control_valve+1)+0,w
  8926  06E2  00CC               	movwf	(?_control_valve)
  8927  06E3  0854               	movf	1+(??_call_control_valve+1)+0,w
  8928  06E4  00CD               	movwf	(?_control_valve+1)
  8929  06E5  30FF               	movlw	(0FFh)
  8930  06E6  00D5               	movwf	(??_call_control_valve+3)+0
  8931  06E7  0855               	movf	(??_call_control_valve+3)+0,w
  8932  06E8  00F4               	movwf	(?_eeprom_read)
  8933  06E9  160A  158A  21B7   	fcall	_eeprom_read
              120A  118A         
  8934  06EE  1283               	bcf	status, 5	;RP0=0, select bank0
  8935  06EF  1303               	bcf	status, 6	;RP1=0, select bank0
  8936  06F0  00D6               	movwf	(??_call_control_valve+4)+0
  8937  06F1  01D7               	clrf	(??_call_control_valve+4)+0+1
  8938  06F2  0856               	movf	0+(??_call_control_valve+4)+0,w
  8939  06F3  00CE               	movwf	0+(?_control_valve)+02h
  8940  06F4  0857               	movf	1+(??_call_control_valve+4)+0,w
  8941  06F5  00CF               	movwf	1+(?_control_valve)+02h
  8942  06F6  160A  158A  243B   	fcall	_control_valve
              120A  118A         
  8943                           	line	1021
  8944                           	
  8945  06FB                     l10215:	
  8946                           ;Beverage_services.c: 1021: Enable_Heater1=0;
  8947  06FB  1283               	bcf	status, 5	;RP0=0, select bank0
  8948  06FC  1303               	bcf	status, 6	;RP1=0, select bank0
  8949  06FD  13EB               	bcf	(_Enable_Heater1/8),(_Enable_Heater1)&7
  8950  06FE  2EFF               	goto	l3388
  8951                           	line	1022
  8952                           	
  8953  06FF                     l3387:	
  8954                           	line	1023
  8955                           	
  8956  06FF                     l3388:	
  8957  06FF  0008               	return
  8958                           	opt stack 0
  8959                           GLOBAL	__end_of_call_control_valve
  8960  0700                     	__end_of_call_control_valve:
  8961 ;; =============== function _call_control_valve ends ============
  8962                           
  8963                           	signat	_call_control_valve,88
  8964                           	global	_change_modes
  8965                           psect	text851,local,class=CODE,delta=2
  8966                           global __ptext851
  8967  00F8                     __ptext851:
  8968                           
  8969 ;; *************** function _change_modes *****************
  8970 ;; Defined at:
  8971 ;;		line 736 in file "F:\BEVERAGES_ENHANCEMENT\SOFTWARE_DESIGN\MASTER_PIC_16F877A\2015_09_13\Beverage_services.c"
  8972 ;; Parameters:    Size  Location     Type
  8973 ;;		None
  8974 ;; Auto vars:     Size  Location     Type
  8975 ;;		None
  8976 ;; Return value:  Size  Location     Type
  8977 ;;		None               void
  8978 ;; Registers used:
  8979 ;;		wreg, fsr0l, fsr0h, status,2, status,0, btemp+1, pclath, cstack
  8980 ;; Tracked objects:
  8981 ;;		On entry : 0/0
  8982 ;;		On exit  : 0/0
  8983 ;;		Unchanged: 0/0
  8984 ;; Data sizes:     COMMON   BANK0   BANK1   BANK3   BANK2
  8985 ;;      Params:         0       0       0       0       0
  8986 ;;      Locals:         0       0       0       0       0
  8987 ;;      Temps:          0       3       0       0       0
  8988 ;;      Totals:         0       3       0       0       0
  8989 ;;Total ram usage:        3 bytes
  8990 ;; Hardware stack levels used:    1
  8991 ;; Hardware stack levels required when called:    3
  8992 ;; This function calls:
  8993 ;;		_Print_Name
  8994 ;;		_Lcd_String
  8995 ;;		_DelayMs
  8996 ;;		_Lcd_Cmd
  8997 ;;		_Lcd_Data
  8998 ;;		_print_yes_no
  8999 ;;		_eeprom_read
  9000 ;;		_count_read
  9001 ;;		_Num_Disp
  9002 ;; This function is called by:
  9003 ;;		_main
  9004 ;; This function uses a non-reentrant model
  9005 ;;
  9006                           psect	text851
  9007                           	file	"F:\BEVERAGES_ENHANCEMENT\SOFTWARE_DESIGN\MASTER_PIC_16F877A\2015_09_13\Beverage_s
                                 ervices.c"
  9008                           	line	736
  9009                           	global	__size_of_change_modes
  9010  02E3                     	__size_of_change_modes	equ	__end_of_change_modes-_change_modes
  9011                           	
  9012  00F8                     _change_modes:	
  9013                           	opt	stack 4
  9014                           ; Regs used in _change_modes: [wreg-fsr0h+status,2+status,0+btemp+1+pclath+cstack]
  9015                           	line	737
  9016                           	
  9017  00F8                     l10001:	
  9018                           ;Beverage_services.c: 737: switch (_DISABLE_MODE)
  9019  00F8  2914               	goto	l10005
  9020                           	line	739
  9021                           ;Beverage_services.c: 738: {
  9022                           ;Beverage_services.c: 739: case _Normal_Mode: Enable_Normal_Mode=0;
  9023                           	
  9024  00F9                     l3329:	
  9025  00F9  13EC               	bcf	(_Enable_Normal_Mode/8),(_Enable_Normal_Mode)&7
  9026                           	line	740
  9027                           ;Beverage_services.c: 740: break;
  9028  00FA  295B               	goto	l10009
  9029                           	line	741
  9030                           ;Beverage_services.c: 741: case _Password: Enable_Password=0;
  9031                           	
  9032  00FB                     l3331:	
  9033  00FB  106D               	bcf	(_Enable_Password/8),(_Enable_Password)&7
  9034                           	line	742
  9035                           ;Beverage_services.c: 742: break;
  9036  00FC  295B               	goto	l10009
  9037                           	line	743
  9038                           ;Beverage_services.c: 743: case _Config_Mode: Enable_Config_Mode=0;
  9039                           	
  9040  00FD                     l3332:	
  9041  00FD  11EB               	bcf	(_Enable_Config_Mode/8),(_Enable_Config_Mode)&7
  9042                           	line	744
  9043                           ;Beverage_services.c: 744: break;
  9044  00FE  295B               	goto	l10009
  9045                           	line	745
  9046                           ;Beverage_services.c: 745: case _Valves: Enable_Valves=0;
  9047                           	
  9048  00FF                     l3333:	
  9049  00FF  13ED               	bcf	(_Enable_Valves/8),(_Enable_Valves)&7
  9050                           	line	746
  9051                           ;Beverage_services.c: 746: break;
  9052  0100  295B               	goto	l10009
  9053                           	line	747
  9054                           ;Beverage_services.c: 747: case _Selection: Enable_Selection=0;
  9055                           	
  9056  0101                     l3334:	
  9057  0101  10ED               	bcf	(_Enable_Selection/8),(_Enable_Selection)&7
  9058                           	line	748
  9059                           ;Beverage_services.c: 748: break;
  9060  0102  295B               	goto	l10009
  9061                           	line	749
  9062                           ;Beverage_services.c: 749: case _Coffee_Dication_Time: Enable_Coffee_Dication_Time=0;
  9063                           	
  9064  0103                     l3335:	
  9065  0103  106B               	bcf	(_Enable_Coffee_Dication_Time/8),(_Enable_Coffee_Dication_Time)&7
  9066                           	line	750
  9067                           ;Beverage_services.c: 750: break;
  9068  0104  295B               	goto	l10009
  9069                           	line	751
  9070                           ;Beverage_services.c: 751: case _Tea_Dication_Time: Enable_Tea_Dication_Time=0;
  9071                           	
  9072  0105                     l3336:	
  9073  0105  11ED               	bcf	(_Enable_Tea_Dication_Time/8),(_Enable_Tea_Dication_Time)&7
  9074                           	line	752
  9075                           ;Beverage_services.c: 752: break;
  9076  0106  295B               	goto	l10009
  9077                           	line	753
  9078                           ;Beverage_services.c: 753: case _Dication_Delay: Enable_Dication_Delay=0;
  9079                           	
  9080  0107                     l3337:	
  9081  0107  136B               	bcf	(_Enable_Dication_Delay/8),(_Enable_Dication_Delay)&7
  9082                           	line	754
  9083                           ;Beverage_services.c: 754: break;
  9084  0108  295B               	goto	l10009
  9085                           	line	755
  9086                           ;Beverage_services.c: 755: case _Hot_Water_Time: Enable_Hot_Water_Time=0;
  9087                           	
  9088  0109                     l3338:	
  9089  0109  10EC               	bcf	(_Enable_Hot_Water_Time/8),(_Enable_Hot_Water_Time)&7
  9090                           	line	756
  9091                           ;Beverage_services.c: 756: break;
  9092  010A  295B               	goto	l10009
  9093                           	line	757
  9094                           ;Beverage_services.c: 757: case _Temperature: Enable_Temperature=0;
  9095                           	
  9096  010B                     l3339:	
  9097  010B  136D               	bcf	(_Enable_Temperature/8),(_Enable_Temperature)&7
  9098                           	line	758
  9099                           ;Beverage_services.c: 758: break;
  9100  010C  295B               	goto	l10009
  9101                           	line	759
  9102                           ;Beverage_services.c: 759: case _Cup_Count: Enable_Cup_Count=0;
  9103                           	
  9104  010D                     l3340:	
  9105  010D  12EB               	bcf	(_Enable_Cup_Count/8),(_Enable_Cup_Count)&7
  9106                           	line	760
  9107                           ;Beverage_services.c: 760: break;
  9108  010E  295B               	goto	l10009
  9109                           	line	761
  9110                           ;Beverage_services.c: 761: case _Count_Reset: Enable_Count_Reset=0;
  9111                           	
  9112  010F                     l3341:	
  9113  010F  126B               	bcf	(_Enable_Count_Reset/8),(_Enable_Count_Reset)&7
  9114                           	line	762
  9115                           ;Beverage_services.c: 762: break;
  9116  0110  295B               	goto	l10009
  9117                           	line	763
  9118                           ;Beverage_services.c: 763: case _Shortcut_Mode: Enable_Shortcut_Mode=0;
  9119                           	
  9120  0111                     l3342:	
  9121  0111  116D               	bcf	(_Enable_Shortcut_Mode/8),(_Enable_Shortcut_Mode)&7
  9122                           	line	764
  9123                           ;Beverage_services.c: 764: break;
  9124  0112  295B               	goto	l10009
  9125                           	line	765
  9126                           	
  9127  0113                     l10003:	
  9128                           ;Beverage_services.c: 765: }
  9129  0113  295B               	goto	l10009
  9130                           	line	737
  9131                           	
  9132  0114                     l3328:	
  9133                           	
  9134  0114                     l10005:	
  9135  0114  1283               	bcf	status, 5	;RP0=0, select bank0
  9136  0115  1303               	bcf	status, 6	;RP1=0, select bank0
  9137  0116  0837               	movf	(__DISABLE_MODE),w
  9138                           	; Switch size 1, requested type "space"
  9139                           ; Number of cases is 13, Range of values is 1 to 14
  9140                           ; switch strategies available:
  9141                           ; Name         Instructions Cycles
  9142                           ; simple_byte           40    21 (average)
  9143                           ; direct_byte           53    11 (fixed)
  9144                           ; jumptable            263     9 (fixed)
  9145                           ;	Chosen strategy is simple_byte
  9146                           
  9147                           	opt asmopt_off
  9148  0117  3A01               	xorlw	1^0	; case 1
  9149  0118  1903               	skipnz
  9150  0119  28F9               	goto	l3329
  9151  011A  3A03               	xorlw	2^1	; case 2
  9152  011B  1903               	skipnz
  9153  011C  28FB               	goto	l3331
  9154  011D  3A01               	xorlw	3^2	; case 3
  9155  011E  1903               	skipnz
  9156  011F  28FD               	goto	l3332
  9157  0120  3A07               	xorlw	4^3	; case 4
  9158  0121  1903               	skipnz
  9159  0122  28FF               	goto	l3333
  9160  0123  3A01               	xorlw	5^4	; case 5
  9161  0124  1903               	skipnz
  9162  0125  2901               	goto	l3334
  9163  0126  3A03               	xorlw	6^5	; case 6
  9164  0127  1903               	skipnz
  9165  0128  2903               	goto	l3335
  9166  0129  3A01               	xorlw	7^6	; case 7
  9167  012A  1903               	skipnz
  9168  012B  2905               	goto	l3336
  9169  012C  3A0F               	xorlw	8^7	; case 8
  9170  012D  1903               	skipnz
  9171  012E  2907               	goto	l3337
  9172  012F  3A01               	xorlw	9^8	; case 9
  9173  0130  1903               	skipnz
  9174  0131  2909               	goto	l3338
  9175  0132  3A02               	xorlw	11^9	; case 11
  9176  0133  1903               	skipnz
  9177  0134  290B               	goto	l3339
  9178  0135  3A07               	xorlw	12^11	; case 12
  9179  0136  1903               	skipnz
  9180  0137  290D               	goto	l3340
  9181  0138  3A01               	xorlw	13^12	; case 13
  9182  0139  1903               	skipnz
  9183  013A  290F               	goto	l3341
  9184  013B  3A03               	xorlw	14^13	; case 14
  9185  013C  1903               	skipnz
  9186  013D  2911               	goto	l3342
  9187  013E  295B               	goto	l10009
  9188                           	opt asmopt_on
  9189                           
  9190                           	line	765
  9191                           	
  9192  013F                     l3330:	
  9193                           	line	766
  9194                           ;Beverage_services.c: 766: switch (_ENABLE_MODE)
  9195  013F  295B               	goto	l10009
  9196                           	line	768
  9197                           ;Beverage_services.c: 767: {
  9198                           ;Beverage_services.c: 768: case _Normal_Mode: Enable_Normal_Mode=1;
  9199                           	
  9200  0140                     l3344:	
  9201  0140  17EC               	bsf	(_Enable_Normal_Mode/8),(_Enable_Normal_Mode)&7
  9202                           	line	769
  9203                           ;Beverage_services.c: 769: break;
  9204  0141  2984               	goto	l3345
  9205                           	line	770
  9206                           ;Beverage_services.c: 770: case _Password: Enable_Password=1;
  9207                           	
  9208  0142                     l3346:	
  9209  0142  146D               	bsf	(_Enable_Password/8),(_Enable_Password)&7
  9210                           	line	771
  9211                           ;Beverage_services.c: 771: break;
  9212  0143  2984               	goto	l3345
  9213                           	line	772
  9214                           ;Beverage_services.c: 772: case _Config_Mode: Enable_Config_Mode=1;
  9215                           	
  9216  0144                     l3347:	
  9217  0144  15EB               	bsf	(_Enable_Config_Mode/8),(_Enable_Config_Mode)&7
  9218                           	line	773
  9219                           ;Beverage_services.c: 773: break;
  9220  0145  2984               	goto	l3345
  9221                           	line	774
  9222                           ;Beverage_services.c: 774: case _Valves: Enable_Valves=1;
  9223                           	
  9224  0146                     l3348:	
  9225  0146  17ED               	bsf	(_Enable_Valves/8),(_Enable_Valves)&7
  9226                           	line	775
  9227                           ;Beverage_services.c: 775: break;
  9228  0147  2984               	goto	l3345
  9229                           	line	776
  9230                           ;Beverage_services.c: 776: case _Selection: Enable_Selection=1;
  9231                           	
  9232  0148                     l3349:	
  9233  0148  14ED               	bsf	(_Enable_Selection/8),(_Enable_Selection)&7
  9234                           	line	777
  9235                           ;Beverage_services.c: 777: break;
  9236  0149  2984               	goto	l3345
  9237                           	line	778
  9238                           ;Beverage_services.c: 778: case _Coffee_Dication_Time: Enable_Coffee_Dication_Time=1;
  9239                           	
  9240  014A                     l3350:	
  9241  014A  146B               	bsf	(_Enable_Coffee_Dication_Time/8),(_Enable_Coffee_Dication_Time)&7
  9242                           	line	779
  9243                           ;Beverage_services.c: 779: break;
  9244  014B  2984               	goto	l3345
  9245                           	line	780
  9246                           ;Beverage_services.c: 780: case _Tea_Dication_Time: Enable_Tea_Dication_Time=1;
  9247                           	
  9248  014C                     l3351:	
  9249  014C  15ED               	bsf	(_Enable_Tea_Dication_Time/8),(_Enable_Tea_Dication_Time)&7
  9250                           	line	781
  9251                           ;Beverage_services.c: 781: break;
  9252  014D  2984               	goto	l3345
  9253                           	line	782
  9254                           ;Beverage_services.c: 782: case _Dication_Delay: Enable_Dication_Delay=1;
  9255                           	
  9256  014E                     l3352:	
  9257  014E  176B               	bsf	(_Enable_Dication_Delay/8),(_Enable_Dication_Delay)&7
  9258                           	line	783
  9259                           ;Beverage_services.c: 783: break;
  9260  014F  2984               	goto	l3345
  9261                           	line	784
  9262                           ;Beverage_services.c: 784: case _Hot_Water_Time: Enable_Hot_Water_Time=1;
  9263                           	
  9264  0150                     l3353:	
  9265  0150  14EC               	bsf	(_Enable_Hot_Water_Time/8),(_Enable_Hot_Water_Time)&7
  9266                           	line	785
  9267                           ;Beverage_services.c: 785: break;
  9268  0151  2984               	goto	l3345
  9269                           	line	786
  9270                           ;Beverage_services.c: 786: case _Temperature: Enable_Temperature=1;
  9271                           	
  9272  0152                     l3354:	
  9273  0152  176D               	bsf	(_Enable_Temperature/8),(_Enable_Temperature)&7
  9274                           	line	787
  9275                           ;Beverage_services.c: 787: break;
  9276  0153  2984               	goto	l3345
  9277                           	line	788
  9278                           ;Beverage_services.c: 788: case _Cup_Count: Enable_Cup_Count=1;
  9279                           	
  9280  0154                     l3355:	
  9281  0154  16EB               	bsf	(_Enable_Cup_Count/8),(_Enable_Cup_Count)&7
  9282                           	line	789
  9283                           ;Beverage_services.c: 789: break;
  9284  0155  2984               	goto	l3345
  9285                           	line	790
  9286                           ;Beverage_services.c: 790: case _Count_Reset: Enable_Count_Reset=1;
  9287                           	
  9288  0156                     l3356:	
  9289  0156  166B               	bsf	(_Enable_Count_Reset/8),(_Enable_Count_Reset)&7
  9290                           	line	791
  9291                           ;Beverage_services.c: 791: break;
  9292  0157  2984               	goto	l3345
  9293                           	line	792
  9294                           ;Beverage_services.c: 792: case _Shortcut_Mode: Enable_Shortcut_Mode=1;
  9295                           	
  9296  0158                     l3357:	
  9297  0158  156D               	bsf	(_Enable_Shortcut_Mode/8),(_Enable_Shortcut_Mode)&7
  9298                           	line	793
  9299                           ;Beverage_services.c: 793: break;
  9300  0159  2984               	goto	l3345
  9301                           	line	794
  9302                           	
  9303  015A                     l10007:	
  9304                           ;Beverage_services.c: 794: }
  9305  015A  2984               	goto	l3345
  9306                           	line	766
  9307                           	
  9308  015B                     l3343:	
  9309                           	
  9310  015B                     l10009:	
  9311  015B  0838               	movf	(__ENABLE_MODE),w
  9312                           	; Switch size 1, requested type "space"
  9313                           ; Number of cases is 13, Range of values is 1 to 14
  9314                           ; switch strategies available:
  9315                           ; Name         Instructions Cycles
  9316                           ; simple_byte           40    21 (average)
  9317                           ; direct_byte           53    11 (fixed)
  9318                           ; jumptable            263     9 (fixed)
  9319                           ;	Chosen strategy is simple_byte
  9320                           
  9321                           	opt asmopt_off
  9322  015C  3A01               	xorlw	1^0	; case 1
  9323  015D  1903               	skipnz
  9324  015E  2940               	goto	l3344
  9325  015F  3A03               	xorlw	2^1	; case 2
  9326  0160  1903               	skipnz
  9327  0161  2942               	goto	l3346
  9328  0162  3A01               	xorlw	3^2	; case 3
  9329  0163  1903               	skipnz
  9330  0164  2944               	goto	l3347
  9331  0165  3A07               	xorlw	4^3	; case 4
  9332  0166  1903               	skipnz
  9333  0167  2946               	goto	l3348
  9334  0168  3A01               	xorlw	5^4	; case 5
  9335  0169  1903               	skipnz
  9336  016A  2948               	goto	l3349
  9337  016B  3A03               	xorlw	6^5	; case 6
  9338  016C  1903               	skipnz
  9339  016D  294A               	goto	l3350
  9340  016E  3A01               	xorlw	7^6	; case 7
  9341  016F  1903               	skipnz
  9342  0170  294C               	goto	l3351
  9343  0171  3A0F               	xorlw	8^7	; case 8
  9344  0172  1903               	skipnz
  9345  0173  294E               	goto	l3352
  9346  0174  3A01               	xorlw	9^8	; case 9
  9347  0175  1903               	skipnz
  9348  0176  2950               	goto	l3353
  9349  0177  3A02               	xorlw	11^9	; case 11
  9350  0178  1903               	skipnz
  9351  0179  2952               	goto	l3354
  9352  017A  3A07               	xorlw	12^11	; case 12
  9353  017B  1903               	skipnz
  9354  017C  2954               	goto	l3355
  9355  017D  3A01               	xorlw	13^12	; case 13
  9356  017E  1903               	skipnz
  9357  017F  2956               	goto	l3356
  9358  0180  3A03               	xorlw	14^13	; case 14
  9359  0181  1903               	skipnz
  9360  0182  2958               	goto	l3357
  9361  0183  2984               	goto	l3345
  9362                           	opt asmopt_on
  9363                           
  9364                           	line	794
  9365                           	
  9366  0184                     l3345:	
  9367                           	line	796
  9368                           ;Beverage_services.c: 796: if(Enable_Normal_Mode && (_PREVIOUS_MODE != _ENABLE_MODE))
  9369  0184  1FEC               	btfss	(_Enable_Normal_Mode/8),(_Enable_Normal_Mode)&7
  9370  0185  2987               	goto	u5811
  9371  0186  2988               	goto	u5810
  9372  0187                     u5811:
  9373  0187  2994               	goto	l10015
  9374  0188                     u5810:
  9375                           	
  9376  0188                     l10011:	
  9377  0188  083C               	movf	(__PREVIOUS_MODE),w
  9378  0189  0638               	xorwf	(__ENABLE_MODE),w
  9379  018A  1903               	skipnz
  9380  018B  298D               	goto	u5821
  9381  018C  298E               	goto	u5820
  9382  018D                     u5821:
  9383  018D  2994               	goto	l10015
  9384  018E                     u5820:
  9385                           	line	798
  9386                           	
  9387  018E                     l10013:	
  9388                           ;Beverage_services.c: 797: {
  9389                           ;Beverage_services.c: 798: Print_Name();
  9390  018E  160A  158A  2150   	fcall	_Print_Name
              120A  118A         
  9391  0193  2994               	goto	l10015
  9392                           	line	799
  9393                           	
  9394  0194                     l3358:	
  9395                           	line	800
  9396                           	
  9397  0194                     l10015:	
  9398                           ;Beverage_services.c: 799: }
  9399                           ;Beverage_services.c: 800: if(Enable_Password && (_PREVIOUS_MODE != _ENABLE_MODE))
  9400  0194  1283               	bcf	status, 5	;RP0=0, select bank0
  9401  0195  1303               	bcf	status, 6	;RP1=0, select bank0
  9402  0196  1C6D               	btfss	(_Enable_Password/8),(_Enable_Password)&7
  9403  0197  2999               	goto	u5831
  9404  0198  299A               	goto	u5830
  9405  0199                     u5831:
  9406  0199  29AE               	goto	l10021
  9407  019A                     u5830:
  9408                           	
  9409  019A                     l10017:	
  9410  019A  083C               	movf	(__PREVIOUS_MODE),w
  9411  019B  0638               	xorwf	(__ENABLE_MODE),w
  9412  019C  1903               	skipnz
  9413  019D  299F               	goto	u5841
  9414  019E  29A0               	goto	u5840
  9415  019F                     u5841:
  9416  019F  29AE               	goto	l10021
  9417  01A0                     u5840:
  9418                           	line	802
  9419                           	
  9420  01A0                     l10019:	
  9421                           ;Beverage_services.c: 801: {
  9422                           ;Beverage_services.c: 802: Lcd_String("PASSWORD: ",1,0);
  9423  01A0  30CD               	movlw	low(STR_15|8000h)
  9424  01A1  00CE               	movwf	(?_Lcd_String)
  9425  01A2  3098               	movlw	high(STR_15|8000h)
  9426  01A3  00CF               	movwf	((?_Lcd_String))+1
  9427  01A4  01D0               	clrf	0+(?_Lcd_String)+02h
  9428  01A5  1403               	bsf	status,0
  9429  01A6  0DD0               	rlf	0+(?_Lcd_String)+02h,f
  9430  01A7  01D1               	clrf	0+(?_Lcd_String)+03h
  9431  01A8  160A  158A  2509   	fcall	_Lcd_String
              120A  118A         
  9432  01AD  29AE               	goto	l10021
  9433                           	line	803
  9434                           	
  9435  01AE                     l3359:	
  9436                           	line	804
  9437                           	
  9438  01AE                     l10021:	
  9439                           ;Beverage_services.c: 803: }
  9440                           ;Beverage_services.c: 804: if(Enable_Valves && (_PREVIOUS_MODE != _ENABLE_MODE))
  9441  01AE  1283               	bcf	status, 5	;RP0=0, select bank0
  9442  01AF  1303               	bcf	status, 6	;RP1=0, select bank0
  9443  01B0  1FED               	btfss	(_Enable_Valves/8),(_Enable_Valves)&7
  9444  01B1  29B3               	goto	u5851
  9445  01B2  29B4               	goto	u5850
  9446  01B3                     u5851:
  9447  01B3  29F4               	goto	l10031
  9448  01B4                     u5850:
  9449                           	
  9450  01B4                     l10023:	
  9451  01B4  083C               	movf	(__PREVIOUS_MODE),w
  9452  01B5  0638               	xorwf	(__ENABLE_MODE),w
  9453  01B6  1903               	skipnz
  9454  01B7  29B9               	goto	u5861
  9455  01B8  29BA               	goto	u5860
  9456  01B9                     u5861:
  9457  01B9  29F4               	goto	l10031
  9458  01BA                     u5860:
  9459                           	line	806
  9460                           	
  9461  01BA                     l10025:	
  9462                           ;Beverage_services.c: 805: {
  9463                           ;Beverage_services.c: 806: Lcd_String("CONFIGURE MODE",1,0);
  9464  01BA  3061               	movlw	low(STR_16|8000h)
  9465  01BB  00CE               	movwf	(?_Lcd_String)
  9466  01BC  3098               	movlw	high(STR_16|8000h)
  9467  01BD  00CF               	movwf	((?_Lcd_String))+1
  9468  01BE  01D0               	clrf	0+(?_Lcd_String)+02h
  9469  01BF  1403               	bsf	status,0
  9470  01C0  0DD0               	rlf	0+(?_Lcd_String)+02h,f
  9471  01C1  01D1               	clrf	0+(?_Lcd_String)+03h
  9472  01C2  160A  158A  2509   	fcall	_Lcd_String
              120A  118A         
  9473                           	line	807
  9474                           	
  9475  01C7                     l10027:	
  9476                           ;Beverage_services.c: 807: DelayMs(100);
  9477  01C7  3064               	movlw	low(064h)
  9478  01C8  00FC               	movwf	(?_DelayMs)
  9479  01C9  3000               	movlw	high(064h)
  9480  01CA  00FD               	movwf	((?_DelayMs))+1
  9481  01CB  160A  158A  21F3   	fcall	_DelayMs
              120A  118A         
  9482                           	line	808
  9483                           	
  9484  01D0                     l10029:	
  9485                           ;Beverage_services.c: 808: Lcd_String("MENU: ",1,0);
  9486  01D0  30F6               	movlw	low(STR_17|8000h)
  9487  01D1  1283               	bcf	status, 5	;RP0=0, select bank0
  9488  01D2  1303               	bcf	status, 6	;RP1=0, select bank0
  9489  01D3  00CE               	movwf	(?_Lcd_String)
  9490  01D4  3098               	movlw	high(STR_17|8000h)
  9491  01D5  00CF               	movwf	((?_Lcd_String))+1
  9492  01D6  01D0               	clrf	0+(?_Lcd_String)+02h
  9493  01D7  1403               	bsf	status,0
  9494  01D8  0DD0               	rlf	0+(?_Lcd_String)+02h,f
  9495  01D9  01D1               	clrf	0+(?_Lcd_String)+03h
  9496  01DA  160A  158A  2509   	fcall	_Lcd_String
              120A  118A         
  9497                           	line	809
  9498                           ;Beverage_services.c: 809: Lcd_Cmd(0x86);
  9499  01DF  3086               	movlw	(086h)
  9500  01E0  160A  158A  2314   	fcall	_Lcd_Cmd
              120A  118A         
  9501                           	line	810
  9502                           ;Beverage_services.c: 810: Lcd_Data('1');
  9503  01E5  3031               	movlw	(031h)
  9504  01E6  160A  158A  234D   	fcall	_Lcd_Data
              120A  118A         
  9505                           	line	811
  9506                           ;Beverage_services.c: 811: print_yes_no(Next);
  9507  01EB  1283               	bcf	status, 5	;RP0=0, select bank0
  9508  01EC  1303               	bcf	status, 6	;RP1=0, select bank0
  9509  01ED  0835               	movf	(_Next),w
  9510  01EE  160A  158A  276E   	fcall	_print_yes_no
              120A  118A         
  9511  01F3  29F4               	goto	l10031
  9512                           	line	812
  9513                           	
  9514  01F4                     l3360:	
  9515                           	line	813
  9516                           	
  9517  01F4                     l10031:	
  9518                           ;Beverage_services.c: 812: }
  9519                           ;Beverage_services.c: 813: if(Enable_Selection && (_PREVIOUS_MODE != _ENABLE_MODE))
  9520  01F4  1283               	bcf	status, 5	;RP0=0, select bank0
  9521  01F5  1303               	bcf	status, 6	;RP1=0, select bank0
  9522  01F6  1CED               	btfss	(_Enable_Selection/8),(_Enable_Selection)&7
  9523  01F7  29F9               	goto	u5871
  9524  01F8  29FA               	goto	u5870
  9525  01F9                     u5871:
  9526  01F9  2A46               	goto	l10045
  9527  01FA                     u5870:
  9528                           	
  9529  01FA                     l10033:	
  9530  01FA  083C               	movf	(__PREVIOUS_MODE),w
  9531  01FB  0638               	xorwf	(__ENABLE_MODE),w
  9532  01FC  1903               	skipnz
  9533  01FD  29FF               	goto	u5881
  9534  01FE  2A00               	goto	u5880
  9535  01FF                     u5881:
  9536  01FF  2A46               	goto	l10045
  9537  0200                     u5880:
  9538                           	line	815
  9539                           	
  9540  0200                     l10035:	
  9541                           ;Beverage_services.c: 814: {
  9542                           ;Beverage_services.c: 815: Lcd_Cmd(0x01);
  9543  0200  3001               	movlw	(01h)
  9544  0201  160A  158A  2314   	fcall	_Lcd_Cmd
              120A  118A         
  9545                           	line	816
  9546                           	
  9547  0206                     l10037:	
  9548                           ;Beverage_services.c: 816: Lcd_String("SELECTION",0,0);
  9549  0206  30D8               	movlw	low(STR_18|8000h)
  9550  0207  1283               	bcf	status, 5	;RP0=0, select bank0
  9551  0208  1303               	bcf	status, 6	;RP1=0, select bank0
  9552  0209  00CE               	movwf	(?_Lcd_String)
  9553  020A  3098               	movlw	high(STR_18|8000h)
  9554  020B  00CF               	movwf	((?_Lcd_String))+1
  9555  020C  01D0               	clrf	0+(?_Lcd_String)+02h
  9556  020D  01D1               	clrf	0+(?_Lcd_String)+03h
  9557  020E  160A  158A  2509   	fcall	_Lcd_String
              120A  118A         
  9558                           	line	817
  9559                           	
  9560  0213                     l10039:	
  9561                           ;Beverage_services.c: 817: Lcd_String(" MODE",0,0);
  9562  0213  306A               	movlw	low(STR_19|8000h)
  9563  0214  1283               	bcf	status, 5	;RP0=0, select bank0
  9564  0215  1303               	bcf	status, 6	;RP1=0, select bank0
  9565  0216  00CE               	movwf	(?_Lcd_String)
  9566  0217  3098               	movlw	high(STR_19|8000h)
  9567  0218  00CF               	movwf	((?_Lcd_String))+1
  9568  0219  01D0               	clrf	0+(?_Lcd_String)+02h
  9569  021A  01D1               	clrf	0+(?_Lcd_String)+03h
  9570  021B  160A  158A  2509   	fcall	_Lcd_String
              120A  118A         
  9571                           	line	818
  9572                           ;Beverage_services.c: 818: DelayMs(100);
  9573  0220  3064               	movlw	low(064h)
  9574  0221  00FC               	movwf	(?_DelayMs)
  9575  0222  3000               	movlw	high(064h)
  9576  0223  00FD               	movwf	((?_DelayMs))+1
  9577  0224  160A  158A  21F3   	fcall	_DelayMs
              120A  118A         
  9578                           	line	819
  9579                           ;Beverage_services.c: 819: time=eeprom_read(10);
  9580  0229  300A               	movlw	(0Ah)
  9581  022A  1283               	bcf	status, 5	;RP0=0, select bank0
  9582  022B  1303               	bcf	status, 6	;RP1=0, select bank0
  9583  022C  00DA               	movwf	(??_change_modes+0)+0
  9584  022D  085A               	movf	(??_change_modes+0)+0,w
  9585  022E  00F4               	movwf	(?_eeprom_read)
  9586  022F  160A  158A  21B7   	fcall	_eeprom_read
              120A  118A         
  9587  0234  1283               	bcf	status, 5	;RP0=0, select bank0
  9588  0235  1303               	bcf	status, 6	;RP1=0, select bank0
  9589  0236  00DB               	movwf	(??_change_modes+1)+0
  9590  0237  01DC               	clrf	(??_change_modes+1)+0+1
  9591  0238  085B               	movf	0+(??_change_modes+1)+0,w
  9592  0239  00B3               	movwf	(_time)
  9593  023A  085C               	movf	1+(??_change_modes+1)+0,w
  9594  023B  00B4               	movwf	(_time+1)
  9595                           	line	820
  9596                           	
  9597  023C                     l10041:	
  9598                           ;Beverage_services.c: 820: _PRESSED=_NORMAL_COFFEE_BUTTON;
  9599  023C  01BB               	clrf	(__PRESSED)
  9600  023D  1403               	bsf	status,0
  9601  023E  0DBB               	rlf	(__PRESSED),f
  9602                           	line	821
  9603                           	
  9604  023F                     l10043:	
  9605                           ;Beverage_services.c: 821: Lcd_Cmd(0x01);
  9606  023F  3001               	movlw	(01h)
  9607  0240  160A  158A  2314   	fcall	_Lcd_Cmd
              120A  118A         
  9608  0245  2A46               	goto	l10045
  9609                           	line	822
  9610                           	
  9611  0246                     l3361:	
  9612                           	line	823
  9613                           	
  9614  0246                     l10045:	
  9615                           ;Beverage_services.c: 822: }
  9616                           ;Beverage_services.c: 823: if(Enable_Coffee_Dication_Time && (_PREVIOUS_MODE != _ENABLE_
                                 MODE))
  9617  0246  1283               	bcf	status, 5	;RP0=0, select bank0
  9618  0247  1303               	bcf	status, 6	;RP1=0, select bank0
  9619  0248  1C6B               	btfss	(_Enable_Coffee_Dication_Time/8),(_Enable_Coffee_Dication_Time)&7
  9620  0249  2A4B               	goto	u5891
  9621  024A  2A4C               	goto	u5890
  9622  024B                     u5891:
  9623  024B  2A86               	goto	l10055
  9624  024C                     u5890:
  9625                           	
  9626  024C                     l10047:	
  9627  024C  083C               	movf	(__PREVIOUS_MODE),w
  9628  024D  0638               	xorwf	(__ENABLE_MODE),w
  9629  024E  1903               	skipnz
  9630  024F  2A51               	goto	u5901
  9631  0250  2A52               	goto	u5900
  9632  0251                     u5901:
  9633  0251  2A86               	goto	l10055
  9634  0252                     u5900:
  9635                           	line	825
  9636                           	
  9637  0252                     l10049:	
  9638                           ;Beverage_services.c: 824: {
  9639                           ;Beverage_services.c: 825: Lcd_String("COFFEE DICATION",1,0);
  9640  0252  3032               	movlw	low(STR_20|8000h)
  9641  0253  00CE               	movwf	(?_Lcd_String)
  9642  0254  3098               	movlw	high(STR_20|8000h)
  9643  0255  00CF               	movwf	((?_Lcd_String))+1
  9644  0256  01D0               	clrf	0+(?_Lcd_String)+02h
  9645  0257  1403               	bsf	status,0
  9646  0258  0DD0               	rlf	0+(?_Lcd_String)+02h,f
  9647  0259  01D1               	clrf	0+(?_Lcd_String)+03h
  9648  025A  160A  158A  2509   	fcall	_Lcd_String
              120A  118A         
  9649                           	line	826
  9650                           ;Beverage_services.c: 826: Lcd_String("TIME:",0,1);
  9651  025F  3003               	movlw	low(STR_21|8000h)
  9652  0260  1283               	bcf	status, 5	;RP0=0, select bank0
  9653  0261  1303               	bcf	status, 6	;RP1=0, select bank0
  9654  0262  00CE               	movwf	(?_Lcd_String)
  9655  0263  3099               	movlw	high(STR_21|8000h)
  9656  0264  00CF               	movwf	((?_Lcd_String))+1
  9657  0265  01D0               	clrf	0+(?_Lcd_String)+02h
  9658  0266  01D1               	clrf	0+(?_Lcd_String)+03h
  9659  0267  1403               	bsf	status,0
  9660  0268  0DD1               	rlf	0+(?_Lcd_String)+03h,f
  9661  0269  160A  158A  2509   	fcall	_Lcd_String
              120A  118A         
  9662                           	line	827
  9663                           	
  9664  026E                     l10051:	
  9665                           ;Beverage_services.c: 827: time=eeprom_read(118);
  9666  026E  3076               	movlw	(076h)
  9667  026F  1283               	bcf	status, 5	;RP0=0, select bank0
  9668  0270  1303               	bcf	status, 6	;RP1=0, select bank0
  9669  0271  00DA               	movwf	(??_change_modes+0)+0
  9670  0272  085A               	movf	(??_change_modes+0)+0,w
  9671  0273  00F4               	movwf	(?_eeprom_read)
  9672  0274  160A  158A  21B7   	fcall	_eeprom_read
              120A  118A         
  9673  0279  1283               	bcf	status, 5	;RP0=0, select bank0
  9674  027A  1303               	bcf	status, 6	;RP1=0, select bank0
  9675  027B  00DB               	movwf	(??_change_modes+1)+0
  9676  027C  01DC               	clrf	(??_change_modes+1)+0+1
  9677  027D  085B               	movf	0+(??_change_modes+1)+0,w
  9678  027E  00B3               	movwf	(_time)
  9679  027F  085C               	movf	1+(??_change_modes+1)+0,w
  9680  0280  00B4               	movwf	(_time+1)
  9681                           	line	828
  9682                           	
  9683  0281                     l10053:	
  9684                           ;Beverage_services.c: 828: _PRESSED=_NORMAL_TEA_BUTTON;
  9685  0281  3002               	movlw	(02h)
  9686  0282  00DA               	movwf	(??_change_modes+0)+0
  9687  0283  085A               	movf	(??_change_modes+0)+0,w
  9688  0284  00BB               	movwf	(__PRESSED)
  9689  0285  2A86               	goto	l10055
  9690                           	line	829
  9691                           	
  9692  0286                     l3362:	
  9693                           	line	830
  9694                           	
  9695  0286                     l10055:	
  9696                           ;Beverage_services.c: 829: }
  9697                           ;Beverage_services.c: 830: if(Enable_Tea_Dication_Time && (_PREVIOUS_MODE != _ENABLE_MOD
                                 E))
  9698  0286  1DED               	btfss	(_Enable_Tea_Dication_Time/8),(_Enable_Tea_Dication_Time)&7
  9699  0287  2A89               	goto	u5911
  9700  0288  2A8A               	goto	u5910
  9701  0289                     u5911:
  9702  0289  2AC4               	goto	l10065
  9703  028A                     u5910:
  9704                           	
  9705  028A                     l10057:	
  9706  028A  083C               	movf	(__PREVIOUS_MODE),w
  9707  028B  0638               	xorwf	(__ENABLE_MODE),w
  9708  028C  1903               	skipnz
  9709  028D  2A8F               	goto	u5921
  9710  028E  2A90               	goto	u5920
  9711  028F                     u5921:
  9712  028F  2AC4               	goto	l10065
  9713  0290                     u5920:
  9714                           	line	832
  9715                           	
  9716  0290                     l10059:	
  9717                           ;Beverage_services.c: 831: {
  9718                           ;Beverage_services.c: 832: Lcd_String("TEA DICATION",1,0);
  9719  0290  30A8               	movlw	low(STR_22|8000h)
  9720  0291  00CE               	movwf	(?_Lcd_String)
  9721  0292  3098               	movlw	high(STR_22|8000h)
  9722  0293  00CF               	movwf	((?_Lcd_String))+1
  9723  0294  01D0               	clrf	0+(?_Lcd_String)+02h
  9724  0295  1403               	bsf	status,0
  9725  0296  0DD0               	rlf	0+(?_Lcd_String)+02h,f
  9726  0297  01D1               	clrf	0+(?_Lcd_String)+03h
  9727  0298  160A  158A  2509   	fcall	_Lcd_String
              120A  118A         
  9728                           	line	833
  9729                           ;Beverage_services.c: 833: Lcd_String("TIME:",0,1);
  9730  029D  3003               	movlw	low(STR_23|8000h)
  9731  029E  1283               	bcf	status, 5	;RP0=0, select bank0
  9732  029F  1303               	bcf	status, 6	;RP1=0, select bank0
  9733  02A0  00CE               	movwf	(?_Lcd_String)
  9734  02A1  3099               	movlw	high(STR_23|8000h)
  9735  02A2  00CF               	movwf	((?_Lcd_String))+1
  9736  02A3  01D0               	clrf	0+(?_Lcd_String)+02h
  9737  02A4  01D1               	clrf	0+(?_Lcd_String)+03h
  9738  02A5  1403               	bsf	status,0
  9739  02A6  0DD1               	rlf	0+(?_Lcd_String)+03h,f
  9740  02A7  160A  158A  2509   	fcall	_Lcd_String
              120A  118A         
  9741                           	line	834
  9742                           	
  9743  02AC                     l10061:	
  9744                           ;Beverage_services.c: 834: time=eeprom_read(119);
  9745  02AC  3077               	movlw	(077h)
  9746  02AD  1283               	bcf	status, 5	;RP0=0, select bank0
  9747  02AE  1303               	bcf	status, 6	;RP1=0, select bank0
  9748  02AF  00DA               	movwf	(??_change_modes+0)+0
  9749  02B0  085A               	movf	(??_change_modes+0)+0,w
  9750  02B1  00F4               	movwf	(?_eeprom_read)
  9751  02B2  160A  158A  21B7   	fcall	_eeprom_read
              120A  118A         
  9752  02B7  1283               	bcf	status, 5	;RP0=0, select bank0
  9753  02B8  1303               	bcf	status, 6	;RP1=0, select bank0
  9754  02B9  00DB               	movwf	(??_change_modes+1)+0
  9755  02BA  01DC               	clrf	(??_change_modes+1)+0+1
  9756  02BB  085B               	movf	0+(??_change_modes+1)+0,w
  9757  02BC  00B3               	movwf	(_time)
  9758  02BD  085C               	movf	1+(??_change_modes+1)+0,w
  9759  02BE  00B4               	movwf	(_time+1)
  9760                           	line	835
  9761                           	
  9762  02BF                     l10063:	
  9763                           ;Beverage_services.c: 835: _PRESSED=_NORMAL_TEA_BUTTON;
  9764  02BF  3002               	movlw	(02h)
  9765  02C0  00DA               	movwf	(??_change_modes+0)+0
  9766  02C1  085A               	movf	(??_change_modes+0)+0,w
  9767  02C2  00BB               	movwf	(__PRESSED)
  9768  02C3  2AC4               	goto	l10065
  9769                           	line	836
  9770                           	
  9771  02C4                     l3363:	
  9772                           	line	837
  9773                           	
  9774  02C4                     l10065:	
  9775                           ;Beverage_services.c: 836: }
  9776                           ;Beverage_services.c: 837: if(Enable_Temperature && (_PREVIOUS_MODE != _ENABLE_MODE))
  9777  02C4  1F6D               	btfss	(_Enable_Temperature/8),(_Enable_Temperature)&7
  9778  02C5  2AC7               	goto	u5931
  9779  02C6  2AC8               	goto	u5930
  9780  02C7                     u5931:
  9781  02C7  2AF3               	goto	l10075
  9782  02C8                     u5930:
  9783                           	
  9784  02C8                     l10067:	
  9785  02C8  083C               	movf	(__PREVIOUS_MODE),w
  9786  02C9  0638               	xorwf	(__ENABLE_MODE),w
  9787  02CA  1903               	skipnz
  9788  02CB  2ACD               	goto	u5941
  9789  02CC  2ACE               	goto	u5940
  9790  02CD                     u5941:
  9791  02CD  2AF3               	goto	l10075
  9792  02CE                     u5940:
  9793                           	line	839
  9794                           	
  9795  02CE                     l10069:	
  9796                           ;Beverage_services.c: 838: {
  9797                           ;Beverage_services.c: 839: Lcd_String("TEMPERATURE",1,0);
  9798  02CE  3046               	movlw	low(STR_24|8000h)
  9799  02CF  00CE               	movwf	(?_Lcd_String)
  9800  02D0  3098               	movlw	high(STR_24|8000h)
  9801  02D1  00CF               	movwf	((?_Lcd_String))+1
  9802  02D2  01D0               	clrf	0+(?_Lcd_String)+02h
  9803  02D3  1403               	bsf	status,0
  9804  02D4  0DD0               	rlf	0+(?_Lcd_String)+02h,f
  9805  02D5  01D1               	clrf	0+(?_Lcd_String)+03h
  9806  02D6  160A  158A  2509   	fcall	_Lcd_String
              120A  118A         
  9807                           	line	840
  9808                           	
  9809  02DB                     l10071:	
  9810                           ;Beverage_services.c: 840: time=eeprom_read(120);
  9811  02DB  3078               	movlw	(078h)
  9812  02DC  1283               	bcf	status, 5	;RP0=0, select bank0
  9813  02DD  1303               	bcf	status, 6	;RP1=0, select bank0
  9814  02DE  00DA               	movwf	(??_change_modes+0)+0
  9815  02DF  085A               	movf	(??_change_modes+0)+0,w
  9816  02E0  00F4               	movwf	(?_eeprom_read)
  9817  02E1  160A  158A  21B7   	fcall	_eeprom_read
              120A  118A         
  9818  02E6  1283               	bcf	status, 5	;RP0=0, select bank0
  9819  02E7  1303               	bcf	status, 6	;RP1=0, select bank0
  9820  02E8  00DB               	movwf	(??_change_modes+1)+0
  9821  02E9  01DC               	clrf	(??_change_modes+1)+0+1
  9822  02EA  085B               	movf	0+(??_change_modes+1)+0,w
  9823  02EB  00B3               	movwf	(_time)
  9824  02EC  085C               	movf	1+(??_change_modes+1)+0,w
  9825  02ED  00B4               	movwf	(_time+1)
  9826                           	line	841
  9827                           	
  9828  02EE                     l10073:	
  9829                           ;Beverage_services.c: 841: _PRESSED=_NORMAL_TEA_BUTTON;
  9830  02EE  3002               	movlw	(02h)
  9831  02EF  00DA               	movwf	(??_change_modes+0)+0
  9832  02F0  085A               	movf	(??_change_modes+0)+0,w
  9833  02F1  00BB               	movwf	(__PRESSED)
  9834  02F2  2AF3               	goto	l10075
  9835                           	line	842
  9836                           	
  9837  02F3                     l3364:	
  9838                           	line	843
  9839                           	
  9840  02F3                     l10075:	
  9841                           ;Beverage_services.c: 842: }
  9842                           ;Beverage_services.c: 843: if(Enable_Dication_Delay && (_PREVIOUS_MODE != _ENABLE_MODE))
  9843  02F3  1F6B               	btfss	(_Enable_Dication_Delay/8),(_Enable_Dication_Delay)&7
  9844  02F4  2AF6               	goto	u5951
  9845  02F5  2AF7               	goto	u5950
  9846  02F6                     u5951:
  9847  02F6  2B31               	goto	l10085
  9848  02F7                     u5950:
  9849                           	
  9850  02F7                     l10077:	
  9851  02F7  083C               	movf	(__PREVIOUS_MODE),w
  9852  02F8  0638               	xorwf	(__ENABLE_MODE),w
  9853  02F9  1903               	skipnz
  9854  02FA  2AFC               	goto	u5961
  9855  02FB  2AFD               	goto	u5960
  9856  02FC                     u5961:
  9857  02FC  2B31               	goto	l10085
  9858  02FD                     u5960:
  9859                           	line	845
  9860                           	
  9861  02FD                     l10079:	
  9862                           ;Beverage_services.c: 844: {
  9863                           ;Beverage_services.c: 845: Lcd_String("DICATION DELAY",1,0);
  9864  02FD  3070               	movlw	low(STR_25|8000h)
  9865  02FE  00CE               	movwf	(?_Lcd_String)
  9866  02FF  3098               	movlw	high(STR_25|8000h)
  9867  0300  00CF               	movwf	((?_Lcd_String))+1
  9868  0301  01D0               	clrf	0+(?_Lcd_String)+02h
  9869  0302  1403               	bsf	status,0
  9870  0303  0DD0               	rlf	0+(?_Lcd_String)+02h,f
  9871  0304  01D1               	clrf	0+(?_Lcd_String)+03h
  9872  0305  160A  158A  2509   	fcall	_Lcd_String
              120A  118A         
  9873                           	line	846
  9874                           ;Beverage_services.c: 846: Lcd_String("TIME:",0,1);
  9875  030A  3003               	movlw	low(STR_26|8000h)
  9876  030B  1283               	bcf	status, 5	;RP0=0, select bank0
  9877  030C  1303               	bcf	status, 6	;RP1=0, select bank0
  9878  030D  00CE               	movwf	(?_Lcd_String)
  9879  030E  3099               	movlw	high(STR_26|8000h)
  9880  030F  00CF               	movwf	((?_Lcd_String))+1
  9881  0310  01D0               	clrf	0+(?_Lcd_String)+02h
  9882  0311  01D1               	clrf	0+(?_Lcd_String)+03h
  9883  0312  1403               	bsf	status,0
  9884  0313  0DD1               	rlf	0+(?_Lcd_String)+03h,f
  9885  0314  160A  158A  2509   	fcall	_Lcd_String
              120A  118A         
  9886                           	line	847
  9887                           	
  9888  0319                     l10081:	
  9889                           ;Beverage_services.c: 847: time=eeprom_read(121);
  9890  0319  3079               	movlw	(079h)
  9891  031A  1283               	bcf	status, 5	;RP0=0, select bank0
  9892  031B  1303               	bcf	status, 6	;RP1=0, select bank0
  9893  031C  00DA               	movwf	(??_change_modes+0)+0
  9894  031D  085A               	movf	(??_change_modes+0)+0,w
  9895  031E  00F4               	movwf	(?_eeprom_read)
  9896  031F  160A  158A  21B7   	fcall	_eeprom_read
              120A  118A         
  9897  0324  1283               	bcf	status, 5	;RP0=0, select bank0
  9898  0325  1303               	bcf	status, 6	;RP1=0, select bank0
  9899  0326  00DB               	movwf	(??_change_modes+1)+0
  9900  0327  01DC               	clrf	(??_change_modes+1)+0+1
  9901  0328  085B               	movf	0+(??_change_modes+1)+0,w
  9902  0329  00B3               	movwf	(_time)
  9903  032A  085C               	movf	1+(??_change_modes+1)+0,w
  9904  032B  00B4               	movwf	(_time+1)
  9905                           	line	848
  9906                           	
  9907  032C                     l10083:	
  9908                           ;Beverage_services.c: 848: _PRESSED=_NORMAL_TEA_BUTTON;
  9909  032C  3002               	movlw	(02h)
  9910  032D  00DA               	movwf	(??_change_modes+0)+0
  9911  032E  085A               	movf	(??_change_modes+0)+0,w
  9912  032F  00BB               	movwf	(__PRESSED)
  9913  0330  2B31               	goto	l10085
  9914                           	line	849
  9915                           	
  9916  0331                     l3365:	
  9917                           	line	850
  9918                           	
  9919  0331                     l10085:	
  9920                           ;Beverage_services.c: 849: }
  9921                           ;Beverage_services.c: 850: if(Enable_Hot_Water_Time && (_PREVIOUS_MODE != _ENABLE_MODE))
  9922  0331  1CEC               	btfss	(_Enable_Hot_Water_Time/8),(_Enable_Hot_Water_Time)&7
  9923  0332  2B34               	goto	u5971
  9924  0333  2B35               	goto	u5970
  9925  0334                     u5971:
  9926  0334  2B6F               	goto	l10095
  9927  0335                     u5970:
  9928                           	
  9929  0335                     l10087:	
  9930  0335  083C               	movf	(__PREVIOUS_MODE),w
  9931  0336  0638               	xorwf	(__ENABLE_MODE),w
  9932  0337  1903               	skipnz
  9933  0338  2B3A               	goto	u5981
  9934  0339  2B3B               	goto	u5980
  9935  033A                     u5981:
  9936  033A  2B6F               	goto	l10095
  9937  033B                     u5980:
  9938                           	line	852
  9939                           	
  9940  033B                     l10089:	
  9941                           ;Beverage_services.c: 851: {
  9942                           ;Beverage_services.c: 852: Lcd_String("HOT WATER",1,0);
  9943  033B  30E2               	movlw	low(STR_27|8000h)
  9944  033C  00CE               	movwf	(?_Lcd_String)
  9945  033D  3098               	movlw	high(STR_27|8000h)
  9946  033E  00CF               	movwf	((?_Lcd_String))+1
  9947  033F  01D0               	clrf	0+(?_Lcd_String)+02h
  9948  0340  1403               	bsf	status,0
  9949  0341  0DD0               	rlf	0+(?_Lcd_String)+02h,f
  9950  0342  01D1               	clrf	0+(?_Lcd_String)+03h
  9951  0343  160A  158A  2509   	fcall	_Lcd_String
              120A  118A         
  9952                           	line	853
  9953                           ;Beverage_services.c: 853: Lcd_String("TIME:",0,1);
  9954  0348  3003               	movlw	low(STR_28|8000h)
  9955  0349  1283               	bcf	status, 5	;RP0=0, select bank0
  9956  034A  1303               	bcf	status, 6	;RP1=0, select bank0
  9957  034B  00CE               	movwf	(?_Lcd_String)
  9958  034C  3099               	movlw	high(STR_28|8000h)
  9959  034D  00CF               	movwf	((?_Lcd_String))+1
  9960  034E  01D0               	clrf	0+(?_Lcd_String)+02h
  9961  034F  01D1               	clrf	0+(?_Lcd_String)+03h
  9962  0350  1403               	bsf	status,0
  9963  0351  0DD1               	rlf	0+(?_Lcd_String)+03h,f
  9964  0352  160A  158A  2509   	fcall	_Lcd_String
              120A  118A         
  9965                           	line	854
  9966                           	
  9967  0357                     l10091:	
  9968                           ;Beverage_services.c: 854: time=eeprom_read(147);
  9969  0357  3093               	movlw	(093h)
  9970  0358  1283               	bcf	status, 5	;RP0=0, select bank0
  9971  0359  1303               	bcf	status, 6	;RP1=0, select bank0
  9972  035A  00DA               	movwf	(??_change_modes+0)+0
  9973  035B  085A               	movf	(??_change_modes+0)+0,w
  9974  035C  00F4               	movwf	(?_eeprom_read)
  9975  035D  160A  158A  21B7   	fcall	_eeprom_read
              120A  118A         
  9976  0362  1283               	bcf	status, 5	;RP0=0, select bank0
  9977  0363  1303               	bcf	status, 6	;RP1=0, select bank0
  9978  0364  00DB               	movwf	(??_change_modes+1)+0
  9979  0365  01DC               	clrf	(??_change_modes+1)+0+1
  9980  0366  085B               	movf	0+(??_change_modes+1)+0,w
  9981  0367  00B3               	movwf	(_time)
  9982  0368  085C               	movf	1+(??_change_modes+1)+0,w
  9983  0369  00B4               	movwf	(_time+1)
  9984                           	line	855
  9985                           	
  9986  036A                     l10093:	
  9987                           ;Beverage_services.c: 855: _PRESSED=_NORMAL_TEA_BUTTON;
  9988  036A  3002               	movlw	(02h)
  9989  036B  00DA               	movwf	(??_change_modes+0)+0
  9990  036C  085A               	movf	(??_change_modes+0)+0,w
  9991  036D  00BB               	movwf	(__PRESSED)
  9992  036E  2B6F               	goto	l10095
  9993                           	line	856
  9994                           	
  9995  036F                     l3366:	
  9996                           	line	857
  9997                           	
  9998  036F                     l10095:	
  9999                           ;Beverage_services.c: 856: }
 10000                           ;Beverage_services.c: 857: if(Enable_Cup_Count && (_PREVIOUS_MODE != _ENABLE_MODE))
 10001  036F  1EEB               	btfss	(_Enable_Cup_Count/8),(_Enable_Cup_Count)&7
 10002  0370  2B72               	goto	u5991
 10003  0371  2B73               	goto	u5990
 10004  0372                     u5991:
 10005  0372  2BB4               	goto	l10107
 10006  0373                     u5990:
 10007                           	
 10008  0373                     l10097:	
 10009  0373  083C               	movf	(__PREVIOUS_MODE),w
 10010  0374  0638               	xorwf	(__ENABLE_MODE),w
 10011  0375  1903               	skipnz
 10012  0376  2B78               	goto	u6001
 10013  0377  2B79               	goto	u6000
 10014  0378                     u6001:
 10015  0378  2BB4               	goto	l10107
 10016  0379                     u6000:
 10017                           	line	859
 10018                           	
 10019  0379                     l10099:	
 10020                           ;Beverage_services.c: 858: {
 10021                           ;Beverage_services.c: 859: Lcd_String("CUP COUNT",1,0);
 10022  0379  30EC               	movlw	low(STR_29|8000h)
 10023  037A  00CE               	movwf	(?_Lcd_String)
 10024  037B  3098               	movlw	high(STR_29|8000h)
 10025  037C  00CF               	movwf	((?_Lcd_String))+1
 10026  037D  01D0               	clrf	0+(?_Lcd_String)+02h
 10027  037E  1403               	bsf	status,0
 10028  037F  0DD0               	rlf	0+(?_Lcd_String)+02h,f
 10029  0380  01D1               	clrf	0+(?_Lcd_String)+03h
 10030  0381  160A  158A  2509   	fcall	_Lcd_String
              120A  118A         
 10031                           	line	860
 10032                           	
 10033  0386                     l10101:	
 10034                           ;Beverage_services.c: 860: Lcd_Cmd(0xC8); Num_Disp(count_read(126,127),5,0);
 10035  0386  30C8               	movlw	(0C8h)
 10036  0387  160A  158A  2314   	fcall	_Lcd_Cmd
              120A  118A         
 10037                           	
 10038  038C                     l10103:	
 10039  038C  307F               	movlw	(07Fh)
 10040  038D  1283               	bcf	status, 5	;RP0=0, select bank0
 10041  038E  1303               	bcf	status, 6	;RP1=0, select bank0
 10042  038F  00DA               	movwf	(??_change_modes+0)+0
 10043  0390  085A               	movf	(??_change_modes+0)+0,w
 10044  0391  00FC               	movwf	(?_count_read)
 10045  0392  307E               	movlw	(07Eh)
 10046  0393  160A  158A  22A7   	fcall	_count_read
              120A  118A         
 10047  0398  087D               	movf	(1+(?_count_read)),w
 10048  0399  1283               	bcf	status, 5	;RP0=0, select bank0
 10049  039A  1303               	bcf	status, 6	;RP1=0, select bank0
 10050  039B  01D1               	clrf	(?_Num_Disp+1)
 10051  039C  07D1               	addwf	(?_Num_Disp+1)
 10052  039D  087C               	movf	(0+(?_count_read)),w
 10053  039E  01D0               	clrf	(?_Num_Disp)
 10054  039F  07D0               	addwf	(?_Num_Disp)
 10055                           
 10056  03A0  3005               	movlw	(05h)
 10057  03A1  00DB               	movwf	(??_change_modes+1)+0
 10058  03A2  085B               	movf	(??_change_modes+1)+0,w
 10059  03A3  00D2               	movwf	0+(?_Num_Disp)+02h
 10060  03A4  01D3               	clrf	0+(?_Num_Disp)+03h
 10061  03A5  160A  118A  2101   	fcall	_Num_Disp
              120A  118A         
 10062                           	line	861
 10063                           	
 10064  03AA                     l10105:	
 10065                           ;Beverage_services.c: 861: DelayMs(50);
 10066  03AA  3032               	movlw	low(032h)
 10067  03AB  00FC               	movwf	(?_DelayMs)
 10068  03AC  3000               	movlw	high(032h)
 10069  03AD  00FD               	movwf	((?_DelayMs))+1
 10070  03AE  160A  158A  21F3   	fcall	_DelayMs
              120A  118A         
 10071  03B3  2BB4               	goto	l10107
 10072                           	line	862
 10073                           	
 10074  03B4                     l3367:	
 10075                           	line	863
 10076                           	
 10077  03B4                     l10107:	
 10078                           ;Beverage_services.c: 862: }
 10079                           ;Beverage_services.c: 863: if(Enable_Count_Reset && (_PREVIOUS_MODE != _ENABLE_MODE))
 10080  03B4  1283               	bcf	status, 5	;RP0=0, select bank0
 10081  03B5  1303               	bcf	status, 6	;RP1=0, select bank0
 10082  03B6  1E6B               	btfss	(_Enable_Count_Reset/8),(_Enable_Count_Reset)&7
 10083  03B7  2BB9               	goto	u6011
 10084  03B8  2BBA               	goto	u6010
 10085  03B9                     u6011:
 10086  03B9  2BD4               	goto	l10115
 10087  03BA                     u6010:
 10088                           	
 10089  03BA                     l10109:	
 10090  03BA  083C               	movf	(__PREVIOUS_MODE),w
 10091  03BB  0638               	xorwf	(__ENABLE_MODE),w
 10092  03BC  1903               	skipnz
 10093  03BD  2BBF               	goto	u6021
 10094  03BE  2BC0               	goto	u6020
 10095  03BF                     u6021:
 10096  03BF  2BD4               	goto	l10115
 10097  03C0                     u6020:
 10098                           	line	865
 10099                           	
 10100  03C0                     l10111:	
 10101                           ;Beverage_services.c: 864: {
 10102                           ;Beverage_services.c: 865: Lcd_String("COUNT RESET",1,0);
 10103  03C0  30C1               	movlw	low(STR_30|8000h)
 10104  03C1  00CE               	movwf	(?_Lcd_String)
 10105  03C2  3098               	movlw	high(STR_30|8000h)
 10106  03C3  00CF               	movwf	((?_Lcd_String))+1
 10107  03C4  01D0               	clrf	0+(?_Lcd_String)+02h
 10108  03C5  1403               	bsf	status,0
 10109  03C6  0DD0               	rlf	0+(?_Lcd_String)+02h,f
 10110  03C7  01D1               	clrf	0+(?_Lcd_String)+03h
 10111  03C8  160A  158A  2509   	fcall	_Lcd_String
              120A  118A         
 10112                           	line	866
 10113                           	
 10114  03CD                     l10113:	
 10115                           ;Beverage_services.c: 866: _PRESSED=_MILK_BUTTON;
 10116  03CD  3007               	movlw	(07h)
 10117  03CE  1283               	bcf	status, 5	;RP0=0, select bank0
 10118  03CF  1303               	bcf	status, 6	;RP1=0, select bank0
 10119  03D0  00DA               	movwf	(??_change_modes+0)+0
 10120  03D1  085A               	movf	(??_change_modes+0)+0,w
 10121  03D2  00BB               	movwf	(__PRESSED)
 10122  03D3  2BD4               	goto	l10115
 10123                           	line	867
 10124                           	
 10125  03D4                     l3368:	
 10126                           	line	869
 10127                           	
 10128  03D4                     l10115:	
 10129                           ;Beverage_services.c: 867: }
 10130                           ;Beverage_services.c: 869: _ENABLE_MODE=0;
 10131  03D4  01B8               	clrf	(__ENABLE_MODE)
 10132                           	line	870
 10133                           	
 10134  03D5                     l10117:	
 10135                           ;Beverage_services.c: 870: _DISABLE_MODE=0;
 10136  03D5  01B7               	clrf	(__DISABLE_MODE)
 10137                           	line	871
 10138                           	
 10139  03D6                     l10119:	
 10140                           ;Beverage_services.c: 871: _PREVIOUS_MODE=_ENABLE_MODE;
 10141  03D6  0838               	movf	(__ENABLE_MODE),w
 10142  03D7  00DA               	movwf	(??_change_modes+0)+0
 10143  03D8  085A               	movf	(??_change_modes+0)+0,w
 10144  03D9  00BC               	movwf	(__PREVIOUS_MODE)
 10145                           	line	872
 10146                           	
 10147  03DA                     l3369:	
 10148  03DA  0008               	return
 10149                           	opt stack 0
 10150                           GLOBAL	__end_of_change_modes
 10151  03DB                     	__end_of_change_modes:
 10152 ;; =============== function _change_modes ends ============
 10153                           
 10154                           	signat	_change_modes,88
 10155                           	global	_print_yes_no
 10156                           psect	text852,local,class=CODE,delta=2
 10157                           global __ptext852
 10158  1F6E                     __ptext852:
 10159                           
 10160 ;; *************** function _print_yes_no *****************
 10161 ;; Defined at:
 10162 ;;		line 1157 in file "F:\BEVERAGES_ENHANCEMENT\SOFTWARE_DESIGN\MASTER_PIC_16F877A\2015_09_13\Beverage_services.c"
 10163 ;; Parameters:    Size  Location     Type
 10164 ;;  MEM             1    wreg     unsigned char 
 10165 ;; Auto vars:     Size  Location     Type
 10166 ;;  MEM             1    6[BANK0 ] unsigned char 
 10167 ;; Return value:  Size  Location     Type
 10168 ;;		None               void
 10169 ;; Registers used:
 10170 ;;		wreg, status,2, status,0, pclath, cstack
 10171 ;; Tracked objects:
 10172 ;;		On entry : 0/0
 10173 ;;		On exit  : 0/0
 10174 ;;		Unchanged: 0/0
 10175 ;; Data sizes:     COMMON   BANK0   BANK1   BANK3   BANK2
 10176 ;;      Params:         0       0       0       0       0
 10177 ;;      Locals:         0       1       0       0       0
 10178 ;;      Temps:          0       1       0       0       0
 10179 ;;      Totals:         0       2       0       0       0
 10180 ;;Total ram usage:        2 bytes
 10181 ;; Hardware stack levels used:    1
 10182 ;; Hardware stack levels required when called:    2
 10183 ;; This function calls:
 10184 ;;		_Read_ValveFrom_Memory
 10185 ;;		_Lcd_Cmd
 10186 ;;		_Lcd_Data
 10187 ;; This function is called by:
 10188 ;;		_enable_valves
 10189 ;;		_change_modes
 10190 ;; This function uses a non-reentrant model
 10191 ;;
 10192                           psect	text852
 10193                           	file	"F:\BEVERAGES_ENHANCEMENT\SOFTWARE_DESIGN\MASTER_PIC_16F877A\2015_09_13\Beverage_s
                                 ervices.c"
 10194                           	line	1157
 10195                           	global	__size_of_print_yes_no
 10196  0092                     	__size_of_print_yes_no	equ	__end_of_print_yes_no-_print_yes_no
 10197                           	
 10198  1F6E                     _print_yes_no:	
 10199                           	opt	stack 4
 10200                           ; Regs used in _print_yes_no: [wreg+status,2+status,0+pclath+cstack]
 10201                           ;print_yes_no@MEM stored from wreg
 10202  1F6E  1283               	bcf	status, 5	;RP0=0, select bank0
 10203  1F6F  1303               	bcf	status, 6	;RP1=0, select bank0
 10204  1F70  00CF               	movwf	(print_yes_no@MEM)
 10205                           	line	1158
 10206                           	
 10207  1F71                     l9969:	
 10208                           ;Beverage_services.c: 1158: VALVE=Read_ValveFrom_Memory(MEM);
 10209  1F71  084F               	movf	(print_yes_no@MEM),w
 10210  1F72  160A  158A  267D   	fcall	_Read_ValveFrom_Memory
              160A  158A         
 10211  1F77  1283               	bcf	status, 5	;RP0=0, select bank0
 10212  1F78  1303               	bcf	status, 6	;RP1=0, select bank0
 10213  1F79  00CE               	movwf	(??_print_yes_no+0)+0
 10214  1F7A  084E               	movf	(??_print_yes_no+0)+0,w
 10215  1F7B  00B6               	movwf	(_VALVE)
 10216                           	line	1159
 10217                           ;Beverage_services.c: 1159: Lcd_Cmd(0xC3);
 10218  1F7C  30C3               	movlw	(0C3h)
 10219  1F7D  160A  158A  2314   	fcall	_Lcd_Cmd
              160A  158A         
 10220                           	line	1160
 10221                           	
 10222  1F82                     l9971:	
 10223                           ;Beverage_services.c: 1160: if( VALVE.COFFEE_DICATION )
 10224  1F82  1283               	bcf	status, 5	;RP0=0, select bank0
 10225  1F83  1303               	bcf	status, 6	;RP1=0, select bank0
 10226  1F84  1C36               	btfss	(_VALVE),0
 10227  1F85  2F87               	goto	u5761
 10228  1F86  2F88               	goto	u5760
 10229  1F87                     u5761:
 10230  1F87  2F8F               	goto	l9975
 10231  1F88                     u5760:
 10232                           	line	1162
 10233                           	
 10234  1F88                     l9973:	
 10235                           ;Beverage_services.c: 1161: {
 10236                           ;Beverage_services.c: 1162: Lcd_Data('Y');;
 10237  1F88  3059               	movlw	(059h)
 10238  1F89  160A  158A  234D   	fcall	_Lcd_Data
              160A  158A         
 10239                           	line	1163
 10240                           ;Beverage_services.c: 1163: }
 10241  1F8E  2F95               	goto	l3459
 10242                           	line	1164
 10243                           	
 10244  1F8F                     l3458:	
 10245                           	line	1165
 10246                           	
 10247  1F8F                     l9975:	
 10248                           ;Beverage_services.c: 1164: else
 10249                           ;Beverage_services.c: 1165: Lcd_Data('N');;
 10250  1F8F  304E               	movlw	(04Eh)
 10251  1F90  160A  158A  234D   	fcall	_Lcd_Data
              160A  158A         
 10252                           	
 10253  1F95                     l3459:	
 10254                           	line	1166
 10255                           ;Beverage_services.c: 1166: Lcd_Cmd(0xC5);
 10256  1F95  30C5               	movlw	(0C5h)
 10257  1F96  160A  158A  2314   	fcall	_Lcd_Cmd
              160A  158A         
 10258                           	line	1167
 10259                           	
 10260  1F9B                     l9977:	
 10261                           ;Beverage_services.c: 1167: if( VALVE.TEA_DICATION )
 10262  1F9B  1283               	bcf	status, 5	;RP0=0, select bank0
 10263  1F9C  1303               	bcf	status, 6	;RP1=0, select bank0
 10264  1F9D  1CB6               	btfss	(_VALVE),1
 10265  1F9E  2FA0               	goto	u5771
 10266  1F9F  2FA1               	goto	u5770
 10267  1FA0                     u5771:
 10268  1FA0  2FA8               	goto	l9981
 10269  1FA1                     u5770:
 10270                           	line	1169
 10271                           	
 10272  1FA1                     l9979:	
 10273                           ;Beverage_services.c: 1168: {
 10274                           ;Beverage_services.c: 1169: Lcd_Data('Y');;
 10275  1FA1  3059               	movlw	(059h)
 10276  1FA2  160A  158A  234D   	fcall	_Lcd_Data
              160A  158A         
 10277                           	line	1170
 10278                           ;Beverage_services.c: 1170: }
 10279  1FA7  2FAE               	goto	l3461
 10280                           	line	1171
 10281                           	
 10282  1FA8                     l3460:	
 10283                           	line	1172
 10284                           	
 10285  1FA8                     l9981:	
 10286                           ;Beverage_services.c: 1171: else
 10287                           ;Beverage_services.c: 1172: Lcd_Data('N');;
 10288  1FA8  304E               	movlw	(04Eh)
 10289  1FA9  160A  158A  234D   	fcall	_Lcd_Data
              160A  158A         
 10290                           	
 10291  1FAE                     l3461:	
 10292                           	line	1173
 10293                           ;Beverage_services.c: 1173: Lcd_Cmd(0xC7);
 10294  1FAE  30C7               	movlw	(0C7h)
 10295  1FAF  160A  158A  2314   	fcall	_Lcd_Cmd
              160A  158A         
 10296                           	line	1174
 10297                           	
 10298  1FB4                     l9983:	
 10299                           ;Beverage_services.c: 1174: if( VALVE.MIXING_HOT_WATER )
 10300  1FB4  1283               	bcf	status, 5	;RP0=0, select bank0
 10301  1FB5  1303               	bcf	status, 6	;RP1=0, select bank0
 10302  1FB6  1D36               	btfss	(_VALVE),2
 10303  1FB7  2FB9               	goto	u5781
 10304  1FB8  2FBA               	goto	u5780
 10305  1FB9                     u5781:
 10306  1FB9  2FC1               	goto	l9987
 10307  1FBA                     u5780:
 10308                           	line	1176
 10309                           	
 10310  1FBA                     l9985:	
 10311                           ;Beverage_services.c: 1175: {
 10312                           ;Beverage_services.c: 1176: Lcd_Data('Y');;
 10313  1FBA  3059               	movlw	(059h)
 10314  1FBB  160A  158A  234D   	fcall	_Lcd_Data
              160A  158A         
 10315                           	line	1177
 10316                           ;Beverage_services.c: 1177: }
 10317  1FC0  2FC7               	goto	l3463
 10318                           	line	1178
 10319                           	
 10320  1FC1                     l3462:	
 10321                           	line	1179
 10322                           	
 10323  1FC1                     l9987:	
 10324                           ;Beverage_services.c: 1178: else
 10325                           ;Beverage_services.c: 1179: Lcd_Data('N');;
 10326  1FC1  304E               	movlw	(04Eh)
 10327  1FC2  160A  158A  234D   	fcall	_Lcd_Data
              160A  158A         
 10328                           	
 10329  1FC7                     l3463:	
 10330                           	line	1180
 10331                           ;Beverage_services.c: 1180: Lcd_Cmd(0xC9);
 10332  1FC7  30C9               	movlw	(0C9h)
 10333  1FC8  160A  158A  2314   	fcall	_Lcd_Cmd
              160A  158A         
 10334                           	line	1181
 10335                           	
 10336  1FCD                     l9989:	
 10337                           ;Beverage_services.c: 1181: if( VALVE.MILK )
 10338  1FCD  1283               	bcf	status, 5	;RP0=0, select bank0
 10339  1FCE  1303               	bcf	status, 6	;RP1=0, select bank0
 10340  1FCF  1DB6               	btfss	(_VALVE),3
 10341  1FD0  2FD2               	goto	u5791
 10342  1FD1  2FD3               	goto	u5790
 10343  1FD2                     u5791:
 10344  1FD2  2FDA               	goto	l9993
 10345  1FD3                     u5790:
 10346                           	line	1183
 10347                           	
 10348  1FD3                     l9991:	
 10349                           ;Beverage_services.c: 1182: {
 10350                           ;Beverage_services.c: 1183: Lcd_Data('Y');;
 10351  1FD3  3059               	movlw	(059h)
 10352  1FD4  160A  158A  234D   	fcall	_Lcd_Data
              160A  158A         
 10353                           	line	1184
 10354                           ;Beverage_services.c: 1184: }
 10355  1FD9  2FE0               	goto	l3465
 10356                           	line	1185
 10357                           	
 10358  1FDA                     l3464:	
 10359                           	line	1186
 10360                           	
 10361  1FDA                     l9993:	
 10362                           ;Beverage_services.c: 1185: else
 10363                           ;Beverage_services.c: 1186: Lcd_Data('N');;
 10364  1FDA  304E               	movlw	(04Eh)
 10365  1FDB  160A  158A  234D   	fcall	_Lcd_Data
              160A  158A         
 10366                           	
 10367  1FE0                     l3465:	
 10368                           	line	1187
 10369                           ;Beverage_services.c: 1187: Lcd_Cmd(0xCB);
 10370  1FE0  30CB               	movlw	(0CBh)
 10371  1FE1  160A  158A  2314   	fcall	_Lcd_Cmd
              160A  158A         
 10372                           	line	1188
 10373                           	
 10374  1FE6                     l9995:	
 10375                           ;Beverage_services.c: 1188: if( VALVE.VIBR_MOTOR)
 10376  1FE6  1283               	bcf	status, 5	;RP0=0, select bank0
 10377  1FE7  1303               	bcf	status, 6	;RP1=0, select bank0
 10378  1FE8  1E36               	btfss	(_VALVE),4
 10379  1FE9  2FEB               	goto	u5801
 10380  1FEA  2FEC               	goto	u5800
 10381  1FEB                     u5801:
 10382  1FEB  2FF3               	goto	l9999
 10383  1FEC                     u5800:
 10384                           	line	1190
 10385                           	
 10386  1FEC                     l9997:	
 10387                           ;Beverage_services.c: 1189: {
 10388                           ;Beverage_services.c: 1190: Lcd_Data('Y');;
 10389  1FEC  3059               	movlw	(059h)
 10390  1FED  160A  158A  234D   	fcall	_Lcd_Data
              160A  158A         
 10391                           	line	1191
 10392                           ;Beverage_services.c: 1191: }
 10393  1FF2  2FF9               	goto	l3467
 10394                           	line	1192
 10395                           	
 10396  1FF3                     l3466:	
 10397                           	line	1193
 10398                           	
 10399  1FF3                     l9999:	
 10400                           ;Beverage_services.c: 1192: else
 10401                           ;Beverage_services.c: 1193: Lcd_Data('N');;
 10402  1FF3  304E               	movlw	(04Eh)
 10403  1FF4  160A  158A  234D   	fcall	_Lcd_Data
              160A  158A         
 10404                           	
 10405  1FF9                     l3467:	
 10406                           	line	1194
 10407                           ;Beverage_services.c: 1194: Lcd_Cmd(0xCD);
 10408  1FF9  30CD               	movlw	(0CDh)
 10409  1FFA  160A  158A  2314   	fcall	_Lcd_Cmd
              160A  158A         
 10410                           	line	1195
 10411                           	
 10412  1FFF                     l3468:	
 10413  1FFF  0008               	return
 10414                           	opt stack 0
 10415                           GLOBAL	__end_of_print_yes_no
 10416  2000                     	__end_of_print_yes_no:
 10417 ;; =============== function _print_yes_no ends ============
 10418                           
 10419                           	signat	_print_yes_no,4216
 10420                           	global	_myitoa
 10421                           psect	text853,local,class=CODE,delta=2
 10422                           global __ptext853
 10423  1014                     __ptext853:
 10424                           
 10425 ;; *************** function _myitoa *****************
 10426 ;; Defined at:
 10427 ;;		line 20 in file "F:\BEVERAGES_ENHANCEMENT\SOFTWARE_DESIGN\MASTER_PIC_16F877A\2015_09_13\myitoa.c"
 10428 ;; Parameters:    Size  Location     Type
 10429 ;;  val             2   11[COMMON] int 
 10430 ;;  p               1   13[COMMON] PTR unsigned char 
 10431 ;;		 -> buff(4), 
 10432 ;; Auto vars:     Size  Location     Type
 10433 ;;		None
 10434 ;; Return value:  Size  Location     Type
 10435 ;;		None               void
 10436 ;; Registers used:
 10437 ;;		wreg, fsr0l, fsr0h, status,2, status,0, pclath, cstack
 10438 ;; Tracked objects:
 10439 ;;		On entry : 0/0
 10440 ;;		On exit  : 0/0
 10441 ;;		Unchanged: 0/0
 10442 ;; Data sizes:     COMMON   BANK0   BANK1   BANK3   BANK2
 10443 ;;      Params:         3       0       0       0       0
 10444 ;;      Locals:         0       0       0       0       0
 10445 ;;      Temps:          0       2       0       0       0
 10446 ;;      Totals:         3       2       0       0       0
 10447 ;;Total ram usage:        5 bytes
 10448 ;; Hardware stack levels used:    1
 10449 ;; Hardware stack levels required when called:    2
 10450 ;; This function calls:
 10451 ;;		___awmod
 10452 ;;		___awdiv
 10453 ;;		_rev
 10454 ;; This function is called by:
 10455 ;;		_main
 10456 ;;		_enable_valves
 10457 ;;		_call_control_valve
 10458 ;; This function uses a non-reentrant model
 10459 ;;
 10460                           psect	text853
 10461                           	file	"F:\BEVERAGES_ENHANCEMENT\SOFTWARE_DESIGN\MASTER_PIC_16F877A\2015_09_13\myitoa.c"
 10462                           	line	20
 10463                           	global	__size_of_myitoa
 10464  0051                     	__size_of_myitoa	equ	__end_of_myitoa-_myitoa
 10465                           	
 10466  1014                     _myitoa:	
 10467                           	opt	stack 4
 10468                           ; Regs used in _myitoa: [wreg-fsr0h+status,2+status,0+pclath+cstack]
 10469                           	line	21
 10470                           	
 10471  1014                     l9955:	
 10472                           ;myitoa.c: 21: itoai=0;
 10473  1014  1283               	bcf	status, 5	;RP0=0, select bank0
 10474  1015  1303               	bcf	status, 6	;RP1=0, select bank0
 10475  1016  01C0               	clrf	(_itoai)
 10476                           	line	22
 10477                           ;myitoa.c: 22: while(val)
 10478  1017  2850               	goto	l9963
 10479                           	
 10480  1018                     l1422:	
 10481                           	line	24
 10482                           	
 10483  1018                     l9957:	
 10484                           ;myitoa.c: 23: {
 10485                           ;myitoa.c: 24: *(p+itoai)=(val%10)+0x30;
 10486  1018  300A               	movlw	low(0Ah)
 10487  1019  00F0               	movwf	(?___awmod)
 10488  101A  3000               	movlw	high(0Ah)
 10489  101B  00F1               	movwf	((?___awmod))+1
 10490  101C  087C               	movf	(myitoa@val+1),w
 10491  101D  01F3               	clrf	1+(?___awmod)+02h
 10492  101E  07F3               	addwf	1+(?___awmod)+02h
 10493  101F  087B               	movf	(myitoa@val),w
 10494  1020  01F2               	clrf	0+(?___awmod)+02h
 10495  1021  07F2               	addwf	0+(?___awmod)+02h
 10496                           
 10497  1022  160A  158A  25A3   	fcall	___awmod
              160A  118A         
 10498  1027  0870               	movf	(0+(?___awmod)),w
 10499  1028  3E30               	addlw	030h
 10500  1029  1283               	bcf	status, 5	;RP0=0, select bank0
 10501  102A  1303               	bcf	status, 6	;RP1=0, select bank0
 10502  102B  00CD               	movwf	(??_myitoa+0)+0
 10503  102C  0840               	movf	(_itoai),w
 10504  102D  077D               	addwf	(myitoa@p),w
 10505  102E  00CE               	movwf	(??_myitoa+1)+0
 10506  102F  084E               	movf	0+(??_myitoa+1)+0,w
 10507  1030  0084               	movwf	fsr0
 10508  1031  084D               	movf	(??_myitoa+0)+0,w
 10509  1032  1383               	bcf	status, 7	;select IRP bank0
 10510  1033  0080               	movwf	indf
 10511                           	line	25
 10512                           	
 10513  1034                     l9959:	
 10514                           ;myitoa.c: 25: val=val/10;
 10515  1034  300A               	movlw	low(0Ah)
 10516  1035  00F0               	movwf	(?___awdiv)
 10517  1036  3000               	movlw	high(0Ah)
 10518  1037  00F1               	movwf	((?___awdiv))+1
 10519  1038  087C               	movf	(myitoa@val+1),w
 10520  1039  01F3               	clrf	1+(?___awdiv)+02h
 10521  103A  07F3               	addwf	1+(?___awdiv)+02h
 10522  103B  087B               	movf	(myitoa@val),w
 10523  103C  01F2               	clrf	0+(?___awdiv)+02h
 10524  103D  07F2               	addwf	0+(?___awdiv)+02h
 10525                           
 10526  103E  160A  158A  2609   	fcall	___awdiv
              160A  118A         
 10527  1043  0871               	movf	(1+(?___awdiv)),w
 10528  1044  01FC               	clrf	(myitoa@val+1)
 10529  1045  07FC               	addwf	(myitoa@val+1)
 10530  1046  0870               	movf	(0+(?___awdiv)),w
 10531  1047  01FB               	clrf	(myitoa@val)
 10532  1048  07FB               	addwf	(myitoa@val)
 10533                           
 10534                           	line	26
 10535                           	
 10536  1049                     l9961:	
 10537                           ;myitoa.c: 26: itoai++;
 10538  1049  3001               	movlw	(01h)
 10539  104A  1283               	bcf	status, 5	;RP0=0, select bank0
 10540  104B  1303               	bcf	status, 6	;RP1=0, select bank0
 10541  104C  00CD               	movwf	(??_myitoa+0)+0
 10542  104D  084D               	movf	(??_myitoa+0)+0,w
 10543  104E  07C0               	addwf	(_itoai),f
 10544  104F  2850               	goto	l9963
 10545                           	line	27
 10546                           	
 10547  1050                     l1421:	
 10548                           	line	22
 10549                           	
 10550  1050                     l9963:	
 10551  1050  087C               	movf	((myitoa@val+1)),w
 10552  1051  047B               	iorwf	((myitoa@val)),w
 10553  1052  1D03               	skipz
 10554  1053  2855               	goto	u5751
 10555  1054  2856               	goto	u5750
 10556  1055                     u5751:
 10557  1055  2818               	goto	l9957
 10558  1056                     u5750:
 10559  1056  2857               	goto	l9965
 10560                           	
 10561  1057                     l1423:	
 10562                           	line	28
 10563                           	
 10564  1057                     l9965:	
 10565                           ;myitoa.c: 27: }
 10566                           ;myitoa.c: 28: *(p+itoai)='\0';
 10567  1057  0840               	movf	(_itoai),w
 10568  1058  077D               	addwf	(myitoa@p),w
 10569  1059  00CD               	movwf	(??_myitoa+0)+0
 10570  105A  084D               	movf	0+(??_myitoa+0)+0,w
 10571  105B  0084               	movwf	fsr0
 10572  105C  1383               	bcf	status, 7	;select IRP bank0
 10573  105D  0180               	clrf	indf
 10574                           	line	29
 10575                           	
 10576  105E                     l9967:	
 10577                           ;myitoa.c: 29: rev(p);
 10578  105E  087D               	movf	(myitoa@p),w
 10579  105F  160A  158A  24C2   	fcall	_rev
              160A  118A         
 10580                           	line	30
 10581                           	
 10582  1064                     l1424:	
 10583  1064  0008               	return
 10584                           	opt stack 0
 10585                           GLOBAL	__end_of_myitoa
 10586  1065                     	__end_of_myitoa:
 10587 ;; =============== function _myitoa ends ============
 10588                           
 10589                           	signat	_myitoa,8312
 10590                           	global	_Num_Disp
 10591                           psect	text854,local,class=CODE,delta=2
 10592                           global __ptext854
 10593  1101                     __ptext854:
 10594                           
 10595 ;; *************** function _Num_Disp *****************
 10596 ;; Defined at:
 10597 ;;		line 148 in file "F:\BEVERAGES_ENHANCEMENT\SOFTWARE_DESIGN\MASTER_PIC_16F877A\2015_09_13\lcd.c"
 10598 ;; Parameters:    Size  Location     Type
 10599 ;;  dat             2    7[BANK0 ] unsigned int 
 10600 ;;  digit           1    9[BANK0 ] unsigned char 
 10601 ;;  dot             1   10[BANK0 ] unsigned char 
 10602 ;; Auto vars:     Size  Location     Type
 10603 ;;  temp            2   15[BANK0 ] unsigned int 
 10604 ;;  i               2   13[BANK0 ] unsigned int 
 10605 ;; Return value:  Size  Location     Type
 10606 ;;		None               void
 10607 ;; Registers used:
 10608 ;;		wreg, fsr0l, fsr0h, status,2, status,0, pclath, cstack
 10609 ;; Tracked objects:
 10610 ;;		On entry : 0/0
 10611 ;;		On exit  : 0/0
 10612 ;;		Unchanged: 0/0
 10613 ;; Data sizes:     COMMON   BANK0   BANK1   BANK3   BANK2
 10614 ;;      Params:         0       4       0       0       0
 10615 ;;      Locals:         0       4       0       0       0
 10616 ;;      Temps:          0       2       0       0       0
 10617 ;;      Totals:         0      10       0       0       0
 10618 ;;Total ram usage:       10 bytes
 10619 ;; Hardware stack levels used:    1
 10620 ;; Hardware stack levels required when called:    2
 10621 ;; This function calls:
 10622 ;;		___wmul
 10623 ;;		___lwdiv
 10624 ;;		_Lcd_Data
 10625 ;;		___lwmod
 10626 ;; This function is called by:
 10627 ;;		_enable_valves
 10628 ;;		_change_modes
 10629 ;; This function uses a non-reentrant model
 10630 ;;
 10631                           psect	text854
 10632                           	file	"F:\BEVERAGES_ENHANCEMENT\SOFTWARE_DESIGN\MASTER_PIC_16F877A\2015_09_13\lcd.c"
 10633                           	line	148
 10634                           	global	__size_of_Num_Disp
 10635  010B                     	__size_of_Num_Disp	equ	__end_of_Num_Disp-_Num_Disp
 10636                           	
 10637  1101                     _Num_Disp:	
 10638                           	opt	stack 4
 10639                           ; Regs used in _Num_Disp: [wreg-fsr0h+status,2+status,0+pclath+cstack]
 10640                           	line	149
 10641                           	
 10642  1101                     l9917:	
 10643                           ;lcd.c: 149: unsigned int temp=10,i;
 10644  1101  300A               	movlw	low(0Ah)
 10645  1102  1283               	bcf	status, 5	;RP0=0, select bank0
 10646  1103  1303               	bcf	status, 6	;RP1=0, select bank0
 10647  1104  00D8               	movwf	(Num_Disp@temp)
 10648  1105  3000               	movlw	high(0Ah)
 10649  1106  00D9               	movwf	((Num_Disp@temp))+1
 10650                           	line	150
 10651                           ;lcd.c: 150: for(i=digit;i>2;i--)
 10652  1107  0852               	movf	(Num_Disp@digit),w
 10653  1108  00D4               	movwf	(??_Num_Disp+0)+0
 10654  1109  01D5               	clrf	(??_Num_Disp+0)+0+1
 10655  110A  0854               	movf	0+(??_Num_Disp+0)+0,w
 10656  110B  00D6               	movwf	(Num_Disp@i)
 10657  110C  0855               	movf	1+(??_Num_Disp+0)+0,w
 10658  110D  00D7               	movwf	(Num_Disp@i+1)
 10659  110E  3000               	movlw	high(03h)
 10660  110F  0257               	subwf	(Num_Disp@i+1),w
 10661  1110  3003               	movlw	low(03h)
 10662  1111  1903               	skipnz
 10663  1112  0256               	subwf	(Num_Disp@i),w
 10664  1113  1803               	skipnc
 10665  1114  2916               	goto	u5691
 10666  1115  2917               	goto	u5690
 10667  1116                     u5691:
 10668  1116  2919               	goto	l9921
 10669  1117                     u5690:
 10670  1117  2940               	goto	l9927
 10671                           	
 10672  1118                     l9919:	
 10673  1118  2940               	goto	l9927
 10674                           	line	151
 10675                           	
 10676  1119                     l1401:	
 10677                           	line	152
 10678                           	
 10679  1119                     l9921:	
 10680                           ;lcd.c: 151: {
 10681                           ;lcd.c: 152: temp=temp*10;
 10682  1119  0859               	movf	(Num_Disp@temp+1),w
 10683  111A  01F7               	clrf	(?___wmul+1)
 10684  111B  07F7               	addwf	(?___wmul+1)
 10685  111C  0858               	movf	(Num_Disp@temp),w
 10686  111D  01F6               	clrf	(?___wmul)
 10687  111E  07F6               	addwf	(?___wmul)
 10688                           
 10689  111F  300A               	movlw	low(0Ah)
 10690  1120  00F8               	movwf	0+(?___wmul)+02h
 10691  1121  3000               	movlw	high(0Ah)
 10692  1122  00F9               	movwf	(0+(?___wmul)+02h)+1
 10693  1123  160A  158A  221B   	fcall	___wmul
              160A  118A         
 10694  1128  0877               	movf	(1+(?___wmul)),w
 10695  1129  1283               	bcf	status, 5	;RP0=0, select bank0
 10696  112A  1303               	bcf	status, 6	;RP1=0, select bank0
 10697  112B  01D9               	clrf	(Num_Disp@temp+1)
 10698  112C  07D9               	addwf	(Num_Disp@temp+1)
 10699  112D  0876               	movf	(0+(?___wmul)),w
 10700  112E  01D8               	clrf	(Num_Disp@temp)
 10701  112F  07D8               	addwf	(Num_Disp@temp)
 10702                           
 10703                           	line	150
 10704                           	
 10705  1130                     l9923:	
 10706  1130  3001               	movlw	low(01h)
 10707  1131  02D6               	subwf	(Num_Disp@i),f
 10708  1132  3000               	movlw	high(01h)
 10709  1133  1C03               	skipc
 10710  1134  03D7               	decf	(Num_Disp@i+1),f
 10711  1135  02D7               	subwf	(Num_Disp@i+1),f
 10712                           	
 10713  1136                     l9925:	
 10714  1136  3000               	movlw	high(03h)
 10715  1137  0257               	subwf	(Num_Disp@i+1),w
 10716  1138  3003               	movlw	low(03h)
 10717  1139  1903               	skipnz
 10718  113A  0256               	subwf	(Num_Disp@i),w
 10719  113B  1803               	skipnc
 10720  113C  293E               	goto	u5701
 10721  113D  293F               	goto	u5700
 10722  113E                     u5701:
 10723  113E  2919               	goto	l9921
 10724  113F                     u5700:
 10725  113F  2940               	goto	l9927
 10726                           	
 10727  1140                     l1402:	
 10728                           	line	154
 10729                           	
 10730  1140                     l9927:	
 10731                           ;lcd.c: 153: }
 10732                           ;lcd.c: 154: for(i=digit;i>2;i--,digit--)
 10733  1140  0852               	movf	(Num_Disp@digit),w
 10734  1141  00D4               	movwf	(??_Num_Disp+0)+0
 10735  1142  01D5               	clrf	(??_Num_Disp+0)+0+1
 10736  1143  0854               	movf	0+(??_Num_Disp+0)+0,w
 10737  1144  00D6               	movwf	(Num_Disp@i)
 10738  1145  0855               	movf	1+(??_Num_Disp+0)+0,w
 10739  1146  00D7               	movwf	(Num_Disp@i+1)
 10740  1147  3000               	movlw	high(03h)
 10741  1148  0257               	subwf	(Num_Disp@i+1),w
 10742  1149  3003               	movlw	low(03h)
 10743  114A  1903               	skipnz
 10744  114B  0256               	subwf	(Num_Disp@i),w
 10745  114C  1803               	skipnc
 10746  114D  294F               	goto	u5711
 10747  114E  2950               	goto	u5710
 10748  114F                     u5711:
 10749  114F  2952               	goto	l9931
 10750  1150                     u5710:
 10751  1150  29B3               	goto	l9943
 10752                           	
 10753  1151                     l9929:	
 10754  1151  29B3               	goto	l9943
 10755                           	line	155
 10756                           	
 10757  1152                     l1403:	
 10758                           	line	156
 10759                           	
 10760  1152                     l9931:	
 10761                           ;lcd.c: 155: {
 10762                           ;lcd.c: 156: Lcd_Data(asciitable[dat/temp]);
 10763  1152  0859               	movf	(Num_Disp@temp+1),w
 10764  1153  01CA               	clrf	(?___lwdiv+1)
 10765  1154  07CA               	addwf	(?___lwdiv+1)
 10766  1155  0858               	movf	(Num_Disp@temp),w
 10767  1156  01C9               	clrf	(?___lwdiv)
 10768  1157  07C9               	addwf	(?___lwdiv)
 10769                           
 10770  1158  0851               	movf	(Num_Disp@dat+1),w
 10771  1159  01CC               	clrf	1+(?___lwdiv)+02h
 10772  115A  07CC               	addwf	1+(?___lwdiv)+02h
 10773  115B  0850               	movf	(Num_Disp@dat),w
 10774  115C  01CB               	clrf	0+(?___lwdiv)+02h
 10775  115D  07CB               	addwf	0+(?___lwdiv)+02h
 10776                           
 10777  115E  160A  158A  2553   	fcall	___lwdiv
              160A  118A         
 10778  1163  1283               	bcf	status, 5	;RP0=0, select bank0
 10779  1164  1303               	bcf	status, 6	;RP1=0, select bank0
 10780  1165  0849               	movf	(0+(?___lwdiv)),w
 10781  1166  3EA0               	addlw	_asciitable&0ffh
 10782  1167  0084               	movwf	fsr0
 10783  1168  1383               	bcf	status, 7	;select IRP bank1
 10784  1169  0800               	movf	indf,w
 10785  116A  160A  158A  234D   	fcall	_Lcd_Data
              160A  118A         
 10786                           	line	157
 10787                           	
 10788  116F                     l9933:	
 10789                           ;lcd.c: 157: dat=dat%temp;
 10790  116F  1283               	bcf	status, 5	;RP0=0, select bank0
 10791  1170  1303               	bcf	status, 6	;RP1=0, select bank0
 10792  1171  0859               	movf	(Num_Disp@temp+1),w
 10793  1172  01F1               	clrf	(?___lwmod+1)
 10794  1173  07F1               	addwf	(?___lwmod+1)
 10795  1174  0858               	movf	(Num_Disp@temp),w
 10796  1175  01F0               	clrf	(?___lwmod)
 10797  1176  07F0               	addwf	(?___lwmod)
 10798                           
 10799  1177  0851               	movf	(Num_Disp@dat+1),w
 10800  1178  01F3               	clrf	1+(?___lwmod)+02h
 10801  1179  07F3               	addwf	1+(?___lwmod)+02h
 10802  117A  0850               	movf	(Num_Disp@dat),w
 10803  117B  01F2               	clrf	0+(?___lwmod)+02h
 10804  117C  07F2               	addwf	0+(?___lwmod)+02h
 10805                           
 10806  117D  160A  158A  247E   	fcall	___lwmod
              160A  118A         
 10807  1182  0871               	movf	(1+(?___lwmod)),w
 10808  1183  1283               	bcf	status, 5	;RP0=0, select bank0
 10809  1184  1303               	bcf	status, 6	;RP1=0, select bank0
 10810  1185  01D1               	clrf	(Num_Disp@dat+1)
 10811  1186  07D1               	addwf	(Num_Disp@dat+1)
 10812  1187  0870               	movf	(0+(?___lwmod)),w
 10813  1188  01D0               	clrf	(Num_Disp@dat)
 10814  1189  07D0               	addwf	(Num_Disp@dat)
 10815                           
 10816                           	line	158
 10817                           	
 10818  118A                     l9935:	
 10819                           ;lcd.c: 158: temp=temp/10;
 10820  118A  300A               	movlw	low(0Ah)
 10821  118B  00C9               	movwf	(?___lwdiv)
 10822  118C  3000               	movlw	high(0Ah)
 10823  118D  00CA               	movwf	((?___lwdiv))+1
 10824  118E  0859               	movf	(Num_Disp@temp+1),w
 10825  118F  01CC               	clrf	1+(?___lwdiv)+02h
 10826  1190  07CC               	addwf	1+(?___lwdiv)+02h
 10827  1191  0858               	movf	(Num_Disp@temp),w
 10828  1192  01CB               	clrf	0+(?___lwdiv)+02h
 10829  1193  07CB               	addwf	0+(?___lwdiv)+02h
 10830                           
 10831  1194  160A  158A  2553   	fcall	___lwdiv
              160A  118A         
 10832  1199  1283               	bcf	status, 5	;RP0=0, select bank0
 10833  119A  1303               	bcf	status, 6	;RP1=0, select bank0
 10834  119B  084A               	movf	(1+(?___lwdiv)),w
 10835  119C  01D9               	clrf	(Num_Disp@temp+1)
 10836  119D  07D9               	addwf	(Num_Disp@temp+1)
 10837  119E  0849               	movf	(0+(?___lwdiv)),w
 10838  119F  01D8               	clrf	(Num_Disp@temp)
 10839  11A0  07D8               	addwf	(Num_Disp@temp)
 10840                           
 10841                           	line	154
 10842                           	
 10843  11A1                     l9937:	
 10844  11A1  3001               	movlw	low(01h)
 10845  11A2  02D6               	subwf	(Num_Disp@i),f
 10846  11A3  3000               	movlw	high(01h)
 10847  11A4  1C03               	skipc
 10848  11A5  03D7               	decf	(Num_Disp@i+1),f
 10849  11A6  02D7               	subwf	(Num_Disp@i+1),f
 10850                           	
 10851  11A7                     l9939:	
 10852  11A7  3001               	movlw	low(01h)
 10853  11A8  02D2               	subwf	(Num_Disp@digit),f
 10854                           	
 10855  11A9                     l9941:	
 10856  11A9  3000               	movlw	high(03h)
 10857  11AA  0257               	subwf	(Num_Disp@i+1),w
 10858  11AB  3003               	movlw	low(03h)
 10859  11AC  1903               	skipnz
 10860  11AD  0256               	subwf	(Num_Disp@i),w
 10861  11AE  1803               	skipnc
 10862  11AF  29B1               	goto	u5721
 10863  11B0  29B2               	goto	u5720
 10864  11B1                     u5721:
 10865  11B1  2952               	goto	l9931
 10866  11B2                     u5720:
 10867  11B2  29B3               	goto	l9943
 10868                           	
 10869  11B3                     l1404:	
 10870                           	line	160
 10871                           	
 10872  11B3                     l9943:	
 10873                           ;lcd.c: 159: }
 10874                           ;lcd.c: 160: if(digit<3)
 10875  11B3  3003               	movlw	(03h)
 10876  11B4  0252               	subwf	(Num_Disp@digit),w
 10877  11B5  1803               	skipnc
 10878  11B6  29B8               	goto	u5731
 10879  11B7  29B9               	goto	u5730
 10880  11B8                     u5731:
 10881  11B8  2A0B               	goto	l1407
 10882  11B9                     u5730:
 10883                           	line	162
 10884                           	
 10885  11B9                     l9945:	
 10886                           ;lcd.c: 161: {
 10887                           ;lcd.c: 162: Lcd_Data(asciitable[dat/temp]);
 10888  11B9  0859               	movf	(Num_Disp@temp+1),w
 10889  11BA  01CA               	clrf	(?___lwdiv+1)
 10890  11BB  07CA               	addwf	(?___lwdiv+1)
 10891  11BC  0858               	movf	(Num_Disp@temp),w
 10892  11BD  01C9               	clrf	(?___lwdiv)
 10893  11BE  07C9               	addwf	(?___lwdiv)
 10894                           
 10895  11BF  0851               	movf	(Num_Disp@dat+1),w
 10896  11C0  01CC               	clrf	1+(?___lwdiv)+02h
 10897  11C1  07CC               	addwf	1+(?___lwdiv)+02h
 10898  11C2  0850               	movf	(Num_Disp@dat),w
 10899  11C3  01CB               	clrf	0+(?___lwdiv)+02h
 10900  11C4  07CB               	addwf	0+(?___lwdiv)+02h
 10901                           
 10902  11C5  160A  158A  2553   	fcall	___lwdiv
              160A  118A         
 10903  11CA  1283               	bcf	status, 5	;RP0=0, select bank0
 10904  11CB  1303               	bcf	status, 6	;RP1=0, select bank0
 10905  11CC  0849               	movf	(0+(?___lwdiv)),w
 10906  11CD  3EA0               	addlw	_asciitable&0ffh
 10907  11CE  0084               	movwf	fsr0
 10908  11CF  1383               	bcf	status, 7	;select IRP bank1
 10909  11D0  0800               	movf	indf,w
 10910  11D1  160A  158A  234D   	fcall	_Lcd_Data
              160A  118A         
 10911                           	line	163
 10912                           	
 10913  11D6                     l9947:	
 10914                           ;lcd.c: 163: dat=dat%temp;
 10915  11D6  1283               	bcf	status, 5	;RP0=0, select bank0
 10916  11D7  1303               	bcf	status, 6	;RP1=0, select bank0
 10917  11D8  0859               	movf	(Num_Disp@temp+1),w
 10918  11D9  01F1               	clrf	(?___lwmod+1)
 10919  11DA  07F1               	addwf	(?___lwmod+1)
 10920  11DB  0858               	movf	(Num_Disp@temp),w
 10921  11DC  01F0               	clrf	(?___lwmod)
 10922  11DD  07F0               	addwf	(?___lwmod)
 10923                           
 10924  11DE  0851               	movf	(Num_Disp@dat+1),w
 10925  11DF  01F3               	clrf	1+(?___lwmod)+02h
 10926  11E0  07F3               	addwf	1+(?___lwmod)+02h
 10927  11E1  0850               	movf	(Num_Disp@dat),w
 10928  11E2  01F2               	clrf	0+(?___lwmod)+02h
 10929  11E3  07F2               	addwf	0+(?___lwmod)+02h
 10930                           
 10931  11E4  160A  158A  247E   	fcall	___lwmod
              160A  118A         
 10932  11E9  0871               	movf	(1+(?___lwmod)),w
 10933  11EA  1283               	bcf	status, 5	;RP0=0, select bank0
 10934  11EB  1303               	bcf	status, 6	;RP1=0, select bank0
 10935  11EC  01D1               	clrf	(Num_Disp@dat+1)
 10936  11ED  07D1               	addwf	(Num_Disp@dat+1)
 10937  11EE  0870               	movf	(0+(?___lwmod)),w
 10938  11EF  01D0               	clrf	(Num_Disp@dat)
 10939  11F0  07D0               	addwf	(Num_Disp@dat)
 10940                           
 10941                           	line	164
 10942                           	
 10943  11F1                     l9949:	
 10944                           ;lcd.c: 164: if(dot==1)
 10945  11F1  0853               	movf	(Num_Disp@dot),w
 10946  11F2  3A01               	xorlw	01h
 10947  11F3  1D03               	skipz
 10948  11F4  29F6               	goto	u5741
 10949  11F5  29F7               	goto	u5740
 10950  11F6                     u5741:
 10951  11F6  29FE               	goto	l9953
 10952  11F7                     u5740:
 10953                           	line	166
 10954                           	
 10955  11F7                     l9951:	
 10956                           ;lcd.c: 165: {
 10957                           ;lcd.c: 166: Lcd_Data('.');
 10958  11F7  302E               	movlw	(02Eh)
 10959  11F8  160A  158A  234D   	fcall	_Lcd_Data
              160A  118A         
 10960  11FD  29FE               	goto	l9953
 10961                           	line	167
 10962                           	
 10963  11FE                     l1406:	
 10964                           	line	168
 10965                           	
 10966  11FE                     l9953:	
 10967                           ;lcd.c: 167: }
 10968                           ;lcd.c: 168: Lcd_Data(asciitable[dat]);
 10969  11FE  1283               	bcf	status, 5	;RP0=0, select bank0
 10970  11FF  1303               	bcf	status, 6	;RP1=0, select bank0
 10971  1200  0850               	movf	(Num_Disp@dat),w
 10972  1201  3EA0               	addlw	_asciitable&0ffh
 10973  1202  0084               	movwf	fsr0
 10974  1203  1383               	bcf	status, 7	;select IRP bank1
 10975  1204  0800               	movf	indf,w
 10976  1205  160A  158A  234D   	fcall	_Lcd_Data
              160A  118A         
 10977  120A  2A0B               	goto	l1407
 10978                           	line	169
 10979                           	
 10980  120B                     l1405:	
 10981                           	line	170
 10982                           	
 10983  120B                     l1407:	
 10984  120B  0008               	return
 10985                           	opt stack 0
 10986                           GLOBAL	__end_of_Num_Disp
 10987  120C                     	__end_of_Num_Disp:
 10988 ;; =============== function _Num_Disp ends ============
 10989                           
 10990                           	signat	_Num_Disp,12408
 10991                           	global	_Lcd_String
 10992                           psect	text855,local,class=CODE,delta=2
 10993                           global __ptext855
 10994  1D09                     __ptext855:
 10995                           
 10996 ;; *************** function _Lcd_String *****************
 10997 ;; Defined at:
 10998 ;;		line 136 in file "F:\BEVERAGES_ENHANCEMENT\SOFTWARE_DESIGN\MASTER_PIC_16F877A\2015_09_13\lcd.c"
 10999 ;; Parameters:    Size  Location     Type
 11000 ;;  st              2    5[BANK0 ] PTR const unsigned char 
 11001 ;;		 -> STR_30(12), STR_29(10), STR_28(6), STR_27(10), 
 11002 ;;		 -> STR_26(6), STR_25(15), STR_24(12), STR_23(6), 
 11003 ;;		 -> STR_22(13), STR_21(6), STR_20(16), STR_19(6), 
 11004 ;;		 -> STR_18(10), STR_17(7), STR_16(15), STR_15(11), 
 11005 ;;		 -> STR_14(9), STR_13(12), STR_12(9), STR_11(14), 
 11006 ;;		 -> STR_10(14), STR_9(13), STR_8(15), STR_7(16), 
 11007 ;;		 -> STR_6(17), STR_5(4), STR_4(6), STR_3(6), 
 11008 ;;		 -> STR_2(17), STR_1(16), buff(4), 
 11009 ;;  clear           1    7[BANK0 ] unsigned char 
 11010 ;;  second_line     1    8[BANK0 ] unsigned char 
 11011 ;; Auto vars:     Size  Location     Type
 11012 ;;		None
 11013 ;; Return value:  Size  Location     Type
 11014 ;;		None               void
 11015 ;; Registers used:
 11016 ;;		wreg, fsr0l, fsr0h, status,2, status,0, btemp+1, pclath, cstack
 11017 ;; Tracked objects:
 11018 ;;		On entry : 0/0
 11019 ;;		On exit  : 0/0
 11020 ;;		Unchanged: 0/0
 11021 ;; Data sizes:     COMMON   BANK0   BANK1   BANK3   BANK2
 11022 ;;      Params:         0       4       0       0       0
 11023 ;;      Locals:         0       0       0       0       0
 11024 ;;      Temps:          0       0       0       0       0
 11025 ;;      Totals:         0       4       0       0       0
 11026 ;;Total ram usage:        4 bytes
 11027 ;; Hardware stack levels used:    1
 11028 ;; Hardware stack levels required when called:    2
 11029 ;; This function calls:
 11030 ;;		_Lcd_Cmd
 11031 ;;		_Lcd_Data
 11032 ;; This function is called by:
 11033 ;;		_main
 11034 ;;		_enable_valves
 11035 ;;		_change_modes
 11036 ;;		_call_control_valve
 11037 ;; This function uses a non-reentrant model
 11038 ;;
 11039                           psect	text855
 11040                           	file	"F:\BEVERAGES_ENHANCEMENT\SOFTWARE_DESIGN\MASTER_PIC_16F877A\2015_09_13\lcd.c"
 11041                           	line	136
 11042                           	global	__size_of_Lcd_String
 11043  004A                     	__size_of_Lcd_String	equ	__end_of_Lcd_String-_Lcd_String
 11044                           	
 11045  1D09                     _Lcd_String:	
 11046                           	opt	stack 4
 11047                           ; Regs used in _Lcd_String: [wreg-fsr0h+status,2+status,0+btemp+1+pclath+cstack]
 11048                           	line	137
 11049                           	
 11050  1D09                     l9903:	
 11051                           ;lcd.c: 137: if(clear==1)
 11052  1D09  1283               	bcf	status, 5	;RP0=0, select bank0
 11053  1D0A  1303               	bcf	status, 6	;RP1=0, select bank0
 11054  1D0B  0850               	movf	(Lcd_String@clear),w
 11055  1D0C  3A01               	xorlw	01h
 11056  1D0D  1D03               	skipz
 11057  1D0E  2D10               	goto	u5661
 11058  1D0F  2D11               	goto	u5660
 11059  1D10                     u5661:
 11060  1D10  2D18               	goto	l9907
 11061  1D11                     u5660:
 11062                           	line	138
 11063                           	
 11064  1D11                     l9905:	
 11065                           ;lcd.c: 138: Lcd_Cmd(0x01);
 11066  1D11  3001               	movlw	(01h)
 11067  1D12  160A  158A  2314   	fcall	_Lcd_Cmd
              160A  158A         
 11068  1D17  2D18               	goto	l9907
 11069                           	
 11070  1D18                     l1393:	
 11071                           	line	139
 11072                           	
 11073  1D18                     l9907:	
 11074                           ;lcd.c: 139: if(second_line==1)
 11075  1D18  1283               	bcf	status, 5	;RP0=0, select bank0
 11076  1D19  1303               	bcf	status, 6	;RP1=0, select bank0
 11077  1D1A  0851               	movf	(Lcd_String@second_line),w
 11078  1D1B  3A01               	xorlw	01h
 11079  1D1C  1D03               	skipz
 11080  1D1D  2D1F               	goto	u5671
 11081  1D1E  2D20               	goto	u5670
 11082  1D1F                     u5671:
 11083  1D1F  2D41               	goto	l9915
 11084  1D20                     u5670:
 11085                           	line	140
 11086                           	
 11087  1D20                     l9909:	
 11088                           ;lcd.c: 140: Lcd_Cmd(0xC0);
 11089  1D20  30C0               	movlw	(0C0h)
 11090  1D21  160A  158A  2314   	fcall	_Lcd_Cmd
              160A  158A         
 11091  1D26  2D41               	goto	l9915
 11092                           	
 11093  1D27                     l1394:	
 11094                           	line	141
 11095                           ;lcd.c: 141: while(*st)
 11096  1D27  2D41               	goto	l9915
 11097                           	
 11098  1D28                     l1396:	
 11099                           	line	143
 11100                           	
 11101  1D28                     l9911:	
 11102                           ;lcd.c: 142: {
 11103                           ;lcd.c: 143: Lcd_Data(*st++);
 11104  1D28  1283               	bcf	status, 5	;RP0=0, select bank0
 11105  1D29  1303               	bcf	status, 6	;RP1=0, select bank0
 11106  1D2A  084F               	movf	(Lcd_String@st+1),w
 11107  1D2B  00FF               	movwf	btemp+1
 11108  1D2C  084E               	movf	(Lcd_String@st),w
 11109  1D2D  0084               	movwf	fsr0
 11110  1D2E  160A  158A  210D   	fcall	stringtab
              160A  158A         
 11111  1D33  160A  158A  234D   	fcall	_Lcd_Data
              160A  158A         
 11112                           	
 11113  1D38                     l9913:	
 11114  1D38  3001               	movlw	low(01h)
 11115  1D39  1283               	bcf	status, 5	;RP0=0, select bank0
 11116  1D3A  1303               	bcf	status, 6	;RP1=0, select bank0
 11117  1D3B  07CE               	addwf	(Lcd_String@st),f
 11118  1D3C  1803               	skipnc
 11119  1D3D  0ACF               	incf	(Lcd_String@st+1),f
 11120  1D3E  3000               	movlw	high(01h)
 11121  1D3F  07CF               	addwf	(Lcd_String@st+1),f
 11122  1D40  2D41               	goto	l9915
 11123                           	line	144
 11124                           	
 11125  1D41                     l1395:	
 11126                           	line	141
 11127                           	
 11128  1D41                     l9915:	
 11129  1D41  1283               	bcf	status, 5	;RP0=0, select bank0
 11130  1D42  1303               	bcf	status, 6	;RP1=0, select bank0
 11131  1D43  084F               	movf	(Lcd_String@st+1),w
 11132  1D44  00FF               	movwf	btemp+1
 11133  1D45  084E               	movf	(Lcd_String@st),w
 11134  1D46  0084               	movwf	fsr0
 11135  1D47  160A  158A  210D   	fcall	stringtab
              160A  158A         
 11136  1D4C  3800               	iorlw	0
 11137  1D4D  1D03               	skipz
 11138  1D4E  2D50               	goto	u5681
 11139  1D4F  2D51               	goto	u5680
 11140  1D50                     u5681:
 11141  1D50  2D28               	goto	l9911
 11142  1D51                     u5680:
 11143  1D51  2D52               	goto	l1398
 11144                           	
 11145  1D52                     l1397:	
 11146                           	line	145
 11147                           	
 11148  1D52                     l1398:	
 11149  1D52  0008               	return
 11150                           	opt stack 0
 11151                           GLOBAL	__end_of_Lcd_String
 11152  1D53                     	__end_of_Lcd_String:
 11153 ;; =============== function _Lcd_String ends ============
 11154                           
 11155                           	signat	_Lcd_String,12408
 11156                           	global	_Lcd_Init
 11157                           psect	text856,local,class=CODE,delta=2
 11158                           global __ptext856
 11159  0004                     __ptext856:
 11160                           
 11161 ;; *************** function _Lcd_Init *****************
 11162 ;; Defined at:
 11163 ;;		line 92 in file "F:\BEVERAGES_ENHANCEMENT\SOFTWARE_DESIGN\MASTER_PIC_16F877A\2015_09_13\lcd.c"
 11164 ;; Parameters:    Size  Location     Type
 11165 ;;		None
 11166 ;; Auto vars:     Size  Location     Type
 11167 ;;		None
 11168 ;; Return value:  Size  Location     Type
 11169 ;;		None               void
 11170 ;; Registers used:
 11171 ;;		wreg, status,2, status,0, pclath, cstack
 11172 ;; Tracked objects:
 11173 ;;		On entry : 0/0
 11174 ;;		On exit  : 0/0
 11175 ;;		Unchanged: 0/0
 11176 ;; Data sizes:     COMMON   BANK0   BANK1   BANK3   BANK2
 11177 ;;      Params:         0       0       0       0       0
 11178 ;;      Locals:         0       0       0       0       0
 11179 ;;      Temps:          0       0       0       0       0
 11180 ;;      Totals:         0       0       0       0       0
 11181 ;;Total ram usage:        0 bytes
 11182 ;; Hardware stack levels used:    1
 11183 ;; Hardware stack levels required when called:    2
 11184 ;; This function calls:
 11185 ;;		_Lcd_Cmd
 11186 ;;		_DelayMs
 11187 ;; This function is called by:
 11188 ;;		_main
 11189 ;; This function uses a non-reentrant model
 11190 ;;
 11191                           psect	text856
 11192                           	file	"F:\BEVERAGES_ENHANCEMENT\SOFTWARE_DESIGN\MASTER_PIC_16F877A\2015_09_13\lcd.c"
 11193                           	line	92
 11194                           	global	__size_of_Lcd_Init
 11195  004C                     	__size_of_Lcd_Init	equ	__end_of_Lcd_Init-_Lcd_Init
 11196                           	
 11197  0004                     _Lcd_Init:	
 11198                           	opt	stack 5
 11199                           ; Regs used in _Lcd_Init: [wreg+status,2+status,0+pclath+cstack]
 11200                           	line	93
 11201                           	
 11202  0004                     l9901:	
 11203                           ;lcd.c: 93: Lcd_Cmd(0x28);
 11204  0004  3028               	movlw	(028h)
 11205  0005  160A  158A  2314   	fcall	_Lcd_Cmd
              120A  118A         
 11206                           	line	94
 11207                           ;lcd.c: 94: DelayMs(2);
 11208  000A  3002               	movlw	low(02h)
 11209  000B  00FC               	movwf	(?_DelayMs)
 11210  000C  3000               	movlw	high(02h)
 11211  000D  00FD               	movwf	((?_DelayMs))+1
 11212  000E  160A  158A  21F3   	fcall	_DelayMs
              120A  118A         
 11213                           	line	95
 11214                           ;lcd.c: 95: Lcd_Cmd(0x0E);
 11215  0013  300E               	movlw	(0Eh)
 11216  0014  160A  158A  2314   	fcall	_Lcd_Cmd
              120A  118A         
 11217                           	line	96
 11218                           ;lcd.c: 96: DelayMs(2);
 11219  0019  3002               	movlw	low(02h)
 11220  001A  00FC               	movwf	(?_DelayMs)
 11221  001B  3000               	movlw	high(02h)
 11222  001C  00FD               	movwf	((?_DelayMs))+1
 11223  001D  160A  158A  21F3   	fcall	_DelayMs
              120A  118A         
 11224                           	line	97
 11225                           ;lcd.c: 97: Lcd_Cmd(0x06);
 11226  0022  3006               	movlw	(06h)
 11227  0023  160A  158A  2314   	fcall	_Lcd_Cmd
              120A  118A         
 11228                           	line	98
 11229                           ;lcd.c: 98: DelayMs(2);
 11230  0028  3002               	movlw	low(02h)
 11231  0029  00FC               	movwf	(?_DelayMs)
 11232  002A  3000               	movlw	high(02h)
 11233  002B  00FD               	movwf	((?_DelayMs))+1
 11234  002C  160A  158A  21F3   	fcall	_DelayMs
              120A  118A         
 11235                           	line	99
 11236                           ;lcd.c: 99: Lcd_Cmd(0x01);
 11237  0031  3001               	movlw	(01h)
 11238  0032  160A  158A  2314   	fcall	_Lcd_Cmd
              120A  118A         
 11239                           	line	100
 11240                           ;lcd.c: 100: DelayMs(2);
 11241  0037  3002               	movlw	low(02h)
 11242  0038  00FC               	movwf	(?_DelayMs)
 11243  0039  3000               	movlw	high(02h)
 11244  003A  00FD               	movwf	((?_DelayMs))+1
 11245  003B  160A  158A  21F3   	fcall	_DelayMs
              120A  118A         
 11246                           	line	101
 11247                           ;lcd.c: 101: Lcd_Cmd(0x0C);
 11248  0040  300C               	movlw	(0Ch)
 11249  0041  160A  158A  2314   	fcall	_Lcd_Cmd
              120A  118A         
 11250                           	line	102
 11251                           ;lcd.c: 102: DelayMs(2);
 11252  0046  3002               	movlw	low(02h)
 11253  0047  00FC               	movwf	(?_DelayMs)
 11254  0048  3000               	movlw	high(02h)
 11255  0049  00FD               	movwf	((?_DelayMs))+1
 11256  004A  160A  158A  21F3   	fcall	_DelayMs
              120A  118A         
 11257                           	line	103
 11258                           	
 11259  004F                     l1384:	
 11260  004F  0008               	return
 11261                           	opt stack 0
 11262                           GLOBAL	__end_of_Lcd_Init
 11263  0050                     	__end_of_Lcd_Init:
 11264 ;; =============== function _Lcd_Init ends ============
 11265                           
 11266                           	signat	_Lcd_Init,88
 11267                           	global	_control_valve
 11268                           psect	text857,local,class=CODE,delta=2
 11269                           global __ptext857
 11270  1C3B                     __ptext857:
 11271                           
 11272 ;; *************** function _control_valve *****************
 11273 ;; Defined at:
 11274 ;;		line 1026 in file "F:\BEVERAGES_ENHANCEMENT\SOFTWARE_DESIGN\MASTER_PIC_16F877A\2015_09_13\Beverage_services.c"
 11275 ;; Parameters:    Size  Location     Type
 11276 ;;  load_time       2    3[BANK0 ] unsigned int 
 11277 ;;  delay_time      2    5[BANK0 ] unsigned int 
 11278 ;; Auto vars:     Size  Location     Type
 11279 ;;		None
 11280 ;; Return value:  Size  Location     Type
 11281 ;;		None               void
 11282 ;; Registers used:
 11283 ;;		wreg, fsr0l, fsr0h, status,2, status,0, pclath, cstack
 11284 ;; Tracked objects:
 11285 ;;		On entry : 0/0
 11286 ;;		On exit  : 0/0
 11287 ;;		Unchanged: 0/0
 11288 ;; Data sizes:     COMMON   BANK0   BANK1   BANK3   BANK2
 11289 ;;      Params:         0       4       0       0       0
 11290 ;;      Locals:         0       0       0       0       0
 11291 ;;      Temps:          0       0       0       0       0
 11292 ;;      Totals:         0       4       0       0       0
 11293 ;;Total ram usage:        4 bytes
 11294 ;; Hardware stack levels used:    1
 11295 ;; Hardware stack levels required when called:    1
 11296 ;; This function calls:
 11297 ;;		_onthevalve
 11298 ;;		___wmul
 11299 ;;		_DelayMs
 11300 ;;		_offthevalve
 11301 ;; This function is called by:
 11302 ;;		_call_control_valve
 11303 ;; This function uses a non-reentrant model
 11304 ;;
 11305                           psect	text857
 11306                           	file	"F:\BEVERAGES_ENHANCEMENT\SOFTWARE_DESIGN\MASTER_PIC_16F877A\2015_09_13\Beverage_s
                                 ervices.c"
 11307                           	line	1026
 11308                           	global	__size_of_control_valve
 11309  0043                     	__size_of_control_valve	equ	__end_of_control_valve-_control_valve
 11310                           	
 11311  1C3B                     _control_valve:	
 11312                           	opt	stack 4
 11313                           ; Regs used in _control_valve: [wreg-fsr0h+status,2+status,0+pclath+cstack]
 11314                           	line	1027
 11315                           	
 11316  1C3B                     l9895:	
 11317                           ;Beverage_services.c: 1027: onthevalve();
 11318  1C3B  160A  158A  23C0   	fcall	_onthevalve
              160A  158A         
 11319                           	line	1031
 11320                           	
 11321  1C40                     l9897:	
 11322                           ;Beverage_services.c: 1031: DelayMs(load_time*100);
 11323  1C40  1283               	bcf	status, 5	;RP0=0, select bank0
 11324  1C41  1303               	bcf	status, 6	;RP1=0, select bank0
 11325  1C42  084D               	movf	(control_valve@load_time+1),w
 11326  1C43  01F7               	clrf	(?___wmul+1)
 11327  1C44  07F7               	addwf	(?___wmul+1)
 11328  1C45  084C               	movf	(control_valve@load_time),w
 11329  1C46  01F6               	clrf	(?___wmul)
 11330  1C47  07F6               	addwf	(?___wmul)
 11331                           
 11332  1C48  3064               	movlw	low(064h)
 11333  1C49  00F8               	movwf	0+(?___wmul)+02h
 11334  1C4A  3000               	movlw	high(064h)
 11335  1C4B  00F9               	movwf	(0+(?___wmul)+02h)+1
 11336  1C4C  160A  158A  221B   	fcall	___wmul
              160A  158A         
 11337  1C51  0877               	movf	(1+(?___wmul)),w
 11338  1C52  01FD               	clrf	(?_DelayMs+1)
 11339  1C53  07FD               	addwf	(?_DelayMs+1)
 11340  1C54  0876               	movf	(0+(?___wmul)),w
 11341  1C55  01FC               	clrf	(?_DelayMs)
 11342  1C56  07FC               	addwf	(?_DelayMs)
 11343                           
 11344  1C57  160A  158A  21F3   	fcall	_DelayMs
              160A  158A         
 11345                           	line	1033
 11346                           	
 11347  1C5C                     l9899:	
 11348                           ;Beverage_services.c: 1033: offthevalve();
 11349  1C5C  160A  158A  2386   	fcall	_offthevalve
              160A  158A         
 11350                           	line	1037
 11351                           ;Beverage_services.c: 1037: DelayMs(delay_time*100);
 11352  1C61  1283               	bcf	status, 5	;RP0=0, select bank0
 11353  1C62  1303               	bcf	status, 6	;RP1=0, select bank0
 11354  1C63  084F               	movf	(control_valve@delay_time+1),w
 11355  1C64  01F7               	clrf	(?___wmul+1)
 11356  1C65  07F7               	addwf	(?___wmul+1)
 11357  1C66  084E               	movf	(control_valve@delay_time),w
 11358  1C67  01F6               	clrf	(?___wmul)
 11359  1C68  07F6               	addwf	(?___wmul)
 11360                           
 11361  1C69  3064               	movlw	low(064h)
 11362  1C6A  00F8               	movwf	0+(?___wmul)+02h
 11363  1C6B  3000               	movlw	high(064h)
 11364  1C6C  00F9               	movwf	(0+(?___wmul)+02h)+1
 11365  1C6D  160A  158A  221B   	fcall	___wmul
              160A  158A         
 11366  1C72  0877               	movf	(1+(?___wmul)),w
 11367  1C73  01FD               	clrf	(?_DelayMs+1)
 11368  1C74  07FD               	addwf	(?_DelayMs+1)
 11369  1C75  0876               	movf	(0+(?___wmul)),w
 11370  1C76  01FC               	clrf	(?_DelayMs)
 11371  1C77  07FC               	addwf	(?_DelayMs)
 11372                           
 11373  1C78  160A  158A  21F3   	fcall	_DelayMs
              160A  158A         
 11374                           	line	1038
 11375                           	
 11376  1C7D                     l3391:	
 11377  1C7D  0008               	return
 11378                           	opt stack 0
 11379                           GLOBAL	__end_of_control_valve
 11380  1C7E                     	__end_of_control_valve:
 11381 ;; =============== function _control_valve ends ============
 11382                           
 11383                           	signat	_control_valve,8312
 11384                           	global	_count_read
 11385                           psect	text858,local,class=CODE,delta=2
 11386                           global __ptext858
 11387  1AA7                     __ptext858:
 11388                           
 11389 ;; *************** function _count_read *****************
 11390 ;; Defined at:
 11391 ;;		line 1131 in file "F:\BEVERAGES_ENHANCEMENT\SOFTWARE_DESIGN\MASTER_PIC_16F877A\2015_09_13\Beverage_services.c"
 11392 ;; Parameters:    Size  Location     Type
 11393 ;;  addr1           1    wreg     unsigned char 
 11394 ;;  addr2           1   12[COMMON] unsigned char 
 11395 ;; Auto vars:     Size  Location     Type
 11396 ;;  addr1           1    5[BANK0 ] unsigned char 
 11397 ;; Return value:  Size  Location     Type
 11398 ;;                  2   12[COMMON] int 
 11399 ;; Registers used:
 11400 ;;		wreg, status,2, status,0, pclath, cstack
 11401 ;; Tracked objects:
 11402 ;;		On entry : 0/0
 11403 ;;		On exit  : 0/0
 11404 ;;		Unchanged: 0/0
 11405 ;; Data sizes:     COMMON   BANK0   BANK1   BANK3   BANK2
 11406 ;;      Params:         2       0       0       0       0
 11407 ;;      Locals:         0       1       0       0       0
 11408 ;;      Temps:          0       5       0       0       0
 11409 ;;      Totals:         2       6       0       0       0
 11410 ;;Total ram usage:        8 bytes
 11411 ;; Hardware stack levels used:    1
 11412 ;; Hardware stack levels required when called:    1
 11413 ;; This function calls:
 11414 ;;		_eeprom_read
 11415 ;;		___wmul
 11416 ;; This function is called by:
 11417 ;;		_enable_valves
 11418 ;;		_change_modes
 11419 ;; This function uses a non-reentrant model
 11420 ;;
 11421                           psect	text858
 11422                           	file	"F:\BEVERAGES_ENHANCEMENT\SOFTWARE_DESIGN\MASTER_PIC_16F877A\2015_09_13\Beverage_s
                                 ervices.c"
 11423                           	line	1131
 11424                           	global	__size_of_count_read
 11425  0035                     	__size_of_count_read	equ	__end_of_count_read-_count_read
 11426                           	
 11427  1AA7                     _count_read:	
 11428                           	opt	stack 5
 11429                           ; Regs used in _count_read: [wreg+status,2+status,0+pclath+cstack]
 11430                           ;count_read@addr1 stored from wreg
 11431  1AA7  1283               	bcf	status, 5	;RP0=0, select bank0
 11432  1AA8  1303               	bcf	status, 6	;RP1=0, select bank0
 11433  1AA9  00CE               	movwf	(count_read@addr1)
 11434                           	line	1132
 11435                           	
 11436  1AAA                     l9891:	
 11437                           ;Beverage_services.c: 1132: return (eeprom_read(addr2)*255)+eeprom_read(addr1);
 11438  1AAA  084E               	movf	(count_read@addr1),w
 11439  1AAB  00C9               	movwf	(??_count_read+0)+0
 11440  1AAC  0849               	movf	(??_count_read+0)+0,w
 11441  1AAD  00F4               	movwf	(?_eeprom_read)
 11442  1AAE  160A  158A  21B7   	fcall	_eeprom_read
              160A  158A         
 11443  1AB3  1283               	bcf	status, 5	;RP0=0, select bank0
 11444  1AB4  1303               	bcf	status, 6	;RP1=0, select bank0
 11445  1AB5  00CA               	movwf	(??_count_read+1)+0
 11446  1AB6  087C               	movf	(count_read@addr2),w
 11447  1AB7  00CB               	movwf	(??_count_read+2)+0
 11448  1AB8  084B               	movf	(??_count_read+2)+0,w
 11449  1AB9  00F4               	movwf	(?_eeprom_read)
 11450  1ABA  160A  158A  21B7   	fcall	_eeprom_read
              160A  158A         
 11451  1ABF  1283               	bcf	status, 5	;RP0=0, select bank0
 11452  1AC0  1303               	bcf	status, 6	;RP1=0, select bank0
 11453  1AC1  00CC               	movwf	(??_count_read+3)+0
 11454  1AC2  01CD               	clrf	(??_count_read+3)+0+1
 11455  1AC3  084C               	movf	0+(??_count_read+3)+0,w
 11456  1AC4  00F6               	movwf	(?___wmul)
 11457  1AC5  084D               	movf	1+(??_count_read+3)+0,w
 11458  1AC6  00F7               	movwf	(?___wmul+1)
 11459  1AC7  30FF               	movlw	low(0FFh)
 11460  1AC8  00F8               	movwf	0+(?___wmul)+02h
 11461  1AC9  3000               	movlw	high(0FFh)
 11462  1ACA  00F9               	movwf	(0+(?___wmul)+02h)+1
 11463  1ACB  160A  158A  221B   	fcall	___wmul
              160A  158A         
 11464  1AD0  1283               	bcf	status, 5	;RP0=0, select bank0
 11465  1AD1  1303               	bcf	status, 6	;RP1=0, select bank0
 11466  1AD2  084A               	movf	0+(??_count_read+1)+0,w
 11467  1AD3  0776               	addwf	(0+(?___wmul)),w
 11468  1AD4  00FC               	movwf	(?_count_read)
 11469  1AD5  3000               	movlw	0
 11470  1AD6  1803               	skipnc
 11471  1AD7  3001               	movlw	1
 11472  1AD8  0777               	addwf	(1+(?___wmul)),w
 11473  1AD9  00FD               	movwf	1+(?_count_read)
 11474  1ADA  2ADB               	goto	l3429
 11475                           	
 11476  1ADB                     l9893:	
 11477                           	line	1133
 11478                           	
 11479  1ADB                     l3429:	
 11480  1ADB  0008               	return
 11481                           	opt stack 0
 11482                           GLOBAL	__end_of_count_read
 11483  1ADC                     	__end_of_count_read:
 11484 ;; =============== function _count_read ends ============
 11485                           
 11486                           	signat	_count_read,8314
 11487                           	global	_Write_ValveIn_Memory
 11488                           psect	text859,local,class=CODE,delta=2
 11489                           global __ptext859
 11490  1EF1                     __ptext859:
 11491                           
 11492 ;; *************** function _Write_ValveIn_Memory *****************
 11493 ;; Defined at:
 11494 ;;		line 1136 in file "F:\BEVERAGES_ENHANCEMENT\SOFTWARE_DESIGN\MASTER_PIC_16F877A\2015_09_13\Beverage_services.c"
 11495 ;; Parameters:    Size  Location     Type
 11496 ;;  VALVE           1    wreg     struct item
 11497 ;;  loc             1    9[COMMON] unsigned char 
 11498 ;; Auto vars:     Size  Location     Type
 11499 ;;  VALVE           1   10[BANK0 ] struct item
 11500 ;;  chr             1   11[BANK0 ] unsigned char 
 11501 ;; Return value:  Size  Location     Type
 11502 ;;		None               void
 11503 ;; Registers used:
 11504 ;;		wreg, status,2, status,0, pclath, cstack
 11505 ;; Tracked objects:
 11506 ;;		On entry : 0/0
 11507 ;;		On exit  : 0/0
 11508 ;;		Unchanged: 0/0
 11509 ;; Data sizes:     COMMON   BANK0   BANK1   BANK3   BANK2
 11510 ;;      Params:         1       0       0       0       0
 11511 ;;      Locals:         0      12       0       0       0
 11512 ;;      Temps:          2       0       0       0       0
 11513 ;;      Totals:         3      12       0       0       0
 11514 ;;Total ram usage:       15 bytes
 11515 ;; Hardware stack levels used:    1
 11516 ;; Hardware stack levels required when called:    1
 11517 ;; This function calls:
 11518 ;;		_eeprom_write
 11519 ;; This function is called by:
 11520 ;;		_enable_valves
 11521 ;; This function uses a non-reentrant model
 11522 ;;
 11523                           psect	text859
 11524                           	file	"F:\BEVERAGES_ENHANCEMENT\SOFTWARE_DESIGN\MASTER_PIC_16F877A\2015_09_13\Beverage_s
                                 ervices.c"
 11525                           	line	1136
 11526                           	global	__size_of_Write_ValveIn_Memory
 11527  007D                     	__size_of_Write_ValveIn_Memory	equ	__end_of_Write_ValveIn_Memory-_Write_ValveIn_Memory
 11528                           	
 11529  1EF1                     _Write_ValveIn_Memory:	
 11530                           	opt	stack 5
 11531                           ; Regs used in _Write_ValveIn_Memory: [wreg+status,2+status,0+pclath+cstack]
 11532                           ;Write_ValveIn_Memory@VALVE stored from wreg
 11533  1EF1  1283               	bcf	status, 5	;RP0=0, select bank0
 11534  1EF2  1303               	bcf	status, 6	;RP1=0, select bank0
 11535  1EF3  00D3               	movwf	(Write_ValveIn_Memory@VALVE)
 11536                           	line	1137
 11537                           	
 11538  1EF4                     l9859:	
 11539                           ;Beverage_services.c: 1137: unsigned char chr=0x00;
 11540  1EF4  01D4               	clrf	(Write_ValveIn_Memory@chr)
 11541                           	line	1138
 11542                           ;Beverage_services.c: 1138: chr=(VALVE.MIXING_HOT_WATER==1)?(chr | 0x01):(chr & 0xFE);
 11543  1EF5  1953               	btfsc	(Write_ValveIn_Memory@VALVE),2
 11544  1EF6  2EF8               	goto	u5611
 11545  1EF7  2EF9               	goto	u5610
 11546  1EF8                     u5611:
 11547  1EF8  2F02               	goto	l9863
 11548  1EF9                     u5610:
 11549                           	
 11550  1EF9                     l9861:	
 11551  1EF9  0854               	movf	(Write_ValveIn_Memory@chr),w
 11552  1EFA  39FE               	andlw	0FEh
 11553  1EFB  00FA               	movwf	(??_Write_ValveIn_Memory+0)+0
 11554  1EFC  01FB               	clrf	(??_Write_ValveIn_Memory+0)+0+1
 11555  1EFD  087A               	movf	0+(??_Write_ValveIn_Memory+0)+0,w
 11556  1EFE  00C9               	movwf	(_Write_ValveIn_Memory$4130)
 11557  1EFF  087B               	movf	1+(??_Write_ValveIn_Memory+0)+0,w
 11558  1F00  00CA               	movwf	(_Write_ValveIn_Memory$4130+1)
 11559  1F01  2F07               	goto	l3435
 11560                           	
 11561  1F02                     l3433:	
 11562                           	
 11563  1F02                     l9863:	
 11564  1F02  3001               	movlw	low(01h)
 11565  1F03  0454               	iorwf	(Write_ValveIn_Memory@chr),w
 11566  1F04  00C9               	movwf	(_Write_ValveIn_Memory$4130)
 11567  1F05  3000               	movlw	high(01h)
 11568  1F06  00CA               	movwf	1+(_Write_ValveIn_Memory$4130)
 11569                           	
 11570  1F07                     l3435:	
 11571  1F07  0849               	movf	(_Write_ValveIn_Memory$4130),w
 11572  1F08  00FA               	movwf	(??_Write_ValveIn_Memory+0)+0
 11573  1F09  087A               	movf	(??_Write_ValveIn_Memory+0)+0,w
 11574  1F0A  00D4               	movwf	(Write_ValveIn_Memory@chr)
 11575                           	line	1139
 11576                           	
 11577  1F0B                     l9865:	
 11578                           ;Beverage_services.c: 1139: chr=(VALVE.MILK==1)?(chr | 0x02):(chr & 0xFD);
 11579  1F0B  19D3               	btfsc	(Write_ValveIn_Memory@VALVE),3
 11580  1F0C  2F0E               	goto	u5621
 11581  1F0D  2F0F               	goto	u5620
 11582  1F0E                     u5621:
 11583  1F0E  2F18               	goto	l9869
 11584  1F0F                     u5620:
 11585                           	
 11586  1F0F                     l9867:	
 11587  1F0F  0854               	movf	(Write_ValveIn_Memory@chr),w
 11588  1F10  39FD               	andlw	0FDh
 11589  1F11  00FA               	movwf	(??_Write_ValveIn_Memory+0)+0
 11590  1F12  01FB               	clrf	(??_Write_ValveIn_Memory+0)+0+1
 11591  1F13  087A               	movf	0+(??_Write_ValveIn_Memory+0)+0,w
 11592  1F14  00CB               	movwf	(_Write_ValveIn_Memory$4131)
 11593  1F15  087B               	movf	1+(??_Write_ValveIn_Memory+0)+0,w
 11594  1F16  00CC               	movwf	(_Write_ValveIn_Memory$4131+1)
 11595  1F17  2F1D               	goto	l3439
 11596                           	
 11597  1F18                     l3437:	
 11598                           	
 11599  1F18                     l9869:	
 11600  1F18  3002               	movlw	low(02h)
 11601  1F19  0454               	iorwf	(Write_ValveIn_Memory@chr),w
 11602  1F1A  00CB               	movwf	(_Write_ValveIn_Memory$4131)
 11603  1F1B  3000               	movlw	high(02h)
 11604  1F1C  00CC               	movwf	1+(_Write_ValveIn_Memory$4131)
 11605                           	
 11606  1F1D                     l3439:	
 11607  1F1D  084B               	movf	(_Write_ValveIn_Memory$4131),w
 11608  1F1E  00FA               	movwf	(??_Write_ValveIn_Memory+0)+0
 11609  1F1F  087A               	movf	(??_Write_ValveIn_Memory+0)+0,w
 11610  1F20  00D4               	movwf	(Write_ValveIn_Memory@chr)
 11611                           	line	1140
 11612                           	
 11613  1F21                     l9871:	
 11614                           ;Beverage_services.c: 1140: chr=(VALVE.COFFEE_DICATION==1)? (chr | 0x04):(chr & 0xFB);
 11615  1F21  1853               	btfsc	(Write_ValveIn_Memory@VALVE),0
 11616  1F22  2F24               	goto	u5631
 11617  1F23  2F25               	goto	u5630
 11618  1F24                     u5631:
 11619  1F24  2F2E               	goto	l9875
 11620  1F25                     u5630:
 11621                           	
 11622  1F25                     l9873:	
 11623  1F25  0854               	movf	(Write_ValveIn_Memory@chr),w
 11624  1F26  39FB               	andlw	0FBh
 11625  1F27  00FA               	movwf	(??_Write_ValveIn_Memory+0)+0
 11626  1F28  01FB               	clrf	(??_Write_ValveIn_Memory+0)+0+1
 11627  1F29  087A               	movf	0+(??_Write_ValveIn_Memory+0)+0,w
 11628  1F2A  00CD               	movwf	(_Write_ValveIn_Memory$4132)
 11629  1F2B  087B               	movf	1+(??_Write_ValveIn_Memory+0)+0,w
 11630  1F2C  00CE               	movwf	(_Write_ValveIn_Memory$4132+1)
 11631  1F2D  2F33               	goto	l3443
 11632                           	
 11633  1F2E                     l3441:	
 11634                           	
 11635  1F2E                     l9875:	
 11636  1F2E  3004               	movlw	low(04h)
 11637  1F2F  0454               	iorwf	(Write_ValveIn_Memory@chr),w
 11638  1F30  00CD               	movwf	(_Write_ValveIn_Memory$4132)
 11639  1F31  3000               	movlw	high(04h)
 11640  1F32  00CE               	movwf	1+(_Write_ValveIn_Memory$4132)
 11641                           	
 11642  1F33                     l3443:	
 11643  1F33  084D               	movf	(_Write_ValveIn_Memory$4132),w
 11644  1F34  00FA               	movwf	(??_Write_ValveIn_Memory+0)+0
 11645  1F35  087A               	movf	(??_Write_ValveIn_Memory+0)+0,w
 11646  1F36  00D4               	movwf	(Write_ValveIn_Memory@chr)
 11647                           	line	1141
 11648                           	
 11649  1F37                     l9877:	
 11650                           ;Beverage_services.c: 1141: chr=(VALVE.TEA_DICATION==1)? (chr | 0x08):(chr & 0xF7);
 11651  1F37  18D3               	btfsc	(Write_ValveIn_Memory@VALVE),1
 11652  1F38  2F3A               	goto	u5641
 11653  1F39  2F3B               	goto	u5640
 11654  1F3A                     u5641:
 11655  1F3A  2F44               	goto	l9881
 11656  1F3B                     u5640:
 11657                           	
 11658  1F3B                     l9879:	
 11659  1F3B  0854               	movf	(Write_ValveIn_Memory@chr),w
 11660  1F3C  39F7               	andlw	0F7h
 11661  1F3D  00FA               	movwf	(??_Write_ValveIn_Memory+0)+0
 11662  1F3E  01FB               	clrf	(??_Write_ValveIn_Memory+0)+0+1
 11663  1F3F  087A               	movf	0+(??_Write_ValveIn_Memory+0)+0,w
 11664  1F40  00CF               	movwf	(_Write_ValveIn_Memory$4133)
 11665  1F41  087B               	movf	1+(??_Write_ValveIn_Memory+0)+0,w
 11666  1F42  00D0               	movwf	(_Write_ValveIn_Memory$4133+1)
 11667  1F43  2F49               	goto	l3447
 11668                           	
 11669  1F44                     l3445:	
 11670                           	
 11671  1F44                     l9881:	
 11672  1F44  3008               	movlw	low(08h)
 11673  1F45  0454               	iorwf	(Write_ValveIn_Memory@chr),w
 11674  1F46  00CF               	movwf	(_Write_ValveIn_Memory$4133)
 11675  1F47  3000               	movlw	high(08h)
 11676  1F48  00D0               	movwf	1+(_Write_ValveIn_Memory$4133)
 11677                           	
 11678  1F49                     l3447:	
 11679  1F49  084F               	movf	(_Write_ValveIn_Memory$4133),w
 11680  1F4A  00FA               	movwf	(??_Write_ValveIn_Memory+0)+0
 11681  1F4B  087A               	movf	(??_Write_ValveIn_Memory+0)+0,w
 11682  1F4C  00D4               	movwf	(Write_ValveIn_Memory@chr)
 11683                           	line	1142
 11684                           	
 11685  1F4D                     l9883:	
 11686                           ;Beverage_services.c: 1142: chr=(VALVE.VIBR_MOTOR==1)? (chr | 0x10):(chr & 0xEF);
 11687  1F4D  1A53               	btfsc	(Write_ValveIn_Memory@VALVE),4
 11688  1F4E  2F50               	goto	u5651
 11689  1F4F  2F51               	goto	u5650
 11690  1F50                     u5651:
 11691  1F50  2F5A               	goto	l9887
 11692  1F51                     u5650:
 11693                           	
 11694  1F51                     l9885:	
 11695  1F51  0854               	movf	(Write_ValveIn_Memory@chr),w
 11696  1F52  39EF               	andlw	0EFh
 11697  1F53  00FA               	movwf	(??_Write_ValveIn_Memory+0)+0
 11698  1F54  01FB               	clrf	(??_Write_ValveIn_Memory+0)+0+1
 11699  1F55  087A               	movf	0+(??_Write_ValveIn_Memory+0)+0,w
 11700  1F56  00D1               	movwf	(_Write_ValveIn_Memory$4134)
 11701  1F57  087B               	movf	1+(??_Write_ValveIn_Memory+0)+0,w
 11702  1F58  00D2               	movwf	(_Write_ValveIn_Memory$4134+1)
 11703  1F59  2F5F               	goto	l3451
 11704                           	
 11705  1F5A                     l3449:	
 11706                           	
 11707  1F5A                     l9887:	
 11708  1F5A  3010               	movlw	low(010h)
 11709  1F5B  0454               	iorwf	(Write_ValveIn_Memory@chr),w
 11710  1F5C  00D1               	movwf	(_Write_ValveIn_Memory$4134)
 11711  1F5D  3000               	movlw	high(010h)
 11712  1F5E  00D2               	movwf	1+(_Write_ValveIn_Memory$4134)
 11713                           	
 11714  1F5F                     l3451:	
 11715  1F5F  0851               	movf	(_Write_ValveIn_Memory$4134),w
 11716  1F60  00FA               	movwf	(??_Write_ValveIn_Memory+0)+0
 11717  1F61  087A               	movf	(??_Write_ValveIn_Memory+0)+0,w
 11718  1F62  00D4               	movwf	(Write_ValveIn_Memory@chr)
 11719                           	line	1143
 11720                           	
 11721  1F63                     l9889:	
 11722                           ;Beverage_services.c: 1143: eeprom_write(loc,chr);
 11723  1F63  0854               	movf	(Write_ValveIn_Memory@chr),w
 11724  1F64  00FA               	movwf	(??_Write_ValveIn_Memory+0)+0
 11725  1F65  087A               	movf	(??_Write_ValveIn_Memory+0)+0,w
 11726  1F66  00F6               	movwf	(?_eeprom_write)
 11727  1F67  0879               	movf	(Write_ValveIn_Memory@loc),w
 11728  1F68  160A  158A  2276   	fcall	_eeprom_write
              160A  158A         
 11729                           	line	1144
 11730                           	
 11731  1F6D                     l3452:	
 11732  1F6D  0008               	return
 11733                           	opt stack 0
 11734                           GLOBAL	__end_of_Write_ValveIn_Memory
 11735  1F6E                     	__end_of_Write_ValveIn_Memory:
 11736 ;; =============== function _Write_ValveIn_Memory ends ============
 11737                           
 11738                           	signat	_Write_ValveIn_Memory,8312
 11739                           	global	_count_write
 11740                           psect	text860,local,class=CODE,delta=2
 11741                           global __ptext860
 11742  1BFB                     __ptext860:
 11743                           
 11744 ;; *************** function _count_write *****************
 11745 ;; Defined at:
 11746 ;;		line 1118 in file "F:\BEVERAGES_ENHANCEMENT\SOFTWARE_DESIGN\MASTER_PIC_16F877A\2015_09_13\Beverage_services.c"
 11747 ;; Parameters:    Size  Location     Type
 11748 ;;  addr1           1    wreg     unsigned char 
 11749 ;;  addr2           1    9[COMMON] unsigned char 
 11750 ;;  count           2   10[COMMON] unsigned int 
 11751 ;; Auto vars:     Size  Location     Type
 11752 ;;  addr1           1   12[COMMON] unsigned char 
 11753 ;; Return value:  Size  Location     Type
 11754 ;;		None               void
 11755 ;; Registers used:
 11756 ;;		wreg, status,2, status,0, pclath, cstack
 11757 ;; Tracked objects:
 11758 ;;		On entry : 0/0
 11759 ;;		On exit  : 0/0
 11760 ;;		Unchanged: 0/0
 11761 ;; Data sizes:     COMMON   BANK0   BANK1   BANK3   BANK2
 11762 ;;      Params:         3       0       0       0       0
 11763 ;;      Locals:         1       0       0       0       0
 11764 ;;      Temps:          0       3       0       0       0
 11765 ;;      Totals:         4       3       0       0       0
 11766 ;;Total ram usage:        7 bytes
 11767 ;; Hardware stack levels used:    1
 11768 ;; Hardware stack levels required when called:    1
 11769 ;; This function calls:
 11770 ;;		_eeprom_write
 11771 ;;		_eeprom_read
 11772 ;; This function is called by:
 11773 ;;		_enable_valves
 11774 ;; This function uses a non-reentrant model
 11775 ;;
 11776                           psect	text860
 11777                           	file	"F:\BEVERAGES_ENHANCEMENT\SOFTWARE_DESIGN\MASTER_PIC_16F877A\2015_09_13\Beverage_s
                                 ervices.c"
 11778                           	line	1118
 11779                           	global	__size_of_count_write
 11780  0040                     	__size_of_count_write	equ	__end_of_count_write-_count_write
 11781                           	
 11782  1BFB                     _count_write:	
 11783                           	opt	stack 5
 11784                           ; Regs used in _count_write: [wreg+status,2+status,0+pclath+cstack]
 11785                           ;count_write@addr1 stored from wreg
 11786  1BFB  00FC               	movwf	(count_write@addr1)
 11787                           	line	1119
 11788                           	
 11789  1BFC                     l9853:	
 11790                           ;Beverage_services.c: 1119: if(count<=255)
 11791  1BFC  3001               	movlw	high(0100h)
 11792  1BFD  027B               	subwf	(count_write@count+1),w
 11793  1BFE  3000               	movlw	low(0100h)
 11794  1BFF  1903               	skipnz
 11795  1C00  027A               	subwf	(count_write@count),w
 11796  1C01  1803               	skipnc
 11797  1C02  2C04               	goto	u5601
 11798  1C03  2C05               	goto	u5600
 11799  1C04                     u5601:
 11800  1C04  2C12               	goto	l9857
 11801  1C05                     u5600:
 11802                           	line	1121
 11803                           	
 11804  1C05                     l9855:	
 11805                           ;Beverage_services.c: 1120: {
 11806                           ;Beverage_services.c: 1121: eeprom_write(addr1,count);
 11807  1C05  087A               	movf	(count_write@count),w
 11808  1C06  1283               	bcf	status, 5	;RP0=0, select bank0
 11809  1C07  1303               	bcf	status, 6	;RP1=0, select bank0
 11810  1C08  00C9               	movwf	(??_count_write+0)+0
 11811  1C09  0849               	movf	(??_count_write+0)+0,w
 11812  1C0A  00F6               	movwf	(?_eeprom_write)
 11813  1C0B  087C               	movf	(count_write@addr1),w
 11814  1C0C  160A  158A  2276   	fcall	_eeprom_write
              160A  158A         
 11815                           	line	1122
 11816                           ;Beverage_services.c: 1122: }
 11817  1C11  2C3A               	goto	l3426
 11818                           	line	1123
 11819                           	
 11820  1C12                     l3424:	
 11821                           	line	1125
 11822                           	
 11823  1C12                     l9857:	
 11824                           ;Beverage_services.c: 1123: else
 11825                           ;Beverage_services.c: 1124: {
 11826                           ;Beverage_services.c: 1125: eeprom_write(addr1,count-255);
 11827  1C12  087A               	movf	(count_write@count),w
 11828  1C13  3E01               	addlw	01h
 11829  1C14  1283               	bcf	status, 5	;RP0=0, select bank0
 11830  1C15  1303               	bcf	status, 6	;RP1=0, select bank0
 11831  1C16  00C9               	movwf	(??_count_write+0)+0
 11832  1C17  0849               	movf	(??_count_write+0)+0,w
 11833  1C18  00F6               	movwf	(?_eeprom_write)
 11834  1C19  087C               	movf	(count_write@addr1),w
 11835  1C1A  160A  158A  2276   	fcall	_eeprom_write
              160A  158A         
 11836                           	line	1126
 11837                           ;Beverage_services.c: 1126: eeprom_write(addr2,(eeprom_read(addr2)+count-255));
 11838  1C1F  0879               	movf	(count_write@addr2),w
 11839  1C20  1283               	bcf	status, 5	;RP0=0, select bank0
 11840  1C21  1303               	bcf	status, 6	;RP1=0, select bank0
 11841  1C22  00C9               	movwf	(??_count_write+0)+0
 11842  1C23  0849               	movf	(??_count_write+0)+0,w
 11843  1C24  00F4               	movwf	(?_eeprom_read)
 11844  1C25  160A  158A  21B7   	fcall	_eeprom_read
              160A  158A         
 11845  1C2A  1283               	bcf	status, 5	;RP0=0, select bank0
 11846  1C2B  1303               	bcf	status, 6	;RP1=0, select bank0
 11847  1C2C  00CA               	movwf	(??_count_write+1)+0
 11848  1C2D  087A               	movf	(count_write@count),w
 11849  1C2E  074A               	addwf	0+(??_count_write+1)+0,w
 11850  1C2F  3E01               	addlw	01h
 11851  1C30  00CB               	movwf	(??_count_write+2)+0
 11852  1C31  084B               	movf	(??_count_write+2)+0,w
 11853  1C32  00F6               	movwf	(?_eeprom_write)
 11854  1C33  0879               	movf	(count_write@addr2),w
 11855  1C34  160A  158A  2276   	fcall	_eeprom_write
              160A  158A         
 11856  1C39  2C3A               	goto	l3426
 11857                           	line	1127
 11858                           	
 11859  1C3A                     l3425:	
 11860                           	line	1128
 11861                           	
 11862  1C3A                     l3426:	
 11863  1C3A  0008               	return
 11864                           	opt stack 0
 11865                           GLOBAL	__end_of_count_write
 11866  1C3B                     	__end_of_count_write:
 11867 ;; =============== function _count_write ends ============
 11868                           
 11869                           	signat	_count_write,12408
 11870                           	global	_Read_ValveFrom_Memory
 11871                           psect	text861,local,class=CODE,delta=2
 11872                           global __ptext861
 11873  1E7D                     __ptext861:
 11874                           
 11875 ;; *************** function _Read_ValveFrom_Memory *****************
 11876 ;; Defined at:
 11877 ;;		line 1147 in file "F:\BEVERAGES_ENHANCEMENT\SOFTWARE_DESIGN\MASTER_PIC_16F877A\2015_09_13\Beverage_services.c"
 11878 ;; Parameters:    Size  Location     Type
 11879 ;;  MEM             1    wreg     unsigned char 
 11880 ;; Auto vars:     Size  Location     Type
 11881 ;;  MEM             1    9[COMMON] unsigned char 
 11882 ;; Return value:  Size  Location     Type
 11883 ;;                  1    wreg      struct item
 11884 ;; Registers used:
 11885 ;;		wreg, status,2, status,0, pclath, cstack
 11886 ;; Tracked objects:
 11887 ;;		On entry : 0/0
 11888 ;;		On exit  : 0/0
 11889 ;;		Unchanged: 0/0
 11890 ;; Data sizes:     COMMON   BANK0   BANK1   BANK3   BANK2
 11891 ;;      Params:         0       0       0       0       0
 11892 ;;      Locals:         1       0       0       0       0
 11893 ;;      Temps:          3       0       0       0       0
 11894 ;;      Totals:         4       0       0       0       0
 11895 ;;Total ram usage:        4 bytes
 11896 ;; Hardware stack levels used:    1
 11897 ;; Hardware stack levels required when called:    1
 11898 ;; This function calls:
 11899 ;;		_eeprom_read
 11900 ;; This function is called by:
 11901 ;;		_Mode_Init
 11902 ;;		_print_yes_no
 11903 ;; This function uses a non-reentrant model
 11904 ;;
 11905                           psect	text861
 11906                           	file	"F:\BEVERAGES_ENHANCEMENT\SOFTWARE_DESIGN\MASTER_PIC_16F877A\2015_09_13\Beverage_s
                                 ervices.c"
 11907                           	line	1147
 11908                           	global	__size_of_Read_ValveFrom_Memory
 11909  0074                     	__size_of_Read_ValveFrom_Memory	equ	__end_of_Read_ValveFrom_Memory-_Read_ValveFrom_Memo
                                 ry
 11910                           	
 11911  1E7D                     _Read_ValveFrom_Memory:	
 11912                           	opt	stack 4
 11913                           ; Regs used in _Read_ValveFrom_Memory: [wreg+status,2+status,0+pclath+cstack]
 11914                           ;Read_ValveFrom_Memory@MEM stored from wreg
 11915  1E7D  00F9               	movwf	(Read_ValveFrom_Memory@MEM)
 11916                           	line	1148
 11917                           	
 11918  1E7E                     l9847:	
 11919                           ;Beverage_services.c: 1148: VALVE.MIXING_HOT_WATER= (eeprom_read(MEM)&0x01)>0?1:0;
 11920  1E7E  0879               	movf	(Read_ValveFrom_Memory@MEM),w
 11921  1E7F  00F6               	movwf	(??_Read_ValveFrom_Memory+0)+0
 11922  1E80  0876               	movf	(??_Read_ValveFrom_Memory+0)+0,w
 11923  1E81  00F4               	movwf	(?_eeprom_read)
 11924  1E82  160A  158A  21B7   	fcall	_eeprom_read
              160A  158A         
 11925  1E87  00F7               	movwf	(??_Read_ValveFrom_Memory+1)+0
 11926  1E88  3000               	movlw	0
 11927  1E89  1877               	btfsc	0+(??_Read_ValveFrom_Memory+1)+0,(0)&7
 11928  1E8A  3001               	movlw	1
 11929  1E8B  00F8               	movwf	(??_Read_ValveFrom_Memory+2)+0
 11930  1E8C  0DF8               	rlf	(??_Read_ValveFrom_Memory+2)+0,f
 11931  1E8D  0DF8               	rlf	(??_Read_ValveFrom_Memory+2)+0,f
 11932  1E8E  1283               	bcf	status, 5	;RP0=0, select bank0
 11933  1E8F  1303               	bcf	status, 6	;RP1=0, select bank0
 11934  1E90  0836               	movf	(_VALVE),w
 11935  1E91  0678               	xorwf	(??_Read_ValveFrom_Memory+2)+0,w
 11936  1E92  39FB               	andlw	not (((1<<1)-1)<<2)
 11937  1E93  0678               	xorwf	(??_Read_ValveFrom_Memory+2)+0,w
 11938  1E94  00B6               	movwf	(_VALVE)
 11939                           	line	1149
 11940                           ;Beverage_services.c: 1149: VALVE.MILK= (eeprom_read(MEM)&0x02)>0?1:0;
 11941  1E95  0879               	movf	(Read_ValveFrom_Memory@MEM),w
 11942  1E96  00F6               	movwf	(??_Read_ValveFrom_Memory+0)+0
 11943  1E97  0876               	movf	(??_Read_ValveFrom_Memory+0)+0,w
 11944  1E98  00F4               	movwf	(?_eeprom_read)
 11945  1E99  160A  158A  21B7   	fcall	_eeprom_read
              160A  158A         
 11946  1E9E  00F7               	movwf	(??_Read_ValveFrom_Memory+1)+0
 11947  1E9F  3000               	movlw	0
 11948  1EA0  18F7               	btfsc	0+(??_Read_ValveFrom_Memory+1)+0,(1)&7
 11949  1EA1  3001               	movlw	1
 11950  1EA2  00F8               	movwf	(??_Read_ValveFrom_Memory+2)+0
 11951  1EA3  0DF8               	rlf	(??_Read_ValveFrom_Memory+2)+0,f
 11952  1EA4  0DF8               	rlf	(??_Read_ValveFrom_Memory+2)+0,f
 11953  1EA5  0DF8               	rlf	(??_Read_ValveFrom_Memory+2)+0,f
 11954  1EA6  1283               	bcf	status, 5	;RP0=0, select bank0
 11955  1EA7  1303               	bcf	status, 6	;RP1=0, select bank0
 11956  1EA8  0836               	movf	(_VALVE),w
 11957  1EA9  0678               	xorwf	(??_Read_ValveFrom_Memory+2)+0,w
 11958  1EAA  39F7               	andlw	not (((1<<1)-1)<<3)
 11959  1EAB  0678               	xorwf	(??_Read_ValveFrom_Memory+2)+0,w
 11960  1EAC  00B6               	movwf	(_VALVE)
 11961                           	line	1150
 11962                           ;Beverage_services.c: 1150: VALVE.COFFEE_DICATION= (eeprom_read(MEM)&0x04)>0?1:0;
 11963  1EAD  0879               	movf	(Read_ValveFrom_Memory@MEM),w
 11964  1EAE  00F6               	movwf	(??_Read_ValveFrom_Memory+0)+0
 11965  1EAF  0876               	movf	(??_Read_ValveFrom_Memory+0)+0,w
 11966  1EB0  00F4               	movwf	(?_eeprom_read)
 11967  1EB1  160A  158A  21B7   	fcall	_eeprom_read
              160A  158A         
 11968  1EB6  00F7               	movwf	(??_Read_ValveFrom_Memory+1)+0
 11969  1EB7  3000               	movlw	0
 11970  1EB8  1977               	btfsc	0+(??_Read_ValveFrom_Memory+1)+0,(2)&7
 11971  1EB9  3001               	movlw	1
 11972  1EBA  00F8               	movwf	(??_Read_ValveFrom_Memory+2)+0
 11973  1EBB  1283               	bcf	status, 5	;RP0=0, select bank0
 11974  1EBC  1303               	bcf	status, 6	;RP1=0, select bank0
 11975  1EBD  0836               	movf	(_VALVE),w
 11976  1EBE  0678               	xorwf	(??_Read_ValveFrom_Memory+2)+0,w
 11977  1EBF  39FE               	andlw	not ((1<<1)-1)
 11978  1EC0  0678               	xorwf	(??_Read_ValveFrom_Memory+2)+0,w
 11979  1EC1  00B6               	movwf	(_VALVE)
 11980                           	line	1151
 11981                           ;Beverage_services.c: 1151: VALVE.TEA_DICATION= (eeprom_read(MEM)&0x08)>0?1:0;
 11982  1EC2  0879               	movf	(Read_ValveFrom_Memory@MEM),w
 11983  1EC3  00F6               	movwf	(??_Read_ValveFrom_Memory+0)+0
 11984  1EC4  0876               	movf	(??_Read_ValveFrom_Memory+0)+0,w
 11985  1EC5  00F4               	movwf	(?_eeprom_read)
 11986  1EC6  160A  158A  21B7   	fcall	_eeprom_read
              160A  158A         
 11987  1ECB  00F7               	movwf	(??_Read_ValveFrom_Memory+1)+0
 11988  1ECC  3000               	movlw	0
 11989  1ECD  19F7               	btfsc	0+(??_Read_ValveFrom_Memory+1)+0,(3)&7
 11990  1ECE  3001               	movlw	1
 11991  1ECF  00F8               	movwf	(??_Read_ValveFrom_Memory+2)+0
 11992  1ED0  0DF8               	rlf	(??_Read_ValveFrom_Memory+2)+0,f
 11993  1ED1  1283               	bcf	status, 5	;RP0=0, select bank0
 11994  1ED2  1303               	bcf	status, 6	;RP1=0, select bank0
 11995  1ED3  0836               	movf	(_VALVE),w
 11996  1ED4  0678               	xorwf	(??_Read_ValveFrom_Memory+2)+0,w
 11997  1ED5  39FD               	andlw	not (((1<<1)-1)<<1)
 11998  1ED6  0678               	xorwf	(??_Read_ValveFrom_Memory+2)+0,w
 11999  1ED7  00B6               	movwf	(_VALVE)
 12000                           	line	1152
 12001                           ;Beverage_services.c: 1152: VALVE.VIBR_MOTOR= (eeprom_read(MEM)&0x10)>0?1:0;
 12002  1ED8  0879               	movf	(Read_ValveFrom_Memory@MEM),w
 12003  1ED9  00F6               	movwf	(??_Read_ValveFrom_Memory+0)+0
 12004  1EDA  0876               	movf	(??_Read_ValveFrom_Memory+0)+0,w
 12005  1EDB  00F4               	movwf	(?_eeprom_read)
 12006  1EDC  160A  158A  21B7   	fcall	_eeprom_read
              160A  158A         
 12007  1EE1  00F7               	movwf	(??_Read_ValveFrom_Memory+1)+0
 12008  1EE2  3000               	movlw	0
 12009  1EE3  1A77               	btfsc	0+(??_Read_ValveFrom_Memory+1)+0,(4)&7
 12010  1EE4  3001               	movlw	1
 12011  1EE5  00F8               	movwf	(??_Read_ValveFrom_Memory+2)+0
 12012  1EE6  0EF8               	swapf	(??_Read_ValveFrom_Memory+2)+0,f
 12013  1EE7  1283               	bcf	status, 5	;RP0=0, select bank0
 12014  1EE8  1303               	bcf	status, 6	;RP1=0, select bank0
 12015  1EE9  0836               	movf	(_VALVE),w
 12016  1EEA  0678               	xorwf	(??_Read_ValveFrom_Memory+2)+0,w
 12017  1EEB  39EF               	andlw	not (((1<<1)-1)<<4)
 12018  1EEC  0678               	xorwf	(??_Read_ValveFrom_Memory+2)+0,w
 12019  1EED  00B6               	movwf	(_VALVE)
 12020                           	line	1153
 12021                           	
 12022  1EEE                     l9849:	
 12023                           ;Beverage_services.c: 1153: return VALVE;
 12024  1EEE  0836               	movf	(_VALVE),w
 12025  1EEF  2EF0               	goto	l3455
 12026                           	
 12027  1EF0                     l9851:	
 12028                           	line	1154
 12029                           	
 12030  1EF0                     l3455:	
 12031  1EF0  0008               	return
 12032                           	opt stack 0
 12033                           GLOBAL	__end_of_Read_ValveFrom_Memory
 12034  1EF1                     	__end_of_Read_ValveFrom_Memory:
 12035 ;; =============== function _Read_ValveFrom_Memory ends ============
 12036                           
 12037                           	signat	_Read_ValveFrom_Memory,4217
 12038                           	global	_Print_Menu
 12039                           psect	text862,local,class=CODE,delta=2
 12040                           global __ptext862
 12041  0802                     __ptext862:
 12042                           
 12043 ;; *************** function _Print_Menu *****************
 12044 ;; Defined at:
 12045 ;;		line 14 in file "F:\BEVERAGES_ENHANCEMENT\SOFTWARE_DESIGN\MASTER_PIC_16F877A\2015_09_13\Beverage_services.c"
 12046 ;; Parameters:    Size  Location     Type
 12047 ;;		None
 12048 ;; Auto vars:     Size  Location     Type
 12049 ;;		None
 12050 ;; Return value:  Size  Location     Type
 12051 ;;		None               void
 12052 ;; Registers used:
 12053 ;;		wreg, fsr0l, fsr0h, status,2, status,0, pclath, cstack
 12054 ;; Tracked objects:
 12055 ;;		On entry : 0/0
 12056 ;;		On exit  : 0/0
 12057 ;;		Unchanged: 0/0
 12058 ;; Data sizes:     COMMON   BANK0   BANK1   BANK3   BANK2
 12059 ;;      Params:         0       0       0       0       0
 12060 ;;      Locals:         0       0       0       0       0
 12061 ;;      Temps:          0       0       0       0       0
 12062 ;;      Totals:         0       0       0       0       0
 12063 ;;Total ram usage:        0 bytes
 12064 ;; Hardware stack levels used:    1
 12065 ;; Hardware stack levels required when called:    1
 12066 ;; This function calls:
 12067 ;;		_SendByteSerially
 12068 ;; This function is called by:
 12069 ;;		_enable_valves
 12070 ;; This function uses a non-reentrant model
 12071 ;;
 12072                           psect	text862
 12073                           	file	"F:\BEVERAGES_ENHANCEMENT\SOFTWARE_DESIGN\MASTER_PIC_16F877A\2015_09_13\Beverage_s
                                 ervices.c"
 12074                           	line	14
 12075                           	global	__size_of_Print_Menu
 12076  0061                     	__size_of_Print_Menu	equ	__end_of_Print_Menu-_Print_Menu
 12077                           	
 12078  0802                     _Print_Menu:	
 12079                           	opt	stack 5
 12080                           ; Regs used in _Print_Menu: [wreg-fsr0h+status,2+status,0+pclath+cstack]
 12081                           	line	15
 12082                           	
 12083  0802                     l9823:	
 12084                           ;Beverage_services.c: 15: switch(_PRESSED)
 12085  0802  2843               	goto	l9845
 12086                           	line	17
 12087                           ;Beverage_services.c: 16: {
 12088                           ;Beverage_services.c: 17: case _NORMAL_COFFEE_BUTTON: SendByteSerially(0x02);
 12089                           	
 12090  0803                     l3089:	
 12091                           	
 12092  0803                     l9825:	
 12093  0803  3002               	movlw	(02h)
 12094  0804  160A  158A  216A   	fcall	_SendByteSerially
              120A  158A         
 12095                           	line	18
 12096                           ;Beverage_services.c: 18: break;
 12097  0809  2862               	goto	l3099
 12098                           	line	19
 12099                           ;Beverage_services.c: 19: case _NORMAL_TEA_BUTTON: SendByteSerially(0x03);
 12100                           	
 12101  080A                     l3091:	
 12102                           	
 12103  080A                     l9827:	
 12104  080A  3003               	movlw	(03h)
 12105  080B  160A  158A  216A   	fcall	_SendByteSerially
              120A  158A         
 12106                           	line	20
 12107                           ;Beverage_services.c: 20: break;
 12108  0810  2862               	goto	l3099
 12109                           	line	21
 12110                           ;Beverage_services.c: 21: case _LIGHT_COFFEE_BUTTON: SendByteSerially(0x04);
 12111                           	
 12112  0811                     l3092:	
 12113                           	
 12114  0811                     l9829:	
 12115  0811  3004               	movlw	(04h)
 12116  0812  160A  158A  216A   	fcall	_SendByteSerially
              120A  158A         
 12117                           	line	22
 12118                           ;Beverage_services.c: 22: break;
 12119  0817  2862               	goto	l3099
 12120                           	line	23
 12121                           ;Beverage_services.c: 23: case _LIGHT_TEA_BUTTON: SendByteSerially(0x05);
 12122                           	
 12123  0818                     l3093:	
 12124                           	
 12125  0818                     l9831:	
 12126  0818  3005               	movlw	(05h)
 12127  0819  160A  158A  216A   	fcall	_SendByteSerially
              120A  158A         
 12128                           	line	24
 12129                           ;Beverage_services.c: 24: break;
 12130  081E  2862               	goto	l3099
 12131                           	line	25
 12132                           ;Beverage_services.c: 25: case _BLACK_COFFEE_BUTTON: SendByteSerially(0x06);
 12133                           	
 12134  081F                     l3094:	
 12135                           	
 12136  081F                     l9833:	
 12137  081F  3006               	movlw	(06h)
 12138  0820  160A  158A  216A   	fcall	_SendByteSerially
              120A  158A         
 12139                           	line	26
 12140                           ;Beverage_services.c: 26: break;
 12141  0825  2862               	goto	l3099
 12142                           	line	27
 12143                           ;Beverage_services.c: 27: case _BLACK_TEA_BUTTON: SendByteSerially(0x07);
 12144                           	
 12145  0826                     l3095:	
 12146                           	
 12147  0826                     l9835:	
 12148  0826  3007               	movlw	(07h)
 12149  0827  160A  158A  216A   	fcall	_SendByteSerially
              120A  158A         
 12150                           	line	28
 12151                           ;Beverage_services.c: 28: break;
 12152  082C  2862               	goto	l3099
 12153                           	line	29
 12154                           ;Beverage_services.c: 29: case _MILK_BUTTON: SendByteSerially(0x08);
 12155                           	
 12156  082D                     l3096:	
 12157                           	
 12158  082D                     l9837:	
 12159  082D  3008               	movlw	(08h)
 12160  082E  160A  158A  216A   	fcall	_SendByteSerially
              120A  158A         
 12161                           	line	30
 12162                           ;Beverage_services.c: 30: break;
 12163  0833  2862               	goto	l3099
 12164                           	line	31
 12165                           ;Beverage_services.c: 31: case _HOT_WATER_BUTTON: SendByteSerially(0x09);
 12166                           	
 12167  0834                     l3097:	
 12168                           	
 12169  0834                     l9839:	
 12170  0834  3009               	movlw	(09h)
 12171  0835  160A  158A  216A   	fcall	_SendByteSerially
              120A  158A         
 12172                           	line	32
 12173                           ;Beverage_services.c: 32: break;
 12174  083A  2862               	goto	l3099
 12175                           	line	33
 12176                           ;Beverage_services.c: 33: case _EXTRA_BUTTON: SendByteSerially(0x0A);
 12177                           	
 12178  083B                     l3098:	
 12179                           	
 12180  083B                     l9841:	
 12181  083B  300A               	movlw	(0Ah)
 12182  083C  160A  158A  216A   	fcall	_SendByteSerially
              120A  158A         
 12183                           	line	34
 12184                           ;Beverage_services.c: 34: break;
 12185  0841  2862               	goto	l3099
 12186                           	line	35
 12187                           	
 12188  0842                     l9843:	
 12189                           ;Beverage_services.c: 35: }
 12190  0842  2862               	goto	l3099
 12191                           	line	15
 12192                           	
 12193  0843                     l3088:	
 12194                           	
 12195  0843                     l9845:	
 12196  0843  1283               	bcf	status, 5	;RP0=0, select bank0
 12197  0844  1303               	bcf	status, 6	;RP1=0, select bank0
 12198  0845  083B               	movf	(__PRESSED),w
 12199                           	; Switch size 1, requested type "space"
 12200                           ; Number of cases is 9, Range of values is 1 to 9
 12201                           ; switch strategies available:
 12202                           ; Name         Instructions Cycles
 12203                           ; simple_byte           28    15 (average)
 12204                           ; direct_byte           38    11 (fixed)
 12205                           ; jumptable            263     9 (fixed)
 12206                           ;	Chosen strategy is simple_byte
 12207                           
 12208                           	opt asmopt_off
 12209  0846  3A01               	xorlw	1^0	; case 1
 12210  0847  1903               	skipnz
 12211  0848  2803               	goto	l9825
 12212  0849  3A03               	xorlw	2^1	; case 2
 12213  084A  1903               	skipnz
 12214  084B  280A               	goto	l9827
 12215  084C  3A01               	xorlw	3^2	; case 3
 12216  084D  1903               	skipnz
 12217  084E  2811               	goto	l9829
 12218  084F  3A07               	xorlw	4^3	; case 4
 12219  0850  1903               	skipnz
 12220  0851  2818               	goto	l9831
 12221  0852  3A01               	xorlw	5^4	; case 5
 12222  0853  1903               	skipnz
 12223  0854  281F               	goto	l9833
 12224  0855  3A03               	xorlw	6^5	; case 6
 12225  0856  1903               	skipnz
 12226  0857  2826               	goto	l9835
 12227  0858  3A01               	xorlw	7^6	; case 7
 12228  0859  1903               	skipnz
 12229  085A  282D               	goto	l9837
 12230  085B  3A0F               	xorlw	8^7	; case 8
 12231  085C  1903               	skipnz
 12232  085D  283B               	goto	l9841
 12233  085E  3A01               	xorlw	9^8	; case 9
 12234  085F  1903               	skipnz
 12235  0860  2834               	goto	l9839
 12236  0861  2862               	goto	l3099
 12237                           	opt asmopt_on
 12238                           
 12239                           	line	35
 12240                           	
 12241  0862                     l3090:	
 12242                           	line	36
 12243                           	
 12244  0862                     l3099:	
 12245  0862  0008               	return
 12246                           	opt stack 0
 12247                           GLOBAL	__end_of_Print_Menu
 12248  0863                     	__end_of_Print_Menu:
 12249 ;; =============== function _Print_Menu ends ============
 12250                           
 12251                           	signat	_Print_Menu,88
 12252                           	global	_Print_Name
 12253                           psect	text863,local,class=CODE,delta=2
 12254                           global __ptext863
 12255  1950                     __ptext863:
 12256                           
 12257 ;; *************** function _Print_Name *****************
 12258 ;; Defined at:
 12259 ;;		line 9 in file "F:\BEVERAGES_ENHANCEMENT\SOFTWARE_DESIGN\MASTER_PIC_16F877A\2015_09_13\Beverage_services.c"
 12260 ;; Parameters:    Size  Location     Type
 12261 ;;		None
 12262 ;; Auto vars:     Size  Location     Type
 12263 ;;		None
 12264 ;; Return value:  Size  Location     Type
 12265 ;;		None               void
 12266 ;; Registers used:
 12267 ;;		wreg, status,2, status,0, pclath, cstack
 12268 ;; Tracked objects:
 12269 ;;		On entry : 0/0
 12270 ;;		On exit  : 0/0
 12271 ;;		Unchanged: 0/0
 12272 ;; Data sizes:     COMMON   BANK0   BANK1   BANK3   BANK2
 12273 ;;      Params:         0       0       0       0       0
 12274 ;;      Locals:         0       0       0       0       0
 12275 ;;      Temps:          0       0       0       0       0
 12276 ;;      Totals:         0       0       0       0       0
 12277 ;;Total ram usage:        0 bytes
 12278 ;; Hardware stack levels used:    1
 12279 ;; Hardware stack levels required when called:    1
 12280 ;; This function calls:
 12281 ;;		_SendByteSerially
 12282 ;; This function is called by:
 12283 ;;		_main
 12284 ;;		_enable_valves
 12285 ;;		_change_modes
 12286 ;; This function uses a non-reentrant model
 12287 ;;
 12288                           psect	text863
 12289                           	file	"F:\BEVERAGES_ENHANCEMENT\SOFTWARE_DESIGN\MASTER_PIC_16F877A\2015_09_13\Beverage_s
                                 ervices.c"
 12290                           	line	9
 12291                           	global	__size_of_Print_Name
 12292  0007                     	__size_of_Print_Name	equ	__end_of_Print_Name-_Print_Name
 12293                           	
 12294  1950                     _Print_Name:	
 12295                           	opt	stack 5
 12296                           ; Regs used in _Print_Name: [wreg+status,2+status,0+pclath+cstack]
 12297                           	line	10
 12298                           	
 12299  1950                     l9821:	
 12300                           ;Beverage_services.c: 10: SendByteSerially(0x01);
 12301  1950  3001               	movlw	(01h)
 12302  1951  160A  158A  216A   	fcall	_SendByteSerially
              160A  158A         
 12303                           	line	11
 12304                           	
 12305  1956                     l3085:	
 12306  1956  0008               	return
 12307                           	opt stack 0
 12308                           GLOBAL	__end_of_Print_Name
 12309  1957                     	__end_of_Print_Name:
 12310 ;; =============== function _Print_Name ends ============
 12311                           
 12312                           	signat	_Print_Name,88
 12313                           	global	_Inidcate_Buzzer
 12314                           psect	text864,local,class=CODE,delta=2
 12315                           global __ptext864
 12316  1976                     __ptext864:
 12317                           
 12318 ;; *************** function _Inidcate_Buzzer *****************
 12319 ;; Defined at:
 12320 ;;		line 39 in file "F:\BEVERAGES_ENHANCEMENT\SOFTWARE_DESIGN\MASTER_PIC_16F877A\2015_09_13\Beverage_services.c"
 12321 ;; Parameters:    Size  Location     Type
 12322 ;;		None
 12323 ;; Auto vars:     Size  Location     Type
 12324 ;;		None
 12325 ;; Return value:  Size  Location     Type
 12326 ;;		None               void
 12327 ;; Registers used:
 12328 ;;		wreg, status,2, status,0, pclath, cstack
 12329 ;; Tracked objects:
 12330 ;;		On entry : 0/0
 12331 ;;		On exit  : 0/0
 12332 ;;		Unchanged: 0/0
 12333 ;; Data sizes:     COMMON   BANK0   BANK1   BANK3   BANK2
 12334 ;;      Params:         0       0       0       0       0
 12335 ;;      Locals:         0       0       0       0       0
 12336 ;;      Temps:          0       0       0       0       0
 12337 ;;      Totals:         0       0       0       0       0
 12338 ;;Total ram usage:        0 bytes
 12339 ;; Hardware stack levels used:    1
 12340 ;; Hardware stack levels required when called:    1
 12341 ;; This function calls:
 12342 ;;		_DelayMs
 12343 ;; This function is called by:
 12344 ;;		_main
 12345 ;;		_enable_valves
 12346 ;; This function uses a non-reentrant model
 12347 ;;
 12348                           psect	text864
 12349                           	file	"F:\BEVERAGES_ENHANCEMENT\SOFTWARE_DESIGN\MASTER_PIC_16F877A\2015_09_13\Beverage_s
                                 ervices.c"
 12350                           	line	39
 12351                           	global	__size_of_Inidcate_Buzzer
 12352  0010                     	__size_of_Inidcate_Buzzer	equ	__end_of_Inidcate_Buzzer-_Inidcate_Buzzer
 12353                           	
 12354  1976                     _Inidcate_Buzzer:	
 12355                           	opt	stack 5
 12356                           ; Regs used in _Inidcate_Buzzer: [wreg+status,2+status,0+pclath+cstack]
 12357                           	line	40
 12358                           	
 12359  1976                     l9815:	
 12360                           ;Beverage_services.c: 40: RD1=1;
 12361  1976  1283               	bcf	status, 5	;RP0=0, select bank0
 12362  1977  1303               	bcf	status, 6	;RP1=0, select bank0
 12363  1978  1488               	bsf	(65/8),(65)&7
 12364                           	line	41
 12365                           	
 12366  1979                     l9817:	
 12367                           ;Beverage_services.c: 41: DelayMs(100);
 12368  1979  3064               	movlw	low(064h)
 12369  197A  00FC               	movwf	(?_DelayMs)
 12370  197B  3000               	movlw	high(064h)
 12371  197C  00FD               	movwf	((?_DelayMs))+1
 12372  197D  160A  158A  21F3   	fcall	_DelayMs
              160A  158A         
 12373                           	line	42
 12374                           	
 12375  1982                     l9819:	
 12376                           ;Beverage_services.c: 42: RD1=0;
 12377  1982  1283               	bcf	status, 5	;RP0=0, select bank0
 12378  1983  1303               	bcf	status, 6	;RP1=0, select bank0
 12379  1984  1088               	bcf	(65/8),(65)&7
 12380                           	line	43
 12381                           	
 12382  1985                     l3102:	
 12383  1985  0008               	return
 12384                           	opt stack 0
 12385                           GLOBAL	__end_of_Inidcate_Buzzer
 12386  1986                     	__end_of_Inidcate_Buzzer:
 12387 ;; =============== function _Inidcate_Buzzer ends ============
 12388                           
 12389                           	signat	_Inidcate_Buzzer,88
 12390                           	global	_Uart_Init
 12391                           psect	text865,local,class=CODE,delta=2
 12392                           global __ptext865
 12393  0709                     __ptext865:
 12394                           
 12395 ;; *************** function _Uart_Init *****************
 12396 ;; Defined at:
 12397 ;;		line 6 in file "F:\BEVERAGES_ENHANCEMENT\SOFTWARE_DESIGN\MASTER_PIC_16F877A\2015_09_13\uart.c"
 12398 ;; Parameters:    Size  Location     Type
 12399 ;;  baudrate        4    6[BANK0 ] const long 
 12400 ;; Auto vars:     Size  Location     Type
 12401 ;;  x               2    9[COMMON] unsigned int 
 12402 ;; Return value:  Size  Location     Type
 12403 ;;		None               void
 12404 ;; Registers used:
 12405 ;;		wreg, status,2, status,0, pclath, cstack
 12406 ;; Tracked objects:
 12407 ;;		On entry : 0/0
 12408 ;;		On exit  : 0/0
 12409 ;;		Unchanged: 0/0
 12410 ;; Data sizes:     COMMON   BANK0   BANK1   BANK3   BANK2
 12411 ;;      Params:         0       4       0       0       0
 12412 ;;      Locals:         2       0       0       0       0
 12413 ;;      Temps:          0      12       0       0       0
 12414 ;;      Totals:         2      16       0       0       0
 12415 ;;Total ram usage:       18 bytes
 12416 ;; Hardware stack levels used:    1
 12417 ;; Hardware stack levels required when called:    1
 12418 ;; This function calls:
 12419 ;;		___aldiv
 12420 ;; This function is called by:
 12421 ;;		_main
 12422 ;; This function uses a non-reentrant model
 12423 ;;
 12424                           psect	text865
 12425                           	file	"F:\BEVERAGES_ENHANCEMENT\SOFTWARE_DESIGN\MASTER_PIC_16F877A\2015_09_13\uart.c"
 12426                           	line	6
 12427                           	global	__size_of_Uart_Init
 12428  00EF                     	__size_of_Uart_Init	equ	__end_of_Uart_Init-_Uart_Init
 12429                           	
 12430  0709                     _Uart_Init:	
 12431                           	opt	stack 6
 12432                           ; Regs used in _Uart_Init: [wreg+status,2+status,0+pclath+cstack]
 12433                           	line	8
 12434                           	
 12435  0709                     l9789:	
 12436                           ;uart.c: 7: unsigned int x;
 12437                           ;uart.c: 8: x = (20000000 - baudrate*64)/(baudrate*64);
 12438  0709  1283               	bcf	status, 5	;RP0=0, select bank0
 12439  070A  1303               	bcf	status, 6	;RP1=0, select bank0
 12440  070B  084F               	movf	(Uart_Init@baudrate),w
 12441  070C  00D3               	movwf	(??_Uart_Init+0)+0
 12442  070D  0850               	movf	(Uart_Init@baudrate+1),w
 12443  070E  00D4               	movwf	((??_Uart_Init+0)+0+1)
 12444  070F  0851               	movf	(Uart_Init@baudrate+2),w
 12445  0710  00D5               	movwf	((??_Uart_Init+0)+0+2)
 12446  0711  0852               	movf	(Uart_Init@baudrate+3),w
 12447  0712  00D6               	movwf	((??_Uart_Init+0)+0+3)
 12448  0713  3006               	movlw	06h
 12449  0714                     u5525:
 12450  0714  1003               	clrc
 12451  0715  0DD3               	rlf	(??_Uart_Init+0)+0,f
 12452  0716  0DD4               	rlf	(??_Uart_Init+0)+1,f
 12453  0717  0DD5               	rlf	(??_Uart_Init+0)+2,f
 12454  0718  0DD6               	rlf	(??_Uart_Init+0)+3,f
 12455  0719                     u5520:
 12456  0719  3EFF               	addlw	-1
 12457  071A  1D03               	skipz
 12458  071B  2F14               	goto	u5525
 12459  071C  0856               	movf	3+(??_Uart_Init+0)+0,w
 12460  071D  00F3               	movwf	(?___aldiv+3)
 12461  071E  0855               	movf	2+(??_Uart_Init+0)+0,w
 12462  071F  00F2               	movwf	(?___aldiv+2)
 12463  0720  0854               	movf	1+(??_Uart_Init+0)+0,w
 12464  0721  00F1               	movwf	(?___aldiv+1)
 12465  0722  0853               	movf	0+(??_Uart_Init+0)+0,w
 12466  0723  00F0               	movwf	(?___aldiv)
 12467                           
 12468  0724  3000               	movlw	0
 12469  0725  00D7               	movwf	((??_Uart_Init+4)+0)
 12470  0726  302D               	movlw	02Dh
 12471  0727  00D8               	movwf	((??_Uart_Init+4)+0+1)
 12472  0728  3031               	movlw	031h
 12473  0729  00D9               	movwf	((??_Uart_Init+4)+0+2)
 12474  072A  3001               	movlw	01h
 12475  072B  00DA               	movwf	((??_Uart_Init+4)+0+3)
 12476  072C  084F               	movf	(Uart_Init@baudrate),w
 12477  072D  00DB               	movwf	(??_Uart_Init+8)+0
 12478  072E  0850               	movf	(Uart_Init@baudrate+1),w
 12479  072F  00DC               	movwf	((??_Uart_Init+8)+0+1)
 12480  0730  0851               	movf	(Uart_Init@baudrate+2),w
 12481  0731  00DD               	movwf	((??_Uart_Init+8)+0+2)
 12482  0732  0852               	movf	(Uart_Init@baudrate+3),w
 12483  0733  00DE               	movwf	((??_Uart_Init+8)+0+3)
 12484  0734  3006               	movlw	06h
 12485  0735                     u5535:
 12486  0735  1003               	clrc
 12487  0736  0DDB               	rlf	(??_Uart_Init+8)+0,f
 12488  0737  0DDC               	rlf	(??_Uart_Init+8)+1,f
 12489  0738  0DDD               	rlf	(??_Uart_Init+8)+2,f
 12490  0739  0DDE               	rlf	(??_Uart_Init+8)+3,f
 12491  073A                     u5530:
 12492  073A  3EFF               	addlw	-1
 12493  073B  1D03               	skipz
 12494  073C  2F35               	goto	u5535
 12495  073D  09DB               	comf	(??_Uart_Init+8)+0,f
 12496  073E  09DC               	comf	(??_Uart_Init+8)+1,f
 12497  073F  09DD               	comf	(??_Uart_Init+8)+2,f
 12498  0740  09DE               	comf	(??_Uart_Init+8)+3,f
 12499  0741  0ADB               	incf	(??_Uart_Init+8)+0,f
 12500  0742  1903               	skipnz
 12501  0743  0ADC               	incf	(??_Uart_Init+8)+1,f
 12502  0744  1903               	skipnz
 12503  0745  0ADD               	incf	(??_Uart_Init+8)+2,f
 12504  0746  1903               	skipnz
 12505  0747  0ADE               	incf	(??_Uart_Init+8)+3,f
 12506  0748  085B               	movf	0+(??_Uart_Init+8)+0,w
 12507  0749  07D7               	addwf	(??_Uart_Init+4)+0,f
 12508  074A  085C               	movf	1+(??_Uart_Init+8)+0,w
 12509  074B  1803               	skipnc
 12510  074C  0F5C               	incfsz	1+(??_Uart_Init+8)+0,w
 12511  074D  2F4F               	goto	u5540
 12512  074E  2F50               	goto	u5541
 12513  074F                     u5540:
 12514  074F  07D8               	addwf	(??_Uart_Init+4)+1,f
 12515  0750                     u5541:
 12516  0750  085D               	movf	2+(??_Uart_Init+8)+0,w
 12517  0751  1803               	skipnc
 12518  0752  0F5D               	incfsz	2+(??_Uart_Init+8)+0,w
 12519  0753  2F55               	goto	u5542
 12520  0754  2F56               	goto	u5543
 12521  0755                     u5542:
 12522  0755  07D9               	addwf	(??_Uart_Init+4)+2,f
 12523  0756                     u5543:
 12524  0756  085E               	movf	3+(??_Uart_Init+8)+0,w
 12525  0757  1803               	skipnc
 12526  0758  0A5E               	incf	3+(??_Uart_Init+8)+0,w
 12527  0759  07DA               	addwf	(??_Uart_Init+4)+3,f
 12528  075A  085A               	movf	3+(??_Uart_Init+4)+0,w
 12529  075B  00F7               	movwf	3+(?___aldiv)+04h
 12530  075C  0859               	movf	2+(??_Uart_Init+4)+0,w
 12531  075D  00F6               	movwf	2+(?___aldiv)+04h
 12532  075E  0858               	movf	1+(??_Uart_Init+4)+0,w
 12533  075F  00F5               	movwf	1+(?___aldiv)+04h
 12534  0760  0857               	movf	0+(??_Uart_Init+4)+0,w
 12535  0761  00F4               	movwf	0+(?___aldiv)+04h
 12536                           
 12537  0762  120A  118A  2050   	fcall	___aldiv
              120A  118A         
 12538  0767  0871               	movf	1+(((0+(?___aldiv)))),w
 12539  0768  01FA               	clrf	(Uart_Init@x+1)
 12540  0769  07FA               	addwf	(Uart_Init@x+1)
 12541  076A  0870               	movf	0+(((0+(?___aldiv)))),w
 12542  076B  01F9               	clrf	(Uart_Init@x)
 12543  076C  07F9               	addwf	(Uart_Init@x)
 12544                           
 12545                           	line	9
 12546                           	
 12547  076D                     l9791:	
 12548                           ;uart.c: 9: if(x>255)
 12549  076D  3001               	movlw	high(0100h)
 12550  076E  027A               	subwf	(Uart_Init@x+1),w
 12551  076F  3000               	movlw	low(0100h)
 12552  0770  1903               	skipnz
 12553  0771  0279               	subwf	(Uart_Init@x),w
 12554  0772  1C03               	skipc
 12555  0773  2F75               	goto	u5551
 12556  0774  2F76               	goto	u5550
 12557  0775                     u5551:
 12558  0775  2FDE               	goto	l9797
 12559  0776                     u5550:
 12560                           	line	11
 12561                           	
 12562  0776                     l9793:	
 12563                           ;uart.c: 10: {
 12564                           ;uart.c: 11: x = (20000000 - baudrate*16)/(baudrate*16);
 12565  0776  1283               	bcf	status, 5	;RP0=0, select bank0
 12566  0777  1303               	bcf	status, 6	;RP1=0, select bank0
 12567  0778  084F               	movf	(Uart_Init@baudrate),w
 12568  0779  00D3               	movwf	(??_Uart_Init+0)+0
 12569  077A  0850               	movf	(Uart_Init@baudrate+1),w
 12570  077B  00D4               	movwf	((??_Uart_Init+0)+0+1)
 12571  077C  0851               	movf	(Uart_Init@baudrate+2),w
 12572  077D  00D5               	movwf	((??_Uart_Init+0)+0+2)
 12573  077E  0852               	movf	(Uart_Init@baudrate+3),w
 12574  077F  00D6               	movwf	((??_Uart_Init+0)+0+3)
 12575  0780  3004               	movlw	04h
 12576  0781                     u5565:
 12577  0781  1003               	clrc
 12578  0782  0DD3               	rlf	(??_Uart_Init+0)+0,f
 12579  0783  0DD4               	rlf	(??_Uart_Init+0)+1,f
 12580  0784  0DD5               	rlf	(??_Uart_Init+0)+2,f
 12581  0785  0DD6               	rlf	(??_Uart_Init+0)+3,f
 12582  0786                     u5560:
 12583  0786  3EFF               	addlw	-1
 12584  0787  1D03               	skipz
 12585  0788  2F81               	goto	u5565
 12586  0789  0856               	movf	3+(??_Uart_Init+0)+0,w
 12587  078A  00F3               	movwf	(?___aldiv+3)
 12588  078B  0855               	movf	2+(??_Uart_Init+0)+0,w
 12589  078C  00F2               	movwf	(?___aldiv+2)
 12590  078D  0854               	movf	1+(??_Uart_Init+0)+0,w
 12591  078E  00F1               	movwf	(?___aldiv+1)
 12592  078F  0853               	movf	0+(??_Uart_Init+0)+0,w
 12593  0790  00F0               	movwf	(?___aldiv)
 12594                           
 12595  0791  3000               	movlw	0
 12596  0792  00D7               	movwf	((??_Uart_Init+4)+0)
 12597  0793  302D               	movlw	02Dh
 12598  0794  00D8               	movwf	((??_Uart_Init+4)+0+1)
 12599  0795  3031               	movlw	031h
 12600  0796  00D9               	movwf	((??_Uart_Init+4)+0+2)
 12601  0797  3001               	movlw	01h
 12602  0798  00DA               	movwf	((??_Uart_Init+4)+0+3)
 12603  0799  084F               	movf	(Uart_Init@baudrate),w
 12604  079A  00DB               	movwf	(??_Uart_Init+8)+0
 12605  079B  0850               	movf	(Uart_Init@baudrate+1),w
 12606  079C  00DC               	movwf	((??_Uart_Init+8)+0+1)
 12607  079D  0851               	movf	(Uart_Init@baudrate+2),w
 12608  079E  00DD               	movwf	((??_Uart_Init+8)+0+2)
 12609  079F  0852               	movf	(Uart_Init@baudrate+3),w
 12610  07A0  00DE               	movwf	((??_Uart_Init+8)+0+3)
 12611  07A1  3004               	movlw	04h
 12612  07A2                     u5575:
 12613  07A2  1003               	clrc
 12614  07A3  0DDB               	rlf	(??_Uart_Init+8)+0,f
 12615  07A4  0DDC               	rlf	(??_Uart_Init+8)+1,f
 12616  07A5  0DDD               	rlf	(??_Uart_Init+8)+2,f
 12617  07A6  0DDE               	rlf	(??_Uart_Init+8)+3,f
 12618  07A7                     u5570:
 12619  07A7  3EFF               	addlw	-1
 12620  07A8  1D03               	skipz
 12621  07A9  2FA2               	goto	u5575
 12622  07AA  09DB               	comf	(??_Uart_Init+8)+0,f
 12623  07AB  09DC               	comf	(??_Uart_Init+8)+1,f
 12624  07AC  09DD               	comf	(??_Uart_Init+8)+2,f
 12625  07AD  09DE               	comf	(??_Uart_Init+8)+3,f
 12626  07AE  0ADB               	incf	(??_Uart_Init+8)+0,f
 12627  07AF  1903               	skipnz
 12628  07B0  0ADC               	incf	(??_Uart_Init+8)+1,f
 12629  07B1  1903               	skipnz
 12630  07B2  0ADD               	incf	(??_Uart_Init+8)+2,f
 12631  07B3  1903               	skipnz
 12632  07B4  0ADE               	incf	(??_Uart_Init+8)+3,f
 12633  07B5  085B               	movf	0+(??_Uart_Init+8)+0,w
 12634  07B6  07D7               	addwf	(??_Uart_Init+4)+0,f
 12635  07B7  085C               	movf	1+(??_Uart_Init+8)+0,w
 12636  07B8  1803               	skipnc
 12637  07B9  0F5C               	incfsz	1+(??_Uart_Init+8)+0,w
 12638  07BA  2FBC               	goto	u5580
 12639  07BB  2FBD               	goto	u5581
 12640  07BC                     u5580:
 12641  07BC  07D8               	addwf	(??_Uart_Init+4)+1,f
 12642  07BD                     u5581:
 12643  07BD  085D               	movf	2+(??_Uart_Init+8)+0,w
 12644  07BE  1803               	skipnc
 12645  07BF  0F5D               	incfsz	2+(??_Uart_Init+8)+0,w
 12646  07C0  2FC2               	goto	u5582
 12647  07C1  2FC3               	goto	u5583
 12648  07C2                     u5582:
 12649  07C2  07D9               	addwf	(??_Uart_Init+4)+2,f
 12650  07C3                     u5583:
 12651  07C3  085E               	movf	3+(??_Uart_Init+8)+0,w
 12652  07C4  1803               	skipnc
 12653  07C5  0A5E               	incf	3+(??_Uart_Init+8)+0,w
 12654  07C6  07DA               	addwf	(??_Uart_Init+4)+3,f
 12655  07C7  085A               	movf	3+(??_Uart_Init+4)+0,w
 12656  07C8  00F7               	movwf	3+(?___aldiv)+04h
 12657  07C9  0859               	movf	2+(??_Uart_Init+4)+0,w
 12658  07CA  00F6               	movwf	2+(?___aldiv)+04h
 12659  07CB  0858               	movf	1+(??_Uart_Init+4)+0,w
 12660  07CC  00F5               	movwf	1+(?___aldiv)+04h
 12661  07CD  0857               	movf	0+(??_Uart_Init+4)+0,w
 12662  07CE  00F4               	movwf	0+(?___aldiv)+04h
 12663                           
 12664  07CF  120A  118A  2050   	fcall	___aldiv
              120A  118A         
 12665  07D4  0871               	movf	1+(((0+(?___aldiv)))),w
 12666  07D5  01FA               	clrf	(Uart_Init@x+1)
 12667  07D6  07FA               	addwf	(Uart_Init@x+1)
 12668  07D7  0870               	movf	0+(((0+(?___aldiv)))),w
 12669  07D8  01F9               	clrf	(Uart_Init@x)
 12670  07D9  07F9               	addwf	(Uart_Init@x)
 12671                           
 12672                           	line	12
 12673                           	
 12674  07DA                     l9795:	
 12675                           ;uart.c: 12: BRGH = 1;
 12676  07DA  1683               	bsf	status, 5	;RP0=1, select bank1
 12677  07DB  1303               	bcf	status, 6	;RP1=0, select bank1
 12678  07DC  1518               	bsf	(1218/8)^080h,(1218)&7
 12679  07DD  2FDE               	goto	l9797
 12680                           	line	13
 12681                           	
 12682  07DE                     l4163:	
 12683                           	line	14
 12684                           	
 12685  07DE                     l9797:	
 12686                           ;uart.c: 13: }
 12687                           ;uart.c: 14: if(x<256)
 12688  07DE  3001               	movlw	high(0100h)
 12689  07DF  027A               	subwf	(Uart_Init@x+1),w
 12690  07E0  3000               	movlw	low(0100h)
 12691  07E1  1903               	skipnz
 12692  07E2  0279               	subwf	(Uart_Init@x),w
 12693  07E3  1803               	skipnc
 12694  07E4  2FE6               	goto	u5591
 12695  07E5  2FE7               	goto	u5590
 12696  07E6                     u5591:
 12697  07E6  2FF7               	goto	l4165
 12698  07E7                     u5590:
 12699                           	line	16
 12700                           	
 12701  07E7                     l9799:	
 12702                           ;uart.c: 15: {
 12703                           ;uart.c: 16: SPBRG = x;
 12704  07E7  0879               	movf	(Uart_Init@x),w
 12705  07E8  1683               	bsf	status, 5	;RP0=1, select bank1
 12706  07E9  1303               	bcf	status, 6	;RP1=0, select bank1
 12707  07EA  0099               	movwf	(153)^080h	;volatile
 12708                           	line	17
 12709                           	
 12710  07EB                     l9801:	
 12711                           ;uart.c: 17: SYNC = 0;
 12712  07EB  1218               	bcf	(1220/8)^080h,(1220)&7
 12713                           	line	18
 12714                           	
 12715  07EC                     l9803:	
 12716                           ;uart.c: 18: SPEN = 1;
 12717  07EC  1283               	bcf	status, 5	;RP0=0, select bank0
 12718  07ED  1303               	bcf	status, 6	;RP1=0, select bank0
 12719  07EE  1798               	bsf	(199/8),(199)&7
 12720                           	line	20
 12721                           	
 12722  07EF                     l9805:	
 12723                           ;uart.c: 20: CREN = 1;
 12724  07EF  1618               	bsf	(196/8),(196)&7
 12725                           	line	21
 12726                           	
 12727  07F0                     l9807:	
 12728                           ;uart.c: 21: TXEN = 1;
 12729  07F0  1683               	bsf	status, 5	;RP0=1, select bank1
 12730  07F1  1303               	bcf	status, 6	;RP1=0, select bank1
 12731  07F2  1698               	bsf	(1221/8)^080h,(1221)&7
 12732                           	line	23
 12733                           	
 12734  07F3                     l9809:	
 12735                           ;uart.c: 23: GIE = 1;
 12736  07F3  178B               	bsf	(95/8),(95)&7
 12737                           	line	24
 12738                           	
 12739  07F4                     l9811:	
 12740                           ;uart.c: 24: PEIE = 1;
 12741  07F4  170B               	bsf	(94/8),(94)&7
 12742                           	line	25
 12743                           	
 12744  07F5                     l9813:	
 12745                           ;uart.c: 25: RCIE = 1;
 12746  07F5  168C               	bsf	(1125/8)^080h,(1125)&7
 12747  07F6  2FF7               	goto	l4165
 12748                           	line	26
 12749                           	
 12750  07F7                     l4164:	
 12751                           	line	27
 12752                           	
 12753  07F7                     l4165:	
 12754  07F7  0008               	return
 12755                           	opt stack 0
 12756                           GLOBAL	__end_of_Uart_Init
 12757  07F8                     	__end_of_Uart_Init:
 12758 ;; =============== function _Uart_Init ends ============
 12759                           
 12760                           	signat	_Uart_Init,4216
 12761                           	global	_rev
 12762                           psect	text866,local,class=CODE,delta=2
 12763                           global __ptext866
 12764  1CC2                     __ptext866:
 12765                           
 12766 ;; *************** function _rev *****************
 12767 ;; Defined at:
 12768 ;;		line 5 in file "F:\BEVERAGES_ENHANCEMENT\SOFTWARE_DESIGN\MASTER_PIC_16F877A\2015_09_13\myitoa.c"
 12769 ;; Parameters:    Size  Location     Type
 12770 ;;  buf             1    wreg     PTR unsigned char 
 12771 ;;		 -> buff(4), 
 12772 ;; Auto vars:     Size  Location     Type
 12773 ;;  buf             1    3[BANK0 ] PTR unsigned char 
 12774 ;;		 -> buff(4), 
 12775 ;;  l               1    2[BANK0 ] PTR unsigned char 
 12776 ;;		 -> buff(4), 
 12777 ;;  f               1    1[BANK0 ] PTR unsigned char 
 12778 ;;		 -> buff(4), 
 12779 ;;  t               1    0[BANK0 ] unsigned char 
 12780 ;; Return value:  Size  Location     Type
 12781 ;;		None               void
 12782 ;; Registers used:
 12783 ;;		wreg, fsr0l, fsr0h, status,2, status,0, pclath, cstack
 12784 ;; Tracked objects:
 12785 ;;		On entry : 0/0
 12786 ;;		On exit  : 0/0
 12787 ;;		Unchanged: 0/0
 12788 ;; Data sizes:     COMMON   BANK0   BANK1   BANK3   BANK2
 12789 ;;      Params:         0       0       0       0       0
 12790 ;;      Locals:         0       4       0       0       0
 12791 ;;      Temps:          1       0       0       0       0
 12792 ;;      Totals:         1       4       0       0       0
 12793 ;;Total ram usage:        5 bytes
 12794 ;; Hardware stack levels used:    1
 12795 ;; Hardware stack levels required when called:    1
 12796 ;; This function calls:
 12797 ;;		_strlen
 12798 ;; This function is called by:
 12799 ;;		_myitoa
 12800 ;; This function uses a non-reentrant model
 12801 ;;
 12802                           psect	text866
 12803                           	file	"F:\BEVERAGES_ENHANCEMENT\SOFTWARE_DESIGN\MASTER_PIC_16F877A\2015_09_13\myitoa.c"
 12804                           	line	5
 12805                           	global	__size_of_rev
 12806  0047                     	__size_of_rev	equ	__end_of_rev-_rev
 12807                           	
 12808  1CC2                     _rev:	
 12809                           	opt	stack 4
 12810                           ; Regs used in _rev: [wreg-fsr0h+status,2+status,0+pclath+cstack]
 12811                           ;rev@buf stored from wreg
 12812                           	line	7
 12813  1CC2  1283               	bcf	status, 5	;RP0=0, select bank0
 12814  1CC3  1303               	bcf	status, 6	;RP1=0, select bank0
 12815  1CC4  00CC               	movwf	(rev@buf)
 12816                           	
 12817  1CC5                     l9769:	
 12818                           ;myitoa.c: 6: char t,*f,*l;
 12819                           ;myitoa.c: 7: for(f=buf,l=buf+strlen(buf)-1;f<l;f++,l--)
 12820  1CC5  084C               	movf	(rev@buf),w
 12821  1CC6  00FA               	movwf	(??_rev+0)+0
 12822  1CC7  087A               	movf	(??_rev+0)+0,w
 12823  1CC8  00CA               	movwf	(rev@f)
 12824                           	
 12825  1CC9                     l9771:	
 12826  1CC9  084C               	movf	(rev@buf),w
 12827  1CCA  160A  158A  2245   	fcall	_strlen
              160A  158A         
 12828  1CCF  0870               	movf	(0+(?_strlen)),w
 12829  1CD0  1283               	bcf	status, 5	;RP0=0, select bank0
 12830  1CD1  1303               	bcf	status, 6	;RP1=0, select bank0
 12831  1CD2  074C               	addwf	(rev@buf),w
 12832  1CD3  3EFF               	addlw	-1
 12833  1CD4  00FA               	movwf	(??_rev+0)+0
 12834  1CD5  087A               	movf	(??_rev+0)+0,w
 12835  1CD6  00CB               	movwf	(rev@l)
 12836  1CD7  2D01               	goto	l9787
 12837                           	line	8
 12838                           	
 12839  1CD8                     l1415:	
 12840                           	line	9
 12841                           	
 12842  1CD8                     l9773:	
 12843                           ;myitoa.c: 8: {
 12844                           ;myitoa.c: 9: if(*buf == '-')
 12845  1CD8  084C               	movf	(rev@buf),w
 12846  1CD9  0084               	movwf	fsr0
 12847  1CDA  1383               	bcf	status, 7	;select IRP bank0
 12848  1CDB  0800               	movf	indf,w
 12849  1CDC  3A2D               	xorlw	02Dh
 12850  1CDD  1D03               	skipz
 12851  1CDE  2CE0               	goto	u5501
 12852  1CDF  2CE1               	goto	u5500
 12853  1CE0                     u5501:
 12854  1CE0  2CE6               	goto	l9777
 12855  1CE1                     u5500:
 12856                           	line	11
 12857                           	
 12858  1CE1                     l9775:	
 12859                           ;myitoa.c: 10: {
 12860                           ;myitoa.c: 11: buf++;
 12861  1CE1  3001               	movlw	(01h)
 12862  1CE2  00FA               	movwf	(??_rev+0)+0
 12863  1CE3  087A               	movf	(??_rev+0)+0,w
 12864  1CE4  07CC               	addwf	(rev@buf),f
 12865  1CE5  2CE6               	goto	l9777
 12866                           	line	12
 12867                           	
 12868  1CE6                     l1416:	
 12869                           	line	13
 12870                           	
 12871  1CE6                     l9777:	
 12872                           ;myitoa.c: 12: }
 12873                           ;myitoa.c: 13: t=*f;
 12874  1CE6  084A               	movf	(rev@f),w
 12875  1CE7  0084               	movwf	fsr0
 12876  1CE8  0800               	movf	indf,w
 12877  1CE9  00FA               	movwf	(??_rev+0)+0
 12878  1CEA  087A               	movf	(??_rev+0)+0,w
 12879  1CEB  00C9               	movwf	(rev@t)
 12880                           	line	14
 12881                           	
 12882  1CEC                     l9779:	
 12883                           ;myitoa.c: 14: *f=*l;
 12884  1CEC  084B               	movf	(rev@l),w
 12885  1CED  0084               	movwf	fsr0
 12886  1CEE  0800               	movf	indf,w
 12887  1CEF  00FA               	movwf	(??_rev+0)+0
 12888  1CF0  084A               	movf	(rev@f),w
 12889  1CF1  0084               	movwf	fsr0
 12890  1CF2  087A               	movf	(??_rev+0)+0,w
 12891  1CF3  0080               	movwf	indf
 12892                           	line	15
 12893                           	
 12894  1CF4                     l9781:	
 12895                           ;myitoa.c: 15: *l=t;
 12896  1CF4  0849               	movf	(rev@t),w
 12897  1CF5  00FA               	movwf	(??_rev+0)+0
 12898  1CF6  084B               	movf	(rev@l),w
 12899  1CF7  0084               	movwf	fsr0
 12900  1CF8  087A               	movf	(??_rev+0)+0,w
 12901  1CF9  0080               	movwf	indf
 12902                           	line	7
 12903                           	
 12904  1CFA                     l9783:	
 12905  1CFA  3001               	movlw	(01h)
 12906  1CFB  00FA               	movwf	(??_rev+0)+0
 12907  1CFC  087A               	movf	(??_rev+0)+0,w
 12908  1CFD  07CA               	addwf	(rev@f),f
 12909                           	
 12910  1CFE                     l9785:	
 12911  1CFE  3001               	movlw	low(01h)
 12912  1CFF  02CB               	subwf	(rev@l),f
 12913  1D00  2D01               	goto	l9787
 12914                           	
 12915  1D01                     l1414:	
 12916                           	
 12917  1D01                     l9787:	
 12918  1D01  084B               	movf	(rev@l),w
 12919  1D02  024A               	subwf	(rev@f),w
 12920  1D03  1C03               	skipc
 12921  1D04  2D06               	goto	u5511
 12922  1D05  2D07               	goto	u5510
 12923  1D06                     u5511:
 12924  1D06  2CD8               	goto	l9773
 12925  1D07                     u5510:
 12926  1D07  2D08               	goto	l1418
 12927                           	
 12928  1D08                     l1417:	
 12929                           	line	17
 12930                           	
 12931  1D08                     l1418:	
 12932  1D08  0008               	return
 12933                           	opt stack 0
 12934                           GLOBAL	__end_of_rev
 12935  1D09                     	__end_of_rev:
 12936 ;; =============== function _rev ends ============
 12937                           
 12938                           	signat	_rev,4216
 12939                           	global	_Lcd_Data
 12940                           psect	text867,local,class=CODE,delta=2
 12941                           global __ptext867
 12942  1B4D                     __ptext867:
 12943                           
 12944 ;; *************** function _Lcd_Data *****************
 12945 ;; Defined at:
 12946 ;;		line 121 in file "F:\BEVERAGES_ENHANCEMENT\SOFTWARE_DESIGN\MASTER_PIC_16F877A\2015_09_13\lcd.c"
 12947 ;; Parameters:    Size  Location     Type
 12948 ;;  x               1    wreg     unsigned char 
 12949 ;; Auto vars:     Size  Location     Type
 12950 ;;  x               1    4[BANK0 ] unsigned char 
 12951 ;; Return value:  Size  Location     Type
 12952 ;;		None               void
 12953 ;; Registers used:
 12954 ;;		wreg, status,2, status,0, pclath, cstack
 12955 ;; Tracked objects:
 12956 ;;		On entry : 0/0
 12957 ;;		On exit  : 0/0
 12958 ;;		Unchanged: 0/0
 12959 ;; Data sizes:     COMMON   BANK0   BANK1   BANK3   BANK2
 12960 ;;      Params:         0       0       0       0       0
 12961 ;;      Locals:         0       1       0       0       0
 12962 ;;      Temps:          0       1       0       0       0
 12963 ;;      Totals:         0       2       0       0       0
 12964 ;;Total ram usage:        2 bytes
 12965 ;; Hardware stack levels used:    1
 12966 ;; Hardware stack levels required when called:    1
 12967 ;; This function calls:
 12968 ;;		_DelayMs
 12969 ;; This function is called by:
 12970 ;;		_Lcd_String
 12971 ;;		_Num_Disp
 12972 ;;		_enable_valves
 12973 ;;		_change_modes
 12974 ;;		_print_yes_no
 12975 ;; This function uses a non-reentrant model
 12976 ;;
 12977                           psect	text867
 12978                           	file	"F:\BEVERAGES_ENHANCEMENT\SOFTWARE_DESIGN\MASTER_PIC_16F877A\2015_09_13\lcd.c"
 12979                           	line	121
 12980                           	global	__size_of_Lcd_Data
 12981  0039                     	__size_of_Lcd_Data	equ	__end_of_Lcd_Data-_Lcd_Data
 12982                           	
 12983  1B4D                     _Lcd_Data:	
 12984                           	opt	stack 4
 12985                           ; Regs used in _Lcd_Data: [wreg+status,2+status,0+pclath+cstack]
 12986                           ;Lcd_Data@x stored from wreg
 12987  1B4D  1283               	bcf	status, 5	;RP0=0, select bank0
 12988  1B4E  1303               	bcf	status, 6	;RP1=0, select bank0
 12989  1B4F  00CD               	movwf	(Lcd_Data@x)
 12990                           	line	122
 12991                           	
 12992  1B50                     l9747:	
 12993                           ;lcd.c: 122: PORTD=x & 0XF0;
 12994  1B50  084D               	movf	(Lcd_Data@x),w
 12995  1B51  39F0               	andlw	0F0h
 12996  1B52  0088               	movwf	(8)	;volatile
 12997                           	line	123
 12998                           	
 12999  1B53                     l9749:	
 13000                           ;lcd.c: 123: RD2=1;
 13001  1B53  1508               	bsf	(66/8),(66)&7
 13002                           	line	124
 13003                           	
 13004  1B54                     l9751:	
 13005                           ;lcd.c: 124: RD3=1;
 13006  1B54  1588               	bsf	(67/8),(67)&7
 13007                           	line	125
 13008                           	
 13009  1B55                     l9753:	
 13010                           ;lcd.c: 125: DelayMs(5);
 13011  1B55  3005               	movlw	low(05h)
 13012  1B56  00FC               	movwf	(?_DelayMs)
 13013  1B57  3000               	movlw	high(05h)
 13014  1B58  00FD               	movwf	((?_DelayMs))+1
 13015  1B59  160A  158A  21F3   	fcall	_DelayMs
              160A  158A         
 13016                           	line	126
 13017                           	
 13018  1B5E                     l9755:	
 13019                           ;lcd.c: 126: RD3=0;
 13020  1B5E  1283               	bcf	status, 5	;RP0=0, select bank0
 13021  1B5F  1303               	bcf	status, 6	;RP1=0, select bank0
 13022  1B60  1188               	bcf	(67/8),(67)&7
 13023                           	line	127
 13024                           	
 13025  1B61                     l9757:	
 13026                           ;lcd.c: 127: DelayMs(5);
 13027  1B61  3005               	movlw	low(05h)
 13028  1B62  00FC               	movwf	(?_DelayMs)
 13029  1B63  3000               	movlw	high(05h)
 13030  1B64  00FD               	movwf	((?_DelayMs))+1
 13031  1B65  160A  158A  21F3   	fcall	_DelayMs
              160A  158A         
 13032                           	line	128
 13033                           	
 13034  1B6A                     l9759:	
 13035                           ;lcd.c: 128: PORTD=x << 4;
 13036  1B6A  1283               	bcf	status, 5	;RP0=0, select bank0
 13037  1B6B  1303               	bcf	status, 6	;RP1=0, select bank0
 13038  1B6C  084D               	movf	(Lcd_Data@x),w
 13039  1B6D  00CC               	movwf	(??_Lcd_Data+0)+0
 13040  1B6E  3003               	movlw	(04h)-1
 13041  1B6F                     u5495:
 13042  1B6F  1003               	clrc
 13043  1B70  0DCC               	rlf	(??_Lcd_Data+0)+0,f
 13044  1B71  3EFF               	addlw	-1
 13045  1B72  1D03               	skipz
 13046  1B73  2B6F               	goto	u5495
 13047  1B74  1003               	clrc
 13048  1B75  0D4C               	rlf	(??_Lcd_Data+0)+0,w
 13049  1B76  0088               	movwf	(8)	;volatile
 13050                           	line	129
 13051                           	
 13052  1B77                     l9761:	
 13053                           ;lcd.c: 129: RD2=1;
 13054  1B77  1508               	bsf	(66/8),(66)&7
 13055                           	line	130
 13056                           	
 13057  1B78                     l9763:	
 13058                           ;lcd.c: 130: RD3=1;
 13059  1B78  1588               	bsf	(67/8),(67)&7
 13060                           	line	131
 13061                           	
 13062  1B79                     l9765:	
 13063                           ;lcd.c: 131: DelayMs(5);
 13064  1B79  3005               	movlw	low(05h)
 13065  1B7A  00FC               	movwf	(?_DelayMs)
 13066  1B7B  3000               	movlw	high(05h)
 13067  1B7C  00FD               	movwf	((?_DelayMs))+1
 13068  1B7D  160A  158A  21F3   	fcall	_DelayMs
              160A  158A         
 13069                           	line	132
 13070                           	
 13071  1B82                     l9767:	
 13072                           ;lcd.c: 132: RD3=0;
 13073  1B82  1283               	bcf	status, 5	;RP0=0, select bank0
 13074  1B83  1303               	bcf	status, 6	;RP1=0, select bank0
 13075  1B84  1188               	bcf	(67/8),(67)&7
 13076                           	line	133
 13077                           	
 13078  1B85                     l1390:	
 13079  1B85  0008               	return
 13080                           	opt stack 0
 13081                           GLOBAL	__end_of_Lcd_Data
 13082  1B86                     	__end_of_Lcd_Data:
 13083 ;; =============== function _Lcd_Data ends ============
 13084                           
 13085                           	signat	_Lcd_Data,4216
 13086                           	global	_Lcd_Cmd
 13087                           psect	text868,local,class=CODE,delta=2
 13088                           global __ptext868
 13089  1B14                     __ptext868:
 13090                           
 13091 ;; *************** function _Lcd_Cmd *****************
 13092 ;; Defined at:
 13093 ;;		line 106 in file "F:\BEVERAGES_ENHANCEMENT\SOFTWARE_DESIGN\MASTER_PIC_16F877A\2015_09_13\lcd.c"
 13094 ;; Parameters:    Size  Location     Type
 13095 ;;  s               1    wreg     unsigned char 
 13096 ;; Auto vars:     Size  Location     Type
 13097 ;;  s               1    4[BANK0 ] unsigned char 
 13098 ;; Return value:  Size  Location     Type
 13099 ;;		None               void
 13100 ;; Registers used:
 13101 ;;		wreg, status,2, status,0, pclath, cstack
 13102 ;; Tracked objects:
 13103 ;;		On entry : 0/0
 13104 ;;		On exit  : 0/0
 13105 ;;		Unchanged: 0/0
 13106 ;; Data sizes:     COMMON   BANK0   BANK1   BANK3   BANK2
 13107 ;;      Params:         0       0       0       0       0
 13108 ;;      Locals:         0       1       0       0       0
 13109 ;;      Temps:          0       1       0       0       0
 13110 ;;      Totals:         0       2       0       0       0
 13111 ;;Total ram usage:        2 bytes
 13112 ;; Hardware stack levels used:    1
 13113 ;; Hardware stack levels required when called:    1
 13114 ;; This function calls:
 13115 ;;		_DelayMs
 13116 ;; This function is called by:
 13117 ;;		_Lcd_Init
 13118 ;;		_Lcd_String
 13119 ;;		_main
 13120 ;;		_enable_valves
 13121 ;;		_change_modes
 13122 ;;		_call_control_valve
 13123 ;;		_print_yes_no
 13124 ;; This function uses a non-reentrant model
 13125 ;;
 13126                           psect	text868
 13127                           	file	"F:\BEVERAGES_ENHANCEMENT\SOFTWARE_DESIGN\MASTER_PIC_16F877A\2015_09_13\lcd.c"
 13128                           	line	106
 13129                           	global	__size_of_Lcd_Cmd
 13130  0039                     	__size_of_Lcd_Cmd	equ	__end_of_Lcd_Cmd-_Lcd_Cmd
 13131                           	
 13132  1B14                     _Lcd_Cmd:	
 13133                           	opt	stack 4
 13134                           ; Regs used in _Lcd_Cmd: [wreg+status,2+status,0+pclath+cstack]
 13135                           ;Lcd_Cmd@s stored from wreg
 13136  1B14  1283               	bcf	status, 5	;RP0=0, select bank0
 13137  1B15  1303               	bcf	status, 6	;RP1=0, select bank0
 13138  1B16  00CD               	movwf	(Lcd_Cmd@s)
 13139                           	line	107
 13140                           	
 13141  1B17                     l9725:	
 13142                           ;lcd.c: 107: PORTD=s & 0XF0;
 13143  1B17  084D               	movf	(Lcd_Cmd@s),w
 13144  1B18  39F0               	andlw	0F0h
 13145  1B19  0088               	movwf	(8)	;volatile
 13146                           	line	108
 13147                           	
 13148  1B1A                     l9727:	
 13149                           ;lcd.c: 108: RD2=0;
 13150  1B1A  1108               	bcf	(66/8),(66)&7
 13151                           	line	109
 13152                           	
 13153  1B1B                     l9729:	
 13154                           ;lcd.c: 109: RD3=1;
 13155  1B1B  1588               	bsf	(67/8),(67)&7
 13156                           	line	110
 13157                           	
 13158  1B1C                     l9731:	
 13159                           ;lcd.c: 110: DelayMs(5);
 13160  1B1C  3005               	movlw	low(05h)
 13161  1B1D  00FC               	movwf	(?_DelayMs)
 13162  1B1E  3000               	movlw	high(05h)
 13163  1B1F  00FD               	movwf	((?_DelayMs))+1
 13164  1B20  160A  158A  21F3   	fcall	_DelayMs
              160A  158A         
 13165                           	line	111
 13166                           	
 13167  1B25                     l9733:	
 13168                           ;lcd.c: 111: RD3=0;
 13169  1B25  1283               	bcf	status, 5	;RP0=0, select bank0
 13170  1B26  1303               	bcf	status, 6	;RP1=0, select bank0
 13171  1B27  1188               	bcf	(67/8),(67)&7
 13172                           	line	112
 13173                           	
 13174  1B28                     l9735:	
 13175                           ;lcd.c: 112: DelayMs(5);
 13176  1B28  3005               	movlw	low(05h)
 13177  1B29  00FC               	movwf	(?_DelayMs)
 13178  1B2A  3000               	movlw	high(05h)
 13179  1B2B  00FD               	movwf	((?_DelayMs))+1
 13180  1B2C  160A  158A  21F3   	fcall	_DelayMs
              160A  158A         
 13181                           	line	113
 13182                           	
 13183  1B31                     l9737:	
 13184                           ;lcd.c: 113: PORTD=s << 4;
 13185  1B31  1283               	bcf	status, 5	;RP0=0, select bank0
 13186  1B32  1303               	bcf	status, 6	;RP1=0, select bank0
 13187  1B33  084D               	movf	(Lcd_Cmd@s),w
 13188  1B34  00CC               	movwf	(??_Lcd_Cmd+0)+0
 13189  1B35  3003               	movlw	(04h)-1
 13190  1B36                     u5485:
 13191  1B36  1003               	clrc
 13192  1B37  0DCC               	rlf	(??_Lcd_Cmd+0)+0,f
 13193  1B38  3EFF               	addlw	-1
 13194  1B39  1D03               	skipz
 13195  1B3A  2B36               	goto	u5485
 13196  1B3B  1003               	clrc
 13197  1B3C  0D4C               	rlf	(??_Lcd_Cmd+0)+0,w
 13198  1B3D  0088               	movwf	(8)	;volatile
 13199                           	line	114
 13200                           	
 13201  1B3E                     l9739:	
 13202                           ;lcd.c: 114: RD2=0;
 13203  1B3E  1108               	bcf	(66/8),(66)&7
 13204                           	line	115
 13205                           	
 13206  1B3F                     l9741:	
 13207                           ;lcd.c: 115: RD3=1;
 13208  1B3F  1588               	bsf	(67/8),(67)&7
 13209                           	line	116
 13210                           	
 13211  1B40                     l9743:	
 13212                           ;lcd.c: 116: DelayMs(5);
 13213  1B40  3005               	movlw	low(05h)
 13214  1B41  00FC               	movwf	(?_DelayMs)
 13215  1B42  3000               	movlw	high(05h)
 13216  1B43  00FD               	movwf	((?_DelayMs))+1
 13217  1B44  160A  158A  21F3   	fcall	_DelayMs
              160A  158A         
 13218                           	line	117
 13219                           	
 13220  1B49                     l9745:	
 13221                           ;lcd.c: 117: RD3=0;
 13222  1B49  1283               	bcf	status, 5	;RP0=0, select bank0
 13223  1B4A  1303               	bcf	status, 6	;RP1=0, select bank0
 13224  1B4B  1188               	bcf	(67/8),(67)&7
 13225                           	line	118
 13226                           	
 13227  1B4C                     l1387:	
 13228  1B4C  0008               	return
 13229                           	opt stack 0
 13230                           GLOBAL	__end_of_Lcd_Cmd
 13231  1B4D                     	__end_of_Lcd_Cmd:
 13232 ;; =============== function _Lcd_Cmd ends ============
 13233                           
 13234                           	signat	_Lcd_Cmd,4216
 13235                           	global	_GetADCValue
 13236                           psect	text869,local,class=CODE,delta=2
 13237                           global __ptext869
 13238  1ADC                     __ptext869:
 13239                           
 13240 ;; *************** function _GetADCValue *****************
 13241 ;; Defined at:
 13242 ;;		line 31 in file "F:\BEVERAGES_ENHANCEMENT\SOFTWARE_DESIGN\MASTER_PIC_16F877A\2015_09_13\adc.c"
 13243 ;; Parameters:    Size  Location     Type
 13244 ;;  Channel         1    wreg     unsigned char 
 13245 ;; Auto vars:     Size  Location     Type
 13246 ;;  Channel         1    4[COMMON] unsigned char 
 13247 ;; Return value:  Size  Location     Type
 13248 ;;                  2    0[COMMON] unsigned int 
 13249 ;; Registers used:
 13250 ;;		wreg, status,2, status,0, btemp+1
 13251 ;; Tracked objects:
 13252 ;;		On entry : 0/0
 13253 ;;		On exit  : 0/0
 13254 ;;		Unchanged: 0/0
 13255 ;; Data sizes:     COMMON   BANK0   BANK1   BANK3   BANK2
 13256 ;;      Params:         2       0       0       0       0
 13257 ;;      Locals:         1       0       0       0       0
 13258 ;;      Temps:          2       0       0       0       0
 13259 ;;      Totals:         5       0       0       0       0
 13260 ;;Total ram usage:        5 bytes
 13261 ;; Hardware stack levels used:    1
 13262 ;; This function calls:
 13263 ;;		Nothing
 13264 ;; This function is called by:
 13265 ;;		_main
 13266 ;; This function uses a non-reentrant model
 13267 ;;
 13268                           psect	text869
 13269                           	file	"F:\BEVERAGES_ENHANCEMENT\SOFTWARE_DESIGN\MASTER_PIC_16F877A\2015_09_13\adc.c"
 13270                           	line	31
 13271                           	global	__size_of_GetADCValue
 13272  0038                     	__size_of_GetADCValue	equ	__end_of_GetADCValue-_GetADCValue
 13273                           	
 13274  1ADC                     _GetADCValue:	
 13275                           	opt	stack 7
 13276                           ; Regs used in _GetADCValue: [wreg+status,2+status,0+btemp+1]
 13277                           ;GetADCValue@Channel stored from wreg
 13278  1ADC  00F4               	movwf	(GetADCValue@Channel)
 13279                           	line	32
 13280                           	
 13281  1ADD                     l9715:	
 13282                           ;adc.c: 32: ADCON0 &= 0xc7;
 13283  1ADD  30C7               	movlw	(0C7h)
 13284  1ADE  00F2               	movwf	(??_GetADCValue+0)+0
 13285  1ADF  0872               	movf	(??_GetADCValue+0)+0,w
 13286  1AE0  1283               	bcf	status, 5	;RP0=0, select bank0
 13287  1AE1  1303               	bcf	status, 6	;RP1=0, select bank0
 13288  1AE2  059F               	andwf	(31),f	;volatile
 13289                           	line	33
 13290                           ;adc.c: 33: ADCON0 |= (Channel<<3);
 13291  1AE3  0874               	movf	(GetADCValue@Channel),w
 13292  1AE4  00F2               	movwf	(??_GetADCValue+0)+0
 13293  1AE5  3002               	movlw	(03h)-1
 13294  1AE6                     u5465:
 13295  1AE6  1003               	clrc
 13296  1AE7  0DF2               	rlf	(??_GetADCValue+0)+0,f
 13297  1AE8  3EFF               	addlw	-1
 13298  1AE9  1D03               	skipz
 13299  1AEA  2AE6               	goto	u5465
 13300  1AEB  1003               	clrc
 13301  1AEC  0D72               	rlf	(??_GetADCValue+0)+0,w
 13302  1AED  00F3               	movwf	(??_GetADCValue+1)+0
 13303  1AEE  0873               	movf	(??_GetADCValue+1)+0,w
 13304  1AEF  049F               	iorwf	(31),f	;volatile
 13305                           	line	35
 13306                           	
 13307  1AF0                     l9717:	
 13308                           ;adc.c: 35: _delay((unsigned long)((10)*(20000000/4000.0)));
 13309                           	opt asmopt_off
 13310  1AF0  3041               movlw	65
 13311  1AF1  00F3               movwf	((??_GetADCValue+0)+0+1),f
 13312  1AF2  30EE               	movlw	238
 13313  1AF3  00F2               movwf	((??_GetADCValue+0)+0),f
 13314  1AF4                     u7587:
 13315  1AF4  0BF2               	decfsz	((??_GetADCValue+0)+0),f
 13316  1AF5  2AF4               	goto	u7587
 13317  1AF6  0BF3               	decfsz	((??_GetADCValue+0)+0+1),f
 13318  1AF7  2AF4               	goto	u7587
 13319  1AF8  0064               	clrwdt
 13320                           opt asmopt_on
 13321                           
 13322                           	line	37
 13323                           	
 13324  1AF9                     l9719:	
 13325                           ;adc.c: 37: GO_nDONE = 1;
 13326  1AF9  1283               	bcf	status, 5	;RP0=0, select bank0
 13327  1AFA  1303               	bcf	status, 6	;RP1=0, select bank0
 13328  1AFB  151F               	bsf	(250/8),(250)&7
 13329                           	line	39
 13330                           ;adc.c: 39: while(GO_nDONE);
 13331  1AFC  2AFD               	goto	l690
 13332                           	
 13333  1AFD                     l691:	
 13334                           	
 13335  1AFD                     l690:	
 13336  1AFD  191F               	btfsc	(250/8),(250)&7
 13337  1AFE  2B00               	goto	u5471
 13338  1AFF  2B01               	goto	u5470
 13339  1B00                     u5471:
 13340  1B00  2AFD               	goto	l690
 13341  1B01                     u5470:
 13342  1B01  2B02               	goto	l9721
 13343                           	
 13344  1B02                     l692:	
 13345                           	line	41
 13346                           	
 13347  1B02                     l9721:	
 13348                           ;adc.c: 41: return ((ADRESH<<8)+ADRESL);
 13349  1B02  081E               	movf	(30),w	;volatile
 13350  1B03  00F2               	movwf	(??_GetADCValue+0)+0
 13351  1B04  01F3               	clrf	(??_GetADCValue+0)+0+1
 13352  1B05  0872               	movf	(??_GetADCValue+0)+0,w
 13353  1B06  00F3               	movwf	(??_GetADCValue+0)+1
 13354  1B07  01F2               	clrf	(??_GetADCValue+0)+0
 13355  1B08  1683               	bsf	status, 5	;RP0=1, select bank1
 13356  1B09  1303               	bcf	status, 6	;RP1=0, select bank1
 13357  1B0A  081E               	movf	(158)^080h,w	;volatile
 13358  1B0B  0772               	addwf	0+(??_GetADCValue+0)+0,w
 13359  1B0C  00F0               	movwf	(?_GetADCValue)
 13360  1B0D  3000               	movlw	0
 13361  1B0E  1803               	skipnc
 13362  1B0F  3001               	movlw	1
 13363  1B10  0773               	addwf	1+(??_GetADCValue+0)+0,w
 13364  1B11  00F1               	movwf	1+(?_GetADCValue)
 13365  1B12  2B13               	goto	l693
 13366                           	
 13367  1B13                     l9723:	
 13368                           	line	42
 13369                           	
 13370  1B13                     l693:	
 13371  1B13  0008               	return
 13372                           	opt stack 0
 13373                           GLOBAL	__end_of_GetADCValue
 13374  1B14                     	__end_of_GetADCValue:
 13375 ;; =============== function _GetADCValue ends ============
 13376                           
 13377                           	signat	_GetADCValue,4218
 13378                           	global	___awmod
 13379                           psect	text870,local,class=CODE,delta=2
 13380                           global __ptext870
 13381  1DA3                     __ptext870:
 13382                           
 13383 ;; *************** function ___awmod *****************
 13384 ;; Defined at:
 13385 ;;		line 5 in file "C:\Program Files\HI-TECH Software\PICC\9.82\sources\awmod.c"
 13386 ;; Parameters:    Size  Location     Type
 13387 ;;  divisor         2    0[COMMON] int 
 13388 ;;  dividend        2    2[COMMON] int 
 13389 ;; Auto vars:     Size  Location     Type
 13390 ;;  sign            1    6[COMMON] unsigned char 
 13391 ;;  counter         1    5[COMMON] unsigned char 
 13392 ;; Return value:  Size  Location     Type
 13393 ;;                  2    0[COMMON] int 
 13394 ;; Registers used:
 13395 ;;		wreg, status,2, status,0
 13396 ;; Tracked objects:
 13397 ;;		On entry : 0/0
 13398 ;;		On exit  : 0/0
 13399 ;;		Unchanged: 0/0
 13400 ;; Data sizes:     COMMON   BANK0   BANK1   BANK3   BANK2
 13401 ;;      Params:         4       0       0       0       0
 13402 ;;      Locals:         2       0       0       0       0
 13403 ;;      Temps:          1       0       0       0       0
 13404 ;;      Totals:         7       0       0       0       0
 13405 ;;Total ram usage:        7 bytes
 13406 ;; Hardware stack levels used:    1
 13407 ;; This function calls:
 13408 ;;		Nothing
 13409 ;; This function is called by:
 13410 ;;		_myitoa
 13411 ;; This function uses a non-reentrant model
 13412 ;;
 13413                           psect	text870
 13414                           	file	"C:\Program Files\HI-TECH Software\PICC\9.82\sources\awmod.c"
 13415                           	line	5
 13416                           	global	__size_of___awmod
 13417  0066                     	__size_of___awmod	equ	__end_of___awmod-___awmod
 13418                           	
 13419  1DA3                     ___awmod:	
 13420                           	opt	stack 5
 13421                           ; Regs used in ___awmod: [wreg+status,2+status,0]
 13422                           	line	8
 13423                           	
 13424  1DA3                     l9681:	
 13425  1DA3  01F6               	clrf	(___awmod@sign)
 13426                           	line	9
 13427  1DA4  1FF3               	btfss	(___awmod@dividend+1),7
 13428  1DA5  2DA7               	goto	u5371
 13429  1DA6  2DA8               	goto	u5370
 13430  1DA7                     u5371:
 13431  1DA7  2DB1               	goto	l9685
 13432  1DA8                     u5370:
 13433                           	line	10
 13434                           	
 13435  1DA8                     l9683:	
 13436  1DA8  09F2               	comf	(___awmod@dividend),f
 13437  1DA9  09F3               	comf	(___awmod@dividend+1),f
 13438  1DAA  0AF2               	incf	(___awmod@dividend),f
 13439  1DAB  1903               	skipnz
 13440  1DAC  0AF3               	incf	(___awmod@dividend+1),f
 13441                           	line	11
 13442  1DAD  01F6               	clrf	(___awmod@sign)
 13443  1DAE  1403               	bsf	status,0
 13444  1DAF  0DF6               	rlf	(___awmod@sign),f
 13445  1DB0  2DB1               	goto	l9685
 13446                           	line	12
 13447                           	
 13448  1DB1                     l6313:	
 13449                           	line	13
 13450                           	
 13451  1DB1                     l9685:	
 13452  1DB1  1FF1               	btfss	(___awmod@divisor+1),7
 13453  1DB2  2DB4               	goto	u5381
 13454  1DB3  2DB5               	goto	u5380
 13455  1DB4                     u5381:
 13456  1DB4  2DBB               	goto	l9689
 13457  1DB5                     u5380:
 13458                           	line	14
 13459                           	
 13460  1DB5                     l9687:	
 13461  1DB5  09F0               	comf	(___awmod@divisor),f
 13462  1DB6  09F1               	comf	(___awmod@divisor+1),f
 13463  1DB7  0AF0               	incf	(___awmod@divisor),f
 13464  1DB8  1903               	skipnz
 13465  1DB9  0AF1               	incf	(___awmod@divisor+1),f
 13466  1DBA  2DBB               	goto	l9689
 13467                           	
 13468  1DBB                     l6314:	
 13469                           	line	15
 13470                           	
 13471  1DBB                     l9689:	
 13472  1DBB  0871               	movf	(___awmod@divisor+1),w
 13473  1DBC  0470               	iorwf	(___awmod@divisor),w
 13474  1DBD  1903               	skipnz
 13475  1DBE  2DC0               	goto	u5391
 13476  1DBF  2DC1               	goto	u5390
 13477  1DC0                     u5391:
 13478  1DC0  2DF7               	goto	l9707
 13479  1DC1                     u5390:
 13480                           	line	16
 13481                           	
 13482  1DC1                     l9691:	
 13483  1DC1  01F5               	clrf	(___awmod@counter)
 13484  1DC2  1403               	bsf	status,0
 13485  1DC3  0DF5               	rlf	(___awmod@counter),f
 13486                           	line	17
 13487  1DC4  2DD1               	goto	l9697
 13488                           	
 13489  1DC5                     l6317:	
 13490                           	line	18
 13491                           	
 13492  1DC5                     l9693:	
 13493  1DC5  3001               	movlw	01h
 13494                           	
 13495  1DC6                     u5405:
 13496  1DC6  1003               	clrc
 13497  1DC7  0DF0               	rlf	(___awmod@divisor),f
 13498  1DC8  0DF1               	rlf	(___awmod@divisor+1),f
 13499  1DC9  3EFF               	addlw	-1
 13500  1DCA  1D03               	skipz
 13501  1DCB  2DC6               	goto	u5405
 13502                           	line	19
 13503                           	
 13504  1DCC                     l9695:	
 13505  1DCC  3001               	movlw	(01h)
 13506  1DCD  00F4               	movwf	(??___awmod+0)+0
 13507  1DCE  0874               	movf	(??___awmod+0)+0,w
 13508  1DCF  07F5               	addwf	(___awmod@counter),f
 13509  1DD0  2DD1               	goto	l9697
 13510                           	line	20
 13511                           	
 13512  1DD1                     l6316:	
 13513                           	line	17
 13514                           	
 13515  1DD1                     l9697:	
 13516  1DD1  1FF1               	btfss	(___awmod@divisor+1),(15)&7
 13517  1DD2  2DD4               	goto	u5411
 13518  1DD3  2DD5               	goto	u5410
 13519  1DD4                     u5411:
 13520  1DD4  2DC5               	goto	l9693
 13521  1DD5                     u5410:
 13522  1DD5  2DD7               	goto	l9699
 13523                           	
 13524  1DD6                     l6318:	
 13525  1DD6  2DD7               	goto	l9699
 13526                           	line	21
 13527                           	
 13528  1DD7                     l6319:	
 13529                           	line	22
 13530                           	
 13531  1DD7                     l9699:	
 13532  1DD7  0871               	movf	(___awmod@divisor+1),w
 13533  1DD8  0273               	subwf	(___awmod@dividend+1),w
 13534  1DD9  1D03               	skipz
 13535  1DDA  2DDD               	goto	u5425
 13536  1DDB  0870               	movf	(___awmod@divisor),w
 13537  1DDC  0272               	subwf	(___awmod@dividend),w
 13538  1DDD                     u5425:
 13539  1DDD  1C03               	skipc
 13540  1DDE  2DE0               	goto	u5421
 13541  1DDF  2DE1               	goto	u5420
 13542  1DE0                     u5421:
 13543  1DE0  2DE8               	goto	l9703
 13544  1DE1                     u5420:
 13545                           	line	23
 13546                           	
 13547  1DE1                     l9701:	
 13548  1DE1  0870               	movf	(___awmod@divisor),w
 13549  1DE2  02F2               	subwf	(___awmod@dividend),f
 13550  1DE3  0871               	movf	(___awmod@divisor+1),w
 13551  1DE4  1C03               	skipc
 13552  1DE5  03F3               	decf	(___awmod@dividend+1),f
 13553  1DE6  02F3               	subwf	(___awmod@dividend+1),f
 13554  1DE7  2DE8               	goto	l9703
 13555                           	
 13556  1DE8                     l6320:	
 13557                           	line	24
 13558                           	
 13559  1DE8                     l9703:	
 13560  1DE8  3001               	movlw	01h
 13561                           	
 13562  1DE9                     u5435:
 13563  1DE9  1003               	clrc
 13564  1DEA  0CF1               	rrf	(___awmod@divisor+1),f
 13565  1DEB  0CF0               	rrf	(___awmod@divisor),f
 13566  1DEC  3EFF               	addlw	-1
 13567  1DED  1D03               	skipz
 13568  1DEE  2DE9               	goto	u5435
 13569                           	line	25
 13570                           	
 13571  1DEF                     l9705:	
 13572  1DEF  3001               	movlw	low(01h)
 13573  1DF0  02F5               	subwf	(___awmod@counter),f
 13574  1DF1  1D03               	btfss	status,2
 13575  1DF2  2DF4               	goto	u5441
 13576  1DF3  2DF5               	goto	u5440
 13577  1DF4                     u5441:
 13578  1DF4  2DD7               	goto	l9699
 13579  1DF5                     u5440:
 13580  1DF5  2DF7               	goto	l9707
 13581                           	
 13582  1DF6                     l6321:	
 13583  1DF6  2DF7               	goto	l9707
 13584                           	line	26
 13585                           	
 13586  1DF7                     l6315:	
 13587                           	line	27
 13588                           	
 13589  1DF7                     l9707:	
 13590  1DF7  0876               	movf	(___awmod@sign),w
 13591  1DF8  1D03               	skipz
 13592  1DF9  2DFB               	goto	u5450
 13593  1DFA  2E01               	goto	l9711
 13594  1DFB                     u5450:
 13595                           	line	28
 13596                           	
 13597  1DFB                     l9709:	
 13598  1DFB  09F2               	comf	(___awmod@dividend),f
 13599  1DFC  09F3               	comf	(___awmod@dividend+1),f
 13600  1DFD  0AF2               	incf	(___awmod@dividend),f
 13601  1DFE  1903               	skipnz
 13602  1DFF  0AF3               	incf	(___awmod@dividend+1),f
 13603  1E00  2E01               	goto	l9711
 13604                           	
 13605  1E01                     l6322:	
 13606                           	line	29
 13607                           	
 13608  1E01                     l9711:	
 13609  1E01  0873               	movf	(___awmod@dividend+1),w
 13610  1E02  01F1               	clrf	(?___awmod+1)
 13611  1E03  07F1               	addwf	(?___awmod+1)
 13612  1E04  0872               	movf	(___awmod@dividend),w
 13613  1E05  01F0               	clrf	(?___awmod)
 13614  1E06  07F0               	addwf	(?___awmod)
 13615                           
 13616  1E07  2E08               	goto	l6323
 13617                           	
 13618  1E08                     l9713:	
 13619                           	line	30
 13620                           	
 13621  1E08                     l6323:	
 13622  1E08  0008               	return
 13623                           	opt stack 0
 13624                           GLOBAL	__end_of___awmod
 13625  1E09                     	__end_of___awmod:
 13626 ;; =============== function ___awmod ends ============
 13627                           
 13628                           	signat	___awmod,8314
 13629                           	global	___aldiv
 13630                           psect	text871,local,class=CODE,delta=2
 13631                           global __ptext871
 13632  0050                     __ptext871:
 13633                           
 13634 ;; *************** function ___aldiv *****************
 13635 ;; Defined at:
 13636 ;;		line 5 in file "C:\Program Files\HI-TECH Software\PICC\9.82\sources\aldiv.c"
 13637 ;; Parameters:    Size  Location     Type
 13638 ;;  divisor         4    0[COMMON] long 
 13639 ;;  dividend        4    4[COMMON] long 
 13640 ;; Auto vars:     Size  Location     Type
 13641 ;;  quotient        4    2[BANK0 ] long 
 13642 ;;  sign            1    1[BANK0 ] unsigned char 
 13643 ;;  counter         1    0[BANK0 ] unsigned char 
 13644 ;; Return value:  Size  Location     Type
 13645 ;;                  4    0[COMMON] long 
 13646 ;; Registers used:
 13647 ;;		wreg, status,2, status,0
 13648 ;; Tracked objects:
 13649 ;;		On entry : 0/0
 13650 ;;		On exit  : 0/0
 13651 ;;		Unchanged: 0/0
 13652 ;; Data sizes:     COMMON   BANK0   BANK1   BANK3   BANK2
 13653 ;;      Params:         8       0       0       0       0
 13654 ;;      Locals:         0       6       0       0       0
 13655 ;;      Temps:          1       0       0       0       0
 13656 ;;      Totals:         9       6       0       0       0
 13657 ;;Total ram usage:       15 bytes
 13658 ;; Hardware stack levels used:    1
 13659 ;; This function calls:
 13660 ;;		Nothing
 13661 ;; This function is called by:
 13662 ;;		_Uart_Init
 13663 ;; This function uses a non-reentrant model
 13664 ;;
 13665                           psect	text871
 13666                           	file	"C:\Program Files\HI-TECH Software\PICC\9.82\sources\aldiv.c"
 13667                           	line	5
 13668                           	global	__size_of___aldiv
 13669  00A8                     	__size_of___aldiv	equ	__end_of___aldiv-___aldiv
 13670                           	
 13671  0050                     ___aldiv:	
 13672                           	opt	stack 6
 13673                           ; Regs used in ___aldiv: [wreg+status,2+status,0]
 13674                           	line	9
 13675                           	
 13676  0050                     l9639:	
 13677  0050  1283               	bcf	status, 5	;RP0=0, select bank0
 13678  0051  1303               	bcf	status, 6	;RP1=0, select bank0
 13679  0052  01CA               	clrf	(___aldiv@sign)
 13680                           	line	10
 13681  0053  1FF3               	btfss	(___aldiv@divisor+3),7
 13682  0054  2856               	goto	u5271
 13683  0055  2857               	goto	u5270
 13684  0056                     u5271:
 13685  0056  2866               	goto	l9645
 13686  0057                     u5270:
 13687                           	line	11
 13688                           	
 13689  0057                     l9641:	
 13690  0057  09F0               	comf	(___aldiv@divisor),f
 13691  0058  09F1               	comf	(___aldiv@divisor+1),f
 13692  0059  09F2               	comf	(___aldiv@divisor+2),f
 13693  005A  09F3               	comf	(___aldiv@divisor+3),f
 13694  005B  0AF0               	incf	(___aldiv@divisor),f
 13695  005C  1903               	skipnz
 13696  005D  0AF1               	incf	(___aldiv@divisor+1),f
 13697  005E  1903               	skipnz
 13698  005F  0AF2               	incf	(___aldiv@divisor+2),f
 13699  0060  1903               	skipnz
 13700  0061  0AF3               	incf	(___aldiv@divisor+3),f
 13701                           	line	12
 13702                           	
 13703  0062                     l9643:	
 13704  0062  01CA               	clrf	(___aldiv@sign)
 13705  0063  1403               	bsf	status,0
 13706  0064  0DCA               	rlf	(___aldiv@sign),f
 13707  0065  2866               	goto	l9645
 13708                           	line	13
 13709                           	
 13710  0066                     l6300:	
 13711                           	line	14
 13712                           	
 13713  0066                     l9645:	
 13714  0066  1FF7               	btfss	(___aldiv@dividend+3),7
 13715  0067  2869               	goto	u5281
 13716  0068  286A               	goto	u5280
 13717  0069                     u5281:
 13718  0069  287A               	goto	l9651
 13719  006A                     u5280:
 13720                           	line	15
 13721                           	
 13722  006A                     l9647:	
 13723  006A  09F4               	comf	(___aldiv@dividend),f
 13724  006B  09F5               	comf	(___aldiv@dividend+1),f
 13725  006C  09F6               	comf	(___aldiv@dividend+2),f
 13726  006D  09F7               	comf	(___aldiv@dividend+3),f
 13727  006E  0AF4               	incf	(___aldiv@dividend),f
 13728  006F  1903               	skipnz
 13729  0070  0AF5               	incf	(___aldiv@dividend+1),f
 13730  0071  1903               	skipnz
 13731  0072  0AF6               	incf	(___aldiv@dividend+2),f
 13732  0073  1903               	skipnz
 13733  0074  0AF7               	incf	(___aldiv@dividend+3),f
 13734                           	line	16
 13735                           	
 13736  0075                     l9649:	
 13737  0075  3001               	movlw	(01h)
 13738  0076  00F8               	movwf	(??___aldiv+0)+0
 13739  0077  0878               	movf	(??___aldiv+0)+0,w
 13740  0078  06CA               	xorwf	(___aldiv@sign),f
 13741  0079  287A               	goto	l9651
 13742                           	line	17
 13743                           	
 13744  007A                     l6301:	
 13745                           	line	18
 13746                           	
 13747  007A                     l9651:	
 13748  007A  3000               	movlw	0
 13749  007B  00CE               	movwf	(___aldiv@quotient+3)
 13750  007C  3000               	movlw	0
 13751  007D  00CD               	movwf	(___aldiv@quotient+2)
 13752  007E  3000               	movlw	0
 13753  007F  00CC               	movwf	(___aldiv@quotient+1)
 13754  0080  3000               	movlw	0
 13755  0081  00CB               	movwf	(___aldiv@quotient)
 13756                           
 13757                           	line	19
 13758                           	
 13759  0082                     l9653:	
 13760  0082  0873               	movf	(___aldiv@divisor+3),w
 13761  0083  0472               	iorwf	(___aldiv@divisor+2),w
 13762  0084  0471               	iorwf	(___aldiv@divisor+1),w
 13763  0085  0470               	iorwf	(___aldiv@divisor),w
 13764  0086  1903               	skipnz
 13765  0087  2889               	goto	u5291
 13766  0088  288A               	goto	u5290
 13767  0089                     u5291:
 13768  0089  28DE               	goto	l9673
 13769  008A                     u5290:
 13770                           	line	20
 13771                           	
 13772  008A                     l9655:	
 13773  008A  01C9               	clrf	(___aldiv@counter)
 13774  008B  1403               	bsf	status,0
 13775  008C  0DC9               	rlf	(___aldiv@counter),f
 13776                           	line	21
 13777  008D  289C               	goto	l9659
 13778                           	
 13779  008E                     l6304:	
 13780                           	line	22
 13781                           	
 13782  008E                     l9657:	
 13783  008E  3001               	movlw	01h
 13784  008F  00F8               	movwf	(??___aldiv+0)+0
 13785  0090                     u5305:
 13786  0090  1003               	clrc
 13787  0091  0DF0               	rlf	(___aldiv@divisor),f
 13788  0092  0DF1               	rlf	(___aldiv@divisor+1),f
 13789  0093  0DF2               	rlf	(___aldiv@divisor+2),f
 13790  0094  0DF3               	rlf	(___aldiv@divisor+3),f
 13791  0095  0BF8               	decfsz	(??___aldiv+0)+0
 13792  0096  2890               	goto	u5305
 13793                           	line	23
 13794  0097  3001               	movlw	(01h)
 13795  0098  00F8               	movwf	(??___aldiv+0)+0
 13796  0099  0878               	movf	(??___aldiv+0)+0,w
 13797  009A  07C9               	addwf	(___aldiv@counter),f
 13798  009B  289C               	goto	l9659
 13799                           	line	24
 13800                           	
 13801  009C                     l6303:	
 13802                           	line	21
 13803                           	
 13804  009C                     l9659:	
 13805  009C  1FF3               	btfss	(___aldiv@divisor+3),(31)&7
 13806  009D  289F               	goto	u5311
 13807  009E  28A0               	goto	u5310
 13808  009F                     u5311:
 13809  009F  288E               	goto	l9657
 13810  00A0                     u5310:
 13811  00A0  28A2               	goto	l9661
 13812                           	
 13813  00A1                     l6305:	
 13814  00A1  28A2               	goto	l9661
 13815                           	line	25
 13816                           	
 13817  00A2                     l6306:	
 13818                           	line	26
 13819                           	
 13820  00A2                     l9661:	
 13821  00A2  3001               	movlw	01h
 13822  00A3  00F8               	movwf	(??___aldiv+0)+0
 13823  00A4                     u5325:
 13824  00A4  1003               	clrc
 13825  00A5  0DCB               	rlf	(___aldiv@quotient),f
 13826  00A6  0DCC               	rlf	(___aldiv@quotient+1),f
 13827  00A7  0DCD               	rlf	(___aldiv@quotient+2),f
 13828  00A8  0DCE               	rlf	(___aldiv@quotient+3),f
 13829  00A9  0BF8               	decfsz	(??___aldiv+0)+0
 13830  00AA  28A4               	goto	u5325
 13831                           	line	27
 13832                           	
 13833  00AB                     l9663:	
 13834  00AB  0873               	movf	(___aldiv@divisor+3),w
 13835  00AC  0277               	subwf	(___aldiv@dividend+3),w
 13836  00AD  1D03               	skipz
 13837  00AE  28B9               	goto	u5335
 13838  00AF  0872               	movf	(___aldiv@divisor+2),w
 13839  00B0  0276               	subwf	(___aldiv@dividend+2),w
 13840  00B1  1D03               	skipz
 13841  00B2  28B9               	goto	u5335
 13842  00B3  0871               	movf	(___aldiv@divisor+1),w
 13843  00B4  0275               	subwf	(___aldiv@dividend+1),w
 13844  00B5  1D03               	skipz
 13845  00B6  28B9               	goto	u5335
 13846  00B7  0870               	movf	(___aldiv@divisor),w
 13847  00B8  0274               	subwf	(___aldiv@dividend),w
 13848  00B9                     u5335:
 13849  00B9  1C03               	skipc
 13850  00BA  28BC               	goto	u5331
 13851  00BB  28BD               	goto	u5330
 13852  00BC                     u5331:
 13853  00BC  28CD               	goto	l9669
 13854  00BD                     u5330:
 13855                           	line	28
 13856                           	
 13857  00BD                     l9665:	
 13858  00BD  0870               	movf	(___aldiv@divisor),w
 13859  00BE  02F4               	subwf	(___aldiv@dividend),f
 13860  00BF  0871               	movf	(___aldiv@divisor+1),w
 13861  00C0  1C03               	skipc
 13862  00C1  0F71               	incfsz	(___aldiv@divisor+1),w
 13863  00C2  02F5               	subwf	(___aldiv@dividend+1),f
 13864  00C3  0872               	movf	(___aldiv@divisor+2),w
 13865  00C4  1C03               	skipc
 13866  00C5  0F72               	incfsz	(___aldiv@divisor+2),w
 13867  00C6  02F6               	subwf	(___aldiv@dividend+2),f
 13868  00C7  0873               	movf	(___aldiv@divisor+3),w
 13869  00C8  1C03               	skipc
 13870  00C9  0F73               	incfsz	(___aldiv@divisor+3),w
 13871  00CA  02F7               	subwf	(___aldiv@dividend+3),f
 13872                           	line	29
 13873                           	
 13874  00CB                     l9667:	
 13875  00CB  144B               	bsf	(___aldiv@quotient)+(0/8),(0)&7
 13876  00CC  28CD               	goto	l9669
 13877                           	line	30
 13878                           	
 13879  00CD                     l6307:	
 13880                           	line	31
 13881                           	
 13882  00CD                     l9669:	
 13883  00CD  3001               	movlw	01h
 13884  00CE                     u5345:
 13885  00CE  1003               	clrc
 13886  00CF  0CF3               	rrf	(___aldiv@divisor+3),f
 13887  00D0  0CF2               	rrf	(___aldiv@divisor+2),f
 13888  00D1  0CF1               	rrf	(___aldiv@divisor+1),f
 13889  00D2  0CF0               	rrf	(___aldiv@divisor),f
 13890  00D3  3EFF               	addlw	-1
 13891  00D4  1D03               	skipz
 13892  00D5  28CE               	goto	u5345
 13893                           
 13894                           	line	32
 13895                           	
 13896  00D6                     l9671:	
 13897  00D6  3001               	movlw	low(01h)
 13898  00D7  02C9               	subwf	(___aldiv@counter),f
 13899  00D8  1D03               	btfss	status,2
 13900  00D9  28DB               	goto	u5351
 13901  00DA  28DC               	goto	u5350
 13902  00DB                     u5351:
 13903  00DB  28A2               	goto	l9661
 13904  00DC                     u5350:
 13905  00DC  28DE               	goto	l9673
 13906                           	
 13907  00DD                     l6308:	
 13908  00DD  28DE               	goto	l9673
 13909                           	line	33
 13910                           	
 13911  00DE                     l6302:	
 13912                           	line	34
 13913                           	
 13914  00DE                     l9673:	
 13915  00DE  084A               	movf	(___aldiv@sign),w
 13916  00DF  1D03               	skipz
 13917  00E0  28E2               	goto	u5360
 13918  00E1  28EE               	goto	l9677
 13919  00E2                     u5360:
 13920                           	line	35
 13921                           	
 13922  00E2                     l9675:	
 13923  00E2  09CB               	comf	(___aldiv@quotient),f
 13924  00E3  09CC               	comf	(___aldiv@quotient+1),f
 13925  00E4  09CD               	comf	(___aldiv@quotient+2),f
 13926  00E5  09CE               	comf	(___aldiv@quotient+3),f
 13927  00E6  0ACB               	incf	(___aldiv@quotient),f
 13928  00E7  1903               	skipnz
 13929  00E8  0ACC               	incf	(___aldiv@quotient+1),f
 13930  00E9  1903               	skipnz
 13931  00EA  0ACD               	incf	(___aldiv@quotient+2),f
 13932  00EB  1903               	skipnz
 13933  00EC  0ACE               	incf	(___aldiv@quotient+3),f
 13934  00ED  28EE               	goto	l9677
 13935                           	
 13936  00EE                     l6309:	
 13937                           	line	36
 13938                           	
 13939  00EE                     l9677:	
 13940  00EE  084E               	movf	(___aldiv@quotient+3),w
 13941  00EF  00F3               	movwf	(?___aldiv+3)
 13942  00F0  084D               	movf	(___aldiv@quotient+2),w
 13943  00F1  00F2               	movwf	(?___aldiv+2)
 13944  00F2  084C               	movf	(___aldiv@quotient+1),w
 13945  00F3  00F1               	movwf	(?___aldiv+1)
 13946  00F4  084B               	movf	(___aldiv@quotient),w
 13947  00F5  00F0               	movwf	(?___aldiv)
 13948                           
 13949  00F6  28F7               	goto	l6310
 13950                           	
 13951  00F7                     l9679:	
 13952                           	line	37
 13953                           	
 13954  00F7                     l6310:	
 13955  00F7  0008               	return
 13956                           	opt stack 0
 13957                           GLOBAL	__end_of___aldiv
 13958  00F8                     	__end_of___aldiv:
 13959 ;; =============== function ___aldiv ends ============
 13960                           
 13961                           	signat	___aldiv,8316
 13962                           	global	___awdiv
 13963                           psect	text872,local,class=CODE,delta=2
 13964                           global __ptext872
 13965  1E09                     __ptext872:
 13966                           
 13967 ;; *************** function ___awdiv *****************
 13968 ;; Defined at:
 13969 ;;		line 5 in file "C:\Program Files\HI-TECH Software\PICC\9.82\sources\awdiv.c"
 13970 ;; Parameters:    Size  Location     Type
 13971 ;;  divisor         2    0[COMMON] int 
 13972 ;;  dividend        2    2[COMMON] int 
 13973 ;; Auto vars:     Size  Location     Type
 13974 ;;  quotient        2    7[COMMON] int 
 13975 ;;  sign            1    6[COMMON] unsigned char 
 13976 ;;  counter         1    5[COMMON] unsigned char 
 13977 ;; Return value:  Size  Location     Type
 13978 ;;                  2    0[COMMON] int 
 13979 ;; Registers used:
 13980 ;;		wreg, status,2, status,0
 13981 ;; Tracked objects:
 13982 ;;		On entry : 0/0
 13983 ;;		On exit  : 0/0
 13984 ;;		Unchanged: 0/0
 13985 ;; Data sizes:     COMMON   BANK0   BANK1   BANK3   BANK2
 13986 ;;      Params:         4       0       0       0       0
 13987 ;;      Locals:         4       0       0       0       0
 13988 ;;      Temps:          1       0       0       0       0
 13989 ;;      Totals:         9       0       0       0       0
 13990 ;;Total ram usage:        9 bytes
 13991 ;; Hardware stack levels used:    1
 13992 ;; This function calls:
 13993 ;;		Nothing
 13994 ;; This function is called by:
 13995 ;;		_myitoa
 13996 ;;		_enable_valves
 13997 ;; This function uses a non-reentrant model
 13998 ;;
 13999                           psect	text872
 14000                           	file	"C:\Program Files\HI-TECH Software\PICC\9.82\sources\awdiv.c"
 14001                           	line	5
 14002                           	global	__size_of___awdiv
 14003  0074                     	__size_of___awdiv	equ	__end_of___awdiv-___awdiv
 14004                           	
 14005  1E09                     ___awdiv:	
 14006                           	opt	stack 6
 14007                           ; Regs used in ___awdiv: [wreg+status,2+status,0]
 14008                           	line	9
 14009                           	
 14010  1E09                     l9599:	
 14011  1E09  01F6               	clrf	(___awdiv@sign)
 14012                           	line	10
 14013  1E0A  1FF1               	btfss	(___awdiv@divisor+1),7
 14014  1E0B  2E0D               	goto	u5171
 14015  1E0C  2E0E               	goto	u5170
 14016  1E0D                     u5171:
 14017  1E0D  2E17               	goto	l9603
 14018  1E0E                     u5170:
 14019                           	line	11
 14020                           	
 14021  1E0E                     l9601:	
 14022  1E0E  09F0               	comf	(___awdiv@divisor),f
 14023  1E0F  09F1               	comf	(___awdiv@divisor+1),f
 14024  1E10  0AF0               	incf	(___awdiv@divisor),f
 14025  1E11  1903               	skipnz
 14026  1E12  0AF1               	incf	(___awdiv@divisor+1),f
 14027                           	line	12
 14028  1E13  01F6               	clrf	(___awdiv@sign)
 14029  1E14  1403               	bsf	status,0
 14030  1E15  0DF6               	rlf	(___awdiv@sign),f
 14031  1E16  2E17               	goto	l9603
 14032                           	line	13
 14033                           	
 14034  1E17                     l6245:	
 14035                           	line	14
 14036                           	
 14037  1E17                     l9603:	
 14038  1E17  1FF3               	btfss	(___awdiv@dividend+1),7
 14039  1E18  2E1A               	goto	u5181
 14040  1E19  2E1B               	goto	u5180
 14041  1E1A                     u5181:
 14042  1E1A  2E25               	goto	l9609
 14043  1E1B                     u5180:
 14044                           	line	15
 14045                           	
 14046  1E1B                     l9605:	
 14047  1E1B  09F2               	comf	(___awdiv@dividend),f
 14048  1E1C  09F3               	comf	(___awdiv@dividend+1),f
 14049  1E1D  0AF2               	incf	(___awdiv@dividend),f
 14050  1E1E  1903               	skipnz
 14051  1E1F  0AF3               	incf	(___awdiv@dividend+1),f
 14052                           	line	16
 14053                           	
 14054  1E20                     l9607:	
 14055  1E20  3001               	movlw	(01h)
 14056  1E21  00F4               	movwf	(??___awdiv+0)+0
 14057  1E22  0874               	movf	(??___awdiv+0)+0,w
 14058  1E23  06F6               	xorwf	(___awdiv@sign),f
 14059  1E24  2E25               	goto	l9609
 14060                           	line	17
 14061                           	
 14062  1E25                     l6246:	
 14063                           	line	18
 14064                           	
 14065  1E25                     l9609:	
 14066  1E25  01F7               	clrf	(___awdiv@quotient)
 14067  1E26  01F8               	clrf	(___awdiv@quotient+1)
 14068                           	line	19
 14069                           	
 14070  1E27                     l9611:	
 14071  1E27  0871               	movf	(___awdiv@divisor+1),w
 14072  1E28  0470               	iorwf	(___awdiv@divisor),w
 14073  1E29  1903               	skipnz
 14074  1E2A  2E2C               	goto	u5191
 14075  1E2B  2E2D               	goto	u5190
 14076  1E2C                     u5191:
 14077  1E2C  2E6B               	goto	l9631
 14078  1E2D                     u5190:
 14079                           	line	20
 14080                           	
 14081  1E2D                     l9613:	
 14082  1E2D  01F5               	clrf	(___awdiv@counter)
 14083  1E2E  1403               	bsf	status,0
 14084  1E2F  0DF5               	rlf	(___awdiv@counter),f
 14085                           	line	21
 14086  1E30  2E3D               	goto	l9619
 14087                           	
 14088  1E31                     l6249:	
 14089                           	line	22
 14090                           	
 14091  1E31                     l9615:	
 14092  1E31  3001               	movlw	01h
 14093                           	
 14094  1E32                     u5205:
 14095  1E32  1003               	clrc
 14096  1E33  0DF0               	rlf	(___awdiv@divisor),f
 14097  1E34  0DF1               	rlf	(___awdiv@divisor+1),f
 14098  1E35  3EFF               	addlw	-1
 14099  1E36  1D03               	skipz
 14100  1E37  2E32               	goto	u5205
 14101                           	line	23
 14102                           	
 14103  1E38                     l9617:	
 14104  1E38  3001               	movlw	(01h)
 14105  1E39  00F4               	movwf	(??___awdiv+0)+0
 14106  1E3A  0874               	movf	(??___awdiv+0)+0,w
 14107  1E3B  07F5               	addwf	(___awdiv@counter),f
 14108  1E3C  2E3D               	goto	l9619
 14109                           	line	24
 14110                           	
 14111  1E3D                     l6248:	
 14112                           	line	21
 14113                           	
 14114  1E3D                     l9619:	
 14115  1E3D  1FF1               	btfss	(___awdiv@divisor+1),(15)&7
 14116  1E3E  2E40               	goto	u5211
 14117  1E3F  2E41               	goto	u5210
 14118  1E40                     u5211:
 14119  1E40  2E31               	goto	l9615
 14120  1E41                     u5210:
 14121  1E41  2E43               	goto	l9621
 14122                           	
 14123  1E42                     l6250:	
 14124  1E42  2E43               	goto	l9621
 14125                           	line	25
 14126                           	
 14127  1E43                     l6251:	
 14128                           	line	26
 14129                           	
 14130  1E43                     l9621:	
 14131  1E43  3001               	movlw	01h
 14132                           	
 14133  1E44                     u5225:
 14134  1E44  1003               	clrc
 14135  1E45  0DF7               	rlf	(___awdiv@quotient),f
 14136  1E46  0DF8               	rlf	(___awdiv@quotient+1),f
 14137  1E47  3EFF               	addlw	-1
 14138  1E48  1D03               	skipz
 14139  1E49  2E44               	goto	u5225
 14140                           	line	27
 14141  1E4A  0871               	movf	(___awdiv@divisor+1),w
 14142  1E4B  0273               	subwf	(___awdiv@dividend+1),w
 14143  1E4C  1D03               	skipz
 14144  1E4D  2E50               	goto	u5235
 14145  1E4E  0870               	movf	(___awdiv@divisor),w
 14146  1E4F  0272               	subwf	(___awdiv@dividend),w
 14147  1E50                     u5235:
 14148  1E50  1C03               	skipc
 14149  1E51  2E53               	goto	u5231
 14150  1E52  2E54               	goto	u5230
 14151  1E53                     u5231:
 14152  1E53  2E5C               	goto	l9627
 14153  1E54                     u5230:
 14154                           	line	28
 14155                           	
 14156  1E54                     l9623:	
 14157  1E54  0870               	movf	(___awdiv@divisor),w
 14158  1E55  02F2               	subwf	(___awdiv@dividend),f
 14159  1E56  0871               	movf	(___awdiv@divisor+1),w
 14160  1E57  1C03               	skipc
 14161  1E58  03F3               	decf	(___awdiv@dividend+1),f
 14162  1E59  02F3               	subwf	(___awdiv@dividend+1),f
 14163                           	line	29
 14164                           	
 14165  1E5A                     l9625:	
 14166  1E5A  1477               	bsf	(___awdiv@quotient)+(0/8),(0)&7
 14167  1E5B  2E5C               	goto	l9627
 14168                           	line	30
 14169                           	
 14170  1E5C                     l6252:	
 14171                           	line	31
 14172                           	
 14173  1E5C                     l9627:	
 14174  1E5C  3001               	movlw	01h
 14175                           	
 14176  1E5D                     u5245:
 14177  1E5D  1003               	clrc
 14178  1E5E  0CF1               	rrf	(___awdiv@divisor+1),f
 14179  1E5F  0CF0               	rrf	(___awdiv@divisor),f
 14180  1E60  3EFF               	addlw	-1
 14181  1E61  1D03               	skipz
 14182  1E62  2E5D               	goto	u5245
 14183                           	line	32
 14184                           	
 14185  1E63                     l9629:	
 14186  1E63  3001               	movlw	low(01h)
 14187  1E64  02F5               	subwf	(___awdiv@counter),f
 14188  1E65  1D03               	btfss	status,2
 14189  1E66  2E68               	goto	u5251
 14190  1E67  2E69               	goto	u5250
 14191  1E68                     u5251:
 14192  1E68  2E43               	goto	l9621
 14193  1E69                     u5250:
 14194  1E69  2E6B               	goto	l9631
 14195                           	
 14196  1E6A                     l6253:	
 14197  1E6A  2E6B               	goto	l9631
 14198                           	line	33
 14199                           	
 14200  1E6B                     l6247:	
 14201                           	line	34
 14202                           	
 14203  1E6B                     l9631:	
 14204  1E6B  0876               	movf	(___awdiv@sign),w
 14205  1E6C  1D03               	skipz
 14206  1E6D  2E6F               	goto	u5260
 14207  1E6E  2E75               	goto	l9635
 14208  1E6F                     u5260:
 14209                           	line	35
 14210                           	
 14211  1E6F                     l9633:	
 14212  1E6F  09F7               	comf	(___awdiv@quotient),f
 14213  1E70  09F8               	comf	(___awdiv@quotient+1),f
 14214  1E71  0AF7               	incf	(___awdiv@quotient),f
 14215  1E72  1903               	skipnz
 14216  1E73  0AF8               	incf	(___awdiv@quotient+1),f
 14217  1E74  2E75               	goto	l9635
 14218                           	
 14219  1E75                     l6254:	
 14220                           	line	36
 14221                           	
 14222  1E75                     l9635:	
 14223  1E75  0878               	movf	(___awdiv@quotient+1),w
 14224  1E76  01F1               	clrf	(?___awdiv+1)
 14225  1E77  07F1               	addwf	(?___awdiv+1)
 14226  1E78  0877               	movf	(___awdiv@quotient),w
 14227  1E79  01F0               	clrf	(?___awdiv)
 14228  1E7A  07F0               	addwf	(?___awdiv)
 14229                           
 14230  1E7B  2E7C               	goto	l6255
 14231                           	
 14232  1E7C                     l9637:	
 14233                           	line	37
 14234                           	
 14235  1E7C                     l6255:	
 14236  1E7C  0008               	return
 14237                           	opt stack 0
 14238                           GLOBAL	__end_of___awdiv
 14239  1E7D                     	__end_of___awdiv:
 14240 ;; =============== function ___awdiv ends ============
 14241                           
 14242                           	signat	___awdiv,8314
 14243                           	global	___lwmod
 14244                           psect	text873,local,class=CODE,delta=2
 14245                           global __ptext873
 14246  1C7E                     __ptext873:
 14247                           
 14248 ;; *************** function ___lwmod *****************
 14249 ;; Defined at:
 14250 ;;		line 5 in file "C:\Program Files\HI-TECH Software\PICC\9.82\sources\lwmod.c"
 14251 ;; Parameters:    Size  Location     Type
 14252 ;;  divisor         2    0[COMMON] unsigned int 
 14253 ;;  dividend        2    2[COMMON] unsigned int 
 14254 ;; Auto vars:     Size  Location     Type
 14255 ;;  counter         1    5[COMMON] unsigned char 
 14256 ;; Return value:  Size  Location     Type
 14257 ;;                  2    0[COMMON] unsigned int 
 14258 ;; Registers used:
 14259 ;;		wreg, status,2, status,0
 14260 ;; Tracked objects:
 14261 ;;		On entry : 0/0
 14262 ;;		On exit  : 0/0
 14263 ;;		Unchanged: 0/0
 14264 ;; Data sizes:     COMMON   BANK0   BANK1   BANK3   BANK2
 14265 ;;      Params:         4       0       0       0       0
 14266 ;;      Locals:         1       0       0       0       0
 14267 ;;      Temps:          1       0       0       0       0
 14268 ;;      Totals:         6       0       0       0       0
 14269 ;;Total ram usage:        6 bytes
 14270 ;; Hardware stack levels used:    1
 14271 ;; This function calls:
 14272 ;;		Nothing
 14273 ;; This function is called by:
 14274 ;;		_Num_Disp
 14275 ;; This function uses a non-reentrant model
 14276 ;;
 14277                           psect	text873
 14278                           	file	"C:\Program Files\HI-TECH Software\PICC\9.82\sources\lwmod.c"
 14279                           	line	5
 14280                           	global	__size_of___lwmod
 14281  0044                     	__size_of___lwmod	equ	__end_of___lwmod-___lwmod
 14282                           	
 14283  1C7E                     ___lwmod:	
 14284                           	opt	stack 5
 14285                           ; Regs used in ___lwmod: [wreg+status,2+status,0]
 14286                           	line	8
 14287                           	
 14288  1C7E                     l9577:	
 14289  1C7E  0871               	movf	(___lwmod@divisor+1),w
 14290  1C7F  0470               	iorwf	(___lwmod@divisor),w
 14291  1C80  1903               	skipnz
 14292  1C81  2C83               	goto	u5111
 14293  1C82  2C84               	goto	u5110
 14294  1C83                     u5111:
 14295  1C83  2CBA               	goto	l9595
 14296  1C84                     u5110:
 14297                           	line	9
 14298                           	
 14299  1C84                     l9579:	
 14300  1C84  01F5               	clrf	(___lwmod@counter)
 14301  1C85  1403               	bsf	status,0
 14302  1C86  0DF5               	rlf	(___lwmod@counter),f
 14303                           	line	10
 14304  1C87  2C94               	goto	l9585
 14305                           	
 14306  1C88                     l6123:	
 14307                           	line	11
 14308                           	
 14309  1C88                     l9581:	
 14310  1C88  3001               	movlw	01h
 14311                           	
 14312  1C89                     u5125:
 14313  1C89  1003               	clrc
 14314  1C8A  0DF0               	rlf	(___lwmod@divisor),f
 14315  1C8B  0DF1               	rlf	(___lwmod@divisor+1),f
 14316  1C8C  3EFF               	addlw	-1
 14317  1C8D  1D03               	skipz
 14318  1C8E  2C89               	goto	u5125
 14319                           	line	12
 14320                           	
 14321  1C8F                     l9583:	
 14322  1C8F  3001               	movlw	(01h)
 14323  1C90  00F4               	movwf	(??___lwmod+0)+0
 14324  1C91  0874               	movf	(??___lwmod+0)+0,w
 14325  1C92  07F5               	addwf	(___lwmod@counter),f
 14326  1C93  2C94               	goto	l9585
 14327                           	line	13
 14328                           	
 14329  1C94                     l6122:	
 14330                           	line	10
 14331                           	
 14332  1C94                     l9585:	
 14333  1C94  1FF1               	btfss	(___lwmod@divisor+1),(15)&7
 14334  1C95  2C97               	goto	u5131
 14335  1C96  2C98               	goto	u5130
 14336  1C97                     u5131:
 14337  1C97  2C88               	goto	l9581
 14338  1C98                     u5130:
 14339  1C98  2C9A               	goto	l9587
 14340                           	
 14341  1C99                     l6124:	
 14342  1C99  2C9A               	goto	l9587
 14343                           	line	14
 14344                           	
 14345  1C9A                     l6125:	
 14346                           	line	15
 14347                           	
 14348  1C9A                     l9587:	
 14349  1C9A  0871               	movf	(___lwmod@divisor+1),w
 14350  1C9B  0273               	subwf	(___lwmod@dividend+1),w
 14351  1C9C  1D03               	skipz
 14352  1C9D  2CA0               	goto	u5145
 14353  1C9E  0870               	movf	(___lwmod@divisor),w
 14354  1C9F  0272               	subwf	(___lwmod@dividend),w
 14355  1CA0                     u5145:
 14356  1CA0  1C03               	skipc
 14357  1CA1  2CA3               	goto	u5141
 14358  1CA2  2CA4               	goto	u5140
 14359  1CA3                     u5141:
 14360  1CA3  2CAB               	goto	l9591
 14361  1CA4                     u5140:
 14362                           	line	16
 14363                           	
 14364  1CA4                     l9589:	
 14365  1CA4  0870               	movf	(___lwmod@divisor),w
 14366  1CA5  02F2               	subwf	(___lwmod@dividend),f
 14367  1CA6  0871               	movf	(___lwmod@divisor+1),w
 14368  1CA7  1C03               	skipc
 14369  1CA8  03F3               	decf	(___lwmod@dividend+1),f
 14370  1CA9  02F3               	subwf	(___lwmod@dividend+1),f
 14371  1CAA  2CAB               	goto	l9591
 14372                           	
 14373  1CAB                     l6126:	
 14374                           	line	17
 14375                           	
 14376  1CAB                     l9591:	
 14377  1CAB  3001               	movlw	01h
 14378                           	
 14379  1CAC                     u5155:
 14380  1CAC  1003               	clrc
 14381  1CAD  0CF1               	rrf	(___lwmod@divisor+1),f
 14382  1CAE  0CF0               	rrf	(___lwmod@divisor),f
 14383  1CAF  3EFF               	addlw	-1
 14384  1CB0  1D03               	skipz
 14385  1CB1  2CAC               	goto	u5155
 14386                           	line	18
 14387                           	
 14388  1CB2                     l9593:	
 14389  1CB2  3001               	movlw	low(01h)
 14390  1CB3  02F5               	subwf	(___lwmod@counter),f
 14391  1CB4  1D03               	btfss	status,2
 14392  1CB5  2CB7               	goto	u5161
 14393  1CB6  2CB8               	goto	u5160
 14394  1CB7                     u5161:
 14395  1CB7  2C9A               	goto	l9587
 14396  1CB8                     u5160:
 14397  1CB8  2CBA               	goto	l9595
 14398                           	
 14399  1CB9                     l6127:	
 14400  1CB9  2CBA               	goto	l9595
 14401                           	line	19
 14402                           	
 14403  1CBA                     l6121:	
 14404                           	line	20
 14405                           	
 14406  1CBA                     l9595:	
 14407  1CBA  0873               	movf	(___lwmod@dividend+1),w
 14408  1CBB  01F1               	clrf	(?___lwmod+1)
 14409  1CBC  07F1               	addwf	(?___lwmod+1)
 14410  1CBD  0872               	movf	(___lwmod@dividend),w
 14411  1CBE  01F0               	clrf	(?___lwmod)
 14412  1CBF  07F0               	addwf	(?___lwmod)
 14413                           
 14414  1CC0  2CC1               	goto	l6128
 14415                           	
 14416  1CC1                     l9597:	
 14417                           	line	21
 14418                           	
 14419  1CC1                     l6128:	
 14420  1CC1  0008               	return
 14421                           	opt stack 0
 14422                           GLOBAL	__end_of___lwmod
 14423  1CC2                     	__end_of___lwmod:
 14424 ;; =============== function ___lwmod ends ============
 14425                           
 14426                           	signat	___lwmod,8314
 14427                           	global	___lwdiv
 14428                           psect	text874,local,class=CODE,delta=2
 14429                           global __ptext874
 14430  1D53                     __ptext874:
 14431                           
 14432 ;; *************** function ___lwdiv *****************
 14433 ;; Defined at:
 14434 ;;		line 5 in file "C:\Program Files\HI-TECH Software\PICC\9.82\sources\lwdiv.c"
 14435 ;; Parameters:    Size  Location     Type
 14436 ;;  divisor         2    0[BANK0 ] unsigned int 
 14437 ;;  dividend        2    2[BANK0 ] unsigned int 
 14438 ;; Auto vars:     Size  Location     Type
 14439 ;;  quotient        2    4[BANK0 ] unsigned int 
 14440 ;;  counter         1    6[BANK0 ] unsigned char 
 14441 ;; Return value:  Size  Location     Type
 14442 ;;                  2    0[BANK0 ] unsigned int 
 14443 ;; Registers used:
 14444 ;;		wreg, status,2, status,0
 14445 ;; Tracked objects:
 14446 ;;		On entry : 0/0
 14447 ;;		On exit  : 0/0
 14448 ;;		Unchanged: 0/0
 14449 ;; Data sizes:     COMMON   BANK0   BANK1   BANK3   BANK2
 14450 ;;      Params:         0       4       0       0       0
 14451 ;;      Locals:         0       3       0       0       0
 14452 ;;      Temps:          1       0       0       0       0
 14453 ;;      Totals:         1       7       0       0       0
 14454 ;;Total ram usage:        8 bytes
 14455 ;; Hardware stack levels used:    1
 14456 ;; This function calls:
 14457 ;;		Nothing
 14458 ;; This function is called by:
 14459 ;;		_Num_Disp
 14460 ;;		_main
 14461 ;; This function uses a non-reentrant model
 14462 ;;
 14463                           psect	text874
 14464                           	file	"C:\Program Files\HI-TECH Software\PICC\9.82\sources\lwdiv.c"
 14465                           	line	5
 14466                           	global	__size_of___lwdiv
 14467  0050                     	__size_of___lwdiv	equ	__end_of___lwdiv-___lwdiv
 14468                           	
 14469  1D53                     ___lwdiv:	
 14470                           	opt	stack 5
 14471                           ; Regs used in ___lwdiv: [wreg+status,2+status,0]
 14472                           	line	9
 14473                           	
 14474  1D53                     l9551:	
 14475  1D53  1283               	bcf	status, 5	;RP0=0, select bank0
 14476  1D54  1303               	bcf	status, 6	;RP1=0, select bank0
 14477  1D55  01CD               	clrf	(___lwdiv@quotient)
 14478  1D56  01CE               	clrf	(___lwdiv@quotient+1)
 14479                           	line	10
 14480                           	
 14481  1D57                     l9553:	
 14482  1D57  084A               	movf	(___lwdiv@divisor+1),w
 14483  1D58  0449               	iorwf	(___lwdiv@divisor),w
 14484  1D59  1903               	skipnz
 14485  1D5A  2D5C               	goto	u5041
 14486  1D5B  2D5D               	goto	u5040
 14487  1D5C                     u5041:
 14488  1D5C  2D9B               	goto	l9573
 14489  1D5D                     u5040:
 14490                           	line	11
 14491                           	
 14492  1D5D                     l9555:	
 14493  1D5D  01CF               	clrf	(___lwdiv@counter)
 14494  1D5E  1403               	bsf	status,0
 14495  1D5F  0DCF               	rlf	(___lwdiv@counter),f
 14496                           	line	12
 14497  1D60  2D6D               	goto	l9561
 14498                           	
 14499  1D61                     l6113:	
 14500                           	line	13
 14501                           	
 14502  1D61                     l9557:	
 14503  1D61  3001               	movlw	01h
 14504                           	
 14505  1D62                     u5055:
 14506  1D62  1003               	clrc
 14507  1D63  0DC9               	rlf	(___lwdiv@divisor),f
 14508  1D64  0DCA               	rlf	(___lwdiv@divisor+1),f
 14509  1D65  3EFF               	addlw	-1
 14510  1D66  1D03               	skipz
 14511  1D67  2D62               	goto	u5055
 14512                           	line	14
 14513                           	
 14514  1D68                     l9559:	
 14515  1D68  3001               	movlw	(01h)
 14516  1D69  00FC               	movwf	(??___lwdiv+0)+0
 14517  1D6A  087C               	movf	(??___lwdiv+0)+0,w
 14518  1D6B  07CF               	addwf	(___lwdiv@counter),f
 14519  1D6C  2D6D               	goto	l9561
 14520                           	line	15
 14521                           	
 14522  1D6D                     l6112:	
 14523                           	line	12
 14524                           	
 14525  1D6D                     l9561:	
 14526  1D6D  1FCA               	btfss	(___lwdiv@divisor+1),(15)&7
 14527  1D6E  2D70               	goto	u5061
 14528  1D6F  2D71               	goto	u5060
 14529  1D70                     u5061:
 14530  1D70  2D61               	goto	l9557
 14531  1D71                     u5060:
 14532  1D71  2D73               	goto	l9563
 14533                           	
 14534  1D72                     l6114:	
 14535  1D72  2D73               	goto	l9563
 14536                           	line	16
 14537                           	
 14538  1D73                     l6115:	
 14539                           	line	17
 14540                           	
 14541  1D73                     l9563:	
 14542  1D73  3001               	movlw	01h
 14543                           	
 14544  1D74                     u5075:
 14545  1D74  1003               	clrc
 14546  1D75  0DCD               	rlf	(___lwdiv@quotient),f
 14547  1D76  0DCE               	rlf	(___lwdiv@quotient+1),f
 14548  1D77  3EFF               	addlw	-1
 14549  1D78  1D03               	skipz
 14550  1D79  2D74               	goto	u5075
 14551                           	line	18
 14552  1D7A  084A               	movf	(___lwdiv@divisor+1),w
 14553  1D7B  024C               	subwf	(___lwdiv@dividend+1),w
 14554  1D7C  1D03               	skipz
 14555  1D7D  2D80               	goto	u5085
 14556  1D7E  0849               	movf	(___lwdiv@divisor),w
 14557  1D7F  024B               	subwf	(___lwdiv@dividend),w
 14558  1D80                     u5085:
 14559  1D80  1C03               	skipc
 14560  1D81  2D83               	goto	u5081
 14561  1D82  2D84               	goto	u5080
 14562  1D83                     u5081:
 14563  1D83  2D8C               	goto	l9569
 14564  1D84                     u5080:
 14565                           	line	19
 14566                           	
 14567  1D84                     l9565:	
 14568  1D84  0849               	movf	(___lwdiv@divisor),w
 14569  1D85  02CB               	subwf	(___lwdiv@dividend),f
 14570  1D86  084A               	movf	(___lwdiv@divisor+1),w
 14571  1D87  1C03               	skipc
 14572  1D88  03CC               	decf	(___lwdiv@dividend+1),f
 14573  1D89  02CC               	subwf	(___lwdiv@dividend+1),f
 14574                           	line	20
 14575                           	
 14576  1D8A                     l9567:	
 14577  1D8A  144D               	bsf	(___lwdiv@quotient)+(0/8),(0)&7
 14578  1D8B  2D8C               	goto	l9569
 14579                           	line	21
 14580                           	
 14581  1D8C                     l6116:	
 14582                           	line	22
 14583                           	
 14584  1D8C                     l9569:	
 14585  1D8C  3001               	movlw	01h
 14586                           	
 14587  1D8D                     u5095:
 14588  1D8D  1003               	clrc
 14589  1D8E  0CCA               	rrf	(___lwdiv@divisor+1),f
 14590  1D8F  0CC9               	rrf	(___lwdiv@divisor),f
 14591  1D90  3EFF               	addlw	-1
 14592  1D91  1D03               	skipz
 14593  1D92  2D8D               	goto	u5095
 14594                           	line	23
 14595                           	
 14596  1D93                     l9571:	
 14597  1D93  3001               	movlw	low(01h)
 14598  1D94  02CF               	subwf	(___lwdiv@counter),f
 14599  1D95  1D03               	btfss	status,2
 14600  1D96  2D98               	goto	u5101
 14601  1D97  2D99               	goto	u5100
 14602  1D98                     u5101:
 14603  1D98  2D73               	goto	l9563
 14604  1D99                     u5100:
 14605  1D99  2D9B               	goto	l9573
 14606                           	
 14607  1D9A                     l6117:	
 14608  1D9A  2D9B               	goto	l9573
 14609                           	line	24
 14610                           	
 14611  1D9B                     l6111:	
 14612                           	line	25
 14613                           	
 14614  1D9B                     l9573:	
 14615  1D9B  084E               	movf	(___lwdiv@quotient+1),w
 14616  1D9C  01CA               	clrf	(?___lwdiv+1)
 14617  1D9D  07CA               	addwf	(?___lwdiv+1)
 14618  1D9E  084D               	movf	(___lwdiv@quotient),w
 14619  1D9F  01C9               	clrf	(?___lwdiv)
 14620  1DA0  07C9               	addwf	(?___lwdiv)
 14621                           
 14622  1DA1  2DA2               	goto	l6118
 14623                           	
 14624  1DA2                     l9575:	
 14625                           	line	26
 14626                           	
 14627  1DA2                     l6118:	
 14628  1DA2  0008               	return
 14629                           	opt stack 0
 14630                           GLOBAL	__end_of___lwdiv
 14631  1DA3                     	__end_of___lwdiv:
 14632 ;; =============== function ___lwdiv ends ============
 14633                           
 14634                           	signat	___lwdiv,8314
 14635                           	global	___wmul
 14636                           psect	text875,local,class=CODE,delta=2
 14637                           global __ptext875
 14638  1A1B                     __ptext875:
 14639                           
 14640 ;; *************** function ___wmul *****************
 14641 ;; Defined at:
 14642 ;;		line 3 in file "C:\Program Files\HI-TECH Software\PICC\9.82\sources\wmul.c"
 14643 ;; Parameters:    Size  Location     Type
 14644 ;;  multiplier      2    6[COMMON] unsigned int 
 14645 ;;  multiplicand    2    8[COMMON] unsigned int 
 14646 ;; Auto vars:     Size  Location     Type
 14647 ;;  product         2   10[COMMON] unsigned int 
 14648 ;; Return value:  Size  Location     Type
 14649 ;;                  2    6[COMMON] unsigned int 
 14650 ;; Registers used:
 14651 ;;		wreg, status,2, status,0
 14652 ;; Tracked objects:
 14653 ;;		On entry : 0/0
 14654 ;;		On exit  : 0/0
 14655 ;;		Unchanged: 0/0
 14656 ;; Data sizes:     COMMON   BANK0   BANK1   BANK3   BANK2
 14657 ;;      Params:         4       0       0       0       0
 14658 ;;      Locals:         2       0       0       0       0
 14659 ;;      Temps:          0       0       0       0       0
 14660 ;;      Totals:         6       0       0       0       0
 14661 ;;Total ram usage:        6 bytes
 14662 ;; Hardware stack levels used:    1
 14663 ;; This function calls:
 14664 ;;		Nothing
 14665 ;; This function is called by:
 14666 ;;		_Num_Disp
 14667 ;;		_main
 14668 ;;		_enable_valves
 14669 ;;		_call_control_valve
 14670 ;;		_control_valve
 14671 ;;		_count_read
 14672 ;; This function uses a non-reentrant model
 14673 ;;
 14674                           psect	text875
 14675                           	file	"C:\Program Files\HI-TECH Software\PICC\9.82\sources\wmul.c"
 14676                           	line	3
 14677                           	global	__size_of___wmul
 14678  002A                     	__size_of___wmul	equ	__end_of___wmul-___wmul
 14679                           	
 14680  1A1B                     ___wmul:	
 14681                           	opt	stack 5
 14682                           ; Regs used in ___wmul: [wreg+status,2+status,0]
 14683                           	line	4
 14684                           	
 14685  1A1B                     l9539:	
 14686  1A1B  01FA               	clrf	(___wmul@product)
 14687  1A1C  01FB               	clrf	(___wmul@product+1)
 14688  1A1D  2A1E               	goto	l9541
 14689                           	line	6
 14690                           	
 14691  1A1E                     l6105:	
 14692                           	line	7
 14693                           	
 14694  1A1E                     l9541:	
 14695  1A1E  1C76               	btfss	(___wmul@multiplier),(0)&7
 14696  1A1F  2A21               	goto	u5001
 14697  1A20  2A22               	goto	u5000
 14698  1A21                     u5001:
 14699  1A21  2A28               	goto	l6106
 14700  1A22                     u5000:
 14701                           	line	8
 14702                           	
 14703  1A22                     l9543:	
 14704  1A22  0878               	movf	(___wmul@multiplicand),w
 14705  1A23  07FA               	addwf	(___wmul@product),f
 14706  1A24  1803               	skipnc
 14707  1A25  0AFB               	incf	(___wmul@product+1),f
 14708  1A26  0879               	movf	(___wmul@multiplicand+1),w
 14709  1A27  07FB               	addwf	(___wmul@product+1),f
 14710                           	
 14711  1A28                     l6106:	
 14712                           	line	9
 14713  1A28  3001               	movlw	01h
 14714                           	
 14715  1A29                     u5015:
 14716  1A29  1003               	clrc
 14717  1A2A  0DF8               	rlf	(___wmul@multiplicand),f
 14718  1A2B  0DF9               	rlf	(___wmul@multiplicand+1),f
 14719  1A2C  3EFF               	addlw	-1
 14720  1A2D  1D03               	skipz
 14721  1A2E  2A29               	goto	u5015
 14722                           	line	10
 14723                           	
 14724  1A2F                     l9545:	
 14725  1A2F  3001               	movlw	01h
 14726                           	
 14727  1A30                     u5025:
 14728  1A30  1003               	clrc
 14729  1A31  0CF7               	rrf	(___wmul@multiplier+1),f
 14730  1A32  0CF6               	rrf	(___wmul@multiplier),f
 14731  1A33  3EFF               	addlw	-1
 14732  1A34  1D03               	skipz
 14733  1A35  2A30               	goto	u5025
 14734                           	line	11
 14735  1A36  0877               	movf	((___wmul@multiplier+1)),w
 14736  1A37  0476               	iorwf	((___wmul@multiplier)),w
 14737  1A38  1D03               	skipz
 14738  1A39  2A3B               	goto	u5031
 14739  1A3A  2A3C               	goto	u5030
 14740  1A3B                     u5031:
 14741  1A3B  2A1E               	goto	l9541
 14742  1A3C                     u5030:
 14743  1A3C  2A3D               	goto	l9547
 14744                           	
 14745  1A3D                     l6107:	
 14746                           	line	12
 14747                           	
 14748  1A3D                     l9547:	
 14749  1A3D  087B               	movf	(___wmul@product+1),w
 14750  1A3E  01F7               	clrf	(?___wmul+1)
 14751  1A3F  07F7               	addwf	(?___wmul+1)
 14752  1A40  087A               	movf	(___wmul@product),w
 14753  1A41  01F6               	clrf	(?___wmul)
 14754  1A42  07F6               	addwf	(?___wmul)
 14755                           
 14756  1A43  2A44               	goto	l6108
 14757                           	
 14758  1A44                     l9549:	
 14759                           	line	13
 14760                           	
 14761  1A44                     l6108:	
 14762  1A44  0008               	return
 14763                           	opt stack 0
 14764                           GLOBAL	__end_of___wmul
 14765  1A45                     	__end_of___wmul:
 14766 ;; =============== function ___wmul ends ============
 14767                           
 14768                           	signat	___wmul,8314
 14769                           	global	___bmul
 14770                           psect	text876,local,class=CODE,delta=2
 14771                           global __ptext876
 14772  1986                     __ptext876:
 14773                           
 14774 ;; *************** function ___bmul *****************
 14775 ;; Defined at:
 14776 ;;		line 3 in file "C:\Program Files\HI-TECH Software\PICC\9.82\sources\bmul.c"
 14777 ;; Parameters:    Size  Location     Type
 14778 ;;  multiplier      1    wreg     unsigned char 
 14779 ;;  multiplicand    1    0[COMMON] unsigned char 
 14780 ;; Auto vars:     Size  Location     Type
 14781 ;;  multiplier      1    3[COMMON] unsigned char 
 14782 ;;  product         1    2[COMMON] unsigned char 
 14783 ;; Return value:  Size  Location     Type
 14784 ;;                  1    wreg      unsigned char 
 14785 ;; Registers used:
 14786 ;;		wreg, status,2, status,0
 14787 ;; Tracked objects:
 14788 ;;		On entry : 0/0
 14789 ;;		On exit  : 0/0
 14790 ;;		Unchanged: 0/0
 14791 ;; Data sizes:     COMMON   BANK0   BANK1   BANK3   BANK2
 14792 ;;      Params:         1       0       0       0       0
 14793 ;;      Locals:         2       0       0       0       0
 14794 ;;      Temps:          1       0       0       0       0
 14795 ;;      Totals:         4       0       0       0       0
 14796 ;;Total ram usage:        4 bytes
 14797 ;; Hardware stack levels used:    1
 14798 ;; This function calls:
 14799 ;;		Nothing
 14800 ;; This function is called by:
 14801 ;;		_enable_valves
 14802 ;;		_call_control_valve
 14803 ;; This function uses a non-reentrant model
 14804 ;;
 14805                           psect	text876
 14806                           	file	"C:\Program Files\HI-TECH Software\PICC\9.82\sources\bmul.c"
 14807                           	line	3
 14808                           	global	__size_of___bmul
 14809  0018                     	__size_of___bmul	equ	__end_of___bmul-___bmul
 14810                           	
 14811  1986                     ___bmul:	
 14812                           	opt	stack 6
 14813                           ; Regs used in ___bmul: [wreg+status,2+status,0]
 14814                           ;___bmul@multiplier stored from wreg
 14815  1986  00F3               	movwf	(___bmul@multiplier)
 14816                           	line	4
 14817                           	
 14818  1987                     l9525:	
 14819  1987  01F2               	clrf	(___bmul@product)
 14820                           	line	6
 14821                           	
 14822  1988                     l6099:	
 14823                           	line	7
 14824  1988  1C73               	btfss	(___bmul@multiplier),(0)&7
 14825  1989  298B               	goto	u4981
 14826  198A  298C               	goto	u4980
 14827  198B                     u4981:
 14828  198B  2991               	goto	l9529
 14829  198C                     u4980:
 14830                           	line	8
 14831                           	
 14832  198C                     l9527:	
 14833  198C  0870               	movf	(___bmul@multiplicand),w
 14834  198D  00F1               	movwf	(??___bmul+0)+0
 14835  198E  0871               	movf	(??___bmul+0)+0,w
 14836  198F  07F2               	addwf	(___bmul@product),f
 14837  1990  2991               	goto	l9529
 14838                           	
 14839  1991                     l6100:	
 14840                           	line	9
 14841                           	
 14842  1991                     l9529:	
 14843  1991  1003               	clrc
 14844  1992  0DF0               	rlf	(___bmul@multiplicand),f
 14845                           
 14846                           	line	10
 14847                           	
 14848  1993                     l9531:	
 14849  1993  1003               	clrc
 14850  1994  0CF3               	rrf	(___bmul@multiplier),f
 14851                           
 14852                           	line	11
 14853                           	
 14854  1995                     l9533:	
 14855  1995  08F3               	movf	(___bmul@multiplier),f
 14856  1996  1D03               	skipz
 14857  1997  2999               	goto	u4991
 14858  1998  299A               	goto	u4990
 14859  1999                     u4991:
 14860  1999  2988               	goto	l6099
 14861  199A                     u4990:
 14862  199A  299B               	goto	l9535
 14863                           	
 14864  199B                     l6101:	
 14865                           	line	12
 14866                           	
 14867  199B                     l9535:	
 14868  199B  0872               	movf	(___bmul@product),w
 14869  199C  299D               	goto	l6102
 14870                           	
 14871  199D                     l9537:	
 14872                           	line	13
 14873                           	
 14874  199D                     l6102:	
 14875  199D  0008               	return
 14876                           	opt stack 0
 14877                           GLOBAL	__end_of___bmul
 14878  199E                     	__end_of___bmul:
 14879 ;; =============== function ___bmul ends ============
 14880                           
 14881                           	signat	___bmul,8313
 14882                           	global	_onthevalve
 14883                           psect	text877,local,class=CODE,delta=2
 14884                           global __ptext877
 14885  1BC0                     __ptext877:
 14886                           
 14887 ;; *************** function _onthevalve *****************
 14888 ;; Defined at:
 14889 ;;		line 1041 in file "F:\BEVERAGES_ENHANCEMENT\SOFTWARE_DESIGN\MASTER_PIC_16F877A\2015_09_13\Beverage_services.c"
 14890 ;; Parameters:    Size  Location     Type
 14891 ;;		None
 14892 ;; Auto vars:     Size  Location     Type
 14893 ;;		None
 14894 ;; Return value:  Size  Location     Type
 14895 ;;		None               void
 14896 ;; Registers used:
 14897 ;;		wreg, fsr0l, fsr0h, status,2, status,0
 14898 ;; Tracked objects:
 14899 ;;		On entry : 0/0
 14900 ;;		On exit  : 0/0
 14901 ;;		Unchanged: 0/0
 14902 ;; Data sizes:     COMMON   BANK0   BANK1   BANK3   BANK2
 14903 ;;      Params:         0       0       0       0       0
 14904 ;;      Locals:         0       0       0       0       0
 14905 ;;      Temps:          0       0       0       0       0
 14906 ;;      Totals:         0       0       0       0       0
 14907 ;;Total ram usage:        0 bytes
 14908 ;; Hardware stack levels used:    1
 14909 ;; This function calls:
 14910 ;;		Nothing
 14911 ;; This function is called by:
 14912 ;;		_enable_valves
 14913 ;;		_control_valve
 14914 ;; This function uses a non-reentrant model
 14915 ;;
 14916                           psect	text877
 14917                           	file	"F:\BEVERAGES_ENHANCEMENT\SOFTWARE_DESIGN\MASTER_PIC_16F877A\2015_09_13\Beverage_s
                                 ervices.c"
 14918                           	line	1041
 14919                           	global	__size_of_onthevalve
 14920  003B                     	__size_of_onthevalve	equ	__end_of_onthevalve-_onthevalve
 14921                           	
 14922  1BC0                     _onthevalve:	
 14923                           	opt	stack 6
 14924                           ; Regs used in _onthevalve: [wreg-fsr0h+status,2+status,0]
 14925                           	line	1042
 14926                           	
 14927  1BC0                     l9511:	
 14928                           ;Beverage_services.c: 1042: switch(_ON)
 14929  1BC0  2BD8               	goto	l9515
 14930                           	line	1044
 14931                           ;Beverage_services.c: 1043: {
 14932                           ;Beverage_services.c: 1044: case _Milk_Valve_Forward:
 14933                           	
 14934  1BC1                     l3395:	
 14935                           	line	1045
 14936                           ;Beverage_services.c: 1045: RA2=1;
 14937  1BC1  1505               	bsf	(42/8),(42)&7
 14938                           	line	1046
 14939                           ;Beverage_services.c: 1046: RA4=0;
 14940  1BC2  1205               	bcf	(44/8),(44)&7
 14941                           	line	1047
 14942                           ;Beverage_services.c: 1047: break;
 14943  1BC3  2BFA               	goto	l3406
 14944                           	line	1048
 14945                           ;Beverage_services.c: 1048: case _Milk_Valve_Reverse:
 14946                           	
 14947  1BC4                     l3397:	
 14948                           	line	1049
 14949                           ;Beverage_services.c: 1049: RA2=0;
 14950  1BC4  1105               	bcf	(42/8),(42)&7
 14951                           	line	1050
 14952                           ;Beverage_services.c: 1050: RA4=1;
 14953  1BC5  1605               	bsf	(44/8),(44)&7
 14954                           	line	1051
 14955                           ;Beverage_services.c: 1051: break;
 14956  1BC6  2BFA               	goto	l3406
 14957                           	line	1052
 14958                           ;Beverage_services.c: 1052: case _Mixing_Hot_Water_Valve:
 14959                           	
 14960  1BC7                     l3398:	
 14961                           	line	1053
 14962                           ;Beverage_services.c: 1053: RA5=1;
 14963  1BC7  1685               	bsf	(45/8),(45)&7
 14964                           	line	1054
 14965                           ;Beverage_services.c: 1054: break;
 14966  1BC8  2BFA               	goto	l3406
 14967                           	line	1055
 14968                           ;Beverage_services.c: 1055: case _Hot_Water_Valve:
 14969                           	
 14970  1BC9                     l3399:	
 14971                           	line	1056
 14972                           ;Beverage_services.c: 1056: RC0=1;
 14973  1BC9  1407               	bsf	(56/8),(56)&7
 14974                           	line	1057
 14975                           ;Beverage_services.c: 1057: break;
 14976  1BCA  2BFA               	goto	l3406
 14977                           	line	1058
 14978                           ;Beverage_services.c: 1058: case _Coffee_Hot_Water_Valve:
 14979                           	
 14980  1BCB                     l3400:	
 14981                           	line	1059
 14982                           ;Beverage_services.c: 1059: RC1=1;
 14983  1BCB  1487               	bsf	(57/8),(57)&7
 14984                           	line	1060
 14985                           ;Beverage_services.c: 1060: break;
 14986  1BCC  2BFA               	goto	l3406
 14987                           	line	1061
 14988                           ;Beverage_services.c: 1061: case _Coffee_Valve:
 14989                           	
 14990  1BCD                     l3401:	
 14991                           	line	1062
 14992                           ;Beverage_services.c: 1062: RE0=1;
 14993  1BCD  1409               	bsf	(72/8),(72)&7
 14994                           	line	1063
 14995                           ;Beverage_services.c: 1063: break;
 14996  1BCE  2BFA               	goto	l3406
 14997                           	line	1064
 14998                           ;Beverage_services.c: 1064: case _Tea_Hot_Water_Valve:
 14999                           	
 15000  1BCF                     l3402:	
 15001                           	line	1065
 15002                           ;Beverage_services.c: 1065: RC2=1;
 15003  1BCF  1507               	bsf	(58/8),(58)&7
 15004                           	line	1066
 15005                           ;Beverage_services.c: 1066: break;
 15006  1BD0  2BFA               	goto	l3406
 15007                           	line	1067
 15008                           ;Beverage_services.c: 1067: case _Tea_Valve:
 15009                           	
 15010  1BD1                     l3403:	
 15011                           	line	1068
 15012                           ;Beverage_services.c: 1068: RE1=1;
 15013  1BD1  1489               	bsf	(73/8),(73)&7
 15014                           	line	1069
 15015                           ;Beverage_services.c: 1069: break;
 15016  1BD2  2BFA               	goto	l3406
 15017                           	line	1070
 15018                           ;Beverage_services.c: 1070: case _Viber_Motor:
 15019                           	
 15020  1BD3                     l3404:	
 15021                           	line	1071
 15022                           ;Beverage_services.c: 1071: RE2=1;
 15023  1BD3  1509               	bsf	(74/8),(74)&7
 15024                           	line	1072
 15025                           ;Beverage_services.c: 1072: break;
 15026  1BD4  2BFA               	goto	l3406
 15027                           	line	1073
 15028                           ;Beverage_services.c: 1073: case _Heater1:
 15029                           	
 15030  1BD5                     l3405:	
 15031                           	line	1074
 15032                           ;Beverage_services.c: 1074: RC3=1;
 15033  1BD5  1587               	bsf	(59/8),(59)&7
 15034                           	line	1075
 15035                           ;Beverage_services.c: 1075: break;
 15036  1BD6  2BFA               	goto	l3406
 15037                           	line	1076
 15038                           	
 15039  1BD7                     l9513:	
 15040                           ;Beverage_services.c: 1076: }
 15041  1BD7  2BFA               	goto	l3406
 15042                           	line	1042
 15043                           	
 15044  1BD8                     l3394:	
 15045                           	
 15046  1BD8                     l9515:	
 15047  1BD8  1283               	bcf	status, 5	;RP0=0, select bank0
 15048  1BD9  1303               	bcf	status, 6	;RP1=0, select bank0
 15049  1BDA  083A               	movf	(__ON),w
 15050                           	; Switch size 1, requested type "space"
 15051                           ; Number of cases is 10, Range of values is 1 to 10
 15052                           ; switch strategies available:
 15053                           ; Name         Instructions Cycles
 15054                           ; simple_byte           31    16 (average)
 15055                           ; direct_byte           41    11 (fixed)
 15056                           ; jumptable            263     9 (fixed)
 15057                           ;	Chosen strategy is simple_byte
 15058                           
 15059                           	opt asmopt_off
 15060  1BDB  3A01               	xorlw	1^0	; case 1
 15061  1BDC  1903               	skipnz
 15062  1BDD  2BC1               	goto	l3395
 15063  1BDE  3A03               	xorlw	2^1	; case 2
 15064  1BDF  1903               	skipnz
 15065  1BE0  2BC4               	goto	l3397
 15066  1BE1  3A01               	xorlw	3^2	; case 3
 15067  1BE2  1903               	skipnz
 15068  1BE3  2BC7               	goto	l3398
 15069  1BE4  3A07               	xorlw	4^3	; case 4
 15070  1BE5  1903               	skipnz
 15071  1BE6  2BC9               	goto	l3399
 15072  1BE7  3A01               	xorlw	5^4	; case 5
 15073  1BE8  1903               	skipnz
 15074  1BE9  2BCB               	goto	l3400
 15075  1BEA  3A03               	xorlw	6^5	; case 6
 15076  1BEB  1903               	skipnz
 15077  1BEC  2BCD               	goto	l3401
 15078  1BED  3A01               	xorlw	7^6	; case 7
 15079  1BEE  1903               	skipnz
 15080  1BEF  2BCF               	goto	l3402
 15081  1BF0  3A0F               	xorlw	8^7	; case 8
 15082  1BF1  1903               	skipnz
 15083  1BF2  2BD1               	goto	l3403
 15084  1BF3  3A01               	xorlw	9^8	; case 9
 15085  1BF4  1903               	skipnz
 15086  1BF5  2BD3               	goto	l3404
 15087  1BF6  3A03               	xorlw	10^9	; case 10
 15088  1BF7  1903               	skipnz
 15089  1BF8  2BD5               	goto	l3405
 15090  1BF9  2BFA               	goto	l3406
 15091                           	opt asmopt_on
 15092                           
 15093                           	line	1076
 15094                           	
 15095  1BFA                     l3396:	
 15096                           	line	1077
 15097                           	
 15098  1BFA                     l3406:	
 15099  1BFA  0008               	return
 15100                           	opt stack 0
 15101                           GLOBAL	__end_of_onthevalve
 15102  1BFB                     	__end_of_onthevalve:
 15103 ;; =============== function _onthevalve ends ============
 15104                           
 15105                           	signat	_onthevalve,88
 15106                           	global	_offthevalve
 15107                           psect	text878,local,class=CODE,delta=2
 15108                           global __ptext878
 15109  1B86                     __ptext878:
 15110                           
 15111 ;; *************** function _offthevalve *****************
 15112 ;; Defined at:
 15113 ;;		line 1080 in file "F:\BEVERAGES_ENHANCEMENT\SOFTWARE_DESIGN\MASTER_PIC_16F877A\2015_09_13\Beverage_services.c"
 15114 ;; Parameters:    Size  Location     Type
 15115 ;;		None
 15116 ;; Auto vars:     Size  Location     Type
 15117 ;;		None
 15118 ;; Return value:  Size  Location     Type
 15119 ;;		None               void
 15120 ;; Registers used:
 15121 ;;		wreg, fsr0l, fsr0h, status,2, status,0
 15122 ;; Tracked objects:
 15123 ;;		On entry : 0/0
 15124 ;;		On exit  : 0/0
 15125 ;;		Unchanged: 0/0
 15126 ;; Data sizes:     COMMON   BANK0   BANK1   BANK3   BANK2
 15127 ;;      Params:         0       0       0       0       0
 15128 ;;      Locals:         0       0       0       0       0
 15129 ;;      Temps:          0       0       0       0       0
 15130 ;;      Totals:         0       0       0       0       0
 15131 ;;Total ram usage:        0 bytes
 15132 ;; Hardware stack levels used:    1
 15133 ;; This function calls:
 15134 ;;		Nothing
 15135 ;; This function is called by:
 15136 ;;		_enable_valves
 15137 ;;		_control_valve
 15138 ;; This function uses a non-reentrant model
 15139 ;;
 15140                           psect	text878
 15141                           	file	"F:\BEVERAGES_ENHANCEMENT\SOFTWARE_DESIGN\MASTER_PIC_16F877A\2015_09_13\Beverage_s
                                 ervices.c"
 15142                           	line	1080
 15143                           	global	__size_of_offthevalve
 15144  003A                     	__size_of_offthevalve	equ	__end_of_offthevalve-_offthevalve
 15145                           	
 15146  1B86                     _offthevalve:	
 15147                           	opt	stack 6
 15148                           ; Regs used in _offthevalve: [wreg-fsr0h+status,2+status,0]
 15149                           	line	1081
 15150                           	
 15151  1B86                     l9505:	
 15152                           ;Beverage_services.c: 1081: switch(_OFF)
 15153  1B86  2B9D               	goto	l9509
 15154                           	line	1083
 15155                           ;Beverage_services.c: 1082: {
 15156                           ;Beverage_services.c: 1083: case _Milk_Valve_Forward:
 15157                           	
 15158  1B87                     l3410:	
 15159                           	line	1084
 15160                           ;Beverage_services.c: 1084: RA2=0;
 15161  1B87  1105               	bcf	(42/8),(42)&7
 15162                           	line	1085
 15163                           ;Beverage_services.c: 1085: RA4=0;
 15164  1B88  1205               	bcf	(44/8),(44)&7
 15165                           	line	1086
 15166                           ;Beverage_services.c: 1086: case _Milk_Valve_Reverse:
 15167                           	
 15168  1B89                     l3411:	
 15169                           	line	1087
 15170                           ;Beverage_services.c: 1087: RA2=0;
 15171  1B89  1105               	bcf	(42/8),(42)&7
 15172                           	line	1088
 15173                           ;Beverage_services.c: 1088: RA4=0;
 15174  1B8A  1205               	bcf	(44/8),(44)&7
 15175                           	line	1089
 15176                           ;Beverage_services.c: 1089: break;
 15177  1B8B  2BBF               	goto	l3421
 15178                           	line	1090
 15179                           ;Beverage_services.c: 1090: case _Mixing_Hot_Water_Valve:
 15180                           	
 15181  1B8C                     l3413:	
 15182                           	line	1091
 15183                           ;Beverage_services.c: 1091: RA5=0;
 15184  1B8C  1285               	bcf	(45/8),(45)&7
 15185                           	line	1092
 15186                           ;Beverage_services.c: 1092: break;
 15187  1B8D  2BBF               	goto	l3421
 15188                           	line	1093
 15189                           ;Beverage_services.c: 1093: case _Hot_Water_Valve:
 15190                           	
 15191  1B8E                     l3414:	
 15192                           	line	1094
 15193                           ;Beverage_services.c: 1094: RC0=0;
 15194  1B8E  1007               	bcf	(56/8),(56)&7
 15195                           	line	1095
 15196                           ;Beverage_services.c: 1095: break;
 15197  1B8F  2BBF               	goto	l3421
 15198                           	line	1096
 15199                           ;Beverage_services.c: 1096: case _Coffee_Hot_Water_Valve:
 15200                           	
 15201  1B90                     l3415:	
 15202                           	line	1097
 15203                           ;Beverage_services.c: 1097: RC1=0;
 15204  1B90  1087               	bcf	(57/8),(57)&7
 15205                           	line	1098
 15206                           ;Beverage_services.c: 1098: break;
 15207  1B91  2BBF               	goto	l3421
 15208                           	line	1099
 15209                           ;Beverage_services.c: 1099: case _Coffee_Valve:
 15210                           	
 15211  1B92                     l3416:	
 15212                           	line	1100
 15213                           ;Beverage_services.c: 1100: RE0=0;
 15214  1B92  1009               	bcf	(72/8),(72)&7
 15215                           	line	1101
 15216                           ;Beverage_services.c: 1101: break;
 15217  1B93  2BBF               	goto	l3421
 15218                           	line	1102
 15219                           ;Beverage_services.c: 1102: case _Tea_Hot_Water_Valve:
 15220                           	
 15221  1B94                     l3417:	
 15222                           	line	1103
 15223                           ;Beverage_services.c: 1103: RC2=0;
 15224  1B94  1107               	bcf	(58/8),(58)&7
 15225                           	line	1104
 15226                           ;Beverage_services.c: 1104: break;
 15227  1B95  2BBF               	goto	l3421
 15228                           	line	1105
 15229                           ;Beverage_services.c: 1105: case _Tea_Valve:
 15230                           	
 15231  1B96                     l3418:	
 15232                           	line	1106
 15233                           ;Beverage_services.c: 1106: RE1=0;
 15234  1B96  1089               	bcf	(73/8),(73)&7
 15235                           	line	1107
 15236                           ;Beverage_services.c: 1107: break;
 15237  1B97  2BBF               	goto	l3421
 15238                           	line	1108
 15239                           ;Beverage_services.c: 1108: case _Viber_Motor:
 15240                           	
 15241  1B98                     l3419:	
 15242                           	line	1109
 15243                           ;Beverage_services.c: 1109: RE2=0;
 15244  1B98  1109               	bcf	(74/8),(74)&7
 15245                           	line	1110
 15246                           ;Beverage_services.c: 1110: break;
 15247  1B99  2BBF               	goto	l3421
 15248                           	line	1111
 15249                           ;Beverage_services.c: 1111: case _Heater1:
 15250                           	
 15251  1B9A                     l3420:	
 15252                           	line	1112
 15253                           ;Beverage_services.c: 1112: RC3=0;
 15254  1B9A  1187               	bcf	(59/8),(59)&7
 15255                           	line	1113
 15256                           ;Beverage_services.c: 1113: break;
 15257  1B9B  2BBF               	goto	l3421
 15258                           	line	1114
 15259                           	
 15260  1B9C                     l9507:	
 15261                           ;Beverage_services.c: 1114: }
 15262  1B9C  2BBF               	goto	l3421
 15263                           	line	1081
 15264                           	
 15265  1B9D                     l3409:	
 15266                           	
 15267  1B9D                     l9509:	
 15268  1B9D  1283               	bcf	status, 5	;RP0=0, select bank0
 15269  1B9E  1303               	bcf	status, 6	;RP1=0, select bank0
 15270  1B9F  0839               	movf	(__OFF),w
 15271                           	; Switch size 1, requested type "space"
 15272                           ; Number of cases is 10, Range of values is 1 to 10
 15273                           ; switch strategies available:
 15274                           ; Name         Instructions Cycles
 15275                           ; simple_byte           31    16 (average)
 15276                           ; direct_byte           41    11 (fixed)
 15277                           ; jumptable            263     9 (fixed)
 15278                           ;	Chosen strategy is simple_byte
 15279                           
 15280                           	opt asmopt_off
 15281  1BA0  3A01               	xorlw	1^0	; case 1
 15282  1BA1  1903               	skipnz
 15283  1BA2  2B87               	goto	l3410
 15284  1BA3  3A03               	xorlw	2^1	; case 2
 15285  1BA4  1903               	skipnz
 15286  1BA5  2B89               	goto	l3411
 15287  1BA6  3A01               	xorlw	3^2	; case 3
 15288  1BA7  1903               	skipnz
 15289  1BA8  2B8C               	goto	l3413
 15290  1BA9  3A07               	xorlw	4^3	; case 4
 15291  1BAA  1903               	skipnz
 15292  1BAB  2B8E               	goto	l3414
 15293  1BAC  3A01               	xorlw	5^4	; case 5
 15294  1BAD  1903               	skipnz
 15295  1BAE  2B90               	goto	l3415
 15296  1BAF  3A03               	xorlw	6^5	; case 6
 15297  1BB0  1903               	skipnz
 15298  1BB1  2B92               	goto	l3416
 15299  1BB2  3A01               	xorlw	7^6	; case 7
 15300  1BB3  1903               	skipnz
 15301  1BB4  2B94               	goto	l3417
 15302  1BB5  3A0F               	xorlw	8^7	; case 8
 15303  1BB6  1903               	skipnz
 15304  1BB7  2B96               	goto	l3418
 15305  1BB8  3A01               	xorlw	9^8	; case 9
 15306  1BB9  1903               	skipnz
 15307  1BBA  2B98               	goto	l3419
 15308  1BBB  3A03               	xorlw	10^9	; case 10
 15309  1BBC  1903               	skipnz
 15310  1BBD  2B9A               	goto	l3420
 15311  1BBE  2BBF               	goto	l3421
 15312                           	opt asmopt_on
 15313                           
 15314                           	line	1114
 15315                           	
 15316  1BBF                     l3412:	
 15317                           	line	1115
 15318                           	
 15319  1BBF                     l3421:	
 15320  1BBF  0008               	return
 15321                           	opt stack 0
 15322                           GLOBAL	__end_of_offthevalve
 15323  1BC0                     	__end_of_offthevalve:
 15324 ;; =============== function _offthevalve ends ============
 15325                           
 15326                           	signat	_offthevalve,88
 15327                           	global	_eeprom_write
 15328                           psect	text879,local,class=CODE,delta=2
 15329                           global __ptext879
 15330  1A76                     __ptext879:
 15331                           
 15332 ;; *************** function _eeprom_write *****************
 15333 ;; Defined at:
 15334 ;;		line 7 in file "C:\Program Files\HI-TECH Software\PICC\9.82\sources\eewrite.c"
 15335 ;; Parameters:    Size  Location     Type
 15336 ;;  addr            1    wreg     unsigned char 
 15337 ;;  value           1    6[COMMON] unsigned char 
 15338 ;; Auto vars:     Size  Location     Type
 15339 ;;  addr            1    8[COMMON] unsigned char 
 15340 ;; Return value:  Size  Location     Type
 15341 ;;                  1    wreg      unsigned char 
 15342 ;; Registers used:
 15343 ;;		wreg, status,2, status,0
 15344 ;; Tracked objects:
 15345 ;;		On entry : 0/0
 15346 ;;		On exit  : 0/0
 15347 ;;		Unchanged: 0/0
 15348 ;; Data sizes:     COMMON   BANK0   BANK1   BANK3   BANK2
 15349 ;;      Params:         1       0       0       0       0
 15350 ;;      Locals:         1       0       0       0       0
 15351 ;;      Temps:          1       0       0       0       0
 15352 ;;      Totals:         3       0       0       0       0
 15353 ;;Total ram usage:        3 bytes
 15354 ;; Hardware stack levels used:    1
 15355 ;; This function calls:
 15356 ;;		Nothing
 15357 ;; This function is called by:
 15358 ;;		_Mode_Init
 15359 ;;		_enable_valves
 15360 ;;		_call_control_valve
 15361 ;;		_count_write
 15362 ;;		_Write_ValveIn_Memory
 15363 ;; This function uses a non-reentrant model
 15364 ;;
 15365                           psect	text879
 15366                           	file	"C:\Program Files\HI-TECH Software\PICC\9.82\sources\eewrite.c"
 15367                           	line	7
 15368                           	global	__size_of_eeprom_write
 15369  0031                     	__size_of_eeprom_write	equ	__end_of_eeprom_write-_eeprom_write
 15370                           	
 15371  1A76                     _eeprom_write:	
 15372                           	opt	stack 5
 15373                           ; Regs used in _eeprom_write: [wreg+status,2+status,0]
 15374                           ;eeprom_write@addr stored from wreg
 15375  1A76  00F8               	movwf	(eeprom_write@addr)
 15376                           	line	8
 15377                           	
 15378  1A77                     l5409:	
 15379  1A77  2A78               	goto	l5410
 15380                           	
 15381  1A78                     l5411:	
 15382                           	
 15383  1A78                     l5410:	
 15384  1A78  1683               	bsf	status, 5	;RP0=1, select bank3
 15385  1A79  1703               	bsf	status, 6	;RP1=1, select bank3
 15386  1A7A  188C               	btfsc	(3169/8)^0180h,(3169)&7
 15387  1A7B  2A7D               	goto	u4941
 15388  1A7C  2A7E               	goto	u4940
 15389  1A7D                     u4941:
 15390  1A7D  2A78               	goto	l5410
 15391  1A7E                     u4940:
 15392  1A7E  2A7F               	goto	l9485
 15393                           	
 15394  1A7F                     l5412:	
 15395                           	
 15396  1A7F                     l9485:	
 15397  1A7F  0878               	movf	(eeprom_write@addr),w
 15398  1A80  1283               	bcf	status, 5	;RP0=0, select bank2
 15399  1A81  1703               	bsf	status, 6	;RP1=1, select bank2
 15400  1A82  008D               	movwf	(269)^0100h	;volatile
 15401  1A83  0876               	movf	(eeprom_write@value),w
 15402  1A84  008C               	movwf	(268)^0100h	;volatile
 15403                           	
 15404  1A85                     l9487:	
 15405  1A85  303F               	movlw	(03Fh)
 15406  1A86  00F7               	movwf	(??_eeprom_write+0)+0
 15407  1A87  0877               	movf	(??_eeprom_write+0)+0,w
 15408  1A88  1683               	bsf	status, 5	;RP0=1, select bank3
 15409  1A89  1703               	bsf	status, 6	;RP1=1, select bank3
 15410  1A8A  058C               	andwf	(396)^0180h,f	;volatile
 15411                           	
 15412  1A8B                     l9489:	
 15413  1A8B  1283               	bcf	status, 5	;RP0=0, select bank0
 15414  1A8C  1303               	bcf	status, 6	;RP1=0, select bank0
 15415  1A8D  1003               	bcf	(24/8),(24)&7
 15416                           	
 15417  1A8E                     l9491:	
 15418  1A8E  1F8B               	btfss	(95/8),(95)&7
 15419  1A8F  2A91               	goto	u4951
 15420  1A90  2A92               	goto	u4950
 15421  1A91                     u4951:
 15422  1A91  2A93               	goto	l5413
 15423  1A92                     u4950:
 15424                           	
 15425  1A92                     l9493:	
 15426  1A92  1403               	bsf	(24/8),(24)&7
 15427                           	
 15428  1A93                     l5413:	
 15429  1A93  138B               	bcf	(95/8),(95)&7
 15430  1A94  1683               	bsf	status, 5	;RP0=1, select bank3
 15431  1A95  1703               	bsf	status, 6	;RP1=1, select bank3
 15432  1A96  150C               	bsf	(3170/8)^0180h,(3170)&7
 15433                           	
 15434  1A97                     l9495:	
 15435  1A97  3055               	movlw	(055h)
 15436  1A98  008D               	movwf	(397)^0180h	;volatile
 15437  1A99  30AA               	movlw	(0AAh)
 15438  1A9A  008D               	movwf	(397)^0180h	;volatile
 15439                           	
 15440  1A9B                     l9497:	
 15441  1A9B  148C               	bsf	(3169/8)^0180h,(3169)&7
 15442                           	
 15443  1A9C                     l9499:	
 15444  1A9C  110C               	bcf	(3170/8)^0180h,(3170)&7
 15445                           	
 15446  1A9D                     l9501:	
 15447  1A9D  1283               	bcf	status, 5	;RP0=0, select bank0
 15448  1A9E  1303               	bcf	status, 6	;RP1=0, select bank0
 15449  1A9F  1C03               	btfss	(24/8),(24)&7
 15450  1AA0  2AA2               	goto	u4961
 15451  1AA1  2AA3               	goto	u4960
 15452  1AA2                     u4961:
 15453  1AA2  2AA6               	goto	l5416
 15454  1AA3                     u4960:
 15455                           	
 15456  1AA3                     l9503:	
 15457  1AA3  178B               	bsf	(95/8),(95)&7
 15458  1AA4  2AA6               	goto	l5416
 15459                           	
 15460  1AA5                     l5414:	
 15461  1AA5  2AA6               	goto	l5416
 15462                           	
 15463  1AA6                     l5415:	
 15464                           	line	10
 15465                           ;	Return value of _eeprom_write is never used
 15466                           	
 15467  1AA6                     l5416:	
 15468  1AA6  0008               	return
 15469                           	opt stack 0
 15470                           GLOBAL	__end_of_eeprom_write
 15471  1AA7                     	__end_of_eeprom_write:
 15472 ;; =============== function _eeprom_write ends ============
 15473                           
 15474                           	signat	_eeprom_write,8313
 15475                           	global	_SendByteSerially
 15476                           psect	text880,local,class=CODE,delta=2
 15477                           global __ptext880
 15478  196A                     __ptext880:
 15479                           
 15480 ;; *************** function _SendByteSerially *****************
 15481 ;; Defined at:
 15482 ;;		line 30 in file "F:\BEVERAGES_ENHANCEMENT\SOFTWARE_DESIGN\MASTER_PIC_16F877A\2015_09_13\uart.c"
 15483 ;; Parameters:    Size  Location     Type
 15484 ;;  Byte            1    wreg     unsigned char 
 15485 ;; Auto vars:     Size  Location     Type
 15486 ;;  Byte            1    0[COMMON] unsigned char 
 15487 ;; Return value:  Size  Location     Type
 15488 ;;		None               void
 15489 ;; Registers used:
 15490 ;;		wreg
 15491 ;; Tracked objects:
 15492 ;;		On entry : 0/0
 15493 ;;		On exit  : 0/0
 15494 ;;		Unchanged: 0/0
 15495 ;; Data sizes:     COMMON   BANK0   BANK1   BANK3   BANK2
 15496 ;;      Params:         0       0       0       0       0
 15497 ;;      Locals:         1       0       0       0       0
 15498 ;;      Temps:          0       0       0       0       0
 15499 ;;      Totals:         1       0       0       0       0
 15500 ;;Total ram usage:        1 bytes
 15501 ;; Hardware stack levels used:    1
 15502 ;; This function calls:
 15503 ;;		Nothing
 15504 ;; This function is called by:
 15505 ;;		_Print_Name
 15506 ;;		_Print_Menu
 15507 ;;		_Mode_Init
 15508 ;;		_enable_valves
 15509 ;;		_SendStringSerially
 15510 ;; This function uses a non-reentrant model
 15511 ;;
 15512                           psect	text880
 15513                           	file	"F:\BEVERAGES_ENHANCEMENT\SOFTWARE_DESIGN\MASTER_PIC_16F877A\2015_09_13\uart.c"
 15514                           	line	30
 15515                           	global	__size_of_SendByteSerially
 15516  000C                     	__size_of_SendByteSerially	equ	__end_of_SendByteSerially-_SendByteSerially
 15517                           	
 15518  196A                     _SendByteSerially:	
 15519                           	opt	stack 5
 15520                           ; Regs used in _SendByteSerially: [wreg]
 15521                           ;SendByteSerially@Byte stored from wreg
 15522  196A  00F0               	movwf	(SendByteSerially@Byte)
 15523                           	line	31
 15524                           	
 15525  196B                     l9481:	
 15526                           ;uart.c: 31: while(!TXIF);
 15527  196B  296C               	goto	l4168
 15528                           	
 15529  196C                     l4169:	
 15530                           	
 15531  196C                     l4168:	
 15532  196C  1283               	bcf	status, 5	;RP0=0, select bank0
 15533  196D  1303               	bcf	status, 6	;RP1=0, select bank0
 15534  196E  1E0C               	btfss	(100/8),(100)&7
 15535  196F  2971               	goto	u4931
 15536  1970  2972               	goto	u4930
 15537  1971                     u4931:
 15538  1971  296C               	goto	l4168
 15539  1972                     u4930:
 15540  1972  2973               	goto	l9483
 15541                           	
 15542  1973                     l4170:	
 15543                           	line	32
 15544                           	
 15545  1973                     l9483:	
 15546                           ;uart.c: 32: TXREG = Byte;
 15547  1973  0870               	movf	(SendByteSerially@Byte),w
 15548  1974  0099               	movwf	(25)	;volatile
 15549                           	line	33
 15550                           	
 15551  1975                     l4171:	
 15552  1975  0008               	return
 15553                           	opt stack 0
 15554                           GLOBAL	__end_of_SendByteSerially
 15555  1976                     	__end_of_SendByteSerially:
 15556 ;; =============== function _SendByteSerially ends ============
 15557                           
 15558                           	signat	_SendByteSerially,4216
 15559                           	global	_key_press
 15560                           psect	text881,local,class=CODE,delta=2
 15561                           global __ptext881
 15562  1065                     __ptext881:
 15563                           
 15564 ;; *************** function _key_press *****************
 15565 ;; Defined at:
 15566 ;;		line 97 in file "F:\BEVERAGES_ENHANCEMENT\SOFTWARE_DESIGN\MASTER_PIC_16F877A\2015_09_13\Beverage_services.c"
 15567 ;; Parameters:    Size  Location     Type
 15568 ;;		None
 15569 ;; Auto vars:     Size  Location     Type
 15570 ;;		None
 15571 ;; Return value:  Size  Location     Type
 15572 ;;		None               void
 15573 ;; Registers used:
 15574 ;;		wreg, status,2, status,0
 15575 ;; Tracked objects:
 15576 ;;		On entry : 0/0
 15577 ;;		On exit  : 0/0
 15578 ;;		Unchanged: 0/0
 15579 ;; Data sizes:     COMMON   BANK0   BANK1   BANK3   BANK2
 15580 ;;      Params:         0       0       0       0       0
 15581 ;;      Locals:         0       0       0       0       0
 15582 ;;      Temps:          1       0       0       0       0
 15583 ;;      Totals:         1       0       0       0       0
 15584 ;;Total ram usage:        1 bytes
 15585 ;; Hardware stack levels used:    1
 15586 ;; This function calls:
 15587 ;;		Nothing
 15588 ;; This function is called by:
 15589 ;;		_main
 15590 ;;		_enable_valves
 15591 ;; This function uses a non-reentrant model
 15592 ;;
 15593                           psect	text881
 15594                           	file	"F:\BEVERAGES_ENHANCEMENT\SOFTWARE_DESIGN\MASTER_PIC_16F877A\2015_09_13\Beverage_s
                                 ervices.c"
 15595                           	line	97
 15596                           	global	__size_of_key_press
 15597  009C                     	__size_of_key_press	equ	__end_of_key_press-_key_press
 15598                           	
 15599  1065                     _key_press:	
 15600                           	opt	stack 6
 15601                           ; Regs used in _key_press: [wreg+status,2+status,0]
 15602                           	line	98
 15603                           	
 15604  1065                     l9415:	
 15605                           ;Beverage_services.c: 98: if(!RB0 || !RB1 || !RB2 || !RB3 || !RB4 || !RB5 || !RB6 || !RB
                                 7 || !RC4 || !RC5)
 15606  1065  1283               	bcf	status, 5	;RP0=0, select bank0
 15607  1066  1303               	bcf	status, 6	;RP1=0, select bank0
 15608  1067  1C06               	btfss	(48/8),(48)&7
 15609  1068  286A               	goto	u4711
 15610  1069  286B               	goto	u4710
 15611  106A                     u4711:
 15612  106A  288F               	goto	l3124
 15613  106B                     u4710:
 15614                           	
 15615  106B                     l9417:	
 15616  106B  1C86               	btfss	(49/8),(49)&7
 15617  106C  286E               	goto	u4721
 15618  106D  286F               	goto	u4720
 15619  106E                     u4721:
 15620  106E  288F               	goto	l3124
 15621  106F                     u4720:
 15622                           	
 15623  106F                     l9419:	
 15624  106F  1D06               	btfss	(50/8),(50)&7
 15625  1070  2872               	goto	u4731
 15626  1071  2873               	goto	u4730
 15627  1072                     u4731:
 15628  1072  288F               	goto	l3124
 15629  1073                     u4730:
 15630                           	
 15631  1073                     l9421:	
 15632  1073  1D86               	btfss	(51/8),(51)&7
 15633  1074  2876               	goto	u4741
 15634  1075  2877               	goto	u4740
 15635  1076                     u4741:
 15636  1076  288F               	goto	l3124
 15637  1077                     u4740:
 15638                           	
 15639  1077                     l9423:	
 15640  1077  1E06               	btfss	(52/8),(52)&7
 15641  1078  287A               	goto	u4751
 15642  1079  287B               	goto	u4750
 15643  107A                     u4751:
 15644  107A  288F               	goto	l3124
 15645  107B                     u4750:
 15646                           	
 15647  107B                     l9425:	
 15648  107B  1E86               	btfss	(53/8),(53)&7
 15649  107C  287E               	goto	u4761
 15650  107D  287F               	goto	u4760
 15651  107E                     u4761:
 15652  107E  288F               	goto	l3124
 15653  107F                     u4760:
 15654                           	
 15655  107F                     l9427:	
 15656  107F  1F06               	btfss	(54/8),(54)&7
 15657  1080  2882               	goto	u4771
 15658  1081  2883               	goto	u4770
 15659  1082                     u4771:
 15660  1082  288F               	goto	l3124
 15661  1083                     u4770:
 15662                           	
 15663  1083                     l9429:	
 15664  1083  1F86               	btfss	(55/8),(55)&7
 15665  1084  2886               	goto	u4781
 15666  1085  2887               	goto	u4780
 15667  1086                     u4781:
 15668  1086  288F               	goto	l3124
 15669  1087                     u4780:
 15670                           	
 15671  1087                     l9431:	
 15672  1087  1E07               	btfss	(60/8),(60)&7
 15673  1088  288A               	goto	u4791
 15674  1089  288B               	goto	u4790
 15675  108A                     u4791:
 15676  108A  288F               	goto	l3124
 15677  108B                     u4790:
 15678                           	
 15679  108B                     l9433:	
 15680  108B  1A87               	btfsc	(61/8),(61)&7
 15681  108C  288E               	goto	u4801
 15682  108D  288F               	goto	u4800
 15683  108E                     u4801:
 15684  108E  28F1               	goto	l9477
 15685  108F                     u4800:
 15686                           	
 15687  108F                     l3124:	
 15688                           	line	100
 15689                           ;Beverage_services.c: 99: {
 15690                           ;Beverage_services.c: 100: if(RB6==0)
 15691  108F  1B06               	btfsc	(54/8),(54)&7
 15692  1090  2892               	goto	u4811
 15693  1091  2893               	goto	u4810
 15694  1092                     u4811:
 15695  1092  2897               	goto	l9437
 15696  1093                     u4810:
 15697                           	line	102
 15698                           	
 15699  1093                     l9435:	
 15700                           ;Beverage_services.c: 101: {
 15701                           ;Beverage_services.c: 102: _PRESSED=_NORMAL_COFFEE_BUTTON;
 15702  1093  01BB               	clrf	(__PRESSED)
 15703  1094  1403               	bsf	status,0
 15704  1095  0DBB               	rlf	(__PRESSED),f
 15705  1096  2897               	goto	l9437
 15706                           	line	103
 15707                           	
 15708  1097                     l3125:	
 15709                           	line	104
 15710                           	
 15711  1097                     l9437:	
 15712                           ;Beverage_services.c: 103: }
 15713                           ;Beverage_services.c: 104: if(RB7==0)
 15714  1097  1B86               	btfsc	(55/8),(55)&7
 15715  1098  289A               	goto	u4821
 15716  1099  289B               	goto	u4820
 15717  109A                     u4821:
 15718  109A  28A0               	goto	l9441
 15719  109B                     u4820:
 15720                           	line	106
 15721                           	
 15722  109B                     l9439:	
 15723                           ;Beverage_services.c: 105: {
 15724                           ;Beverage_services.c: 106: _PRESSED=_NORMAL_TEA_BUTTON;
 15725  109B  3002               	movlw	(02h)
 15726  109C  00F0               	movwf	(??_key_press+0)+0
 15727  109D  0870               	movf	(??_key_press+0)+0,w
 15728  109E  00BB               	movwf	(__PRESSED)
 15729  109F  28A0               	goto	l9441
 15730                           	line	107
 15731                           	
 15732  10A0                     l3126:	
 15733                           	line	108
 15734                           	
 15735  10A0                     l9441:	
 15736                           ;Beverage_services.c: 107: }
 15737                           ;Beverage_services.c: 108: if(RB4==0)
 15738  10A0  1A06               	btfsc	(52/8),(52)&7
 15739  10A1  28A3               	goto	u4831
 15740  10A2  28A4               	goto	u4830
 15741  10A3                     u4831:
 15742  10A3  28A9               	goto	l9445
 15743  10A4                     u4830:
 15744                           	line	110
 15745                           	
 15746  10A4                     l9443:	
 15747                           ;Beverage_services.c: 109: {
 15748                           ;Beverage_services.c: 110: _PRESSED=_LIGHT_COFFEE_BUTTON;
 15749  10A4  3003               	movlw	(03h)
 15750  10A5  00F0               	movwf	(??_key_press+0)+0
 15751  10A6  0870               	movf	(??_key_press+0)+0,w
 15752  10A7  00BB               	movwf	(__PRESSED)
 15753  10A8  28A9               	goto	l9445
 15754                           	line	111
 15755                           	
 15756  10A9                     l3127:	
 15757                           	line	112
 15758                           	
 15759  10A9                     l9445:	
 15760                           ;Beverage_services.c: 111: }
 15761                           ;Beverage_services.c: 112: if(RB5==0)
 15762  10A9  1A86               	btfsc	(53/8),(53)&7
 15763  10AA  28AC               	goto	u4841
 15764  10AB  28AD               	goto	u4840
 15765  10AC                     u4841:
 15766  10AC  28B2               	goto	l9449
 15767  10AD                     u4840:
 15768                           	line	114
 15769                           	
 15770  10AD                     l9447:	
 15771                           ;Beverage_services.c: 113: {
 15772                           ;Beverage_services.c: 114: _PRESSED=_LIGHT_TEA_BUTTON;
 15773  10AD  3004               	movlw	(04h)
 15774  10AE  00F0               	movwf	(??_key_press+0)+0
 15775  10AF  0870               	movf	(??_key_press+0)+0,w
 15776  10B0  00BB               	movwf	(__PRESSED)
 15777  10B1  28B2               	goto	l9449
 15778                           	line	115
 15779                           	
 15780  10B2                     l3128:	
 15781                           	line	116
 15782                           	
 15783  10B2                     l9449:	
 15784                           ;Beverage_services.c: 115: }
 15785                           ;Beverage_services.c: 116: if(RB2==0)
 15786  10B2  1906               	btfsc	(50/8),(50)&7
 15787  10B3  28B5               	goto	u4851
 15788  10B4  28B6               	goto	u4850
 15789  10B5                     u4851:
 15790  10B5  28BB               	goto	l9453
 15791  10B6                     u4850:
 15792                           	line	118
 15793                           	
 15794  10B6                     l9451:	
 15795                           ;Beverage_services.c: 117: {
 15796                           ;Beverage_services.c: 118: _PRESSED=_BLACK_COFFEE_BUTTON;
 15797  10B6  3005               	movlw	(05h)
 15798  10B7  00F0               	movwf	(??_key_press+0)+0
 15799  10B8  0870               	movf	(??_key_press+0)+0,w
 15800  10B9  00BB               	movwf	(__PRESSED)
 15801  10BA  28BB               	goto	l9453
 15802                           	line	119
 15803                           	
 15804  10BB                     l3129:	
 15805                           	line	120
 15806                           	
 15807  10BB                     l9453:	
 15808                           ;Beverage_services.c: 119: }
 15809                           ;Beverage_services.c: 120: if(RB3==0)
 15810  10BB  1986               	btfsc	(51/8),(51)&7
 15811  10BC  28BE               	goto	u4861
 15812  10BD  28BF               	goto	u4860
 15813  10BE                     u4861:
 15814  10BE  28C4               	goto	l9457
 15815  10BF                     u4860:
 15816                           	line	122
 15817                           	
 15818  10BF                     l9455:	
 15819                           ;Beverage_services.c: 121: {
 15820                           ;Beverage_services.c: 122: _PRESSED=_BLACK_TEA_BUTTON;
 15821  10BF  3006               	movlw	(06h)
 15822  10C0  00F0               	movwf	(??_key_press+0)+0
 15823  10C1  0870               	movf	(??_key_press+0)+0,w
 15824  10C2  00BB               	movwf	(__PRESSED)
 15825  10C3  28C4               	goto	l9457
 15826                           	line	123
 15827                           	
 15828  10C4                     l3130:	
 15829                           	line	124
 15830                           	
 15831  10C4                     l9457:	
 15832                           ;Beverage_services.c: 123: }
 15833                           ;Beverage_services.c: 124: if(RB0==0)
 15834  10C4  1806               	btfsc	(48/8),(48)&7
 15835  10C5  28C7               	goto	u4871
 15836  10C6  28C8               	goto	u4870
 15837  10C7                     u4871:
 15838  10C7  28CD               	goto	l9461
 15839  10C8                     u4870:
 15840                           	line	126
 15841                           	
 15842  10C8                     l9459:	
 15843                           ;Beverage_services.c: 125: {
 15844                           ;Beverage_services.c: 126: _PRESSED=_MILK_BUTTON;
 15845  10C8  3007               	movlw	(07h)
 15846  10C9  00F0               	movwf	(??_key_press+0)+0
 15847  10CA  0870               	movf	(??_key_press+0)+0,w
 15848  10CB  00BB               	movwf	(__PRESSED)
 15849  10CC  28CD               	goto	l9461
 15850                           	line	127
 15851                           	
 15852  10CD                     l3131:	
 15853                           	line	128
 15854                           	
 15855  10CD                     l9461:	
 15856                           ;Beverage_services.c: 127: }
 15857                           ;Beverage_services.c: 128: if(RB1==0)
 15858  10CD  1886               	btfsc	(49/8),(49)&7
 15859  10CE  28D0               	goto	u4881
 15860  10CF  28D1               	goto	u4880
 15861  10D0                     u4881:
 15862  10D0  28D6               	goto	l9465
 15863  10D1                     u4880:
 15864                           	line	130
 15865                           	
 15866  10D1                     l9463:	
 15867                           ;Beverage_services.c: 129: {
 15868                           ;Beverage_services.c: 130: _PRESSED=_HOT_WATER_BUTTON;
 15869  10D1  3009               	movlw	(09h)
 15870  10D2  00F0               	movwf	(??_key_press+0)+0
 15871  10D3  0870               	movf	(??_key_press+0)+0,w
 15872  10D4  00BB               	movwf	(__PRESSED)
 15873  10D5  28D6               	goto	l9465
 15874                           	line	131
 15875                           	
 15876  10D6                     l3132:	
 15877                           	line	132
 15878                           	
 15879  10D6                     l9465:	
 15880                           ;Beverage_services.c: 131: }
 15881                           ;Beverage_services.c: 132: if(RC5==0)
 15882  10D6  1A87               	btfsc	(61/8),(61)&7
 15883  10D7  28D9               	goto	u4891
 15884  10D8  28DA               	goto	u4890
 15885  10D9                     u4891:
 15886  10D9  28DF               	goto	l9469
 15887  10DA                     u4890:
 15888                           	line	134
 15889                           	
 15890  10DA                     l9467:	
 15891                           ;Beverage_services.c: 133: {
 15892                           ;Beverage_services.c: 134: _PRESSED=_EXTRA_BUTTON;
 15893  10DA  3008               	movlw	(08h)
 15894  10DB  00F0               	movwf	(??_key_press+0)+0
 15895  10DC  0870               	movf	(??_key_press+0)+0,w
 15896  10DD  00BB               	movwf	(__PRESSED)
 15897  10DE  28DF               	goto	l9469
 15898                           	line	135
 15899                           	
 15900  10DF                     l3133:	
 15901                           	line	136
 15902                           	
 15903  10DF                     l9469:	
 15904                           ;Beverage_services.c: 135: }
 15905                           ;Beverage_services.c: 136: if(RC4==0)
 15906  10DF  1A07               	btfsc	(60/8),(60)&7
 15907  10E0  28E2               	goto	u4901
 15908  10E1  28E3               	goto	u4900
 15909  10E2                     u4901:
 15910  10E2  28F1               	goto	l9477
 15911  10E3                     u4900:
 15912                           	line	138
 15913                           	
 15914  10E3                     l9471:	
 15915                           ;Beverage_services.c: 137: {
 15916                           ;Beverage_services.c: 138: _PRESSED=_MENU_BUTTON;
 15917  10E3  300A               	movlw	(0Ah)
 15918  10E4  00F0               	movwf	(??_key_press+0)+0
 15919  10E5  0870               	movf	(??_key_press+0)+0,w
 15920  10E6  00BB               	movwf	(__PRESSED)
 15921                           	line	139
 15922                           	
 15923  10E7                     l9473:	
 15924                           ;Beverage_services.c: 139: if(_SHORTCUT==1)
 15925  10E7  1D6E               	btfss	(__SHORTCUT/8),(__SHORTCUT)&7
 15926  10E8  28EA               	goto	u4911
 15927  10E9  28EB               	goto	u4910
 15928  10EA                     u4911:
 15929  10EA  28ED               	goto	l3135
 15930  10EB                     u4910:
 15931                           	line	140
 15932                           	
 15933  10EB                     l9475:	
 15934                           ;Beverage_services.c: 140: _SHORTCUT=0;
 15935  10EB  116E               	bcf	(__SHORTCUT/8),(__SHORTCUT)&7
 15936  10EC  28F1               	goto	l9477
 15937                           	line	141
 15938                           	
 15939  10ED                     l3135:	
 15940                           	line	142
 15941                           ;Beverage_services.c: 141: else
 15942                           ;Beverage_services.c: 142: _SHORTCUT=1;
 15943  10ED  156E               	bsf	(__SHORTCUT/8),(__SHORTCUT)&7
 15944  10EE  28F1               	goto	l9477
 15945                           	
 15946  10EF                     l3136:	
 15947  10EF  28F1               	goto	l9477
 15948                           	line	143
 15949                           	
 15950  10F0                     l3134:	
 15951  10F0  28F1               	goto	l9477
 15952                           	line	144
 15953                           	
 15954  10F1                     l3122:	
 15955                           	line	145
 15956                           	
 15957  10F1                     l9477:	
 15958                           ;Beverage_services.c: 143: }
 15959                           ;Beverage_services.c: 144: }
 15960                           ;Beverage_services.c: 145: if(_PRESSED!=_MENU_BUTTON)
 15961  10F1  083B               	movf	(__PRESSED),w
 15962  10F2  3A0A               	xorlw	0Ah
 15963  10F3  1903               	skipnz
 15964  10F4  28F6               	goto	u4921
 15965  10F5  28F7               	goto	u4920
 15966  10F6                     u4921:
 15967  10F6  2900               	goto	l3138
 15968  10F7                     u4920:
 15969                           	line	147
 15970                           	
 15971  10F7                     l9479:	
 15972                           ;Beverage_services.c: 146: {
 15973                           ;Beverage_services.c: 147: _CHOICE_SELECTED=_PRESSED;
 15974  10F7  083B               	movf	(__PRESSED),w
 15975  10F8  00F0               	movwf	(??_key_press+0)+0
 15976  10F9  0870               	movf	(??_key_press+0)+0,w
 15977  10FA  00C8               	movwf	(__CHOICE_SELECTED)
 15978                           	line	148
 15979                           ;Beverage_services.c: 148: _SHORTCUT_PRESSED=_PRESSED;
 15980  10FB  083B               	movf	(__PRESSED),w
 15981  10FC  00F0               	movwf	(??_key_press+0)+0
 15982  10FD  0870               	movf	(??_key_press+0)+0,w
 15983  10FE  00BF               	movwf	(__SHORTCUT_PRESSED)
 15984  10FF  2900               	goto	l3138
 15985                           	line	149
 15986                           	
 15987  1100                     l3137:	
 15988                           	line	150
 15989                           	
 15990  1100                     l3138:	
 15991  1100  0008               	return
 15992                           	opt stack 0
 15993                           GLOBAL	__end_of_key_press
 15994  1101                     	__end_of_key_press:
 15995 ;; =============== function _key_press ends ============
 15996                           
 15997                           	signat	_key_press,88
 15998                           	global	_eeprom_read
 15999                           psect	text882,local,class=CODE,delta=2
 16000                           global __ptext882
 16001  19B7                     __ptext882:
 16002                           
 16003 ;; *************** function _eeprom_read *****************
 16004 ;; Defined at:
 16005 ;;		line 7 in file "eeread.c"
 16006 ;; Parameters:    Size  Location     Type
 16007 ;;  addr            1    4[COMMON] unsigned char 
 16008 ;; Auto vars:     Size  Location     Type
 16009 ;;		None
 16010 ;; Return value:  Size  Location     Type
 16011 ;;                  1    wreg      unsigned char 
 16012 ;; Registers used:
 16013 ;;		wreg, status,2, status,0
 16014 ;; Tracked objects:
 16015 ;;		On entry : 0/0
 16016 ;;		On exit  : 0/0
 16017 ;;		Unchanged: 0/0
 16018 ;; Data sizes:     COMMON   BANK0   BANK1   BANK3   BANK2
 16019 ;;      Params:         1       0       0       0       0
 16020 ;;      Locals:         0       0       0       0       0
 16021 ;;      Temps:          1       0       0       0       0
 16022 ;;      Totals:         2       0       0       0       0
 16023 ;;Total ram usage:        2 bytes
 16024 ;; Hardware stack levels used:    1
 16025 ;; This function calls:
 16026 ;;		Nothing
 16027 ;; This function is called by:
 16028 ;;		_main
 16029 ;;		_Mode_Init
 16030 ;;		_enable_valves
 16031 ;;		_change_modes
 16032 ;;		_call_control_valve
 16033 ;;		_count_write
 16034 ;;		_count_read
 16035 ;;		_Read_ValveFrom_Memory
 16036 ;; This function uses a non-reentrant model
 16037 ;;
 16038                           psect	text882
 16039                           	file	"C:\Program Files\HI-TECH Software\PICC\9.82\sources\eeread.c"
 16040                           	line	7
 16041                           	global	__size_of_eeprom_read
 16042  001E                     	__size_of_eeprom_read	equ	__end_of_eeprom_read-_eeprom_read
 16043                           	
 16044  19B7                     _eeprom_read:	
 16045                           	opt	stack 5
 16046                           ; Regs used in _eeprom_read: [wreg+status,2+status,0]
 16047                           	line	8
 16048                           	
 16049  19B7                     l4792:	
 16050                           	line	9
 16051                           # 9 "C:\Program Files\HI-TECH Software\PICC\9.82\sources\eeread.c"
 16052  19B7  0064               clrwdt ;#
 16053                           psect	text882
 16054                           	line	10
 16055  19B8  1683               	bsf	status, 5	;RP0=1, select bank3
 16056  19B9  1703               	bsf	status, 6	;RP1=1, select bank3
 16057  19BA  188C               	btfsc	(3169/8)^0180h,(3169)&7
 16058  19BB  29BD               	goto	u4701
 16059  19BC  29BE               	goto	u4700
 16060  19BD                     u4701:
 16061  19BD  29B7               	goto	l4792
 16062  19BE                     u4700:
 16063  19BE  29BF               	goto	l9411
 16064                           	
 16065  19BF                     l4793:	
 16066                           	line	11
 16067                           	
 16068  19BF                     l9411:	
 16069  19BF  0874               	movf	(eeprom_read@addr),w
 16070  19C0  1283               	bcf	status, 5	;RP0=0, select bank2
 16071  19C1  1703               	bsf	status, 6	;RP1=1, select bank2
 16072  19C2  008D               	movwf	(269)^0100h	;volatile
 16073  19C3  303F               	movlw	(03Fh)
 16074  19C4  00F5               	movwf	(??_eeprom_read+0)+0
 16075  19C5  0875               	movf	(??_eeprom_read+0)+0,w
 16076  19C6  1683               	bsf	status, 5	;RP0=1, select bank3
 16077  19C7  1703               	bsf	status, 6	;RP1=1, select bank3
 16078  19C8  058C               	andwf	(396)^0180h,f	;volatile
 16079  19C9  140C               	bsf	(3168/8)^0180h,(3168)&7
 16080  19CA  1003               	clrc
 16081  19CB  180C               	btfsc	(3168/8)^0180h,(3168)&7
 16082  19CC  1403               	setc
 16083  19CD  3000               	movlw	0
 16084  19CE  1803               	skipnc
 16085  19CF  3001               	movlw	1
 16086                           
 16087  19D0  1283               	bcf	status, 5	;RP0=0, select bank2
 16088  19D1  1703               	bsf	status, 6	;RP1=1, select bank2
 16089  19D2  080C               	movf	(268)^0100h,w	;volatile
 16090  19D3  29D4               	goto	l4794
 16091                           	
 16092  19D4                     l9413:	
 16093                           	line	12
 16094                           	
 16095  19D4                     l4794:	
 16096  19D4  0008               	return
 16097                           	opt stack 0
 16098                           GLOBAL	__end_of_eeprom_read
 16099  19D5                     	__end_of_eeprom_read:
 16100 ;; =============== function _eeprom_read ends ============
 16101                           
 16102                           	signat	_eeprom_read,4217
 16103                           	global	_Port_Init
 16104                           psect	text883,local,class=CODE,delta=2
 16105                           global __ptext883
 16106  199E                     __ptext883:
 16107                           
 16108 ;; *************** function _Port_Init *****************
 16109 ;; Defined at:
 16110 ;;		line 14 in file "F:\BEVERAGES_ENHANCEMENT\SOFTWARE_DESIGN\MASTER_PIC_16F877A\2015_09_13\Beverage.c"
 16111 ;; Parameters:    Size  Location     Type
 16112 ;;		None
 16113 ;; Auto vars:     Size  Location     Type
 16114 ;;		None
 16115 ;; Return value:  Size  Location     Type
 16116 ;;		None               void
 16117 ;; Registers used:
 16118 ;;		wreg, status,2
 16119 ;; Tracked objects:
 16120 ;;		On entry : 0/0
 16121 ;;		On exit  : 0/0
 16122 ;;		Unchanged: 0/0
 16123 ;; Data sizes:     COMMON   BANK0   BANK1   BANK3   BANK2
 16124 ;;      Params:         0       0       0       0       0
 16125 ;;      Locals:         0       0       0       0       0
 16126 ;;      Temps:          0       0       0       0       0
 16127 ;;      Totals:         0       0       0       0       0
 16128 ;;Total ram usage:        0 bytes
 16129 ;; Hardware stack levels used:    1
 16130 ;; This function calls:
 16131 ;;		Nothing
 16132 ;; This function is called by:
 16133 ;;		_main
 16134 ;; This function uses a non-reentrant model
 16135 ;;
 16136                           psect	text883
 16137                           	file	"F:\BEVERAGES_ENHANCEMENT\SOFTWARE_DESIGN\MASTER_PIC_16F877A\2015_09_13\Beverage.c
                                 "
 16138                           	line	14
 16139                           	global	__size_of_Port_Init
 16140  0019                     	__size_of_Port_Init	equ	__end_of_Port_Init-_Port_Init
 16141                           	
 16142  199E                     _Port_Init:	
 16143                           	opt	stack 7
 16144                           ; Regs used in _Port_Init: [wreg+status,2]
 16145                           	line	15
 16146                           	
 16147  199E                     l9397:	
 16148                           ;Beverage.c: 15: ADCON1 = 0X07;
 16149  199E  3007               	movlw	(07h)
 16150  199F  1683               	bsf	status, 5	;RP0=1, select bank1
 16151  19A0  1303               	bcf	status, 6	;RP1=0, select bank1
 16152  19A1  009F               	movwf	(159)^080h	;volatile
 16153                           	line	16
 16154                           ;Beverage.c: 16: CMCON = 0X07;
 16155  19A2  3007               	movlw	(07h)
 16156  19A3  009C               	movwf	(156)^080h	;volatile
 16157                           	line	18
 16158                           ;Beverage.c: 18: TRISA = 0x01;
 16159  19A4  3001               	movlw	(01h)
 16160  19A5  0085               	movwf	(133)^080h	;volatile
 16161                           	line	19
 16162                           ;Beverage.c: 19: TRISB = 0XFF;
 16163  19A6  30FF               	movlw	(0FFh)
 16164  19A7  0086               	movwf	(134)^080h	;volatile
 16165                           	line	20
 16166                           	
 16167  19A8                     l9399:	
 16168                           ;Beverage.c: 20: TRISD = 0x00;
 16169  19A8  0188               	clrf	(136)^080h	;volatile
 16170                           	line	21
 16171                           	
 16172  19A9                     l9401:	
 16173                           ;Beverage.c: 21: TRISC = 0X30;
 16174  19A9  3030               	movlw	(030h)
 16175  19AA  0087               	movwf	(135)^080h	;volatile
 16176                           	line	22
 16177                           ;Beverage.c: 22: TRISE = 0X00;
 16178  19AB  0189               	clrf	(137)^080h	;volatile
 16179                           	line	24
 16180                           ;Beverage.c: 24: PORTA = 0X00;
 16181  19AC  1283               	bcf	status, 5	;RP0=0, select bank0
 16182  19AD  1303               	bcf	status, 6	;RP1=0, select bank0
 16183  19AE  0185               	clrf	(5)	;volatile
 16184                           	line	25
 16185                           	
 16186  19AF                     l9403:	
 16187                           ;Beverage.c: 25: PORTB = 0XFF;
 16188  19AF  30FF               	movlw	(0FFh)
 16189  19B0  0086               	movwf	(6)	;volatile
 16190                           	line	26
 16191                           	
 16192  19B1                     l9405:	
 16193                           ;Beverage.c: 26: PORTC = 0X30;
 16194  19B1  3030               	movlw	(030h)
 16195  19B2  0087               	movwf	(7)	;volatile
 16196                           	line	27
 16197                           	
 16198  19B3                     l9407:	
 16199                           ;Beverage.c: 27: PORTD = 0XFD;
 16200  19B3  30FD               	movlw	(0FDh)
 16201  19B4  0088               	movwf	(8)	;volatile
 16202                           	line	28
 16203                           	
 16204  19B5                     l9409:	
 16205                           ;Beverage.c: 28: PORTE = 0X00;
 16206  19B5  0189               	clrf	(9)	;volatile
 16207                           	line	29
 16208                           	
 16209  19B6                     l2247:	
 16210  19B6  0008               	return
 16211                           	opt stack 0
 16212                           GLOBAL	__end_of_Port_Init
 16213  19B7                     	__end_of_Port_Init:
 16214 ;; =============== function _Port_Init ends ============
 16215                           
 16216                           	signat	_Port_Init,88
 16217                           	global	_strlen
 16218                           psect	text884,local,class=CODE,delta=2
 16219                           global __ptext884
 16220  1A45                     __ptext884:
 16221                           
 16222 ;; *************** function _strlen *****************
 16223 ;; Defined at:
 16224 ;;		line 5 in file "C:\Program Files\HI-TECH Software\PICC\9.82\sources\strlen.c"
 16225 ;; Parameters:    Size  Location     Type
 16226 ;;  s               1    wreg     PTR const unsigned char 
 16227 ;;		 -> buff(4), 
 16228 ;; Auto vars:     Size  Location     Type
 16229 ;;  s               1    8[COMMON] PTR const unsigned char 
 16230 ;;		 -> buff(4), 
 16231 ;;  cp              1    9[COMMON] PTR const unsigned char 
 16232 ;;		 -> buff(4), 
 16233 ;; Return value:  Size  Location     Type
 16234 ;;                  2    0[COMMON] unsigned int 
 16235 ;; Registers used:
 16236 ;;		wreg, fsr0l, fsr0h, status,2, status,0
 16237 ;; Tracked objects:
 16238 ;;		On entry : 0/0
 16239 ;;		On exit  : 0/0
 16240 ;;		Unchanged: 0/0
 16241 ;; Data sizes:     COMMON   BANK0   BANK1   BANK3   BANK2
 16242 ;;      Params:         2       0       0       0       0
 16243 ;;      Locals:         2       0       0       0       0
 16244 ;;      Temps:          6       0       0       0       0
 16245 ;;      Totals:        10       0       0       0       0
 16246 ;;Total ram usage:       10 bytes
 16247 ;; Hardware stack levels used:    1
 16248 ;; This function calls:
 16249 ;;		Nothing
 16250 ;; This function is called by:
 16251 ;;		_rev
 16252 ;; This function uses a non-reentrant model
 16253 ;;
 16254                           psect	text884
 16255                           	file	"C:\Program Files\HI-TECH Software\PICC\9.82\sources\strlen.c"
 16256                           	line	5
 16257                           	global	__size_of_strlen
 16258  0031                     	__size_of_strlen	equ	__end_of_strlen-_strlen
 16259                           	
 16260  1A45                     _strlen:	
 16261                           	opt	stack 4
 16262                           ; Regs used in _strlen: [wreg-fsr0h+status,2+status,0]
 16263                           ;strlen@s stored from wreg
 16264                           	line	8
 16265  1A45  00F8               	movwf	(strlen@s)
 16266                           	
 16267  1A46                     l9389:	
 16268  1A46  0878               	movf	(strlen@s),w
 16269  1A47  00F2               	movwf	(??_strlen+0)+0
 16270  1A48  0872               	movf	(??_strlen+0)+0,w
 16271  1A49  00F9               	movwf	(strlen@cp)
 16272                           	line	9
 16273  1A4A  2A4C               	goto	l9391
 16274                           	
 16275  1A4B                     l6094:	
 16276                           	line	10
 16277  1A4B  2A4C               	goto	l9391
 16278                           	
 16279  1A4C                     l6093:	
 16280                           	line	9
 16281                           	
 16282  1A4C                     l9391:	
 16283  1A4C  0879               	movf	(strlen@cp),w
 16284  1A4D  0084               	movwf	fsr0
 16285  1A4E  3001               	movlw	01h
 16286  1A4F  07F9               	addwf	(strlen@cp),f
 16287  1A50  1383               	bcf	status, 7	;select IRP bank0
 16288  1A51  0880               	movf	indf,f
 16289  1A52  1D03               	skipz
 16290  1A53  2A55               	goto	u4691
 16291  1A54  2A56               	goto	u4690
 16292  1A55                     u4691:
 16293  1A55  2A4C               	goto	l9391
 16294  1A56                     u4690:
 16295  1A56  2A57               	goto	l9393
 16296                           	
 16297  1A57                     l6095:	
 16298                           	line	11
 16299                           	
 16300  1A57                     l9393:	
 16301  1A57  0878               	movf	(strlen@s),w
 16302  1A58  00F2               	movwf	(??_strlen+0)+0
 16303  1A59  3000               	movlw	((0x0/2))
 16304  1A5A  00F3               	movwf	(??_strlen+0)+0+1
 16305  1A5B  09F2               	comf	(??_strlen+0)+0,f
 16306  1A5C  09F3               	comf	(??_strlen+0)+1,f
 16307  1A5D  0AF2               	incf	(??_strlen+0)+0,f
 16308  1A5E  1903               	skipnz
 16309  1A5F  0AF3               	incf	(??_strlen+0)+1,f
 16310  1A60  0879               	movf	(strlen@cp),w
 16311  1A61  00F4               	movwf	(??_strlen+2)+0
 16312  1A62  3000               	movlw	((0x0/2))
 16313  1A63  00F5               	movwf	(??_strlen+2)+0+1
 16314  1A64  0872               	movf	0+(??_strlen+0)+0,w
 16315  1A65  0774               	addwf	0+(??_strlen+2)+0,w
 16316  1A66  00F6               	movwf	(??_strlen+4)+0
 16317  1A67  0873               	movf	1+(??_strlen+0)+0,w
 16318  1A68  1803               	skipnc
 16319  1A69  0A73               	incf	1+(??_strlen+0)+0,w
 16320  1A6A  0775               	addwf	1+(??_strlen+2)+0,w
 16321  1A6B  00F7               	movwf	1+(??_strlen+4)+0
 16322  1A6C  0876               	movf	0+(??_strlen+4)+0,w
 16323  1A6D  3EFF               	addlw	low(-1)
 16324  1A6E  00F0               	movwf	(?_strlen)
 16325  1A6F  0877               	movf	1+(??_strlen+4)+0,w
 16326  1A70  1803               	skipnc
 16327  1A71  3E01               	addlw	1
 16328  1A72  3EFF               	addlw	high(-1)
 16329  1A73  00F1               	movwf	1+(?_strlen)
 16330  1A74  2A75               	goto	l6096
 16331                           	
 16332  1A75                     l9395:	
 16333                           	line	12
 16334                           	
 16335  1A75                     l6096:	
 16336  1A75  0008               	return
 16337                           	opt stack 0
 16338                           GLOBAL	__end_of_strlen
 16339  1A76                     	__end_of_strlen:
 16340 ;; =============== function _strlen ends ============
 16341                           
 16342                           	signat	_strlen,4218
 16343                           	global	_DelayMs
 16344                           psect	text885,local,class=CODE,delta=2
 16345                           global __ptext885
 16346  19F3                     __ptext885:
 16347                           
 16348 ;; *************** function _DelayMs *****************
 16349 ;; Defined at:
 16350 ;;		line 19 in file "F:\BEVERAGES_ENHANCEMENT\SOFTWARE_DESIGN\MASTER_PIC_16F877A\2015_09_13\delay.c"
 16351 ;; Parameters:    Size  Location     Type
 16352 ;;  cnt             2   12[COMMON] unsigned short 
 16353 ;; Auto vars:     Size  Location     Type
 16354 ;;  _dcnt           1    2[BANK0 ] unsigned char 
 16355 ;;  i               1    1[BANK0 ] unsigned char 
 16356 ;; Return value:  Size  Location     Type
 16357 ;;		None               void
 16358 ;; Registers used:
 16359 ;;		wreg, status,2, status,0
 16360 ;; Tracked objects:
 16361 ;;		On entry : 0/0
 16362 ;;		On exit  : 0/0
 16363 ;;		Unchanged: 0/0
 16364 ;; Data sizes:     COMMON   BANK0   BANK1   BANK3   BANK2
 16365 ;;      Params:         2       0       0       0       0
 16366 ;;      Locals:         0       2       0       0       0
 16367 ;;      Temps:          0       1       0       0       0
 16368 ;;      Totals:         2       3       0       0       0
 16369 ;;Total ram usage:        5 bytes
 16370 ;; Hardware stack levels used:    1
 16371 ;; This function calls:
 16372 ;;		Nothing
 16373 ;; This function is called by:
 16374 ;;		_Lcd_Init
 16375 ;;		_Lcd_Cmd
 16376 ;;		_Lcd_Data
 16377 ;;		_main
 16378 ;;		_Inidcate_Buzzer
 16379 ;;		_enable_valves
 16380 ;;		_change_modes
 16381 ;;		_control_valve
 16382 ;; This function uses a non-reentrant model
 16383 ;;
 16384                           psect	text885
 16385                           	file	"F:\BEVERAGES_ENHANCEMENT\SOFTWARE_DESIGN\MASTER_PIC_16F877A\2015_09_13\delay.c"
 16386                           	line	19
 16387                           	global	__size_of_DelayMs
 16388  0028                     	__size_of_DelayMs	equ	__end_of_DelayMs-_DelayMs
 16389                           	
 16390  19F3                     _DelayMs:	
 16391                           	opt	stack 4
 16392                           ; Regs used in _DelayMs: [wreg+status,2+status,0]
 16393                           	line	36
 16394                           ;delay.c: 34: unsigned char i;
 16395                           ;delay.c: 36: do {
 16396                           	
 16397  19F3                     l3471:	
 16398                           	line	38
 16399                           	
 16400  19F3                     l9381:	
 16401                           ;delay.c: 38: i = 4;
 16402  19F3  3004               	movlw	(04h)
 16403  19F4  1283               	bcf	status, 5	;RP0=0, select bank0
 16404  19F5  1303               	bcf	status, 6	;RP1=0, select bank0
 16405  19F6  00C9               	movwf	(??_DelayMs+0)+0
 16406  19F7  0849               	movf	(??_DelayMs+0)+0,w
 16407  19F8  00CA               	movwf	(DelayMs@i)
 16408                           	line	40
 16409                           ;delay.c: 40: do {
 16410                           	
 16411  19F9                     l3472:	
 16412                           	line	42
 16413                           ;delay.c: 42: { unsigned char _dcnt; _dcnt = (175)*((20*1000L)/(12*1000L)); while(--_dcn
                                 t != 0) continue; };
 16414  19F9  30AF               	movlw	(0AFh)
 16415  19FA  00C9               	movwf	(??_DelayMs+0)+0
 16416  19FB  0849               	movf	(??_DelayMs+0)+0,w
 16417  19FC  00CB               	movwf	(DelayMs@_dcnt)
 16418  19FD  29FF               	goto	l9383
 16419                           	
 16420  19FE                     l3474:	
 16421  19FE  29FF               	goto	l9383
 16422                           	
 16423  19FF                     l3473:	
 16424                           	
 16425  19FF                     l9383:	
 16426  19FF  3001               	movlw	low(01h)
 16427  1A00  02CB               	subwf	(DelayMs@_dcnt),f
 16428  1A01  1D03               	btfss	status,2
 16429  1A02  2A04               	goto	u4661
 16430  1A03  2A05               	goto	u4660
 16431  1A04                     u4661:
 16432  1A04  29FF               	goto	l9383
 16433  1A05                     u4660:
 16434  1A05  2A06               	goto	l9385
 16435                           	
 16436  1A06                     l3475:	
 16437                           	line	44
 16438                           	
 16439  1A06                     l9385:	
 16440                           ;delay.c: 44: } while(--i);
 16441  1A06  3001               	movlw	low(01h)
 16442  1A07  02CA               	subwf	(DelayMs@i),f
 16443  1A08  1D03               	btfss	status,2
 16444  1A09  2A0B               	goto	u4671
 16445  1A0A  2A0C               	goto	u4670
 16446  1A0B                     u4671:
 16447  1A0B  29F9               	goto	l3472
 16448  1A0C                     u4670:
 16449  1A0C  2A0D               	goto	l9387
 16450                           	
 16451  1A0D                     l3476:	
 16452                           	line	46
 16453                           	
 16454  1A0D                     l9387:	
 16455                           ;delay.c: 46: } while(--cnt);
 16456  1A0D  3001               	movlw	low(01h)
 16457  1A0E  02FC               	subwf	(DelayMs@cnt),f
 16458  1A0F  3000               	movlw	high(01h)
 16459  1A10  1C03               	skipc
 16460  1A11  03FD               	decf	(DelayMs@cnt+1),f
 16461  1A12  02FD               	subwf	(DelayMs@cnt+1),f
 16462  1A13  087D               	movf	(((DelayMs@cnt+1))),w
 16463  1A14  047C               	iorwf	(((DelayMs@cnt))),w
 16464  1A15  1D03               	skipz
 16465  1A16  2A18               	goto	u4681
 16466  1A17  2A19               	goto	u4680
 16467  1A18                     u4681:
 16468  1A18  29F3               	goto	l3471
 16469  1A19                     u4680:
 16470  1A19  2A1A               	goto	l3478
 16471                           	
 16472  1A1A                     l3477:	
 16473                           	line	50
 16474                           	
 16475  1A1A                     l3478:	
 16476  1A1A  0008               	return
 16477                           	opt stack 0
 16478                           GLOBAL	__end_of_DelayMs
 16479  1A1B                     	__end_of_DelayMs:
 16480 ;; =============== function _DelayMs ends ============
 16481                           
 16482                           	signat	_DelayMs,4216
 16483                           	global	_InitADC
 16484                           psect	text886,local,class=CODE,delta=2
 16485                           global __ptext886
 16486  1957                     __ptext886:
 16487                           
 16488 ;; *************** function _InitADC *****************
 16489 ;; Defined at:
 16490 ;;		line 11 in file "F:\BEVERAGES_ENHANCEMENT\SOFTWARE_DESIGN\MASTER_PIC_16F877A\2015_09_13\adc.c"
 16491 ;; Parameters:    Size  Location     Type
 16492 ;;		None
 16493 ;; Auto vars:     Size  Location     Type
 16494 ;;		None
 16495 ;; Return value:  Size  Location     Type
 16496 ;;		None               void
 16497 ;; Registers used:
 16498 ;;		wreg
 16499 ;; Tracked objects:
 16500 ;;		On entry : 0/0
 16501 ;;		On exit  : 0/0
 16502 ;;		Unchanged: 0/0
 16503 ;; Data sizes:     COMMON   BANK0   BANK1   BANK3   BANK2
 16504 ;;      Params:         0       0       0       0       0
 16505 ;;      Locals:         0       0       0       0       0
 16506 ;;      Temps:          0       0       0       0       0
 16507 ;;      Totals:         0       0       0       0       0
 16508 ;;Total ram usage:        0 bytes
 16509 ;; Hardware stack levels used:    1
 16510 ;; This function calls:
 16511 ;;		Nothing
 16512 ;; This function is called by:
 16513 ;;		_main
 16514 ;; This function uses a non-reentrant model
 16515 ;;
 16516                           psect	text886
 16517                           	file	"F:\BEVERAGES_ENHANCEMENT\SOFTWARE_DESIGN\MASTER_PIC_16F877A\2015_09_13\adc.c"
 16518                           	line	11
 16519                           	global	__size_of_InitADC
 16520  0009                     	__size_of_InitADC	equ	__end_of_InitADC-_InitADC
 16521                           	
 16522  1957                     _InitADC:	
 16523                           	opt	stack 7
 16524                           ; Regs used in _InitADC: [wreg]
 16525                           	line	12
 16526                           	
 16527  1957                     l9379:	
 16528                           ;adc.c: 12: ADCON1 = 0x84;
 16529  1957  3084               	movlw	(084h)
 16530  1958  1683               	bsf	status, 5	;RP0=1, select bank1
 16531  1959  1303               	bcf	status, 6	;RP1=0, select bank1
 16532  195A  009F               	movwf	(159)^080h	;volatile
 16533                           	line	16
 16534                           ;adc.c: 16: ADCON0 = 0x81;
 16535  195B  3081               	movlw	(081h)
 16536  195C  1283               	bcf	status, 5	;RP0=0, select bank0
 16537  195D  1303               	bcf	status, 6	;RP1=0, select bank0
 16538  195E  009F               	movwf	(31)	;volatile
 16539                           	line	17
 16540                           	
 16541  195F                     l687:	
 16542  195F  0008               	return
 16543                           	opt stack 0
 16544                           GLOBAL	__end_of_InitADC
 16545  1960                     	__end_of_InitADC:
 16546 ;; =============== function _InitADC ends ============
 16547                           
 16548                           	signat	_InitADC,88
 16549                           	global	fptotal
 16550  0001                     fptotal equ 1
 16551                           	file ""
 16552                           	line	#
 16553                           psect	functab,class=CODE,delta=2,reloc=256
 16554                           global __pfunctab
 16555  0700                     __pfunctab:
 16556                           	global	fptable
 16557  0700                     fptable:
 16558  0700  00FF               	movwf (btemp+1)&07Fh
 16559  0701  3007               	movlw high(fptable)
 16560  0702  008A               	movwf pclath
 16561  0703  087F               	movf (btemp+1)&07Fh,w
 16562  0704  0782               	addwf pc
 16563                           	global	fpbase
 16564  0705                     fpbase:
 16565  0705  2F05               	goto fpbase	; Call via a null pointer and you will get stuck here.
 16566                           	file ""
 16567                           	line	#
 16568  0706                     fp__eeprom_read:
 16569  0706                     entry__eeprom_read:
 16570                           	global	entry__eeprom_read
 16571  0706  160A  158A  29B7   	ljmp	_eeprom_read
 16572                           	global	btemp
 16573  007E                     	btemp set 07Eh
 16574                           
 16575                           	DABS	1,126,2	;btemp
 16576                           	global	wtemp0
 16577  007E                     	wtemp0 set btemp
 16578  0FFD  160A  118A  2E5F   


HI-TECH Software PICC Macro Assembler V9.82 build 9453 
Symbol Table                                                                                   Sun Sep 13 15:12:15 2015

                             _i 002B                               _j 002D                               pc 0002  
                ___bmul@product 0072          __size_of_control_valve 0043                              _RD 0C60  
                            _WR 0C61                    ___awdiv@sign 0076                              fsr 0004  
           ___wmul@multiplicand 0078          ??_Write_ValveIn_Memory 007A                 _Inidcate_Buzzer 1976  
                           l690 1AFD                             l691 1AFD                             l692 1B02  
                           l693 1B13                             l687 195F                             _GIE 005F  
                           _RB0 0030                             _RA2 002A                             _RB1 0031  
                           _RC0 0038                             _RB2 0032                             _RA4 002C  
                           _RC1 0039                             _RB3 0033                             _RA5 002D  
                           _RC2 003A                             _RB4 0034                             _RD1 0041  
                           _RC3 003B                             _RB5 0035                             _RE0 0048  
                           _RD2 0042                             _RC4 003C                             _RB6 0036  
                           _RE1 0049                             _RD3 0043                             _RC5 003D  
                           _RB7 0037                             _RE2 004A                             __ON 003A  
                           _rev 1CC2                             fsr0 0004              enable_valves@index 0065  
          __end_of_change_modes 03DB                             indf 0000                    ___awmod@sign 0076  
         _Read_ValveFrom_Memory 1E7D                            l1401 1119                            l1402 1140  
                          l1403 1152                            l1404 11B3                            l1405 120B  
                          l1421 1050                            l1414 1D01                            l3102 1985  
                          l1406 11FE                            l1422 1018                            l3110 126A  
                          l1415 1CD8                            l1407 120B                            l1423 1057  
                          l3111 12F9                            l1416 1CE6                            l1424 1064  
                          l3112 12CA                            l3200 13FA                            l1417 1D08  
                          l3113 12F0                            l3105 1224                            l3201 138B  
                          l3122 10F1                            l3130 10C4                            l1418 1D08  
                          l3114 131A                            l3106 123E                            l3210 13BC  
                          l3202 1397                            l2250 1468                            l3131 10CD  
                          l3107 131D                            l3211 13BD                            l3203 1398  
                          l2251 1507                            l3132 10D6                            l3124 108F  
                          l3116 1301                            l3300 0E0B                            l3220 08D8  
                          l3212 13C4                            l3204 139F                            l2252 14F1  
                          l3133 10DF                            l3125 1097                            l3117 131C  
                          l3109 1263                            l3301 0E3B                            l3221 08E3  
                          l3213 13CF                            l3205 13A0                            l3141 1614  
                          l2253 1546                            l3134 10F0                            l3126 10A0  
                          l1390 1B85                            l3118 131B                            l3310 0EB6  
                          l3302 0E45                            l3230 09FC                            l3222 08EE  
                          l3214 0863                            l3206 13AB                            l3150 16B1  
                          l3142 1575                            l2254 1556                            l2247 19B6  
                          l3135 10ED                            l3127 10A9                            l3119 131D  
                          l3311 0ECB                            l3303 0E4E                            l3231 09BC  
                          l3223 08F9                            l3207 13AC                            l3143 1613  
                          l2255 1557                            l3136 10EF                            l3128 10B2  
                          l3400 1BCB                            l1384 004F                            l3320 0FEE  
                          l3312 0ED4                            l3304 0E57                            l3240 0A45  
                          l3232 09C3                            l3224 0905                            l3216 1415  
                          l3208 13AD                            l3160 166C                            l3152 1627  
                          l3144 1584                            l2256 1557                            l3137 1100  
                          l3129 10BB                            l3401 1BCD                            l1393 1D18  
                          l3321 0FAE                            l3313 0EE4                            l3305 0E60  
                          l3241 0A4C                            l3233 09D8                            l3217 09A5  
                          l3225 095B                            l3209 13AF                            l3153 16AC  
                          l3161 166C                            l3145 158E                            l3138 1100  
                          l3410 1B87                            l3402 1BCF                            l3090 0862  
                          l1394 1D27                            l3330 013F                            l3322 0FBD  
                          l3314 0EF4                            l3306 0E69                            l3250 0AD5  
                          l3242 0A61                            l3226 0A2F                            l3234 0A25  
                          l3218 0930                            l3170 1715                            l3162 1682  
                          l3154 1628                            l3146 1598                            l3411 1B89  
                          l3403 1BD1                            l1387 1B4C                            l3091 080A  
                          l1395 1D41                            l3331 00FB                            l3323 0FED  
                          l3315 0F04                            l3307 0EC0                            l3251 0AF3  
                          l3235 0AB8                            l3243 0AAE                            l3227 09EE  
                          l3219 092F                            l3171 16DE                            l3163 16AA  
                          l3155 165F                            l3147 15A3                            l3412 1BBF  
                          l3420 1B9A                            l3404 1BD3                            l3092 0811  
                          l1396 1D28                            l3340 010D                            l3332 00FD  
                          l3324 0FFC                            l3316 0F88                            l3308 0EAF  
                          l3260 0B89                            l3244 0B4E                            l3252 0B44  
                          l3236 0A77                            l3228 09AE                            l3180 17D7  
                          l3172 16EB                            l3164 16B1                            l3156 1629  
                          l3148 15AD                            l3413 1B8C                            l3421 1BBF  
                          l3405 1BD5                            l3085 1956                            l3093 0818  
                          l1397 1D52                            l3341 010F                            l3333 00FF  
                          l3325 0FFC                            l3317 0F3D                            l3309 0E88  
                          l3253 0BE4                            l3261 0BDA                            l3245 0B0B  
                          l3237 0A37                            l3229 09BB                            l3181 174F  
                          l3165 1745                            l3173 16EC                            l3157 1647  
                          l3149 1608                            l3414 1B8E                            l3406 1BFA  
                          l3094 081F                            l1398 1D52                            l3350 014A  
                          l3342 0111                            l3334 0101                            l3318 0F62  
                          l3262 0C70                            l3270 0C66                            l3254 0BA1  
                          l3246 0AC0                            l3238 0A44                            l3182 17F1  
                          l3190 17CB                            l3166 1707                            l3174 16F3  
                          l3158 165E                            l3415 1B90                            l3095 0826  
                          l3343 015B                            l3351 014C                            l3335 0103  
                          l3319 0F78                            l3271 0C9D                            l3263 0C2F  
                          l3255 0B56                            l3247 0ACD                            l3239 0A85  
                          l3191 17CC                            l3183 1762                            l3175 1705  
                          l3167 16B7                            l3416 1B92                            l3088 0843  
                          l3096 082D                            l3424 1C12                            l3360 01F4  
                          l3352 014E                            l3344 0140                            l3328 0114  
                          l3336 0105                            l3280 0CBA                            l3272 0C8B  
                          l3264 0BEC                            l3256 0B63                            l3248 0B19  
                          l3192 134B                            l3184 1777                            l3176 1744  
                          l3168 16C4                            l3409 1B9D                            l3417 1B94  
                          l3097 0834                            l3089 0803                            l3425 1C3A  
                          l3441 1F2E                            l3433 1F02                            l3361 0246  
                          l3353 0150                            l3345 0184                            l3337 0107  
                          l3329 00F9                            l3281 0CED                            l3273 0C78  
                          l3265 0BFC                            l3257 0BAF                            l3249 0ACE  
                          l3185 178C                            l3169 16DD                            l4170 1973  
                          l3418 1B96                            l3098 083B                            l3426 1C3A  
                          l3362 0286                            l3354 0152                            l3346 0142  
                          l3338 0109                            l3290 0D6E                            l3282 0CD8  
                          l3274 0C93                            l3266 0C3D                            l3258 0B64  
                          l3194 1325                            l3186 17A1                            l3178 1722  
                          l4171 1975                            l3419 1B98                            l4163 07DE  
                          l3099 0862                            l3451 1F5F                            l3443 1F33  
                          l3435 1F07                            l3363 02C4                            l3355 0154  
                          l3347 0144                            l3339 010B                            l3291 0DC0  
                          l3283 0CEC                            l3275 0C81                            l3267 0BFD  
                          l3259 0B6B                            l3179 1378                            l3195 1377  
                          l3187 17B6                            l6100 1991                            l4164 07F7  
                          l3452 1F6D                            l3460 1FA8                            l3364 02F3  
                          l3356 0156                            l3348 0146                            l3380 059A  
                          l3372 0429                            l3292 0DB8                            l3276 0D45  
                          l3284 0D3B                            l3268 0C04                            l3196 09A6  
                          l3188 17BF                            l6101 199B                            l4165 07F7  
                          l3445 1F44                            l3437 1F18                            l3429 1ADB  
                          l3461 1FAE                            l3365 0331                            l3357 0158  
                          l3349 0148                            l3381 062A                            l3373 0474  
                          l3293 0D8F                            l3285 0D29                            l3277 0CF6  
                          l3269 0C19                            l3197 13DA                            l3189 17C0  
                          l6102 199D                            l3462 1FC1                            l3366 036F  
                          l3358 0194                            l3382 06B1                            l3374 04C0  
                          l3294 0DBF                            l3286 0D3A                            l3278 0CA5  
                          l3198 1382                            l3471 19F3                            l6111 1D9B  
                          l3455 1EF0                            l3447 1F49                            l3439 1F1D  
                          l3391 1C7D                            l3463 1FC7                            l3367 03B4  
                          l3359 01AE                            l3383 06AA                            l3375 050C  
                          l3287 0FEF                            l3295 0F23                            l3279 0CFE  
                          l3199 138A                            l3472 19F9                            l4168 196C  
                          l6112 1D6D                            l3464 1FDA                            l3368 03D4  
                          l3384 0646                            l3376 0558                            l3288 0F06  
                          l3296 0DC9                            l3473 19FF                            l4169 196C  
                          l6105 1A1E                            l6113 1D61                            l6121 1CBA  
                          l3449 1F5A                            l3465 1FE0                            l3369 03DA  
                          l3385 06B0                            l3377 057F                            l3297 0DEA  
                          l3289 0D4D                            l3474 19FE                            l5410 1A78  
                          l3394 1BD8                            l6106 1A28                            l6114 1D72  
                          l6122 1C94                            l3466 1FF3                            l3458 1F8F  
                          l3386 06CB                            l3378 062B                            l3298 0E3C  
                          l3475 1A06                            l5411 1A78                            l3395 1BC1  
                          l6107 1A3D                            l6115 1D73                            l6123 1C88  
                          l3467 1FF9                            l3459 1F95                            l3387 06FF  
                          l3379 0624                            l3299 0E34                            l3476 1A0D  
                          l5412 1A7F                            l3396 1BFA                            l6108 1A44  
                          l6116 1D8C                            l6124 1C99                            l6300 0066  
                          l3468 1FFF                            l3388 06FF                            l3477 1A1A  
                          l5413 1A93                            l3397 1BC4                            l6117 1D9A  
                          l6125 1C9A                            l6301 007A                            l3478 1A1A  
                          l5414 1AA5                            l3398 1BC7                            l6118 1DA2  
                          l6126 1CAB                            l6310 00F7                            l6302 00DE  
                          l5415 1AA6                            l3399 1BC9                            l6127 1CB9  
                          l6303 009C                            l5416 1AA6                            l6128 1CC1  
                          l6304 008E                            l6320 1DE8                            l5409 1A77  
                          l6305 00A1                            l6321 1DF6                            l6313 1DB1  
                          l6250 1E42                            l6306 00A2                            l6322 1E01  
                          l6314 1DBB                            l6251 1E43                            l6307 00CD  
                          l6323 1E08                            l6315 1DF7                            l6252 1E5C  
                          l6308 00DD                            l6316 1DD1                            l6093 1A4C  
                          l6253 1E6A                            l6245 1E17                            l6309 00EE  
                          l6317 1DC5                            l6094 1A4B                            l6254 1E75  
                          l6246 1E25                            l6318 1DD6                            l6095 1A57  
                          l6255 1E7C                            l6247 1E6B                            l6319 1DD7  
                          l6096 1A75                            l6248 1E3D                            l6249 1E31  
                          l6099 1988                            l4792 19B7                            l4793 19BF  
                          l4794 19D4                            l9401 19A9                            l9403 19AF  
                          l9411 19BF                            l9405 19B1                            l9413 19D4  
                          l9421 1073                            l9501 1A9D                            l9407 19B3  
                          l9431 1087                            l9423 1077                            l9415 1065  
                          l9503 1AA3                            l9511 1BC0                            ?_rev 0070  
                          l9409 19B5                            l9441 10A0                            l9433 108B  
                          l9425 107B                            l9417 106B                            l9505 1B86  
                          l9513 1BD7                            l9601 1E0E                            l9451 10B6  
                          l9443 10A4                            l9435 1093                            l9427 107F  
                          l9419 106F                            l9507 1B9C                            l9515 1BD8  
                          l9531 1993                            l9611 1E27                            l9603 1E17  
                          l9381 19F3                            l9461 10CD                            l9453 10BB  
                          l9445 10A9                            l9437 1097                            l9429 1083  
                          l9509 1B9D                            l9533 1995                            l9525 1987  
                          l9541 1A1E                            l9621 1E43                            l9613 1E2D  
                          l9605 1E1B                            l9701 1DE1                            l9383 19FF  
                          l9391 1A4C                            l9471 10E3                            l9463 10D1  
                          l9455 10BF                            l9447 10AD                            l9439 109B  
                          l9535 199B                            l9527 198C                            l9543 1A22  
                          l9551 1D53                            l9623 1E54                            l9615 1E31  
                          l9631 1E6B                            l9607 1E20                            l9711 1E01  
                          l9703 1DE8                            l9385 1A06                            l9393 1A57  
                          l9473 10E7                            l9465 10D6                            l9457 10C4  
                          l9449 10B2                            l9481 196B                            l9537 199D  
                          l9529 1991                            l9545 1A2F                            l9561 1D6D  
                          l9553 1D57                            l9633 1E6F                            l9625 1E5A  
                          l9617 1E38                            l9609 1E25                            l9641 0057  
                          l9713 1E08                            l9705 1DEF                            l9721 1B02  
                          l9801 07EB                            l9379 1957                            l9387 1A0D  
                          l9395 1A75                            l9475 10EB                            l9467 10DA  
                          l9459 10C8                            l9483 1973                            l9491 1A8E  
                          l9547 1A3D                            l9539 1A1B                            l9571 1D93  
                          l9563 1D73                            l9555 1D5D                            l9635 1E75  
                          l9627 1E5C                            l9619 1E3D                            l9651 007A  
                          l9643 0062                            l9707 1DF7                            l9723 1B13  
                          l9715 1ADD                            l9731 1B1C                            l9811 07F4  
                          l9803 07EC                            l9389 1A46                            l9397 199E  
                          l9469 10DF                            l9477 10F1                            l9493 1A92  
                          l9485 1A7F                            l9549 1A44                            l9565 1D84  
                          l9557 1D61                            l9573 1D9B                            l9581 1C88  
                          l9637 1E7C                            l9629 1E63                            l9661 00A2  
                          l9653 0082                            l9645 0066                            l9709 1DFB  
                          l9717 1AF0                            l9741 1B3F                            l9733 1B25  
                          l9725 1B17                            l9813 07F5                            l9805 07EF  
                          l9821 1950                            l9901 0004                            l9399 19A8  
                          l9479 10F7                            l9495 1A97                            l9487 1A85  
                          l9575 1DA2                            l9567 1D8A                            l9559 1D68  
                          l9591 1CAB                            l9583 1C8F                            l9671 00D6  
                          l9663 00AB                            l9655 008A                            l9647 006A  
                          l9639 0050                            l9719 1AF9                            l9743 1B40  
                          l9735 1B28                            l9727 1B1A                            l9751 1B54  
                          l9807 07F0                            l9815 1976                            l9831 0818  
                          l9823 0802                            l9911 1D28                            l9903 1D09  
                          l9497 1A9B                            l9489 1A8B                            l9569 1D8C  
                          l9593 1CB2                            l9585 1C94                            l9577 1C7E  
                          l9665 00BD                            l9657 008E                            l9673 00DE  
                          l9649 0075                            l9681 1DA3                            l9745 1B49  
                          l9737 1B31                            l9729 1B1B                            l9761 1B77  
                          l9753 1B55                            l9809 07F3                            l9817 1979  
                          l9841 083B                            l9833 081F                            l9825 0803  
                          l9913 1D38                            l9905 1D11                            l9921 1119  
                          l9499 1A9C                            l9587 1C9A                            l9579 1C84  
                          l9595 1CBA                            l9675 00E2                            l9667 00CB  
                          l9659 009C                            l9691 1DC1                            l9683 1DA8  
                          l9739 1B3E                            l9763 1B78                            l9755 1B5E  
                          l9747 1B50                            l9771 1CC9                            l9819 1982  
                          l9843 0842                            l9835 0826                            l9827 080A  
                          l9851 1EF0                            l9915 1D41                            l9907 1D18  
                          l9931 1152                            l9923 1130                            l9597 1CC1  
                          l9589 1CA4                            l9677 00EE                            l9669 00CD  
                          l9693 1DC5                            l9685 1DB1                            l9765 1B79  
                          l9757 1B61                            l9749 1B53                            l9781 1CF4  
                          l9773 1CD8                            l9837 082D                            l9829 0811  
                          l9845 0843                            l9853 1BFC                            l9861 1EF9  
                          l9909 1D20                            l9941 11A9                            l9933 116F  
                          l9925 1136                            l9917 1101                            l9599 1E09  
                          l9679 00F7                            l9695 1DCC                            l9687 1DB5  
                          l9767 1B82                            l9759 1B6A                            l9783 1CFA  
                          l9775 1CE1                            l9791 076D                            l9839 0834  
                          l9847 1E7E                            l9855 1C05                            l9871 1F21  
                          l9863 1F02                            l9951 11F7                            l9935 118A  
                          l9943 11B3                            l9919 1118                            l9927 1140  
                          STR_1 1842                            STR_2 1811                            l9697 1DD1  
                          l9689 1DBB                            l9785 1CFE                            l9777 1CE6  
                          l9769 1CC5                            l9793 0776                            l9849 1EEE  
                          l9857 1C12                            l9881 1F44                            l9873 1F25  
                          l9865 1F0B                            l9953 11FE                            l9945 11B9  
                          l9937 11A1                            l9929 1151                            l9961 1049  
                          STR_3 18FD                            STR_4 1879                            l9699 1DD7  
                          l9779 1CEC                            l9787 1D01                            l9795 07DA  
                          l9883 1F4D                            l9875 1F2E                            l9867 1F0F  
                          l9859 1EF4                            l9891 1AAA                            l9947 11D6  
                          l9939 11A7                            l9963 1050                            l9955 1014  
                          l9971 1F82                            STR_5 1909                            STR_6 1800  
                          l9797 07DE                            l9789 0709                            l9885 1F51  
                          l9877 1F37                            l9869 1F18                            l9893 1ADB  
                          l9949 11F1                            l9965 1057                            l9957 1018  
                          l9981 1FA8                            l9973 1F88                            STR_7 1822  
                          STR_8 1852                            l9799 07E7                            l9887 1F5A  
                          l9879 1F3B                            l9895 1C3B                            l9967 105E  
                          l9959 1034                            l9991 1FD3                            l9983 1FB4  
                          l9975 1F8F                            STR_9 189B                            l9889 1F63  
                          l9897 1C40                            l9993 1FDA                            l9985 1FBA  
                          l9977 1F9B                            l9969 1F71                            l9899 1C5C  
                          l9995 1FE6                            l9987 1FC1                            l9979 1FA1  
                          l9997 1FEC                            l9989 1FCD                            l9999 1FF3  
                          _BRGH 04C2                            _CREN 00C4                            u5000 1A22  
                          u5001 1A21                            u5100 1D99                            u5101 1D98  
                          u5030 1A3C                            u5110 1C84                            u5031 1A3B  
                          u5015 1A29                            u5111 1C83                            u5040 1D5D  
                          u6000 0379                            u5025 1A30                            u5041 1D5C  
                          u6001 0378                            u5130 1C98                            u5210 1E41  
                          u6010 03BA                            u5131 1C97                            u5211 1E40  
                          u6011 03B9                            u5060 1D71                            u5140 1CA4  
                          u6020 03C0                            u6100 062A                            u5061 1D70  
                          u5141 1CA3                            u5125 1C89                            u5205 1E32  
                          u6021 03BF                            u6101 0629                            u5230 1E54  
                          u5310 00A0                            u6110 062F                            u6030 03E1  
                          u5055 1D62                            u5231 1E53                            u5311 009F  
                          u6111 062E                            u6031 03E0                            u5080 1D84  
                          u5160 1CB8                            u6120 06B0                            u6040 042D  
                          u6200 12B6                            u7000 0A8F                            u5081 1D83  
                          u5161 1CB7                            u5145 1CA0                            u5225 1E44  
                          u5305 0090                            u6121 06AF                            u6041 042C  
                          u6201 12B5                            u7001 0A8E                            u5250 1E69  
                          u5170 1E0E                            u5330 00BD                            u5410 1DD5  
                          u6130 06B5                            u6050 0478                            u6210 12C8  
                          u7010 0A95                            u5075 1D74                            u5155 1CAC  
                          u5251 1E68                            u5235 1E50                            u5171 1E0D  
                          u5331 00BC                            u5411 1DD4                            u6131 06B4  
                          u6051 0477                            u6211 12C7                            u7011 0A94  
                          _PEIE 005E                            u4700 19BE                            u5260 1E6F  
                          u5180 1E1B                            u5420 1DE1                            u5500 1CE1  
                          u6140 06CF                            u6060 04C4                            u6220 12DC  
                          u7100 0BBB                            u7020 0ABE                            u6300 1582  
                          u4701 19BD                            u5085 1D80                            u5245 1E5D  
                          u5181 1E1A                            u5325 00A4                            u5421 1DE0  
                          u5405 1DC6                            u5501 1CE0                            u6141 06CE  
                          u6061 04C3                            u6221 12DB                            u7101 0BBA  
                          u7021 0ABD                            u6301 1581                            _MENU 0020  
                          u4710 106B                            u5190 1E2D                            u5350 00DC  
                          u5270 0057                            u5510 1D07                            u6070 0510  
                          u6230 12EE                            u6150 1222                            u7110 0BC1  
                          u7030 0AC6                            u6310 158C                            u4711 106A  
                          u5095 1D8D                            u5191 1E2C                            u5351 00DB  
                          u5335 00B9                            u5271 0056                            u5511 1D06  
                          u6071 050F                            u6231 12ED                            u6151 1221  
                          u7111 0BC0                            u7031 0AC5                            u6311 158B  
                          u4800 108F                            u4720 106F                            u5360 00E2  
                          u5280 006A                            u5440 1DF5                            u5520 0719  
                          u5600 1C05                            u6080 055C                            u6240 12FD  
                          u6160 123D                            u7200 0CD6                            u7120 0BEA  
                          u7040 0B1F                            u6400 1650                            u6320 1596  
                          u4801 108E                            u4721 106E                            u5345 00CE  
                          u5281 0069                            u5441 1DF4                            u5425 1DDD  
                          u5601 1C04                            u6081 055B                            u6241 12FC  
                          u6161 123C                            u7201 0CD5                            u7121 0BE9  
                          u6401 164F                            u6321 1595                            u4810 1093  
                          u4730 1073                            u5290 008A                            u5450 1DFB  
                          u5370 1DA8                            u5530 073A                            u5610 1EF9  
                          u6090 0583                            u6250 1301                            u6170 1250  
                          u7210 0CEB                            u7130 0BF5                            u7050 0B25  
                          u6410 1663                            u6330 15A0                            u4811 1092  
                          u4731 1072                            u5291 0089                            u5435 1DE9  
                          u5371 1DA7                            u5611 1EF8                            u6091 0582  
                          u6251 1300                            u6171 124F                            u7211 0CEA  
                          u7131 0BF4                            u7051 0B24                            u6411 1662  
                          u6331 159F                            _RCIE 0465                            u4660 1A05  
                          u4900 10E3                            u4820 109B                            u4740 1077  
                          u5380 1DB5                            u5540 074F                            u5620 1F0F  
                          u5700 113F                            u6180 1262                            u7300 0DBE  
                          u7220 0D02                            u7140 0C41                            u7060 0B2B  
                          u6500 16DC                            u6420 1667                            u6340 15AB  
                          u6260 1560                            u4661 1A04                            u4901 10E2  
                          u4821 109A                            u4741 1076                            u5381 1DB4  
                          u5541 0750                            u5525 0714                            u5621 1F0E  
                          u5701 113E                            u6181 1261                            u7301 0DBD  
                          u7061 0B2A                            u6501 16DB                            u6421 1666  
                          u6341 15AA                            u6261 155F                            u4670 1A0C  
                          u4910 10EB                            u4830 10A4                            u4750 107B  
                          u5390 1DC1                            u5470 1B01                            u5550 0776  
                          u5542 0755                            u5630 1F25                            u5710 1150  
                          u6190 1270                            u7310 0DCF                            u7230 0D08  
                          u7150 0C47                            u7070 0B54                            u6510 16E4  
                          u6430 166B                            u6350 15BA                            u6270 1566  
                          u4671 1A0B                            u4911 10EA                            u4831 10A3  
                          u4751 107A                            u5391 1DC0                            u5471 1B00  
                          u5551 0775                            u5543 0756                            u5535 0735  
                          u5631 1F24                            u5711 114F                            u6191 126F  
                          u7311 0DCE                            u7231 0D07                            u7151 0C46  
                          u7071 0B53                            u6511 16E3                            u6431 166A  
                          u6351 15B9                            u6271 1565                            u4680 1A19  
                          u4920 10F7                            u4840 10AD                            u4760 107F  
                          u5560 0786                            u5640 1F3B                            u5720 11B2  
                          u5800 1FEC                            u7400 0EFA                            u7320 0DF2  
                          u7240 0D0E                            u7160 0C4D                            u7080 0B5C  
                          u6600 1789                            u6520 16FA                            u6440 1670  
                          u6360 161C                            u6280 1573                            u4681 1A18  
                          u4921 10F6                            u4841 10AC                            u4761 107E  
                          u5465 1AE6                            u5641 1F3A                            u5721 11B1  
                          u5801 1FEB                            u7401 0EF9                            u7321 0DF1  
                          u7241 0D0D                            u7161 0C4C                            u7081 0B5B  
                          u6601 1786                            u6521 16F9                            u6441 166F  
                          u6361 1619                            u6281 1572                            u4690 1A56  
                          u4850 10B6                            u4770 1083                            u4930 1972  
                          u5570 07A7                            u5650 1F51                            u5730 11B9  
                          u5810 0188                            u7410 0F00                            u7330 0E3A  
                          u7250 0D1C                            u7170 0C76                            u7090 0BB5  
                          u6530 171B                            u6450 1674                            u6370 1620  
                          u6290 1579                            u4691 1A55                            u4851 10B5  
                          u4771 1082                            u4931 1971                            u5651 1F50  
                          u5731 11B8                            u5811 0187                            u7411 0EFF  
                          u7331 0E39                            u7251 0D1B                            u7171 0C75  
                          u6531 171A                            u6451 1673                            u6371 161F  
                          u4860 10BF                            u4780 1087                            u4940 1A7E  
                          u5580 07BC                            u5660 1D11                            u5740 11F7  
                          u5900 0252                            u5820 018E                            u7500 0FBA  
                          u7420 0F29                            u7340 0E6F                            u7260 0D2F  
                          u7180 0CA3                            u6700 1351                            u6620 179E  
                          u6540 1721                            u6460 1686                            u6380 1626  
                          u4861 10BE                            u4781 1086                            u4941 1A7D  
                          u5485 1B36                            u5581 07BD                            u5565 0781  
                          u5661 1D10                            u5741 11F6                            u5901 0251  
                          u5821 018D                            u7501 0FB9                            u7421 0F28  
                          u7341 0E6E                            u7261 0D2E                            u7181 0CA2  
                          u6621 179B                            u6541 1720                            u6461 1685  
                          u6381 1623                            u4870 10C8                            u4790 108B  
                          u4950 1A92                            u5590 07E7                            u5582 07C2  
                          u5670 1D20                            u5750 1056                            u5910 028A  
                          u5830 019A                            u7510 0FC3                            u7430 0F2F  
                          u7350 0EB5                            u7270 0D4B                            u7190 0CCC  
                          u6710 1357                            u6614 178B                            u6550 174D  
                          u6470 168A                            u6390 1639                            u4871 10C7  
                          u4791 108A                            u4951 1A91                            u5495 1B6F  
                          u5591 07E6                            u5583 07C3                            u5575 07A2  
                          u5671 1D1F                            u5751 1055                            u5911 0289  
                          u5831 0199                            u7511 0FC2                            u7431 0F2E  
                          u7351 0EB4                            u7271 0D4A                            u7191 0CCB  
                          u6711 1356                            u6551 174A                            u6471 1689  
                          u6391 1638                            u4880 10D1                            u4960 1AA3  
                          u5680 1D51                            u5760 1F88                            u5920 0290  
                          u5840 01A0                            u7520 0FF5                            u7440 0F45  
                          u7360 0EDA                            u7280 0D53                            u6800 140C  
                          u6720 1380                            u6640 17B3                            u6560 175F  
                          u6480 16B5                            u4881 10D0                            u4961 1AA2  
                          u5681 1D50                            u5761 1F87                            u5921 028F  
                          u5841 019F                            u7441 0F44                            u7361 0ED9  
                          u7281 0D52                            u6801 140B                            u6721 137D  
                          u6641 17B0                            u6561 175C                            u6481 16B4  
                          u4890 10DA                            u5690 1117                            u5770 1FA1  
                          u5930 02C8                            u5850 01B4                            u7450 0F6A  
                          u7370 0EE0                            u7290 0D76                            u6810 1414  
                          u6730 1386                            u6634 17A0                            u6490 16C2  
                          u7530 14C8                            u4891 10D9                            u5691 1116  
                          u5771 1FA0                            u5931 02C7                            u5851 01B3  
                          u7451 0F69                            u7371 0EDF                            u7291 0D75  
                          u6811 1411                            u6491 16C1                            u6395 1635  
                          u7531 14C7                            u4980 198C                            u5780 1FBA  
                          u5940 02CE                            u5860 01BA                            u7460 0F8C  
                          u7380 0EEA                            u6900 08F4                            u6820 0867  
                          u6740 1391                            u6660 17BC                            u6580 1774  
                          u7540 14CC                            u4981 198B                            u5781 1FB9  
                          u5941 02CD                            u5861 01B9                            u7381 0EE9  
                          u6901 08F3                            u6741 1390                            u6581 1771  
                          u7541 14CB                            u4990 199A                            u5790 1FD3  
                          u5950 02F7                            u5870 01FA                            u7470 0F92  
                          u7390 0EF0                            u6910 08FF                            u6830 086D  
                          u6750 139C                            u6670 17C6                            u6654 17B5  
                          u6574 1761                            u7550 14E3                            u4991 1999  
                          u5791 1FD2                            u5951 02F6                            u5871 01F9  
                          u7471 0F91                            u7391 0EEF                            u6911 08FE  
                          u6831 086C                            u6671 17C5                            u7551 14E2  
                          u7535 14C4                            u5960 02FD                            u5880 0200  
                          u7480 0F9F                            u6920 09AC                            u6840 0873  
                          u6760 13A6                            u6680 131E                            u7560 151E  
                          u5961 02FC                            u5881 01FF                            u7481 0F9E  
                          u6921 09AB                            u6841 0872                            u6761 13A5  
                          u6681 17FA                            u7561 151D                            u5970 0335  
                          u5890 024C                            u7490 0FB4                            u6930 09B4  
                          u6850 089E                            u6770 13B5                            u6690 1324  
                          u6594 1776                            u7570 1522                            u5971 0334  
                          u5891 024B                            u7491 0FB3                            u6931 09B3  
                          u6851 089D                            u6771 13B4                            u6691 1323  
                          u7571 1521                            u5980 033B                            u6940 0A00  
                          u6860 08CE                            u6780 1400                            u5981 033A  
                          u6861 08CD                            u6781 13FF                            u7565 151A  
                          u5990 0373                            u6950 0A06                            u6870 08D3  
                          u6790 1406                            u5991 0372                            u6951 0A05  
                          u6871 08D2                            u6791 1405                            u6960 0A0C  
                          u6880 08DE                            u6961 0A0B                            u6881 08DD  
                          u6970 0A35                            u6890 08E9                            u7587 1AF4  
                          u6971 0A34                            u6891 08E8                            u6980 0A3D  
                          u6981 0A3C                            u6990 0A89                            _SPEN 00C7  
                          _WREN 0C62                            _TXEN 04C5                            _TXIF 0064  
                          _SYNC 04C4                  ??_eeprom_write 0077                            __OFF 0039  
                          _Next 0035                            _buff 0043                            _main 1437  
                  __ENABLE_MODE 0038                            _time 0033                            btemp 007E  
                          rev@f 004A                            rev@l 004B                            rev@t 0049  
                   _GetADCValue 1ADC                    ?_count_write 0079                            start 0000  
               __end_of_DelayMs 1A1B                 __end_of_Lcd_Cmd 1B4D               ___bmul@multiplier 0073  
               __end_of_InitADC 1960                           ??_rev 007A        _Enable_Tea_Dication_Time 036B  
                         l10001 00F8                           l10011 0188                           l10003 0113  
                         l10101 0386                           l10021 01AE                           l10013 018E  
                         l10005 0114                           l10111 03C0                           l10103 038C  
                         l10023 01B4                           l10031 01F4                           l10015 0194  
                         l10007 015A                           l10113 03CD                           l10105 03AA  
                         l10041 023C                           l10033 01FA                           l10025 01BA  
                         l10017 019A                           l10009 015B                           l10201 06AA  
                         l10121 03DB                           l11001 1437                           l10115 03D4  
                         l10107 03B4                           l10051 026E                           l10043 023F  
                         l10035 0200                           l10027 01C7                           l10019 01A0  
                         l10211 06CF                           l10203 06B5                           l10131 042D  
                         l10123 03E1                           l11011 149E                           l11003 145F  
                         l10117 03D5                           l10109 03BA                           l10061 02AC  
                         l10053 0281                           l10037 0206                           l10045 0246  
                         l10029 01D0                           l10213 06D4                           l10205 06BA  
                         l10141 047D                           l10133 0432                           l10125 03E6  
                         l10221 1223                           l10301 1608                           l11021 14DD  
                         l11013 14A7                           l11005 1464                           l10119 03D6  
                         l10071 02DB                           l10063 02BF                           l10047 024C  
                         l10055 0286                           l10039 0213                           l10215 06FB  
                         l10207 06C7                           l10151 0508                           l10143 04BC  
                         l10135 0470                           l10127 0425                           l10231 1250  
                         l10223 1224                           l10311 1629                           l10303 160D  
                         l11031 151E                           l11023 14E3                           l11015 14C8  
                         l11007 1468                           l10081 0319                           l10073 02EE  
                         l10057 028A                           l10065 02C4                           l10049 0252  
                         l10209 06CB                           l10161 0558                           l10153 050C  
                         l10145 04C0                           l10137 0474                           l10129 0429  
                         l10241 12C8                           l10233 1263                           l10225 1233  
                         l10217 120C                           l10401 1706                           l10321 1650  
                         l10313 1639                           l10305 1614                           l11041 153C  
                         l11033 1522                           l11025 14F1                           l11017 14CC  
                         l11009 1476                           l10091 0357                           l10083 032C  
                         l10067 02C8                           l10075 02F3                           l10059 0290  
                         l10171 0583                           l10163 055C                           l10155 0510  
                         l10147 04C4                           l10139 0478                           l10251 12F5  
                         l10243 12CA                           l10235 126A                           l10227 1237  
                         l10219 121C                           l10411 1728                           l10403 1707  
                         l10331 165C                           l10323 1652                           l10315 163F  
                         l10307 161C                           l11051 1550                           l11043 153D  
                         l11035 1523                           l11027 14F7                           l11019 14CE  
                         l10093 036A                           l10077 02F7                           l10085 0331  
                         l10069 02CE                           l10181 05BE                           l10173 0588  
                         l10165 0561                           l10157 0515                           l10149 04C9  
                         l10261 1316                           l10245 12DC                           l10237 1270  
                         l10253 12F9                           l10229 123E                           l10501 13CF  
                         l10421 1762                           l10413 173A                           l10405 1715  
                         l10341 1674                           l10325 1655                           l10317 1641  
                         l10333 165F                           l10309 1620                           l11045 1542  
                         l11037 1530                           l11029 1504                           l10087 0335  
                         l10095 036F                           l10079 02FD                           l10191 062F  
                         l10183 05CA                           l10175 059A                           l10167 057B  
                         l10159 0554                           l10255 12FD                           l10247 12EE  
                         l10239 12B6                           l10511 1400                           l10503 13D7  
                         l10431 17BC                           l10423 1777                           l10407 171B  
                         l10415 1745                           l10343 1676                           l10351 1682  
                         l10335 1663                           l10327 1659                           l10319 1647  
                         l10271 1573                           l10263 155A                           l11039 1539  
                         l11047 1546                           l10097 0373                           l10089 033B  
                         l10193 0634                           l10185 05EE                           l10177 05A0  
                         l10169 057F                           l10257 1302                           l10249 12F0  
                         l10601 0A06                           l10521 0867                           l10513 1406  
                         l10505 13D9                           l10441 17D6                           l10433 17C0  
                         l10425 178C                           l10417 174E                           l10409 1722  
                         l10361 169E                           l10353 1686                           l10345 167A  
                         l10337 1667                           l10329 165B                           l10281 158C  
                         l10273 1575                           l10265 1560                           l11049 154B  
                         l10099 0379                           l10195 0646                           l10187 061B  
                         l10179 05B1                           l10259 1310                           l10611 0A36  
                         l10603 0A0C                           l10531 0898                           l10523 086D  
                         l10515 140C                           l10507 13DA                           l10451 132B  
                         l10435 17C6                           l10427 17A1                           l10419 174F  
                         l10443 17D7                           l10363 16A4                           l10355 168A  
                         l10347 167D                           l10339 1670                           l10371 16AC  
                         l10291 15A3                           l10283 158E                           l10275 1579  
                         l10267 1566                           l10197 0674                           l10189 0624  
                         l10701 0B89                           l10621 0A56                           l10613 0A37  
                         l10605 0A12                           l10541 08D3                           l10533 089E  
                         l10525 0873                           l10517 1415                           l10509 13FA  
                         l10461 1365                           l10453 133D                           l10437 17CC  
                         l10429 17B6                           l10445 17F1                           l10381 16C4  
                         l10373 16B6                           l10365 16A7                           l10357 168E  
                         l10349 167F                           l10293 15AB                           l10285 1596  
                         l10277 1582                           l10269 156B                           l10199 06A1  
                         l10703 0B95                           l10711 0BAF                           l10631 0A76  
                         l10623 0A5C                           l10615 0A3D                           l10607 0A25  
                         l10551 0905                           l10543 08DE                           l10535 08AB  
                         l10527 0879                           l10519 0863                           l10471 1386  
                         l10463 136D                           l10455 134B                           l10447 131E  
                         l10439 17D4                           l10391 16EC                           l10383 16CB  
                         l10375 16B7                           l10367 16A8                           l10359 1693  
                         l10295 15AD                           l10287 1598                           l10279 1584  
                         l10801 0CF1                           l10713 0BB5                           l10721 0BDA  
                         l10705 0B9B                           l10641 0A95                           l10625 0A61  
                         l10617 0A45                           l10633 0A77                           l10609 0A2F  
                         l10561 093D                           l10553 090A                           l10545 08E9  
                         l10537 08C8                           l10529 088B                           l10481 1398  
                         l10473 1388                           l10457 1351                           l10449 1325  
                         l10465 1378                           l10393 16F3                           l10385 16D3  
                         l10377 16B9                           l10369 16AB                           l10297 15B2  
                         l10289 15A0                           l10811 0D08                           l10803 0CF5  
                         l10731 0BFD                           l10715 0BBB                           l10707 0BA0  
                         l10723 0BE4                           l10651 0AC0                           l10643 0A9B  
                         l10627 0A6B                           l10619 0A4C                           l10635 0A85  
                         l10555 0926                           l10547 08F4                           l10539 08CE  
                         l10563 095B                           l10491 13B5                           l10483 139C  
                         l10475 138B                           l10467 1381                           l10571 09A6  
                         l10459 1357                           l10395 16FA                           l10387 16DE  
                         l10379 16C3                           l10299 15BA                           l10901 0E69  
                         l10821 0D29                           l10813 0D0E                           l10805 0CF6  
                         l10741 0C23                           l10733 0C04                           l10725 0BEB  
                         l10717 0BC1                           l10709 0BA1                           l10661 0AE5  
                         l10653 0AC6                           l10637 0A89                           l10645 0AAE  
                         l10629 0A71                           l10581 09C3                           l10573 09AD  
                         l10565 0961                           l10557 092B                           l10549 08FF  
                         l10493 13BD                           l10485 13A0                           l10477 1391  
                         l10469 1382                           l10397 16FC                           l10389 16E4  
                         l10911 0E8D                           l10903 0E6F                           l10831 0D4C  
                         l10823 0D2F                           l10815 0D14                           l10807 0CFE  
                         l10751 0C41                           l10743 0C29                           l10735 0C0E  
                         l10727 0BEC                           l10719 0BC7                           l10663 0AF3  
                         l10655 0ACE                           l10671 0B0B                           l10639 0A8F  
                         l10647 0AB8                           l10591 09E8                           l10583 09CD  
                         l10575 09AE                           l10567 0975                           l10559 0930  
                         l10495 13C4                           l10487 13A6                           l10479 1395  
                         l10399 1700                           l10921 0EB6                           l10913 0E92  
                         l10905 0E7C                           l10841 0D6E                           l10833 0D4D  
                         l10825 0D35                           l10817 0D1C                           l10809 0D02  
                         l10753 0C47                           l10745 0C2E                           l10737 0C14  
                         l10729 0BF5                           l10761 0C70                           l10681 0B31  
                         l10665 0AFF                           l10657 0AD5                           l10673 0B19  
                         l10649 0ABF                           l10593 09ED                           l10585 09D3  
                         l10577 09B4                           l10569 0988                           l10497 13CC  
                         l10489 13AF                           l10931 0ED4                           l10923 0EBA  
                         l10915 0E9B                           l10907 0E82                           l10851 0D95  
                         l10843 0D76                           l10835 0D53                           l10819 0D22  
                         l10827 0D3B                           l10763 0C77                           l10771 0C8B  
                         l10755 0C4D                           l10739 0C19                           l10747 0C2F  
                         l10691 0B5C                           l10675 0B1F                           l10683 0B44  
                         l10667 0B05                           l10659 0ADF                           l10587 09D8  
                         l10579 09BC                           l10595 09EE                           l10499 13CD  
                         l10941 0EFA                           l10933 0EDA                           l10917 0EA0  
                         l10909 0E88                           l10925 0EC0                           l10853 0D9A  
                         l10845 0D83                           l10861 0DC0                           l10837 0D5D  
                         l10781 0CAF                           l10829 0D45                           l10773 0C93  
                         l10765 0C78                           l10757 0C53                           l10749 0C3D  
                         l10693 0B64                           l10677 0B25                           l10669 0B0A  
                         l10685 0B4E                           l10589 09E2                           l10597 09FC  
                         l10951 0F29                           l10943 0F00                           l10935 0EE0  
                         l10927 0EC6                           l10919 0EAF                           l10871 0DEA  
                         l10863 0DC9                           l10855 0DA3                           l10847 0D89  
                         l10839 0D60                           l10791 0CD7                           l10783 0CB5  
                         l10767 0C81                           l10775 0C9D                           l10759 0C66  
                         l10695 0B6B                           l10687 0B55                           l10679 0B2B  
                         l10599 0A00                           l10961 0F6A                           l10953 0F2F  
                         l10945 0F05                           l10937 0EEA                           l10929 0ECB  
                         l10881 0E11                           l10873 0DF2                           l10865 0DCF  
                         l10857 0DA9                           l10849 0D8F                           l10793 0CD8  
                         l10785 0CBA                           l10777 0CA4                           l10769 0C8A  
                         l10697 0B75                           l10689 0B56                           l10971 0F92  
                         l10963 0F78                           l10955 0F3D                           l10939 0EF0  
                         l10883 0E16                           l10875 0DFF                           l10891 0E3C  
                         l10867 0DD9                           l10859 0DB8                           l10947 0F06  
                         l10795 0CDF                           l10787 0CC4                           l10779 0CA5  
                         l10699 0B7B                           l10981 0FAE                           l10973 0F97  
                         l10965 0F81                           l10957 0F45                           l10893 0E45  
                         l10885 0E1F                           l10877 0E05                           l10869 0DDC  
                         l10949 0F23                           l10797 0CE5                           l10789 0CCC  
                         l10991 0FC8                           l10983 0FB4                           l10975 0F9F  
                         l10959 0F62                           l10967 0F88                           l10895 0E4E  
                         l10887 0E25                           l10879 0E0B                           l10799 0CED  
                         l10993 0FCE                           l10985 0FBA                           l10977 0FA4  
                         l10969 0F8C                           l10897 0E57                           l10889 0E34  
                         l10987 0FBD                           l10979 0FAA                           l10899 0E60  
                         l10995 0FEF                           l10997 0FF5                           l10989 0FC3  
                         l10999 0FF7                 __end_of___aldiv 00F8                      _Lcd_String 1D09  
                         ?_main 0070                 __end_of___awdiv 1E7D                           _EEADR 010D  
                         STR_10 187F                           STR_11 188D                           STR_12 18AC  
                         STR_20 1832                           STR_21 1903                           STR_13 18B5  
                         STR_14 189F                           STR_30 18C1                           STR_22 18A8  
                         STR_23 1903                           STR_15 18CD                           STR_24 1846  
                         STR_16 1861                           STR_17 18F6                           STR_25 1870  
                         STR_26 1903                           STR_18 18D8                           STR_19 186A  
                         STR_27 18E2                           STR_28 1903                 __end_of___awmod 1E09  
                         STR_29 18EC                           _CARRY 0018                           _CMCON 009C  
               ___awdiv@divisor 0070              _Enable_Config_Mode 035B                 __end_of___lwdiv 1DA3  
               __end_of___lwmod 1CC2                 ___awdiv@counter 0075                           _VALVE 0036  
                         _SPBRG 0099                           _PORTA 0005                           _PORTB 0006  
                         _PORTC 0007                           _PORTD 0008                           _PORTE 0009  
                         _TRISA 0085                           _TRISB 0086                           _TRISC 0087  
                         _TRISD 0088                           _TRISE 0089                           _TXREG 0019  
                         __Demo 0371             _Enable_Coffee_Valve 035A                           _itoai 0040  
                         fpbase 0705                   _control_valve 1C3B       _Write_ValveIn_Memory$4130 0049  
     _Write_ValveIn_Memory$4131 004B       _Write_ValveIn_Memory$4132 004D       _Write_ValveIn_Memory$4133 004F  
     _Write_ValveIn_Memory$4134 0051                           pclath 000A                   __DISABLE_MODE 0037  
                         status 0003                           wtemp0 007E                    ?_offthevalve 0070  
              __end_of_Lcd_Data 1B86                __end_of_Lcd_Init 0050              _call_control_valve 03DB  
                  __end_of_main 155A         __end_of_Inidcate_Buzzer 1986           _Enable_Dication_Delay 035E  
            _Enable_Count_Reset 035C             ?_call_control_valve 0070                          ??_main 0066  
              __end_of_Num_Disp 120C          ?_Read_ValveFrom_Memory 0070              _enable_valves$6338 0061  
                        _ADCON0 001F                          _ADCON1 009F                  ?_control_valve 004C  
                        _ADRESH 001E                          _ADRESL 009E                          _EEDATA 010C  
                        _EECON1 018C                          _EECON2 018D                ___awdiv@dividend 0072  
                     ??_DelayMs 0049            ??_call_control_valve 0052                      Uart_Init@x 0079  
                     ??_Lcd_Cmd 004C                       ??_InitADC 0070                  _Enable_Heater1 035F  
                _Enable_Heater2 0360              __size_of_Mode_Init 0112            __size_of_eeprom_read 001E  
                        ___bmul 1986                          __clear 0373                       ??___aldiv 0078  
                        ___wmul 1A1B                       ??___awdiv 0074                       ??___awmod 0074  
                     ??___lwdiv 007C                       ??___lwmod 0074           __size_of_change_modes 02E3  
              ___awdiv@quotient 0077                 ___awmod@divisor 0070                      _Print_Name 1950  
                    _Print_Menu 0802            __end_of_eeprom_write 1AA7                 ___awmod@counter 0075  
                        _myitoa 1014                     ?_Lcd_String 004E              __size_of_Uart_Init 00EF  
                        clrloop 07F9                          _strlen 1A45                          fptable 0700  
      __end_of_SendByteSerially 1976                          fptotal 0001              __size_of_Port_Init 0019  
                        rev@buf 004C                 eeprom_read@addr 0074                   Num_Disp@digit 0052  
                  _change_modes 00F8             ___bmul@multiplicand 0070               entry__eeprom_read 0706  
       _call_control_valve$6339 005A            __size_of_count_write 0040                  __pcstackCOMMON 0070  
                  __pidataBANK1 1960                ?_Inidcate_Buzzer 0070            SendByteSerially@Byte 0070  
             __end_of_Mode_Init 131E                 ??_control_valve 007E               eeprom_write@value 0076  
            _Enable_Normal_Mode 0367                       ?_Lcd_Data 0070                       ?_Lcd_Init 0070  
               count_read@addr1 004E                 count_read@addr2 007C                      __pbssBANK0 0020  
            _Enable_Viber_Motor 0370                     Num_Disp@dat 0050                     Num_Disp@dot 0053  
            _Enable_Temperature 036E               __end_of_Uart_Init 07F8             __size_of_Lcd_String 004A  
                  ?_GetADCValue 0070              __size_of_key_press 009C               __end_of_Port_Init 19B7  
                     ?_Num_Disp 0050            __size_of_offthevalve 003A                      __pmaintext 1437  
                       ?___bmul 0070                  __PREVIOUS_MODE 003C                         ?___wmul 0076  
                    __temp_flag 0374                      _asciitable 00A0                     ?_Print_Name 0070  
                   ?_Print_Menu 0070                         ?_myitoa 007B                         ?_strlen 0070  
 __size_of_Write_ValveIn_Memory 007D           _Enable_Hot_Water_Time 0361                      ??_Lcd_Data 004C  
                    ??_Lcd_Init 007E                         _DelayMs 19F3             _Enable_Milk_Forward 0363  
                       _Lcd_Cmd 1B14                         _InitADC 1957             _Enable_Milk_Reverse 0364  
                    _count_read 1AA7                      ??_Num_Disp 0054            _Enable_Shortcut_Mode 036A  
                    _mem_index1 0041                      _mem_index2 0042                       _ADC_value 0029  
         __size_of_eeprom_write 0031                         ___aldiv 0050                 __size_of___bmul 0018  
                       ___awdiv 1E09                         ___awmod 1DA3                 _Enable_Password 0368  
               __size_of___wmul 002A                         ___lwdiv 1D53                         ___lwmod 1C7E  
               Mode_Init@option 005E               Uart_Init@baudrate 004F                 __size_of_myitoa 0051  
       ??_Read_ValveFrom_Memory 0076                 __size_of_strlen 0031                    __size_of_rev 0047  
             __end_of_key_press 1101                ___awmod@dividend 0072                ___aldiv@dividend 0074  
          end_of_initialization 19EF                         init_ram 1005                    _eeprom_write 1A76  
           __size_of_Print_Name 0007             __size_of_Print_Menu 0061                       Lcd_Data@x 004D  
              ___aldiv@quotient 004B                         myitoa@p 007D                    __pstringtext 1800  
                    _onthevalve 1BC0                         strlen@s 0078        _Enable_Milk_Reverse_Time 0365  
                  ??_Lcd_String 007E               ?_SendByteSerially 0070              ??_SendByteSerially 0070  
                 ?_print_yes_no 0070     __size_of_call_control_valve 0325                   ??_eeprom_read 0075  
            __end_of_Lcd_String 1D53                     ?_count_read 007C            __size_of_GetADCValue 0038  
                     __SHORTCUT 0372                  __end_of___bmul 199E                __CHOICE_SELECTED 0048  
                __end_of___wmul 1A45                   __pbitbssBANK0 0358              GetADCValue@Channel 0074  
                  DelayMs@_dcnt 004B                  __end_of_myitoa 1065                  __end_of_strlen 1A76  
           start_initialization 19D5                 Lcd_String@clear 0050                  ??_print_yes_no 004E  
                   __end_of_rev 1D09                       _Mode_Init 120C               __size_of_Lcd_Data 0039  
                     Num_Disp@i 0056           Lcd_String@second_line 0051               __size_of_Lcd_Init 004C  
                 ??_count_write 0049                       _Uart_Init 0709                        ??___bmul 0071  
                 _Enable_Valves 036F                        ??___wmul 007A               __size_of_Num_Disp 010B  
           __end_of_eeprom_read 19D5                       _Port_Init 199E                     __pdataBANK1 00A0  
                   ?_onthevalve 0070                    ??_Print_Name 0071                    ??_Print_Menu 0071  
                      ??_myitoa 004D                        ??_strlen 0072        __size_of_Inidcate_Buzzer 0010  
                  Num_Disp@temp 0058                   __pcstackBANK0 0049             __size_of_count_read 0035  
         __end_of_control_valve 1C7E                      ?_Mode_Init 0070                eeprom_write@addr 0078  
                      ?_DelayMs 007C                 print_yes_no@MEM 004F                        ?_Lcd_Cmd 0070  
 _Enable_Coffee_Hot_Water_Valve 0359                   ??_offthevalve 0070                        ?_InitADC 0070  
            __end_of_Print_Name 1957              __end_of_Print_Menu 0863    __end_of_Write_ValveIn_Memory 1F6E  
              ___lwdiv@dividend 004B                      ?_Uart_Init 004F                       __pfunctab 0700  
                      ?___aldiv 0070                        ?___awdiv 0070                        ?___awmod 0070  
                     __ptext850 03DB                       __ptext851 00F8                       __ptext860 1BFB  
                     __ptext852 1F6E                       __ptext861 1E7D                       __ptext853 1014  
                     __ptext870 1DA3                       __ptext862 0802                       __ptext854 1101  
                     __ptext871 0050                       __ptext863 1950                       __ptext855 1D09  
                     __ptext880 196A                       __ptext872 1E09                       __ptext864 1976  
                     __ptext856 0004                       __ptext848 155A                       __ptext881 1065  
                     __ptext873 1C7E                       __ptext865 0709                       __ptext857 1C3B  
                     __ptext849 120C                       __ptext882 19B7                       __ptext874 1D53  
                     __ptext866 1CC2                       __ptext858 1AA7                       __ptext883 199E  
                     __ptext875 1A1B                       __ptext867 1B4D                       __ptext859 1EF1  
                     __ptext884 1A45                       __ptext876 1986                       __ptext868 1B14  
                     __ptext885 19F3                       __ptext877 1BC0                       __ptext869 1ADC  
                     __ptext886 1957                       __ptext878 1B86                       __ptext879 1A76  
                    ?_Port_Init 0070             __end_of_count_write 1C3B                        ?___lwdiv 0049  
                      ?___lwmod 0070                       __pstrings 190D          __size_of_enable_valves EAA6  
                enable_valves@i 0063  __size_of_Read_ValveFrom_Memory 0074   __end_of_Read_ValveFrom_Memory 1EF1  
              ___lwdiv@quotient 004D                       _key_press 1065                 ___aldiv@divisor 0070  
           __size_of_onthevalve 003B               __PREVIOUS_PROCESS 003D                 ___aldiv@counter 0049  
                ___wmul@product 007A                        DelayMs@i 004A                     _eeprom_read 19B7  
        _Enable_Hot_Water_Valve 0362                        Lcd_Cmd@s 004D                        _GO_nDONE 00FA  
          __end_of_print_yes_no 2000             __end_of_offthevalve 1BC0                     __stringbase 191F  
             ___wmul@multiplier 0076     _Enable_Coffee_Dication_Time 0358        Read_ValveFrom_Memory@MEM 0079  
                      _Lcd_Data 1B4D                        _Lcd_Init 0004                        __PRESSED 003B  
                      __PROCESS 003E                     ??_Mode_Init 005C                      ?_key_press 0070  
              _Enable_Cup_Count 035D               ??_Inidcate_Buzzer 007E                __size_of_DelayMs 0028  
                 _enable_valves 155A                __size_of_Lcd_Cmd 0039       __size_of_SendByteSerially 000C  
                   _count_write 1BFB                    ??_count_read 0049                __size_of_InitADC 0009  
                 ?_change_modes 0070                        _Num_Disp 1101         control_valve@delay_time 004E  
                   ??_Uart_Init 0053                _Enable_Tea_Valve 036D                       init_fetch 1001  
                   ??_Port_Init 0070                __size_of___aldiv 00A8                __size_of___awdiv 0074  
              __size_of___awmod 0066                __size_of___lwdiv 0050                __size_of___lwmod 0044  
              _Enable_Selection 0369                    Lcd_String@st 004E            _Write_ValveIn_Memory 1EF1  
               ___lwdiv@divisor 0049         Write_ValveIn_Memory@chr 0054         Write_ValveIn_Memory@loc 0079  
            __end_of_count_read 1ADC                 ___lwdiv@counter 004F      __end_of_call_control_valve 0700  
                ?_enable_valves 0070                   __size_of_main 0123                   ??_GetADCValue 0072  
                   _offthevalve 1B86                  ??_change_modes 005A                        clear_ram 07F8  
                      _password 002F                    ??_onthevalve 0070                       myitoa@val 007B  
                    DelayMs@cnt 007C               __SHORTCUT_PRESSED 003F           ?_Write_ValveIn_Memory 0079  
              count_write@addr1 007C                count_write@addr2 0079                count_write@count 007A  
                   ??_key_press 0070       Write_ValveIn_Memory@VALVE 0053                ___lwmod@dividend 0072  
            __end_of_onthevalve 1BFB           __size_of_print_yes_no 0092                       stringcode 1917  
    _Enable_Tea_Hot_Water_Valve 036C          control_valve@load_time 004C             __end_of_GetADCValue 1B14  
                fp__eeprom_read 0706                  _Selection_Next 0047                     _temperature 0031  
               ___lwmod@divisor 0070                        strlen@cp 0079                 ___lwmod@counter 0075  
                      stringtab 190D                    ___aldiv@sign 004A                    _print_yes_no 1F6E  
               ??_enable_valves 005C                   ?_eeprom_write 0076                    ?_eeprom_read 0074  
              _SendByteSerially 196A   _Enable_Mixing_Hot_Water_Valve 0366  
