

HI-TECH Software PIC LITE Macro Assembler V9.82 build 9453 
                                                                                               Sun Sep 13 15:10:03 2015

HI-TECH Software Omniscient Code Generator (Lite mode) build 9453
     1  0000                     opt subtitle "HI-TECH Software Omniscient Code Generator (Lite mode) build 9453"
     2                           
     3                           opt pagewidth 120
     4                           
     5                           	opt lm
     6                           
     7                           	processor	16F690
     8                           clrc	macro
     9                           	bcf	3,0
    10  0000                     	endm
    11                           clrz	macro
    12                           	bcf	3,2
    13  0000                     	endm
    14                           setc	macro
    15                           	bsf	3,0
    16  0000                     	endm
    17                           setz	macro
    18                           	bsf	3,2
    19  0000                     	endm
    20                           skipc	macro
    21                           	btfss	3,0
    22  0000                     	endm
    23                           skipz	macro
    24                           	btfss	3,2
    25  0000                     	endm
    26                           skipnc	macro
    27                           	btfsc	3,0
    28  0000                     	endm
    29                           skipnz	macro
    30                           	btfsc	3,2
    31  0000                     	endm
    32  0000                     indf	equ	0
    33  0000                     indf0	equ	0
    34  0002                     pc	equ	2
    35  0002                     pcl	equ	2
    36  0003                     status	equ	3
    37  0004                     fsr	equ	4
    38  0004                     fsr0	equ	4
    39  0001                     c	equ	1
    40  0000                     z	equ	0
    41  000A                     pclath	equ	10
    42                           # 16 "F:\BEVERAGES_ENHANCEMENT\SOFTWARE_DESIGN\SLAVE_PIC_16F690\2015_09_13\main.c"
    43                           	psect config,class=CONFIG,delta=2 ;#
    44                           # 16 "F:\BEVERAGES_ENHANCEMENT\SOFTWARE_DESIGN\SLAVE_PIC_16F690\2015_09_13\main.c"
    45  2007  FCF4               	dw 0xFFFC & 0xFFF7 & 0xFFFF & 0xFFFF & 0xFCFF ;#
    46                           	FNCALL	_main,_SYSTEM_INIT
    47                           	FNCALL	_main,_LCD_INIT
    48                           	FNCALL	_main,_UART_INIT
    49                           	FNCALL	_main,_Lcd_Write
    50                           	FNCALL	_main,_DelayMs
    51                           	FNCALL	_SYSTEM_INIT,_DelayMs
    52                           	FNCALL	_UART_INIT,___aldiv
    53                           	FNCALL	_LCD_INIT,_DelayMs
    54                           	FNCALL	_LCD_INIT,_Lcd_Write
    55                           	FNROOT	_main
    56                           	FNCALL	_ISR,_Display_In_Lcd
    57                           	FNCALL	_ISR,_SendByteSerially
    58                           	FNCALL	_Display_In_Lcd,_Lcd_String
    59                           	FNCALL	_Display_In_Lcd,i1_Lcd_Write
    60                           	FNCALL	_Lcd_String,i1_Lcd_Write
    61                           	FNCALL	_Lcd_String,i1_DelayMs
    62                           	FNCALL	intlevel1,_ISR
    63                           	global	intlevel1
    64                           	FNROOT	intlevel1
    65                           	global	_asciitable
    66                           psect	idataBANK0,class=CODE,space=0,delta=2
    67                           global __pidataBANK0
    68  04A2                     __pidataBANK0:
    69                           	file	"F:\BEVERAGES_ENHANCEMENT\SOFTWARE_DESIGN\SLAVE_PIC_16F690\2015_09_13\lcd.h"
    70                           	line	11
    71                           
    72                           ;initializer for _asciitable
    73  04A2  3430               	retlw	030h
    74  04A3  3431               	retlw	031h
    75  04A4  3432               	retlw	032h
    76  04A5  3433               	retlw	033h
    77  04A6  3434               	retlw	034h
    78  04A7  3435               	retlw	035h
    79  04A8  3436               	retlw	036h
    80  04A9  3437               	retlw	037h
    81  04AA  3438               	retlw	038h
    82  04AB  3439               	retlw	039h
    83                           	global	_PORTC
    84  0007                     _PORTC	set	7
    85                           	global	_RCREG
    86  001A                     _RCREG	set	26
    87                           	global	_TXREG
    88  0019                     _TXREG	set	25
    89                           	global	_CARRY
    90  0018                     _CARRY	set	24
    91                           	global	_CREN
    92  00C4                     _CREN	set	196
    93                           	global	_GIE
    94  005F                     _GIE	set	95
    95                           	global	_OERR
    96  00C1                     _OERR	set	193
    97                           	global	_PEIE
    98  005E                     _PEIE	set	94
    99                           	global	_RA4
   100  002C                     _RA4	set	44
   101                           	global	_RA5
   102  002D                     _RA5	set	45
   103                           	global	_RCIF
   104  0065                     _RCIF	set	101
   105                           	global	_SPEN
   106  00C7                     _SPEN	set	199
   107                           	global	_TXIF
   108  0064                     _TXIF	set	100
   109                           	global	_SPBRG
   110  0099                     _SPBRG	set	153
   111                           	global	_TRISA
   112  0085                     _TRISA	set	133
   113                           	global	_TRISC
   114  0087                     _TRISC	set	135
   115                           	global	_BRGH
   116  04C2                     _BRGH	set	1218
   117                           	global	_IRCF0
   118  047C                     _IRCF0	set	1148
   119                           	global	_IRCF1
   120  047D                     _IRCF1	set	1149
   121                           	global	_IRCF2
   122  047E                     _IRCF2	set	1150
   123                           	global	_RCIE
   124  0465                     _RCIE	set	1125
   125                           	global	_SYNC
   126  04C4                     _SYNC	set	1220
   127                           	global	_TXEN
   128  04C5                     _TXEN	set	1221
   129                           	global	_WPUA2
   130  04AA                     _WPUA2	set	1194
   131                           	global	_nRABPU
   132  040F                     _nRABPU	set	1039
   133                           	global	_ANSEL
   134  011E                     _ANSEL	set	286
   135                           	global	_ANSELH
   136  011F                     _ANSELH	set	287
   137                           	global	_EEADR
   138  010D                     _EEADR	set	269
   139                           	global	_EEDATA
   140  010C                     _EEDATA	set	268
   141                           	global	_EECON1
   142  018C                     _EECON1	set	396
   143                           	global	_EECON2
   144  018D                     _EECON2	set	397
   145                           	global	_RD
   146  0C60                     _RD	set	3168
   147                           	global	_WR
   148  0C61                     _WR	set	3169
   149                           	global	_WREN
   150  0C62                     _WREN	set	3170
   151                           psect	strings,class=STRING,delta=2
   152                           global __pstrings
   153  0013                     __pstrings:
   154                           ;	global	stringdir,stringtab,__stringbase
   155  0013                     stringtab:
   156                           ;	String table - string pointers are 1 byte each
   157  0013                     stringcode:stringdir:
      + 0013                     stringdir:	
   158  0013  3000               movlw high(stringdir)
   159  0014  008A               movwf pclath
   160  0015  0804               movf fsr,w
   161  0016  0A84               incf fsr
   162  0017  0782               	addwf pc
   163  0018                     __stringbase:
   164  0018  3400               	retlw	0
   165                           psect	strings
   166                           	
   167  0019                     STR_7:	
   168  0019  3420               	retlw	32	;' '
   169  001A  3420               	retlw	32	;' '
   170  001B  3442               	retlw	66	;'B'
   171  001C  344C               	retlw	76	;'L'
   172  001D  3441               	retlw	65	;'A'
   173  001E  3443               	retlw	67	;'C'
   174  001F  344B               	retlw	75	;'K'
   175  0020  3420               	retlw	32	;' '
   176  0021  3443               	retlw	67	;'C'
   177  0022  344F               	retlw	79	;'O'
   178  0023  3446               	retlw	70	;'F'
   179  0024  3446               	retlw	70	;'F'
   180  0025  3445               	retlw	69	;'E'
   181  0026  3445               	retlw	69	;'E'
   182  0027  3400               	retlw	0
   183                           psect	strings
   184                           	
   185  0028                     STR_3:	
   186  0028  3420               	retlw	32	;' '
   187  0029  344E               	retlw	78	;'N'
   188  002A  344F               	retlw	79	;'O'
   189  002B  3452               	retlw	82	;'R'
   190  002C  344D               	retlw	77	;'M'
   191  002D  3441               	retlw	65	;'A'
   192  002E  344C               	retlw	76	;'L'
   193  002F  3420               	retlw	32	;' '
   194  0030  3443               	retlw	67	;'C'
   195  0031  344F               	retlw	79	;'O'
   196  0032  3446               	retlw	70	;'F'
   197  0033  3446               	retlw	70	;'F'
   198  0034  3445               	retlw	69	;'E'
   199  0035  3445               	retlw	69	;'E'
   200  0036  3400               	retlw	0
   201                           psect	strings
   202                           	
   203  0037                     STR_5:	
   204  0037  3420               	retlw	32	;' '
   205  0038  3420               	retlw	32	;' '
   206  0039  344C               	retlw	76	;'L'
   207  003A  3449               	retlw	73	;'I'
   208  003B  3447               	retlw	71	;'G'
   209  003C  3448               	retlw	72	;'H'
   210  003D  3454               	retlw	84	;'T'
   211  003E  3420               	retlw	32	;' '
   212  003F  3443               	retlw	67	;'C'
   213  0040  344F               	retlw	79	;'O'
   214  0041  3446               	retlw	70	;'F'
   215  0042  3446               	retlw	70	;'F'
   216  0043  3445               	retlw	69	;'E'
   217  0044  3445               	retlw	69	;'E'
   218  0045  3400               	retlw	0
   219                           psect	strings
   220                           	
   221  0046                     STR_4:	
   222  0046  3420               	retlw	32	;' '
   223  0047  3420               	retlw	32	;' '
   224  0048  3420               	retlw	32	;' '
   225  0049  344E               	retlw	78	;'N'
   226  004A  344F               	retlw	79	;'O'
   227  004B  3452               	retlw	82	;'R'
   228  004C  344D               	retlw	77	;'M'
   229  004D  3441               	retlw	65	;'A'
   230  004E  344C               	retlw	76	;'L'
   231  004F  3420               	retlw	32	;' '
   232  0050  3454               	retlw	84	;'T'
   233  0051  3445               	retlw	69	;'E'
   234  0052  3441               	retlw	65	;'A'
   235  0053  3400               	retlw	0
   236                           psect	strings
   237                           	
   238  0054                     STR_1:	
   239  0054  3420               	retlw	32	;' '
   240  0055  3420               	retlw	32	;' '
   241  0056  3443               	retlw	67	;'C'
   242  0057  3441               	retlw	65	;'A'
   243  0058  3446               	retlw	70	;'F'
   244  0059  3445               	retlw	69	;'E'
   245  005A  3420               	retlw	32	;' '
   246  005B  3444               	retlw	68	;'D'
   247  005C  3445               	retlw	69	;'E'
   248  005D  3420               	retlw	32	;' '
   249  005E  3456               	retlw	86	;'V'
   250  005F  3449               	retlw	73	;'I'
   251  0060  3445               	retlw	69	;'E'
   252  0061  3400               	retlw	0
   253                           psect	strings
   254                           	
   255  0062                     STR_8:	
   256  0062  3420               	retlw	32	;' '
   257  0063  3420               	retlw	32	;' '
   258  0064  3420               	retlw	32	;' '
   259  0065  3442               	retlw	66	;'B'
   260  0066  344C               	retlw	76	;'L'
   261  0067  3441               	retlw	65	;'A'
   262  0068  3443               	retlw	67	;'C'
   263  0069  344B               	retlw	75	;'K'
   264  006A  3420               	retlw	32	;' '
   265  006B  3454               	retlw	84	;'T'
   266  006C  3445               	retlw	69	;'E'
   267  006D  3441               	retlw	65	;'A'
   268  006E  3400               	retlw	0
   269                           psect	strings
   270                           	
   271  006F                     STR_6:	
   272  006F  3420               	retlw	32	;' '
   273  0070  3420               	retlw	32	;' '
   274  0071  3420               	retlw	32	;' '
   275  0072  344C               	retlw	76	;'L'
   276  0073  3449               	retlw	73	;'I'
   277  0074  3447               	retlw	71	;'G'
   278  0075  3448               	retlw	72	;'H'
   279  0076  3454               	retlw	84	;'T'
   280  0077  3420               	retlw	32	;' '
   281  0078  3454               	retlw	84	;'T'
   282  0079  3445               	retlw	69	;'E'
   283  007A  3441               	retlw	65	;'A'
   284  007B  3400               	retlw	0
   285                           psect	strings
   286                           	
   287  007C                     STR_10:	
   288  007C  3420               	retlw	32	;' '
   289  007D  3420               	retlw	32	;' '
   290  007E  3420               	retlw	32	;' '
   291  007F  3448               	retlw	72	;'H'
   292  0080  344F               	retlw	79	;'O'
   293  0081  3454               	retlw	84	;'T'
   294  0082  3420               	retlw	32	;' '
   295  0083  3457               	retlw	87	;'W'
   296  0084  3441               	retlw	65	;'A'
   297  0085  3454               	retlw	84	;'T'
   298  0086  3445               	retlw	69	;'E'
   299  0087  3452               	retlw	82	;'R'
   300  0088  3400               	retlw	0
   301                           psect	strings
   302                           	
   303  0089                     STR_2:	
   304  0089  3420               	retlw	32	;' '
   305  008A  3420               	retlw	32	;' '
   306  008B  3420               	retlw	32	;' '
   307  008C  3442               	retlw	66	;'B'
   308  008D  3445               	retlw	69	;'E'
   309  008E  3456               	retlw	86	;'V'
   310  008F  3445               	retlw	69	;'E'
   311  0090  3452               	retlw	82	;'R'
   312  0091  3441               	retlw	65	;'A'
   313  0092  3447               	retlw	71	;'G'
   314  0093  3445               	retlw	69	;'E'
   315  0094  3453               	retlw	83	;'S'
   316  0095  3400               	retlw	0
   317                           psect	strings
   318                           	
   319  0096                     STR_11:	
   320  0096  3420               	retlw	32	;' '
   321  0097  3420               	retlw	32	;' '
   322  0098  3420               	retlw	32	;' '
   323  0099  3420               	retlw	32	;' '
   324  009A  3420               	retlw	32	;' '
   325  009B  3420               	retlw	32	;' '
   326  009C  3445               	retlw	69	;'E'
   327  009D  3458               	retlw	88	;'X'
   328  009E  3454               	retlw	84	;'T'
   329  009F  3452               	retlw	82	;'R'
   330  00A0  3441               	retlw	65	;'A'
   331  00A1  3400               	retlw	0
   332                           psect	strings
   333                           	
   334  00A2                     STR_13:	
   335  00A2  3450               	retlw	80	;'P'
   336  00A3  3452               	retlw	82	;'R'
   337  00A4  3445               	retlw	69	;'E'
   338  00A5  3450               	retlw	80	;'P'
   339  00A6  3441               	retlw	65	;'A'
   340  00A7  3452               	retlw	82	;'R'
   341  00A8  3441               	retlw	65	;'A'
   342  00A9  3454               	retlw	84	;'T'
   343  00AA  3449               	retlw	73	;'I'
   344  00AB  344F               	retlw	79	;'O'
   345  00AC  344E               	retlw	78	;'N'
   346  00AD  3400               	retlw	0
   347                           psect	strings
   348                           	
   349  00AE                     STR_9:	
   350  00AE  3420               	retlw	32	;' '
   351  00AF  3420               	retlw	32	;' '
   352  00B0  3420               	retlw	32	;' '
   353  00B1  3420               	retlw	32	;' '
   354  00B2  3420               	retlw	32	;' '
   355  00B3  3420               	retlw	32	;' '
   356  00B4  344D               	retlw	77	;'M'
   357  00B5  3449               	retlw	73	;'I'
   358  00B6  344C               	retlw	76	;'L'
   359  00B7  344B               	retlw	75	;'K'
   360  00B8  3400               	retlw	0
   361                           psect	strings
   362                           	
   363  00B9                     STR_15:	
   364  00B9  3453               	retlw	83	;'S'
   365  00BA  3445               	retlw	69	;'E'
   366  00BB  344C               	retlw	76	;'L'
   367  00BC  3445               	retlw	69	;'E'
   368  00BD  3443               	retlw	67	;'C'
   369  00BE  3454               	retlw	84	;'T'
   370  00BF  3449               	retlw	73	;'I'
   371  00C0  344F               	retlw	79	;'O'
   372  00C1  344E               	retlw	78	;'N'
   373  00C2  3400               	retlw	0
   374                           psect	strings
   375                           	
   376  00C3                     STR_12:	
   377  00C3  3443               	retlw	67	;'C'
   378  00C4  344F               	retlw	79	;'O'
   379  00C5  344E               	retlw	78	;'N'
   380  00C6  3454               	retlw	84	;'T'
   381  00C7  3449               	retlw	73	;'I'
   382  00C8  344E               	retlw	78	;'N'
   383  00C9  3455               	retlw	85	;'U'
   384  00CA  3445               	retlw	69	;'E'
   385  00CB  3400               	retlw	0
   386                           psect	strings
   387                           	
   388  00CC                     STR_14:	
   389  00CC  3444               	retlw	68	;'D'
   390  00CD  3449               	retlw	73	;'I'
   391  00CE  3443               	retlw	67	;'C'
   392  00CF  3441               	retlw	65	;'A'
   393  00D0  3454               	retlw	84	;'T'
   394  00D1  3449               	retlw	73	;'I'
   395  00D2  344F               	retlw	79	;'O'
   396  00D3  344E               	retlw	78	;'N'
   397  00D4  3400               	retlw	0
   398                           psect	strings
   399                           	file	"slave_display.as"
   400                           	line	#
   401                           psect cinit,class=CODE,delta=2
   402                           global start_initialization
   403  0487                     start_initialization:
   404                           
   405                           psect	dataBANK0,class=BANK0,space=1
   406                           global __pdataBANK0
   407  003B                     __pdataBANK0:
   408                           	file	"F:\BEVERAGES_ENHANCEMENT\SOFTWARE_DESIGN\SLAVE_PIC_16F690\2015_09_13\lcd.h"
   409  003B                     _asciitable:
   410  003B                            ds      10
   411                           
   412                           global btemp
   413                           psect inittext,class=CODE,delta=2
   414                           global init_fetch,btemp
   415                           ;	Called with low address in FSR and high address in W
   416  0476                     init_fetch:
   417  0476  087E               	movf btemp,w
   418  0477  008A               	movwf pclath
   419  0478  087F               	movf btemp+1,w
   420  0479  0082               	movwf pc
   421                           global init_ram
   422                           ;Called with:
   423                           ;	high address of idata address in btemp 
   424                           ;	low address of idata address in btemp+1 
   425                           ;	low address of data in FSR
   426                           ;	high address + 1 of data in btemp-1
   427  047A                     init_ram:
   428  047A  118A  2476  118A   	fcall init_fetch
   429  047D  0080               	movwf indf,f
   430  047E  0A84               	incf fsr,f
   431  047F  0804               	movf fsr,w
   432  0480  067D               	xorwf btemp-1,w
   433  0481  1903               	btfsc status,2
   434  0482  3400               	retlw 0
   435  0483  0AFF               	incf btemp+1,f
   436  0484  1903               	btfsc status,2
   437  0485  0AFE               	incf btemp,f
   438  0486  2C7A               	goto init_ram
   439                           ; Initialize objects allocated to BANK0
   440                           psect cinit,class=CODE,delta=2
   441                           global init_ram, __pidataBANK0
   442  0487  1383               	bcf	status, 7	;select IRP bank0
   443  0488  3045               	movlw low(__pdataBANK0+10)
   444  0489  00FD               	movwf btemp-1,f
   445  048A  3004               	movlw high(__pidataBANK0)
   446  048B  00FE               	movwf btemp,f
   447  048C  30A2               	movlw low(__pidataBANK0)
   448  048D  00FF               	movwf btemp+1,f
   449  048E  303B               	movlw low(__pdataBANK0)
   450  048F  0084               	movwf fsr,f
   451  0490  118A  247A  118A   	fcall init_ram
   452                           psect cinit,class=CODE,delta=2
   453                           global end_of_initialization
   454                           
   455                           ;End of C runtime variable initialization code
   456                           
   457  0493                     end_of_initialization:
   458  0493  0183               clrf status
   459  0494  118A  2BAC         ljmp _main	;jump to C main() function
   460                           psect	cstackCOMMON,class=COMMON,space=1
   461                           global __pcstackCOMMON
   462  0070                     __pcstackCOMMON:
   463                           	global	?_LCD_INIT
   464  0070                     ?_LCD_INIT:	; 0 bytes @ 0x0
   465                           	global	?_SendByteSerially
   466  0070                     ?_SendByteSerially:	; 0 bytes @ 0x0
   467                           	global	??_SendByteSerially
   468  0070                     ??_SendByteSerially:	; 0 bytes @ 0x0
   469                           	global	?_Display_In_Lcd
   470  0070                     ?_Display_In_Lcd:	; 0 bytes @ 0x0
   471                           	global	?_ISR
   472  0070                     ?_ISR:	; 0 bytes @ 0x0
   473                           	global	?_SYSTEM_INIT
   474  0070                     ?_SYSTEM_INIT:	; 0 bytes @ 0x0
   475                           	global	?_main
   476  0070                     ?_main:	; 0 bytes @ 0x0
   477                           	global	?i1_DelayMs
   478  0070                     ?i1_DelayMs:	; 0 bytes @ 0x0
   479                           	global	?i1_Lcd_Write
   480  0070                     ?i1_Lcd_Write:	; 0 bytes @ 0x0
   481                           	global	SendByteSerially@Byte
   482  0070                     SendByteSerially@Byte:	; 1 bytes @ 0x0
   483                           	global	i1Lcd_Write@c
   484  0070                     i1Lcd_Write@c:	; 1 bytes @ 0x0
   485                           	global	i1DelayMs@cnt
   486  0070                     i1DelayMs@cnt:	; 2 bytes @ 0x0
   487  0070                     	ds	1
   488                           	global	??i1_Lcd_Write
   489  0071                     ??i1_Lcd_Write:	; 0 bytes @ 0x1
   490  0071                     	ds	1
   491                           	global	??i1_DelayMs
   492  0072                     ??i1_DelayMs:	; 0 bytes @ 0x2
   493                           	global	i1DelayMs@_dcnt
   494  0072                     i1DelayMs@_dcnt:	; 2 bytes @ 0x2
   495  0072                     	ds	1
   496                           	global	i1Lcd_Write@rs
   497  0073                     i1Lcd_Write@rs:	; 1 bytes @ 0x3
   498  0073                     	ds	1
   499                           	global	i1Lcd_Write@_dcnt
   500  0074                     i1Lcd_Write@_dcnt:	; 2 bytes @ 0x4
   501  0074                     	ds	2
   502                           	global	i1Lcd_Write@_dcnt_1579
   503  0076                     i1Lcd_Write@_dcnt_1579:	; 2 bytes @ 0x6
   504  0076                     	ds	2
   505                           	global	?_Lcd_String
   506  0078                     ?_Lcd_String:	; 0 bytes @ 0x8
   507                           	global	Lcd_String@clear
   508  0078                     Lcd_String@clear:	; 1 bytes @ 0x8
   509  0078                     	ds	1
   510                           	global	Lcd_String@second_line
   511  0079                     Lcd_String@second_line:	; 1 bytes @ 0x9
   512  0079                     	ds	1
   513                           	global	??_Lcd_String
   514  007A                     ??_Lcd_String:	; 0 bytes @ 0xA
   515  007A                     	ds	1
   516                           	global	Lcd_String@st
   517  007B                     Lcd_String@st:	; 1 bytes @ 0xB
   518  007B                     	ds	1
   519                           	global	??_Display_In_Lcd
   520  007C                     ??_Display_In_Lcd:	; 0 bytes @ 0xC
   521  007C                     	ds	1
   522                           	global	Display_In_Lcd@sel
   523  007D                     Display_In_Lcd@sel:	; 1 bytes @ 0xD
   524  007D                     	ds	1
   525                           psect	cstackBANK0,class=BANK0,space=1
   526                           global __pcstackBANK0
   527  0020                     __pcstackBANK0:
   528                           	global	??_ISR
   529  0020                     ??_ISR:	; 0 bytes @ 0x0
   530  0020                     	ds	4
   531                           	global	?_DelayMs
   532  0024                     ?_DelayMs:	; 0 bytes @ 0x4
   533                           	global	?_Lcd_Write
   534  0024                     ?_Lcd_Write:	; 0 bytes @ 0x4
   535                           	global	?___aldiv
   536  0024                     ?___aldiv:	; 4 bytes @ 0x4
   537                           	global	Lcd_Write@c
   538  0024                     Lcd_Write@c:	; 1 bytes @ 0x4
   539                           	global	DelayMs@cnt
   540  0024                     DelayMs@cnt:	; 2 bytes @ 0x4
   541                           	global	___aldiv@divisor
   542  0024                     ___aldiv@divisor:	; 4 bytes @ 0x4
   543  0024                     	ds	1
   544                           	global	??_Lcd_Write
   545  0025                     ??_Lcd_Write:	; 0 bytes @ 0x5
   546  0025                     	ds	1
   547                           	global	??_DelayMs
   548  0026                     ??_DelayMs:	; 0 bytes @ 0x6
   549                           	global	DelayMs@_dcnt
   550  0026                     DelayMs@_dcnt:	; 2 bytes @ 0x6
   551  0026                     	ds	1
   552                           	global	Lcd_Write@_dcnt
   553  0027                     Lcd_Write@_dcnt:	; 2 bytes @ 0x7
   554  0027                     	ds	1
   555                           	global	??_SYSTEM_INIT
   556  0028                     ??_SYSTEM_INIT:	; 0 bytes @ 0x8
   557                           	global	___aldiv@dividend
   558  0028                     ___aldiv@dividend:	; 4 bytes @ 0x8
   559  0028                     	ds	1
   560                           	global	Lcd_Write@_dcnt_1579
   561  0029                     Lcd_Write@_dcnt_1579:	; 2 bytes @ 0x9
   562  0029                     	ds	2
   563                           	global	Lcd_Write@rs
   564  002B                     Lcd_Write@rs:	; 1 bytes @ 0xB
   565  002B                     	ds	1
   566                           	global	??_LCD_INIT
   567  002C                     ??_LCD_INIT:	; 0 bytes @ 0xC
   568                           	global	??___aldiv
   569  002C                     ??___aldiv:	; 0 bytes @ 0xC
   570  002C                     	ds	1
   571                           	global	___aldiv@counter
   572  002D                     ___aldiv@counter:	; 1 bytes @ 0xD
   573                           	global	LCD_INIT@_dcnt
   574  002D                     LCD_INIT@_dcnt:	; 2 bytes @ 0xD
   575  002D                     	ds	1
   576                           	global	___aldiv@sign
   577  002E                     ___aldiv@sign:	; 1 bytes @ 0xE
   578  002E                     	ds	1
   579                           	global	___aldiv@quotient
   580  002F                     ___aldiv@quotient:	; 4 bytes @ 0xF
   581  002F                     	ds	4
   582                           	global	?_UART_INIT
   583  0033                     ?_UART_INIT:	; 0 bytes @ 0x13
   584                           	global	UART_INIT@baudrate
   585  0033                     UART_INIT@baudrate:	; 4 bytes @ 0x13
   586  0033                     	ds	4
   587                           	global	??_UART_INIT
   588  0037                     ??_UART_INIT:	; 0 bytes @ 0x17
   589  0037                     	ds	4
   590                           	global	??_main
   591  003B                     ??_main:	; 0 bytes @ 0x1B
   592 ;;Data sizes: Strings 188, constant 0, data 10, bss 0, persistent 0 stack 0
   593 ;;Auto spaces:   Size  Autos    Used
   594 ;; COMMON          14     14      14
   595 ;; BANK0           80     27      37
   596 ;; BANK1           80      0       0
   597 ;; BANK2           80      0       0
   598                           
   599 ;;
   600 ;; Pointer list with targets:
   601                           
   602 ;; ?___aldiv	long  size(1) Largest target is 0
   603 ;;
   604 ;; ?_Lcd_Data	int  size(1) Largest target is 0
   605 ;;
   606 ;; Lcd_String@st	PTR const unsigned char  size(1) Largest target is 15
   607 ;;		 -> STR_15(CODE[10]), STR_14(CODE[9]), STR_13(CODE[12]), STR_12(CODE[9]), 
   608 ;;		 -> STR_11(CODE[12]), STR_10(CODE[13]), STR_9(CODE[11]), STR_8(CODE[13]), 
   609 ;;		 -> STR_7(CODE[15]), STR_6(CODE[13]), STR_5(CODE[15]), STR_4(CODE[14]), 
   610 ;;		 -> STR_3(CODE[15]), STR_2(CODE[13]), STR_1(CODE[14]), 
   611 ;;
   612                           
   613                           
   614 ;;
   615 ;; Critical Paths under _main in COMMON
   616 ;;
   617 ;;   None.
   618 ;;
   619 ;; Critical Paths under _ISR in COMMON
   620 ;;
   621 ;;   _ISR->_Display_In_Lcd
   622 ;;   _Display_In_Lcd->_Lcd_String
   623 ;;   _Lcd_String->i1_Lcd_Write
   624 ;;
   625 ;; Critical Paths under _main in BANK0
   626 ;;
   627 ;;   _main->_UART_INIT
   628 ;;   _SYSTEM_INIT->_DelayMs
   629 ;;   _UART_INIT->___aldiv
   630 ;;   _LCD_INIT->_Lcd_Write
   631 ;;
   632 ;; Critical Paths under _ISR in BANK0
   633 ;;
   634 ;;   None.
   635 ;;
   636 ;; Critical Paths under _main in BANK1
   637 ;;
   638 ;;   None.
   639 ;;
   640 ;; Critical Paths under _ISR in BANK1
   641 ;;
   642 ;;   None.
   643 ;;
   644 ;; Critical Paths under _main in BANK2
   645 ;;
   646 ;;   None.
   647 ;;
   648 ;; Critical Paths under _ISR in BANK2
   649 ;;
   650 ;;   None.
   651                           
   652 ;;
   653 ;;Main: autosize = 0, tempsize = 0, incstack = 0, save=0
   654 ;;
   655                           
   656 ;;
   657 ;;Call Graph Tables:
   658 ;;
   659 ;; ---------------------------------------------------------------------------------
   660 ;; (Depth) Function   	        Calls       Base Space   Used Autos Params    Refs
   661 ;; ---------------------------------------------------------------------------------
   662 ;; (0) _main                                                 0     0      0     704
   663 ;;                        _SYSTEM_INIT
   664 ;;                           _LCD_INIT
   665 ;;                          _UART_INIT
   666 ;;                          _Lcd_Write
   667 ;;                            _DelayMs
   668 ;; ---------------------------------------------------------------------------------
   669 ;; (1) _SYSTEM_INIT                                          0     0      0      45
   670 ;;                            _DelayMs
   671 ;; ---------------------------------------------------------------------------------
   672 ;; (1) _UART_INIT                                            8     4      4     322
   673 ;;                                             19 BANK0      8     4      4
   674 ;;                            ___aldiv
   675 ;; ---------------------------------------------------------------------------------
   676 ;; (1) _LCD_INIT                                             3     3      0     180
   677 ;;                                             12 BANK0      3     3      0
   678 ;;                            _DelayMs
   679 ;;                          _Lcd_Write
   680 ;; ---------------------------------------------------------------------------------
   681 ;; (2) ___aldiv                                             15     7      8     300
   682 ;;                                              4 BANK0     15     7      8
   683 ;; ---------------------------------------------------------------------------------
   684 ;; (1) _Lcd_Write                                            8     7      1     112
   685 ;;                                              4 BANK0      8     7      1
   686 ;; ---------------------------------------------------------------------------------
   687 ;; (1) _DelayMs                                              4     2      2      45
   688 ;;                                              4 BANK0      4     2      2
   689 ;; ---------------------------------------------------------------------------------
   690 ;; Estimated maximum stack depth 2
   691 ;; ---------------------------------------------------------------------------------
   692 ;; (Depth) Function   	        Calls       Base Space   Used Autos Params    Refs
   693 ;; ---------------------------------------------------------------------------------
   694 ;; (3) _ISR                                                  4     4      0     984
   695 ;;                                              0 BANK0      4     4      0
   696 ;;                     _Display_In_Lcd
   697 ;;                   _SendByteSerially
   698 ;; ---------------------------------------------------------------------------------
   699 ;; (4) _Display_In_Lcd                                       2     2      0     969
   700 ;;                                             12 COMMON     2     2      0
   701 ;;                         _Lcd_String
   702 ;;                        i1_Lcd_Write
   703 ;; ---------------------------------------------------------------------------------
   704 ;; (5) _Lcd_String                                           4     2      2     578
   705 ;;                                              8 COMMON     4     2      2
   706 ;;                        i1_Lcd_Write
   707 ;;                          i1_DelayMs
   708 ;; ---------------------------------------------------------------------------------
   709 ;; (5) i1_Lcd_Write                                          8     7      1     369
   710 ;;                                              0 COMMON     8     7      1
   711 ;; ---------------------------------------------------------------------------------
   712 ;; (6) i1_DelayMs                                            4     2      2     120
   713 ;;                                              0 COMMON     4     2      2
   714 ;; ---------------------------------------------------------------------------------
   715 ;; (4) _SendByteSerially                                     1     1      0      15
   716 ;;                                              0 COMMON     1     1      0
   717 ;; ---------------------------------------------------------------------------------
   718 ;; Estimated maximum stack depth 6
   719 ;; ---------------------------------------------------------------------------------
   720                           
   721 ;; Call Graph Graphs:
   722                           
   723 ;; _main (ROOT)
   724 ;;   _SYSTEM_INIT
   725 ;;     _DelayMs
   726 ;;   _LCD_INIT
   727 ;;     _DelayMs
   728 ;;     _Lcd_Write
   729 ;;   _UART_INIT
   730 ;;     ___aldiv
   731 ;;   _Lcd_Write
   732 ;;   _DelayMs
   733 ;;
   734 ;; _ISR (ROOT)
   735 ;;   _Display_In_Lcd
   736 ;;     _Lcd_String
   737 ;;       i1_Lcd_Write
   738 ;;       i1_DelayMs
   739 ;;     i1_Lcd_Write
   740 ;;   _SendByteSerially
   741 ;;
   742                           
   743 ;; Address spaces:
   744                           
   745 ;;Name               Size   Autos  Total    Cost      Usage
   746 ;;SFR3                 0      0       0       4        0.0%
   747 ;;BITSFR3              0      0       0       4        0.0%
   748 ;;BANK2               50      0       0       7        0.0%
   749 ;;BITBANK2            50      0       0       6        0.0%
   750 ;;SFR2                 0      0       0       5        0.0%
   751 ;;BITSFR2              0      0       0       5        0.0%
   752 ;;SFR1                 0      0       0       2        0.0%
   753 ;;BITSFR1              0      0       0       2        0.0%
   754 ;;BANK1               50      0       0       5        0.0%
   755 ;;BITBANK1            50      0       0       4        0.0%
   756 ;;CODE                 0      0       0       0        0.0%
   757 ;;DATA                 0      0      3D      10        0.0%
   758 ;;ABS                  0      0      33       8        0.0%
   759 ;;NULL                 0      0       0       0        0.0%
   760 ;;STACK                0      0       A       2        0.0%
   761 ;;BANK0               50     1B      25       3       46.3%
   762 ;;BITBANK0            50      0       0       9        0.0%
   763 ;;SFR0                 0      0       0       1        0.0%
   764 ;;BITSFR0              0      0       0       1        0.0%
   765 ;;COMMON               E      E       E       1      100.0%
   766 ;;BITCOMMON            E      0       0       0        0.0%
   767 ;;EEDATA             100      0       0       0        0.0%
   768                           
   769                           	global	_main
   770                           psect	maintext,global,class=CODE,delta=2
   771                           global __pmaintext
   772  03AC                     __pmaintext:
   773                           
   774 ;; *************** function _main *****************
   775 ;; Defined at:
   776 ;;		line 62 in file "F:\BEVERAGES_ENHANCEMENT\SOFTWARE_DESIGN\SLAVE_PIC_16F690\2015_09_13\main.c"
   777 ;; Parameters:    Size  Location     Type
   778 ;;		None
   779 ;; Auto vars:     Size  Location     Type
   780 ;;		None
   781 ;; Return value:  Size  Location     Type
   782 ;;		None               void
   783 ;; Registers used:
   784 ;;		wreg, status,2, status,0, pclath, cstack
   785 ;; Tracked objects:
   786 ;;		On entry : 17F/0
   787 ;;		On exit  : 0/0
   788 ;;		Unchanged: 0/0
   789 ;; Data sizes:     COMMON   BANK0   BANK1   BANK2
   790 ;;      Params:         0       0       0       0
   791 ;;      Locals:         0       0       0       0
   792 ;;      Temps:          0       0       0       0
   793 ;;      Totals:         0       0       0       0
   794 ;;Total ram usage:        0 bytes
   795 ;; Hardware stack levels required when called:    6
   796 ;; This function calls:
   797 ;;		_SYSTEM_INIT
   798 ;;		_LCD_INIT
   799 ;;		_UART_INIT
   800 ;;		_Lcd_Write
   801 ;;		_DelayMs
   802 ;; This function is called by:
   803 ;;		Startup code after reset
   804 ;; This function uses a non-reentrant model
   805 ;;
   806                           psect	maintext
   807                           	file	"F:\BEVERAGES_ENHANCEMENT\SOFTWARE_DESIGN\SLAVE_PIC_16F690\2015_09_13\main.c"
   808                           	line	62
   809                           	global	__size_of_main
   810  0029                     	__size_of_main	equ	__end_of_main-_main
   811                           	
   812  03AC                     _main:	
   813                           	opt	stack 2
   814                           ; Regs used in _main: [wreg+status,2+status,0+pclath+cstack]
   815                           	line	63
   816                           	
   817  03AC                     l3804:	
   818                           ;main.c: 63: SYSTEM_INIT();
   819  03AC  118A  2442  118A   	fcall	_SYSTEM_INIT
   820                           	line	64
   821                           ;main.c: 64: LCD_INIT();
   822  03AF  118A  2231  118A   	fcall	_LCD_INIT
   823                           	line	65
   824                           ;main.c: 65: UART_INIT(38400);
   825  03B2  3000               	movlw	0
   826  03B3  1283               	bcf	status, 5	;RP0=0, select bank0
   827  03B4  1303               	bcf	status, 6	;RP1=0, select bank0
   828  03B5  00B6               	movwf	(?_UART_INIT+3)
   829  03B6  3000               	movlw	0
   830  03B7  00B5               	movwf	(?_UART_INIT+2)
   831  03B8  3096               	movlw	096h
   832  03B9  00B4               	movwf	(?_UART_INIT+1)
   833  03BA  3000               	movlw	0
   834  03BB  00B3               	movwf	(?_UART_INIT)
   835                           
   836  03BC  118A  2372  118A   	fcall	_UART_INIT
   837                           	line	66
   838                           ;main.c: 66: (Lcd_Write( 0, 0X01),DelayMs(2));
   839  03BF  1283               	bcf	status, 5	;RP0=0, select bank0
   840  03C0  1303               	bcf	status, 6	;RP1=0, select bank0
   841  03C1  01A4               	clrf	(?_Lcd_Write)
   842  03C2  1403               	bsf	status,0
   843  03C3  0DA4               	rlf	(?_Lcd_Write),f
   844  03C4  3000               	movlw	(0)
   845  03C5  118A  228C  118A   	fcall	_Lcd_Write
   846  03C8  3002               	movlw	low(02h)
   847  03C9  1283               	bcf	status, 5	;RP0=0, select bank0
   848  03CA  1303               	bcf	status, 6	;RP1=0, select bank0
   849  03CB  00A4               	movwf	(?_DelayMs)
   850  03CC  3000               	movlw	high(02h)
   851  03CD  00A5               	movwf	((?_DelayMs))+1
   852  03CE  118A  23FE  118A   	fcall	_DelayMs
   853  03D1  2BD2               	goto	l995
   854                           	line	67
   855                           ;main.c: 67: while(1)
   856                           	
   857  03D2                     l994:	
   858                           	line	71
   859                           ;main.c: 68: {
   860                           	
   861  03D2                     l995:	
   862                           	line	67
   863  03D2  2BD2               	goto	l995
   864                           	
   865  03D3                     l996:	
   866                           	line	72
   867                           	
   868  03D3                     l997:	
   869                           	global	start
   870  03D3  118A  2811         	ljmp	start
   871                           	opt stack 0
   872                           GLOBAL	__end_of_main
   873  03D5                     	__end_of_main:
   874 ;; =============== function _main ends ============
   875                           
   876                           	signat	_main,88
   877                           	global	_SYSTEM_INIT
   878                           psect	text318,local,class=CODE,delta=2
   879                           global __ptext318
   880  0442                     __ptext318:
   881                           
   882 ;; *************** function _SYSTEM_INIT *****************
   883 ;; Defined at:
   884 ;;		line 38 in file "F:\BEVERAGES_ENHANCEMENT\SOFTWARE_DESIGN\SLAVE_PIC_16F690\2015_09_13\main.c"
   885 ;; Parameters:    Size  Location     Type
   886 ;;		None
   887 ;; Auto vars:     Size  Location     Type
   888 ;;		None
   889 ;; Return value:  Size  Location     Type
   890 ;;		None               void
   891 ;; Registers used:
   892 ;;		wreg, status,2, status,0, pclath, cstack
   893 ;; Tracked objects:
   894 ;;		On entry : 0/0
   895 ;;		On exit  : 0/0
   896 ;;		Unchanged: 0/0
   897 ;; Data sizes:     COMMON   BANK0   BANK1   BANK2
   898 ;;      Params:         0       0       0       0
   899 ;;      Locals:         0       0       0       0
   900 ;;      Temps:          0       0       0       0
   901 ;;      Totals:         0       0       0       0
   902 ;;Total ram usage:        0 bytes
   903 ;; Hardware stack levels used:    1
   904 ;; Hardware stack levels required when called:    5
   905 ;; This function calls:
   906 ;;		_DelayMs
   907 ;; This function is called by:
   908 ;;		_main
   909 ;; This function uses a non-reentrant model
   910 ;;
   911                           psect	text318
   912                           	file	"F:\BEVERAGES_ENHANCEMENT\SOFTWARE_DESIGN\SLAVE_PIC_16F690\2015_09_13\main.c"
   913                           	line	38
   914                           	global	__size_of_SYSTEM_INIT
   915  001A                     	__size_of_SYSTEM_INIT	equ	__end_of_SYSTEM_INIT-_SYSTEM_INIT
   916                           	
   917  0442                     _SYSTEM_INIT:	
   918                           	opt	stack 2
   919                           ; Regs used in _SYSTEM_INIT: [wreg+status,2+status,0+pclath+cstack]
   920                           	line	39
   921                           	
   922  0442                     l3794:	
   923                           ;main.c: 39: IRCF2 = 1;
   924  0442  1683               	bsf	status, 5	;RP0=1, select bank1
   925  0443  1303               	bcf	status, 6	;RP1=0, select bank1
   926  0444  170F               	bsf	(1150/8)^080h,(1150)&7
   927                           	line	40
   928                           ;main.c: 40: IRCF1 = 1;
   929  0445  168F               	bsf	(1149/8)^080h,(1149)&7
   930                           	line	41
   931                           ;main.c: 41: IRCF0 = 1;
   932  0446  160F               	bsf	(1148/8)^080h,(1148)&7
   933                           	line	43
   934                           	
   935  0447                     l3796:	
   936                           ;main.c: 43: ANSEL = 0x00;
   937  0447  1283               	bcf	status, 5	;RP0=0, select bank2
   938  0448  1703               	bsf	status, 6	;RP1=1, select bank2
   939  0449  019E               	clrf	(286)^0100h	;volatile
   940                           	line	44
   941                           ;main.c: 44: ANSELH = 0x00;
   942  044A  019F               	clrf	(287)^0100h	;volatile
   943                           	line	46
   944                           ;main.c: 46: TRISA = 0b00000000;
   945  044B  1683               	bsf	status, 5	;RP0=1, select bank1
   946  044C  1303               	bcf	status, 6	;RP1=0, select bank1
   947  044D  0185               	clrf	(133)^080h	;volatile
   948                           	line	47
   949                           ;main.c: 47: TRISC = 0b00000000;
   950  044E  0187               	clrf	(135)^080h	;volatile
   951                           	line	49
   952                           	
   953  044F                     l3798:	
   954                           ;main.c: 49: WPUA2 = 1;
   955  044F  1515               	bsf	(1194/8)^080h,(1194)&7
   956                           	line	50
   957                           	
   958  0450                     l3800:	
   959                           ;main.c: 50: nRABPU = 0;
   960  0450  1381               	bcf	(1039/8)^080h,(1039)&7
   961                           	line	52
   962                           ;main.c: 52: PORTC = 0;
   963  0451  1283               	bcf	status, 5	;RP0=0, select bank0
   964  0452  1303               	bcf	status, 6	;RP1=0, select bank0
   965  0453  0187               	clrf	(7)	;volatile
   966                           	line	54
   967                           	
   968  0454                     l3802:	
   969                           ;main.c: 54: DelayMs(100);
   970  0454  3064               	movlw	low(064h)
   971  0455  00A4               	movwf	(?_DelayMs)
   972  0456  3000               	movlw	high(064h)
   973  0457  00A5               	movwf	((?_DelayMs))+1
   974  0458  118A  23FE  118A   	fcall	_DelayMs
   975                           	line	55
   976                           	
   977  045B                     l991:	
   978  045B  0008               	return
   979                           	opt stack 0
   980                           GLOBAL	__end_of_SYSTEM_INIT
   981  045C                     	__end_of_SYSTEM_INIT:
   982 ;; =============== function _SYSTEM_INIT ends ============
   983                           
   984                           	signat	_SYSTEM_INIT,88
   985                           	global	_UART_INIT
   986                           psect	text319,local,class=CODE,delta=2
   987                           global __ptext319
   988  0372                     __ptext319:
   989                           
   990 ;; *************** function _UART_INIT *****************
   991 ;; Defined at:
   992 ;;		line 2 in file "F:\BEVERAGES_ENHANCEMENT\SOFTWARE_DESIGN\SLAVE_PIC_16F690\2015_09_13\uart.h"
   993 ;; Parameters:    Size  Location     Type
   994 ;;  baudrate        4   19[BANK0 ] const long 
   995 ;; Auto vars:     Size  Location     Type
   996 ;;		None
   997 ;; Return value:  Size  Location     Type
   998 ;;		None               void
   999 ;; Registers used:
  1000 ;;		wreg, status,2, status,0, pclath, cstack
  1001 ;; Tracked objects:
  1002 ;;		On entry : 0/0
  1003 ;;		On exit  : 0/0
  1004 ;;		Unchanged: 0/0
  1005 ;; Data sizes:     COMMON   BANK0   BANK1   BANK2
  1006 ;;      Params:         0       4       0       0
  1007 ;;      Locals:         0       0       0       0
  1008 ;;      Temps:          0       4       0       0
  1009 ;;      Totals:         0       8       0       0
  1010 ;;Total ram usage:        8 bytes
  1011 ;; Hardware stack levels used:    1
  1012 ;; Hardware stack levels required when called:    5
  1013 ;; This function calls:
  1014 ;;		___aldiv
  1015 ;; This function is called by:
  1016 ;;		_main
  1017 ;; This function uses a non-reentrant model
  1018 ;;
  1019                           psect	text319
  1020                           	file	"F:\BEVERAGES_ENHANCEMENT\SOFTWARE_DESIGN\SLAVE_PIC_16F690\2015_09_13\uart.h"
  1021                           	line	2
  1022                           	global	__size_of_UART_INIT
  1023  003A                     	__size_of_UART_INIT	equ	__end_of_UART_INIT-_UART_INIT
  1024                           	
  1025  0372                     _UART_INIT:	
  1026                           	opt	stack 2
  1027                           ; Regs used in _UART_INIT: [wreg+status,2+status,0+pclath+cstack]
  1028                           	line	3
  1029                           	
  1030  0372                     l3776:	
  1031                           ;uart.h: 3: SPBRG = ((8000000)/(baudrate*16))-1;
  1032  0372  1283               	bcf	status, 5	;RP0=0, select bank0
  1033  0373  1303               	bcf	status, 6	;RP1=0, select bank0
  1034  0374  0833               	movf	(UART_INIT@baudrate),w
  1035  0375  00B7               	movwf	(??_UART_INIT+0)+0
  1036  0376  0834               	movf	(UART_INIT@baudrate+1),w
  1037  0377  00B8               	movwf	((??_UART_INIT+0)+0+1)
  1038  0378  0835               	movf	(UART_INIT@baudrate+2),w
  1039  0379  00B9               	movwf	((??_UART_INIT+0)+0+2)
  1040  037A  0836               	movf	(UART_INIT@baudrate+3),w
  1041  037B  00BA               	movwf	((??_UART_INIT+0)+0+3)
  1042  037C  3004               	movlw	04h
  1043  037D                     u3175:
  1044  037D  1003               	clrc
  1045  037E  0DB7               	rlf	(??_UART_INIT+0)+0,f
  1046  037F  0DB8               	rlf	(??_UART_INIT+0)+1,f
  1047  0380  0DB9               	rlf	(??_UART_INIT+0)+2,f
  1048  0381  0DBA               	rlf	(??_UART_INIT+0)+3,f
  1049  0382                     u3170:
  1050  0382  3EFF               	addlw	-1
  1051  0383  1D03               	skipz
  1052  0384  2B7D               	goto	u3175
  1053  0385  083A               	movf	3+(??_UART_INIT+0)+0,w
  1054  0386  00A7               	movwf	(?___aldiv+3)
  1055  0387  0839               	movf	2+(??_UART_INIT+0)+0,w
  1056  0388  00A6               	movwf	(?___aldiv+2)
  1057  0389  0838               	movf	1+(??_UART_INIT+0)+0,w
  1058  038A  00A5               	movwf	(?___aldiv+1)
  1059  038B  0837               	movf	0+(??_UART_INIT+0)+0,w
  1060  038C  00A4               	movwf	(?___aldiv)
  1061                           
  1062  038D  3000               	movlw	0
  1063  038E  00AB               	movwf	3+(?___aldiv)+04h
  1064  038F  307A               	movlw	07Ah
  1065  0390  00AA               	movwf	2+(?___aldiv)+04h
  1066  0391  3012               	movlw	012h
  1067  0392  00A9               	movwf	1+(?___aldiv)+04h
  1068  0393  3000               	movlw	0
  1069  0394  00A8               	movwf	0+(?___aldiv)+04h
  1070                           
  1071  0395  118A  2189  118A   	fcall	___aldiv
  1072  0398  1283               	bcf	status, 5	;RP0=0, select bank0
  1073  0399  1303               	bcf	status, 6	;RP1=0, select bank0
  1074  039A  0824               	movf	0+(((0+(?___aldiv)))),w
  1075  039B  3EFF               	addlw	0FFh
  1076  039C  1683               	bsf	status, 5	;RP0=1, select bank1
  1077  039D  1303               	bcf	status, 6	;RP1=0, select bank1
  1078  039E  0099               	movwf	(153)^080h	;volatile
  1079                           	line	5
  1080                           	
  1081  039F                     l3778:	
  1082                           ;uart.h: 5: BRGH = 1;
  1083  039F  1518               	bsf	(1218/8)^080h,(1218)&7
  1084                           	line	6
  1085                           	
  1086  03A0                     l3780:	
  1087                           ;uart.h: 6: SYNC = 0;
  1088  03A0  1218               	bcf	(1220/8)^080h,(1220)&7
  1089                           	line	7
  1090                           	
  1091  03A1                     l3782:	
  1092                           ;uart.h: 7: SPEN = 1;
  1093  03A1  1283               	bcf	status, 5	;RP0=0, select bank0
  1094  03A2  1303               	bcf	status, 6	;RP1=0, select bank0
  1095  03A3  1798               	bsf	(199/8),(199)&7
  1096                           	line	9
  1097                           	
  1098  03A4                     l3784:	
  1099                           ;uart.h: 9: CREN = 1;
  1100  03A4  1618               	bsf	(196/8),(196)&7
  1101                           	line	10
  1102                           	
  1103  03A5                     l3786:	
  1104                           ;uart.h: 10: TXEN = 1;
  1105  03A5  1683               	bsf	status, 5	;RP0=1, select bank1
  1106  03A6  1303               	bcf	status, 6	;RP1=0, select bank1
  1107  03A7  1698               	bsf	(1221/8)^080h,(1221)&7
  1108                           	line	12
  1109                           	
  1110  03A8                     l3788:	
  1111                           ;uart.h: 12: GIE = 1;
  1112  03A8  178B               	bsf	(95/8),(95)&7
  1113                           	line	13
  1114                           	
  1115  03A9                     l3790:	
  1116                           ;uart.h: 13: PEIE = 1;
  1117  03A9  170B               	bsf	(94/8),(94)&7
  1118                           	line	14
  1119                           	
  1120  03AA                     l3792:	
  1121                           ;uart.h: 14: RCIE = 1;
  1122  03AA  168C               	bsf	(1125/8)^080h,(1125)&7
  1123                           	line	15
  1124                           	
  1125  03AB                     l940:	
  1126  03AB  0008               	return
  1127                           	opt stack 0
  1128                           GLOBAL	__end_of_UART_INIT
  1129  03AC                     	__end_of_UART_INIT:
  1130 ;; =============== function _UART_INIT ends ============
  1131                           
  1132                           	signat	_UART_INIT,4216
  1133                           	global	_LCD_INIT
  1134                           psect	text320,local,class=CODE,delta=2
  1135                           global __ptext320
  1136  0231                     __ptext320:
  1137                           
  1138 ;; *************** function _LCD_INIT *****************
  1139 ;; Defined at:
  1140 ;;		line 27 in file "F:\BEVERAGES_ENHANCEMENT\SOFTWARE_DESIGN\SLAVE_PIC_16F690\2015_09_13\lcd.h"
  1141 ;; Parameters:    Size  Location     Type
  1142 ;;		None
  1143 ;; Auto vars:     Size  Location     Type
  1144 ;;  _dcnt           2   13[BANK0 ] unsigned int 
  1145 ;; Return value:  Size  Location     Type
  1146 ;;		None               void
  1147 ;; Registers used:
  1148 ;;		wreg, status,2, status,0, pclath, cstack
  1149 ;; Tracked objects:
  1150 ;;		On entry : 0/0
  1151 ;;		On exit  : 0/0
  1152 ;;		Unchanged: 0/0
  1153 ;; Data sizes:     COMMON   BANK0   BANK1   BANK2
  1154 ;;      Params:         0       0       0       0
  1155 ;;      Locals:         0       2       0       0
  1156 ;;      Temps:          0       1       0       0
  1157 ;;      Totals:         0       3       0       0
  1158 ;;Total ram usage:        3 bytes
  1159 ;; Hardware stack levels used:    1
  1160 ;; Hardware stack levels required when called:    5
  1161 ;; This function calls:
  1162 ;;		_DelayMs
  1163 ;;		_Lcd_Write
  1164 ;; This function is called by:
  1165 ;;		_main
  1166 ;; This function uses a non-reentrant model
  1167 ;;
  1168                           psect	text320
  1169                           	file	"F:\BEVERAGES_ENHANCEMENT\SOFTWARE_DESIGN\SLAVE_PIC_16F690\2015_09_13\lcd.h"
  1170                           	line	27
  1171                           	global	__size_of_LCD_INIT
  1172  005B                     	__size_of_LCD_INIT	equ	__end_of_LCD_INIT-_LCD_INIT
  1173                           	
  1174  0231                     _LCD_INIT:	
  1175                           	opt	stack 2
  1176                           ; Regs used in _LCD_INIT: [wreg+status,2+status,0+pclath+cstack]
  1177                           	line	28
  1178                           	
  1179  0231                     l3746:	
  1180                           ;lcd.h: 28: RA4 = 0;
  1181  0231  1283               	bcf	status, 5	;RP0=0, select bank0
  1182  0232  1303               	bcf	status, 6	;RP1=0, select bank0
  1183  0233  1205               	bcf	(44/8),(44)&7
  1184                           	line	29
  1185                           ;lcd.h: 29: RA5 = 0;
  1186  0234  1285               	bcf	(45/8),(45)&7
  1187                           	line	31
  1188                           	
  1189  0235                     l3748:	
  1190                           ;lcd.h: 31: DelayMs(50);
  1191  0235  3032               	movlw	low(032h)
  1192  0236  00A4               	movwf	(?_DelayMs)
  1193  0237  3000               	movlw	high(032h)
  1194  0238  00A5               	movwf	((?_DelayMs))+1
  1195  0239  118A  23FE  118A   	fcall	_DelayMs
  1196                           	line	32
  1197                           	
  1198  023C                     l3750:	
  1199                           ;lcd.h: 32: PORTC= (PORTC & 0x0F) | ( ( 0x3 << 4 ) & 0xF0 );
  1200  023C  1283               	bcf	status, 5	;RP0=0, select bank0
  1201  023D  1303               	bcf	status, 6	;RP1=0, select bank0
  1202  023E  0807               	movf	(7),w
  1203  023F  390F               	andlw	0Fh
  1204  0240  3830               	iorlw	030h
  1205  0241  0087               	movwf	(7)	;volatile
  1206                           	line	33
  1207                           	
  1208  0242                     l3752:	
  1209                           ;lcd.h: 33: ((RA5 = 1),(RA5=0));
  1210  0242  1685               	bsf	(45/8),(45)&7
  1211                           	
  1212  0243                     l3754:	
  1213  0243  1285               	bcf	(45/8),(45)&7
  1214                           	line	34
  1215                           	
  1216  0244                     l3756:	
  1217                           ;lcd.h: 34: { unsigned int _dcnt; _dcnt = (200)/7.5; while(--_dcnt != 0) continue; };
  1218  0244  301A               	movlw	low(01Ah)
  1219  0245  00AD               	movwf	(LCD_INIT@_dcnt)
  1220  0246  3000               	movlw	high(01Ah)
  1221  0247  00AE               	movwf	((LCD_INIT@_dcnt))+1
  1222  0248  2A4A               	goto	l3758
  1223                           	
  1224  0249                     l909:	
  1225  0249  2A4A               	goto	l3758
  1226                           	
  1227  024A                     l908:	
  1228                           	
  1229  024A                     l3758:	
  1230  024A  3001               	movlw	low(01h)
  1231  024B  02AD               	subwf	(LCD_INIT@_dcnt),f
  1232  024C  3000               	movlw	high(01h)
  1233  024D  1C03               	skipc
  1234  024E  03AE               	decf	(LCD_INIT@_dcnt+1),f
  1235  024F  02AE               	subwf	(LCD_INIT@_dcnt+1),f
  1236  0250  082E               	movf	(((LCD_INIT@_dcnt+1))),w
  1237  0251  042D               	iorwf	(((LCD_INIT@_dcnt))),w
  1238  0252  1D03               	skipz
  1239  0253  2A55               	goto	u3161
  1240  0254  2A56               	goto	u3160
  1241  0255                     u3161:
  1242  0255  2A4A               	goto	l3758
  1243  0256                     u3160:
  1244  0256  2A57               	goto	l3760
  1245                           	
  1246  0257                     l910:	
  1247                           	line	35
  1248                           	
  1249  0257                     l3760:	
  1250                           ;lcd.h: 35: PORTC = (PORTC & 0x0F) | ( ( 0x2 << 4 ) & 0xF0 );
  1251  0257  0807               	movf	(7),w
  1252  0258  390F               	andlw	0Fh
  1253  0259  3820               	iorlw	020h
  1254  025A  0087               	movwf	(7)	;volatile
  1255                           	line	36
  1256                           	
  1257  025B                     l3762:	
  1258                           ;lcd.h: 36: ((RA5 = 1),(RA5=0));
  1259  025B  1685               	bsf	(45/8),(45)&7
  1260                           	
  1261  025C                     l3764:	
  1262  025C  1285               	bcf	(45/8),(45)&7
  1263                           	line	38
  1264                           	
  1265  025D                     l3766:	
  1266                           ;lcd.h: 38: Lcd_Write( 0, 0x28);
  1267  025D  3028               	movlw	(028h)
  1268  025E  00AC               	movwf	(??_LCD_INIT+0)+0
  1269  025F  082C               	movf	(??_LCD_INIT+0)+0,w
  1270  0260  00A4               	movwf	(?_Lcd_Write)
  1271  0261  3000               	movlw	(0)
  1272  0262  118A  228C  118A   	fcall	_Lcd_Write
  1273                           	line	39
  1274                           	
  1275  0265                     l3768:	
  1276                           ;lcd.h: 39: Lcd_Write( 0, 0x0C);
  1277  0265  300C               	movlw	(0Ch)
  1278  0266  1283               	bcf	status, 5	;RP0=0, select bank0
  1279  0267  1303               	bcf	status, 6	;RP1=0, select bank0
  1280  0268  00AC               	movwf	(??_LCD_INIT+0)+0
  1281  0269  082C               	movf	(??_LCD_INIT+0)+0,w
  1282  026A  00A4               	movwf	(?_Lcd_Write)
  1283  026B  3000               	movlw	(0)
  1284  026C  118A  228C  118A   	fcall	_Lcd_Write
  1285                           	line	40
  1286                           	
  1287  026F                     l3770:	
  1288                           ;lcd.h: 40: (Lcd_Write( 0, 0X01),DelayMs(2));
  1289  026F  1283               	bcf	status, 5	;RP0=0, select bank0
  1290  0270  1303               	bcf	status, 6	;RP1=0, select bank0
  1291  0271  01A4               	clrf	(?_Lcd_Write)
  1292  0272  1403               	bsf	status,0
  1293  0273  0DA4               	rlf	(?_Lcd_Write),f
  1294  0274  3000               	movlw	(0)
  1295  0275  118A  228C  118A   	fcall	_Lcd_Write
  1296                           	
  1297  0278                     l3772:	
  1298  0278  3002               	movlw	low(02h)
  1299  0279  1283               	bcf	status, 5	;RP0=0, select bank0
  1300  027A  1303               	bcf	status, 6	;RP1=0, select bank0
  1301  027B  00A4               	movwf	(?_DelayMs)
  1302  027C  3000               	movlw	high(02h)
  1303  027D  00A5               	movwf	((?_DelayMs))+1
  1304  027E  118A  23FE  118A   	fcall	_DelayMs
  1305                           	line	41
  1306                           	
  1307  0281                     l3774:	
  1308                           ;lcd.h: 41: Lcd_Write( 0, 0x06);
  1309  0281  3006               	movlw	(06h)
  1310  0282  1283               	bcf	status, 5	;RP0=0, select bank0
  1311  0283  1303               	bcf	status, 6	;RP1=0, select bank0
  1312  0284  00AC               	movwf	(??_LCD_INIT+0)+0
  1313  0285  082C               	movf	(??_LCD_INIT+0)+0,w
  1314  0286  00A4               	movwf	(?_Lcd_Write)
  1315  0287  3000               	movlw	(0)
  1316  0288  118A  228C  118A   	fcall	_Lcd_Write
  1317                           	line	42
  1318                           	
  1319  028B                     l911:	
  1320  028B  0008               	return
  1321                           	opt stack 0
  1322                           GLOBAL	__end_of_LCD_INIT
  1323  028C                     	__end_of_LCD_INIT:
  1324 ;; =============== function _LCD_INIT ends ============
  1325                           
  1326                           	signat	_LCD_INIT,88
  1327                           	global	___aldiv
  1328                           psect	text321,local,class=CODE,delta=2
  1329                           global __ptext321
  1330  0189                     __ptext321:
  1331                           
  1332 ;; *************** function ___aldiv *****************
  1333 ;; Defined at:
  1334 ;;		line 5 in file "C:\Program Files\HI-TECH Software\PICC\9.82\sources\aldiv.c"
  1335 ;; Parameters:    Size  Location     Type
  1336 ;;  divisor         4    4[BANK0 ] long 
  1337 ;;  dividend        4    8[BANK0 ] long 
  1338 ;; Auto vars:     Size  Location     Type
  1339 ;;  quotient        4   15[BANK0 ] long 
  1340 ;;  sign            1   14[BANK0 ] unsigned char 
  1341 ;;  counter         1   13[BANK0 ] unsigned char 
  1342 ;; Return value:  Size  Location     Type
  1343 ;;                  4    4[BANK0 ] long 
  1344 ;; Registers used:
  1345 ;;		wreg, status,2, status,0
  1346 ;; Tracked objects:
  1347 ;;		On entry : 0/0
  1348 ;;		On exit  : 0/0
  1349 ;;		Unchanged: 0/0
  1350 ;; Data sizes:     COMMON   BANK0   BANK1   BANK2
  1351 ;;      Params:         0       8       0       0
  1352 ;;      Locals:         0       6       0       0
  1353 ;;      Temps:          0       1       0       0
  1354 ;;      Totals:         0      15       0       0
  1355 ;;Total ram usage:       15 bytes
  1356 ;; Hardware stack levels used:    1
  1357 ;; Hardware stack levels required when called:    4
  1358 ;; This function calls:
  1359 ;;		Nothing
  1360 ;; This function is called by:
  1361 ;;		_UART_INIT
  1362 ;; This function uses a non-reentrant model
  1363 ;;
  1364                           psect	text321
  1365                           	file	"C:\Program Files\HI-TECH Software\PICC\9.82\sources\aldiv.c"
  1366                           	line	5
  1367                           	global	__size_of___aldiv
  1368  00A8                     	__size_of___aldiv	equ	__end_of___aldiv-___aldiv
  1369                           	
  1370  0189                     ___aldiv:	
  1371                           	opt	stack 2
  1372                           ; Regs used in ___aldiv: [wreg+status,2+status,0]
  1373                           	line	9
  1374                           	
  1375  0189                     l3684:	
  1376  0189  1283               	bcf	status, 5	;RP0=0, select bank0
  1377  018A  1303               	bcf	status, 6	;RP1=0, select bank0
  1378  018B  01AE               	clrf	(___aldiv@sign)
  1379                           	line	10
  1380  018C  1FA7               	btfss	(___aldiv@divisor+3),7
  1381  018D  298F               	goto	u3011
  1382  018E  2990               	goto	u3010
  1383  018F                     u3011:
  1384  018F  299F               	goto	l3690
  1385  0190                     u3010:
  1386                           	line	11
  1387                           	
  1388  0190                     l3686:	
  1389  0190  09A4               	comf	(___aldiv@divisor),f
  1390  0191  09A5               	comf	(___aldiv@divisor+1),f
  1391  0192  09A6               	comf	(___aldiv@divisor+2),f
  1392  0193  09A7               	comf	(___aldiv@divisor+3),f
  1393  0194  0AA4               	incf	(___aldiv@divisor),f
  1394  0195  1903               	skipnz
  1395  0196  0AA5               	incf	(___aldiv@divisor+1),f
  1396  0197  1903               	skipnz
  1397  0198  0AA6               	incf	(___aldiv@divisor+2),f
  1398  0199  1903               	skipnz
  1399  019A  0AA7               	incf	(___aldiv@divisor+3),f
  1400                           	line	12
  1401                           	
  1402  019B                     l3688:	
  1403  019B  01AE               	clrf	(___aldiv@sign)
  1404  019C  1403               	bsf	status,0
  1405  019D  0DAE               	rlf	(___aldiv@sign),f
  1406  019E  299F               	goto	l3690
  1407                           	line	13
  1408                           	
  1409  019F                     l2051:	
  1410                           	line	14
  1411                           	
  1412  019F                     l3690:	
  1413  019F  1FAB               	btfss	(___aldiv@dividend+3),7
  1414  01A0  29A2               	goto	u3021
  1415  01A1  29A3               	goto	u3020
  1416  01A2                     u3021:
  1417  01A2  29B3               	goto	l3696
  1418  01A3                     u3020:
  1419                           	line	15
  1420                           	
  1421  01A3                     l3692:	
  1422  01A3  09A8               	comf	(___aldiv@dividend),f
  1423  01A4  09A9               	comf	(___aldiv@dividend+1),f
  1424  01A5  09AA               	comf	(___aldiv@dividend+2),f
  1425  01A6  09AB               	comf	(___aldiv@dividend+3),f
  1426  01A7  0AA8               	incf	(___aldiv@dividend),f
  1427  01A8  1903               	skipnz
  1428  01A9  0AA9               	incf	(___aldiv@dividend+1),f
  1429  01AA  1903               	skipnz
  1430  01AB  0AAA               	incf	(___aldiv@dividend+2),f
  1431  01AC  1903               	skipnz
  1432  01AD  0AAB               	incf	(___aldiv@dividend+3),f
  1433                           	line	16
  1434                           	
  1435  01AE                     l3694:	
  1436  01AE  3001               	movlw	(01h)
  1437  01AF  00AC               	movwf	(??___aldiv+0)+0
  1438  01B0  082C               	movf	(??___aldiv+0)+0,w
  1439  01B1  06AE               	xorwf	(___aldiv@sign),f
  1440  01B2  29B3               	goto	l3696
  1441                           	line	17
  1442                           	
  1443  01B3                     l2052:	
  1444                           	line	18
  1445                           	
  1446  01B3                     l3696:	
  1447  01B3  3000               	movlw	0
  1448  01B4  00B2               	movwf	(___aldiv@quotient+3)
  1449  01B5  3000               	movlw	0
  1450  01B6  00B1               	movwf	(___aldiv@quotient+2)
  1451  01B7  3000               	movlw	0
  1452  01B8  00B0               	movwf	(___aldiv@quotient+1)
  1453  01B9  3000               	movlw	0
  1454  01BA  00AF               	movwf	(___aldiv@quotient)
  1455                           
  1456                           	line	19
  1457                           	
  1458  01BB                     l3698:	
  1459  01BB  0827               	movf	(___aldiv@divisor+3),w
  1460  01BC  0426               	iorwf	(___aldiv@divisor+2),w
  1461  01BD  0425               	iorwf	(___aldiv@divisor+1),w
  1462  01BE  0424               	iorwf	(___aldiv@divisor),w
  1463  01BF  1903               	skipnz
  1464  01C0  29C2               	goto	u3031
  1465  01C1  29C3               	goto	u3030
  1466  01C2                     u3031:
  1467  01C2  2A17               	goto	l3718
  1468  01C3                     u3030:
  1469                           	line	20
  1470                           	
  1471  01C3                     l3700:	
  1472  01C3  01AD               	clrf	(___aldiv@counter)
  1473  01C4  1403               	bsf	status,0
  1474  01C5  0DAD               	rlf	(___aldiv@counter),f
  1475                           	line	21
  1476  01C6  29D5               	goto	l3704
  1477                           	
  1478  01C7                     l2055:	
  1479                           	line	22
  1480                           	
  1481  01C7                     l3702:	
  1482  01C7  3001               	movlw	01h
  1483  01C8  00AC               	movwf	(??___aldiv+0)+0
  1484  01C9                     u3045:
  1485  01C9  1003               	clrc
  1486  01CA  0DA4               	rlf	(___aldiv@divisor),f
  1487  01CB  0DA5               	rlf	(___aldiv@divisor+1),f
  1488  01CC  0DA6               	rlf	(___aldiv@divisor+2),f
  1489  01CD  0DA7               	rlf	(___aldiv@divisor+3),f
  1490  01CE  0BAC               	decfsz	(??___aldiv+0)+0
  1491  01CF  29C9               	goto	u3045
  1492                           	line	23
  1493  01D0  3001               	movlw	(01h)
  1494  01D1  00AC               	movwf	(??___aldiv+0)+0
  1495  01D2  082C               	movf	(??___aldiv+0)+0,w
  1496  01D3  07AD               	addwf	(___aldiv@counter),f
  1497  01D4  29D5               	goto	l3704
  1498                           	line	24
  1499                           	
  1500  01D5                     l2054:	
  1501                           	line	21
  1502                           	
  1503  01D5                     l3704:	
  1504  01D5  1FA7               	btfss	(___aldiv@divisor+3),(31)&7
  1505  01D6  29D8               	goto	u3051
  1506  01D7  29D9               	goto	u3050
  1507  01D8                     u3051:
  1508  01D8  29C7               	goto	l3702
  1509  01D9                     u3050:
  1510  01D9  29DB               	goto	l3706
  1511                           	
  1512  01DA                     l2056:	
  1513  01DA  29DB               	goto	l3706
  1514                           	line	25
  1515                           	
  1516  01DB                     l2057:	
  1517                           	line	26
  1518                           	
  1519  01DB                     l3706:	
  1520  01DB  3001               	movlw	01h
  1521  01DC  00AC               	movwf	(??___aldiv+0)+0
  1522  01DD                     u3065:
  1523  01DD  1003               	clrc
  1524  01DE  0DAF               	rlf	(___aldiv@quotient),f
  1525  01DF  0DB0               	rlf	(___aldiv@quotient+1),f
  1526  01E0  0DB1               	rlf	(___aldiv@quotient+2),f
  1527  01E1  0DB2               	rlf	(___aldiv@quotient+3),f
  1528  01E2  0BAC               	decfsz	(??___aldiv+0)+0
  1529  01E3  29DD               	goto	u3065
  1530                           	line	27
  1531                           	
  1532  01E4                     l3708:	
  1533  01E4  0827               	movf	(___aldiv@divisor+3),w
  1534  01E5  022B               	subwf	(___aldiv@dividend+3),w
  1535  01E6  1D03               	skipz
  1536  01E7  29F2               	goto	u3075
  1537  01E8  0826               	movf	(___aldiv@divisor+2),w
  1538  01E9  022A               	subwf	(___aldiv@dividend+2),w
  1539  01EA  1D03               	skipz
  1540  01EB  29F2               	goto	u3075
  1541  01EC  0825               	movf	(___aldiv@divisor+1),w
  1542  01ED  0229               	subwf	(___aldiv@dividend+1),w
  1543  01EE  1D03               	skipz
  1544  01EF  29F2               	goto	u3075
  1545  01F0  0824               	movf	(___aldiv@divisor),w
  1546  01F1  0228               	subwf	(___aldiv@dividend),w
  1547  01F2                     u3075:
  1548  01F2  1C03               	skipc
  1549  01F3  29F5               	goto	u3071
  1550  01F4  29F6               	goto	u3070
  1551  01F5                     u3071:
  1552  01F5  2A06               	goto	l3714
  1553  01F6                     u3070:
  1554                           	line	28
  1555                           	
  1556  01F6                     l3710:	
  1557  01F6  0824               	movf	(___aldiv@divisor),w
  1558  01F7  02A8               	subwf	(___aldiv@dividend),f
  1559  01F8  0825               	movf	(___aldiv@divisor+1),w
  1560  01F9  1C03               	skipc
  1561  01FA  0F25               	incfsz	(___aldiv@divisor+1),w
  1562  01FB  02A9               	subwf	(___aldiv@dividend+1),f
  1563  01FC  0826               	movf	(___aldiv@divisor+2),w
  1564  01FD  1C03               	skipc
  1565  01FE  0F26               	incfsz	(___aldiv@divisor+2),w
  1566  01FF  02AA               	subwf	(___aldiv@dividend+2),f
  1567  0200  0827               	movf	(___aldiv@divisor+3),w
  1568  0201  1C03               	skipc
  1569  0202  0F27               	incfsz	(___aldiv@divisor+3),w
  1570  0203  02AB               	subwf	(___aldiv@dividend+3),f
  1571                           	line	29
  1572                           	
  1573  0204                     l3712:	
  1574  0204  142F               	bsf	(___aldiv@quotient)+(0/8),(0)&7
  1575  0205  2A06               	goto	l3714
  1576                           	line	30
  1577                           	
  1578  0206                     l2058:	
  1579                           	line	31
  1580                           	
  1581  0206                     l3714:	
  1582  0206  3001               	movlw	01h
  1583  0207                     u3085:
  1584  0207  1003               	clrc
  1585  0208  0CA7               	rrf	(___aldiv@divisor+3),f
  1586  0209  0CA6               	rrf	(___aldiv@divisor+2),f
  1587  020A  0CA5               	rrf	(___aldiv@divisor+1),f
  1588  020B  0CA4               	rrf	(___aldiv@divisor),f
  1589  020C  3EFF               	addlw	-1
  1590  020D  1D03               	skipz
  1591  020E  2A07               	goto	u3085
  1592                           
  1593                           	line	32
  1594                           	
  1595  020F                     l3716:	
  1596  020F  3001               	movlw	low(01h)
  1597  0210  02AD               	subwf	(___aldiv@counter),f
  1598  0211  1D03               	btfss	status,2
  1599  0212  2A14               	goto	u3091
  1600  0213  2A15               	goto	u3090
  1601  0214                     u3091:
  1602  0214  29DB               	goto	l3706
  1603  0215                     u3090:
  1604  0215  2A17               	goto	l3718
  1605                           	
  1606  0216                     l2059:	
  1607  0216  2A17               	goto	l3718
  1608                           	line	33
  1609                           	
  1610  0217                     l2053:	
  1611                           	line	34
  1612                           	
  1613  0217                     l3718:	
  1614  0217  082E               	movf	(___aldiv@sign),w
  1615  0218  1D03               	skipz
  1616  0219  2A1B               	goto	u3100
  1617  021A  2A27               	goto	l3722
  1618  021B                     u3100:
  1619                           	line	35
  1620                           	
  1621  021B                     l3720:	
  1622  021B  09AF               	comf	(___aldiv@quotient),f
  1623  021C  09B0               	comf	(___aldiv@quotient+1),f
  1624  021D  09B1               	comf	(___aldiv@quotient+2),f
  1625  021E  09B2               	comf	(___aldiv@quotient+3),f
  1626  021F  0AAF               	incf	(___aldiv@quotient),f
  1627  0220  1903               	skipnz
  1628  0221  0AB0               	incf	(___aldiv@quotient+1),f
  1629  0222  1903               	skipnz
  1630  0223  0AB1               	incf	(___aldiv@quotient+2),f
  1631  0224  1903               	skipnz
  1632  0225  0AB2               	incf	(___aldiv@quotient+3),f
  1633  0226  2A27               	goto	l3722
  1634                           	
  1635  0227                     l2060:	
  1636                           	line	36
  1637                           	
  1638  0227                     l3722:	
  1639  0227  0832               	movf	(___aldiv@quotient+3),w
  1640  0228  00A7               	movwf	(?___aldiv+3)
  1641  0229  0831               	movf	(___aldiv@quotient+2),w
  1642  022A  00A6               	movwf	(?___aldiv+2)
  1643  022B  0830               	movf	(___aldiv@quotient+1),w
  1644  022C  00A5               	movwf	(?___aldiv+1)
  1645  022D  082F               	movf	(___aldiv@quotient),w
  1646  022E  00A4               	movwf	(?___aldiv)
  1647                           
  1648  022F  2A30               	goto	l2061
  1649                           	
  1650  0230                     l3724:	
  1651                           	line	37
  1652                           	
  1653  0230                     l2061:	
  1654  0230  0008               	return
  1655                           	opt stack 0
  1656                           GLOBAL	__end_of___aldiv
  1657  0231                     	__end_of___aldiv:
  1658 ;; =============== function ___aldiv ends ============
  1659                           
  1660                           	signat	___aldiv,8316
  1661                           	global	_Lcd_Write
  1662                           psect	text322,local,class=CODE,delta=2
  1663                           global __ptext322
  1664  028C                     __ptext322:
  1665                           
  1666 ;; *************** function _Lcd_Write *****************
  1667 ;; Defined at:
  1668 ;;		line 15 in file "F:\BEVERAGES_ENHANCEMENT\SOFTWARE_DESIGN\SLAVE_PIC_16F690\2015_09_13\lcd.h"
  1669 ;; Parameters:    Size  Location     Type
  1670 ;;  rs              1    wreg     unsigned char 
  1671 ;;  c               1    4[BANK0 ] unsigned char 
  1672 ;; Auto vars:     Size  Location     Type
  1673 ;;  rs              1   11[BANK0 ] unsigned char 
  1674 ;;  _dcnt           2    9[BANK0 ] unsigned int 
  1675 ;;  _dcnt           2    7[BANK0 ] unsigned int 
  1676 ;; Return value:  Size  Location     Type
  1677 ;;		None               void
  1678 ;; Registers used:
  1679 ;;		wreg, status,2, status,0
  1680 ;; Tracked objects:
  1681 ;;		On entry : 0/0
  1682 ;;		On exit  : 0/0
  1683 ;;		Unchanged: 0/0
  1684 ;; Data sizes:     COMMON   BANK0   BANK1   BANK2
  1685 ;;      Params:         0       1       0       0
  1686 ;;      Locals:         0       5       0       0
  1687 ;;      Temps:          0       2       0       0
  1688 ;;      Totals:         0       8       0       0
  1689 ;;Total ram usage:        8 bytes
  1690 ;; Hardware stack levels used:    1
  1691 ;; Hardware stack levels required when called:    4
  1692 ;; This function calls:
  1693 ;;		Nothing
  1694 ;; This function is called by:
  1695 ;;		_LCD_INIT
  1696 ;;		_main
  1697 ;;		_Lcd_Char
  1698 ;;		_Lcd_Goto
  1699 ;; This function uses a non-reentrant model
  1700 ;;
  1701                           psect	text322
  1702                           	file	"F:\BEVERAGES_ENHANCEMENT\SOFTWARE_DESIGN\SLAVE_PIC_16F690\2015_09_13\lcd.h"
  1703                           	line	15
  1704                           	global	__size_of_Lcd_Write
  1705  004E                     	__size_of_Lcd_Write	equ	__end_of_Lcd_Write-_Lcd_Write
  1706                           	
  1707  028C                     _Lcd_Write:	
  1708                           	opt	stack 3
  1709                           ; Regs used in _Lcd_Write: [wreg+status,2+status,0]
  1710                           ;Lcd_Write@rs stored from wreg
  1711  028C  1283               	bcf	status, 5	;RP0=0, select bank0
  1712  028D  1303               	bcf	status, 6	;RP1=0, select bank0
  1713  028E  00AB               	movwf	(Lcd_Write@rs)
  1714                           	line	16
  1715                           	
  1716  028F                     l3490:	
  1717                           ;lcd.h: 16: RA4 =rs;
  1718  028F  182B               	btfsc	(Lcd_Write@rs),0
  1719  0290  2A92               	goto	u2651
  1720  0291  2A96               	goto	u2650
  1721                           	
  1722  0292                     u2651:
  1723  0292  1283               	bcf	status, 5	;RP0=0, select bank0
  1724  0293  1303               	bcf	status, 6	;RP1=0, select bank0
  1725  0294  1605               	bsf	(44/8),(44)&7
  1726  0295  2A99               	goto	u2664
  1727  0296                     u2650:
  1728  0296  1283               	bcf	status, 5	;RP0=0, select bank0
  1729  0297  1303               	bcf	status, 6	;RP1=0, select bank0
  1730  0298  1205               	bcf	(44/8),(44)&7
  1731  0299                     u2664:
  1732                           	line	17
  1733                           	
  1734  0299                     l3492:	
  1735                           ;lcd.h: 17: { unsigned int _dcnt; _dcnt = (40)/7.5; while(--_dcnt != 0) continue; };
  1736  0299  3005               	movlw	low(05h)
  1737  029A  00A7               	movwf	(Lcd_Write@_dcnt)
  1738  029B  3000               	movlw	high(05h)
  1739  029C  00A8               	movwf	((Lcd_Write@_dcnt))+1
  1740  029D  2A9F               	goto	l3494
  1741                           	
  1742  029E                     l900:	
  1743  029E  2A9F               	goto	l3494
  1744                           	
  1745  029F                     l899:	
  1746                           	
  1747  029F                     l3494:	
  1748  029F  3001               	movlw	low(01h)
  1749  02A0  02A7               	subwf	(Lcd_Write@_dcnt),f
  1750  02A1  3000               	movlw	high(01h)
  1751  02A2  1C03               	skipc
  1752  02A3  03A8               	decf	(Lcd_Write@_dcnt+1),f
  1753  02A4  02A8               	subwf	(Lcd_Write@_dcnt+1),f
  1754  02A5  0828               	movf	(((Lcd_Write@_dcnt+1))),w
  1755  02A6  0427               	iorwf	(((Lcd_Write@_dcnt))),w
  1756  02A7  1D03               	skipz
  1757  02A8  2AAA               	goto	u2671
  1758  02A9  2AAB               	goto	u2670
  1759  02AA                     u2671:
  1760  02AA  2A9F               	goto	l3494
  1761  02AB                     u2670:
  1762  02AB  2AAC               	goto	l3496
  1763                           	
  1764  02AC                     l901:	
  1765                           	line	18
  1766                           	
  1767  02AC                     l3496:	
  1768                           ;lcd.h: 18: PORTC = (PORTC & 0x0F) | (c & 0xF0);
  1769  02AC  30F0               	movlw	(0F0h)
  1770  02AD  0524               	andwf	(Lcd_Write@c),w
  1771  02AE  00A5               	movwf	(??_Lcd_Write+0)+0
  1772  02AF  0807               	movf	(7),w
  1773  02B0  390F               	andlw	0Fh
  1774  02B1  0425               	iorwf	0+(??_Lcd_Write+0)+0,w
  1775  02B2  0087               	movwf	(7)	;volatile
  1776                           	line	19
  1777                           	
  1778  02B3                     l3498:	
  1779                           ;lcd.h: 19: ((RA5 = 1),(RA5=0));
  1780  02B3  1685               	bsf	(45/8),(45)&7
  1781                           	
  1782  02B4                     l3500:	
  1783  02B4  1285               	bcf	(45/8),(45)&7
  1784                           	line	20
  1785                           ;lcd.h: 20: PORTC = (PORTC & 0x0F) | ( ( c << 4 ) & 0xF0 );
  1786  02B5  0824               	movf	(Lcd_Write@c),w
  1787  02B6  00A5               	movwf	(??_Lcd_Write+0)+0
  1788  02B7  3004               	movlw	04h
  1789  02B8                     u2685:
  1790  02B8  1003               	clrc
  1791  02B9  0DA5               	rlf	(??_Lcd_Write+0)+0,f
  1792  02BA  3EFF               	addlw	-1
  1793  02BB  1D03               	skipz
  1794  02BC  2AB8               	goto	u2685
  1795  02BD  30F0               	movlw	(0F0h)
  1796  02BE  0525               	andwf	0+(??_Lcd_Write+0)+0,w
  1797  02BF  00A6               	movwf	(??_Lcd_Write+1)+0
  1798  02C0  0807               	movf	(7),w
  1799  02C1  390F               	andlw	0Fh
  1800  02C2  0426               	iorwf	0+(??_Lcd_Write+1)+0,w
  1801  02C3  0087               	movwf	(7)	;volatile
  1802                           	line	21
  1803                           	
  1804  02C4                     l3502:	
  1805                           ;lcd.h: 21: ((RA5 = 1),(RA5=0));
  1806  02C4  1685               	bsf	(45/8),(45)&7
  1807                           	
  1808  02C5                     l3504:	
  1809  02C5  1285               	bcf	(45/8),(45)&7
  1810                           	line	22
  1811                           	
  1812  02C6                     l3506:	
  1813                           ;lcd.h: 22: { unsigned int _dcnt; _dcnt = (40)/7.5; while(--_dcnt != 0) continue; };
  1814  02C6  3005               	movlw	low(05h)
  1815  02C7  00A9               	movwf	(Lcd_Write@_dcnt_1579)
  1816  02C8  3000               	movlw	high(05h)
  1817  02C9  00AA               	movwf	((Lcd_Write@_dcnt_1579))+1
  1818  02CA  2ACC               	goto	l3508
  1819                           	
  1820  02CB                     l903:	
  1821  02CB  2ACC               	goto	l3508
  1822                           	
  1823  02CC                     l902:	
  1824                           	
  1825  02CC                     l3508:	
  1826  02CC  3001               	movlw	low(01h)
  1827  02CD  02A9               	subwf	(Lcd_Write@_dcnt_1579),f
  1828  02CE  3000               	movlw	high(01h)
  1829  02CF  1C03               	skipc
  1830  02D0  03AA               	decf	(Lcd_Write@_dcnt_1579+1),f
  1831  02D1  02AA               	subwf	(Lcd_Write@_dcnt_1579+1),f
  1832  02D2  082A               	movf	(((Lcd_Write@_dcnt_1579+1))),w
  1833  02D3  0429               	iorwf	(((Lcd_Write@_dcnt_1579))),w
  1834  02D4  1D03               	skipz
  1835  02D5  2AD7               	goto	u2691
  1836  02D6  2AD8               	goto	u2690
  1837  02D7                     u2691:
  1838  02D7  2ACC               	goto	l3508
  1839  02D8                     u2690:
  1840  02D8  2AD9               	goto	l905
  1841                           	
  1842  02D9                     l904:	
  1843                           	line	23
  1844                           	
  1845  02D9                     l905:	
  1846  02D9  0008               	return
  1847                           	opt stack 0
  1848                           GLOBAL	__end_of_Lcd_Write
  1849  02DA                     	__end_of_Lcd_Write:
  1850 ;; =============== function _Lcd_Write ends ============
  1851                           
  1852                           	signat	_Lcd_Write,8312
  1853                           	global	_DelayMs
  1854                           psect	text323,local,class=CODE,delta=2
  1855                           global __ptext323
  1856  03FE                     __ptext323:
  1857                           
  1858 ;; *************** function _DelayMs *****************
  1859 ;; Defined at:
  1860 ;;		line 54 in file "F:\BEVERAGES_ENHANCEMENT\SOFTWARE_DESIGN\SLAVE_PIC_16F690\2015_09_13\delay.h"
  1861 ;; Parameters:    Size  Location     Type
  1862 ;;  cnt             2    4[BANK0 ] unsigned int 
  1863 ;; Auto vars:     Size  Location     Type
  1864 ;;  _dcnt           2    6[BANK0 ] unsigned int 
  1865 ;; Return value:  Size  Location     Type
  1866 ;;		None               void
  1867 ;; Registers used:
  1868 ;;		wreg, status,2, status,0
  1869 ;; Tracked objects:
  1870 ;;		On entry : 0/0
  1871 ;;		On exit  : 0/0
  1872 ;;		Unchanged: 0/0
  1873 ;; Data sizes:     COMMON   BANK0   BANK1   BANK2
  1874 ;;      Params:         0       2       0       0
  1875 ;;      Locals:         0       2       0       0
  1876 ;;      Temps:          0       0       0       0
  1877 ;;      Totals:         0       4       0       0
  1878 ;;Total ram usage:        4 bytes
  1879 ;; Hardware stack levels used:    1
  1880 ;; Hardware stack levels required when called:    4
  1881 ;; This function calls:
  1882 ;;		Nothing
  1883 ;; This function is called by:
  1884 ;;		_LCD_INIT
  1885 ;;		_SYSTEM_INIT
  1886 ;;		_main
  1887 ;; This function uses a non-reentrant model
  1888 ;;
  1889                           psect	text323
  1890                           	file	"F:\BEVERAGES_ENHANCEMENT\SOFTWARE_DESIGN\SLAVE_PIC_16F690\2015_09_13\delay.h"
  1891                           	line	54
  1892                           	global	__size_of_DelayMs
  1893  0023                     	__size_of_DelayMs	equ	__end_of_DelayMs-_DelayMs
  1894                           	
  1895  03FE                     _DelayMs:	
  1896                           	opt	stack 3
  1897                           ; Regs used in _DelayMs: [wreg+status,2+status,0]
  1898                           	line	55
  1899                           ;delay.h: 55: do {
  1900                           	
  1901  03FE                     l891:	
  1902                           	line	56
  1903                           	
  1904  03FE                     l3484:	
  1905                           ;delay.h: 56: { unsigned int _dcnt; _dcnt = (1000)/7.5; while(--_dcnt != 0) continue; };
  1906  03FE  3085               	movlw	low(085h)
  1907  03FF  1283               	bcf	status, 5	;RP0=0, select bank0
  1908  0400  1303               	bcf	status, 6	;RP1=0, select bank0
  1909  0401  00A6               	movwf	(DelayMs@_dcnt)
  1910  0402  3000               	movlw	high(085h)
  1911  0403  00A7               	movwf	((DelayMs@_dcnt))+1
  1912  0404  2C06               	goto	l3486
  1913                           	
  1914  0405                     l893:	
  1915  0405  2C06               	goto	l3486
  1916                           	
  1917  0406                     l892:	
  1918                           	
  1919  0406                     l3486:	
  1920  0406  3001               	movlw	low(01h)
  1921  0407  02A6               	subwf	(DelayMs@_dcnt),f
  1922  0408  3000               	movlw	high(01h)
  1923  0409  1C03               	skipc
  1924  040A  03A7               	decf	(DelayMs@_dcnt+1),f
  1925  040B  02A7               	subwf	(DelayMs@_dcnt+1),f
  1926  040C  0827               	movf	(((DelayMs@_dcnt+1))),w
  1927  040D  0426               	iorwf	(((DelayMs@_dcnt))),w
  1928  040E  1D03               	skipz
  1929  040F  2C11               	goto	u2631
  1930  0410  2C12               	goto	u2630
  1931  0411                     u2631:
  1932  0411  2C06               	goto	l3486
  1933  0412                     u2630:
  1934  0412  2C13               	goto	l3488
  1935                           	
  1936  0413                     l894:	
  1937                           	line	57
  1938                           	
  1939  0413                     l3488:	
  1940                           ;delay.h: 57: } while(--cnt);
  1941  0413  3001               	movlw	low(01h)
  1942  0414  02A4               	subwf	(DelayMs@cnt),f
  1943  0415  3000               	movlw	high(01h)
  1944  0416  1C03               	skipc
  1945  0417  03A5               	decf	(DelayMs@cnt+1),f
  1946  0418  02A5               	subwf	(DelayMs@cnt+1),f
  1947  0419  0825               	movf	(((DelayMs@cnt+1))),w
  1948  041A  0424               	iorwf	(((DelayMs@cnt))),w
  1949  041B  1D03               	skipz
  1950  041C  2C1E               	goto	u2641
  1951  041D  2C1F               	goto	u2640
  1952  041E                     u2641:
  1953  041E  2BFE               	goto	l891
  1954  041F                     u2640:
  1955  041F  2C20               	goto	l896
  1956                           	
  1957  0420                     l895:	
  1958                           	line	58
  1959                           	
  1960  0420                     l896:	
  1961  0420  0008               	return
  1962                           	opt stack 0
  1963                           GLOBAL	__end_of_DelayMs
  1964  0421                     	__end_of_DelayMs:
  1965 ;; =============== function _DelayMs ends ============
  1966                           
  1967                           	signat	_DelayMs,4216
  1968                           	global	_ISR
  1969                           psect	text324,local,class=CODE,delta=2
  1970                           global __ptext324
  1971  03D5                     __ptext324:
  1972                           
  1973 ;; *************** function _ISR *****************
  1974 ;; Defined at:
  1975 ;;		line 23 in file "F:\BEVERAGES_ENHANCEMENT\SOFTWARE_DESIGN\SLAVE_PIC_16F690\2015_09_13\main.c"
  1976 ;; Parameters:    Size  Location     Type
  1977 ;;		None
  1978 ;; Auto vars:     Size  Location     Type
  1979 ;;		None
  1980 ;; Return value:  Size  Location     Type
  1981 ;;		None               void
  1982 ;; Registers used:
  1983 ;;		wreg, fsr0l, fsr0h, status,2, status,0, pclath, cstack
  1984 ;; Tracked objects:
  1985 ;;		On entry : 0/0
  1986 ;;		On exit  : 0/0
  1987 ;;		Unchanged: 0/0
  1988 ;; Data sizes:     COMMON   BANK0   BANK1   BANK2
  1989 ;;      Params:         0       0       0       0
  1990 ;;      Locals:         0       0       0       0
  1991 ;;      Temps:          0       4       0       0
  1992 ;;      Totals:         0       4       0       0
  1993 ;;Total ram usage:        4 bytes
  1994 ;; Hardware stack levels used:    1
  1995 ;; Hardware stack levels required when called:    3
  1996 ;; This function calls:
  1997 ;;		_Display_In_Lcd
  1998 ;;		_SendByteSerially
  1999 ;; This function is called by:
  2000 ;;		Interrupt level 1
  2001 ;; This function uses a non-reentrant model
  2002 ;;
  2003                           psect	text324
  2004                           	file	"F:\BEVERAGES_ENHANCEMENT\SOFTWARE_DESIGN\SLAVE_PIC_16F690\2015_09_13\main.c"
  2005                           	line	23
  2006                           	global	__size_of_ISR
  2007  0029                     	__size_of_ISR	equ	__end_of_ISR-_ISR
  2008                           	
  2009  03D5                     _ISR:	
  2010                           	opt	stack 2
  2011                           ; Regs used in _ISR: [wreg-fsr0h+status,2+status,0+pclath+cstack]
  2012                           psect	intentry,class=CODE,delta=2
  2013                           global __pintentry
  2014  0004                     __pintentry:
  2015                           global interrupt_function
  2016  0004                     interrupt_function:
  2017                           	global saved_w
  2018  007E                     	saved_w	set	btemp+0
  2019  0004  00FE               	movwf	saved_w
  2020  0005  0E03               	swapf	status,w
  2021  0006  1283               	bcf	status, 5	;RP0=0, select bank0
  2022  0007  1303               	bcf	status, 6	;RP1=0, select bank0
  2023  0008  00A0               	movwf	(??_ISR+0)
  2024  0009  0804               	movf	fsr0,w
  2025  000A  00A1               	movwf	(??_ISR+1)
  2026  000B  080A               	movf	pclath,w
  2027  000C  00A2               	movwf	(??_ISR+2)
  2028  000D  087F               	movf	btemp+1,w
  2029  000E  00A3               	movwf	(??_ISR+3)
  2030  000F  118A  2BD5         	ljmp	_ISR
  2031                           psect	text324
  2032                           	line	24
  2033                           	
  2034  03D5                     i1l3614:	
  2035                           ;main.c: 24: if(RCIF)
  2036  03D5  1E8C               	btfss	(101/8),(101)&7
  2037  03D6  2BD8               	goto	u281_21
  2038  03D7  2BD9               	goto	u281_20
  2039  03D8                     u281_21:
  2040  03D8  2BF1               	goto	i1l988
  2041  03D9                     u281_20:
  2042                           	line	26
  2043                           	
  2044  03D9                     i1l3616:	
  2045                           ;main.c: 25: {
  2046                           ;main.c: 26: if(OERR)
  2047  03D9  1C98               	btfss	(193/8),(193)&7
  2048  03DA  2BDC               	goto	u282_21
  2049  03DB  2BDD               	goto	u282_20
  2050  03DC                     u282_21:
  2051  03DC  2BE1               	goto	i1l985
  2052  03DD                     u282_20:
  2053                           	line	28
  2054                           	
  2055  03DD                     i1l3618:	
  2056                           ;main.c: 27: {
  2057                           ;main.c: 28: CREN = 0;
  2058  03DD  1218               	bcf	(196/8),(196)&7
  2059                           	line	29
  2060                           ;main.c: 29: CREN = 1;
  2061  03DE  1618               	bsf	(196/8),(196)&7
  2062  03DF  2BE1               	goto	i1l985
  2063                           	line	30
  2064                           	
  2065  03E0                     i1l984:	
  2066                           	line	31
  2067                           ;main.c: 30: }
  2068                           ;main.c: 31: while(!RCIF);
  2069  03E0  2BE1               	goto	i1l985
  2070                           	
  2071  03E1                     i1l986:	
  2072                           	
  2073  03E1                     i1l985:	
  2074  03E1  1E8C               	btfss	(101/8),(101)&7
  2075  03E2  2BE4               	goto	u283_21
  2076  03E3  2BE5               	goto	u283_20
  2077  03E4                     u283_21:
  2078  03E4  2BE1               	goto	i1l985
  2079  03E5                     u283_20:
  2080  03E5  2BE6               	goto	i1l3620
  2081                           	
  2082  03E6                     i1l987:	
  2083                           	line	32
  2084                           	
  2085  03E6                     i1l3620:	
  2086                           ;main.c: 32: Display_In_Lcd(RCREG);
  2087  03E6  081A               	movf	(26),w	;volatile
  2088  03E7  118A  20D5  118A   	fcall	_Display_In_Lcd
  2089                           	line	33
  2090                           	
  2091  03EA                     i1l3622:	
  2092                           ;main.c: 33: SendByteSerially(RCREG);
  2093  03EA  1283               	bcf	status, 5	;RP0=0, select bank0
  2094  03EB  1303               	bcf	status, 6	;RP1=0, select bank0
  2095  03EC  081A               	movf	(26),w	;volatile
  2096  03ED  118A  2496  118A   	fcall	_SendByteSerially
  2097  03F0  2BF1               	goto	i1l988
  2098                           	line	34
  2099                           	
  2100  03F1                     i1l983:	
  2101                           	line	35
  2102                           	
  2103  03F1                     i1l988:	
  2104  03F1  1283               	bcf	status, 5	;RP0=0, select bank0
  2105  03F2  1303               	bcf	status, 6	;RP1=0, select bank0
  2106  03F3  0823               	movf	(??_ISR+3),w
  2107  03F4  00FF               	movwf	btemp+1
  2108  03F5  0822               	movf	(??_ISR+2),w
  2109  03F6  008A               	movwf	pclath
  2110  03F7  0821               	movf	(??_ISR+1),w
  2111  03F8  0084               	movwf	fsr0
  2112  03F9  0E20               	swapf	(??_ISR+0)^00h,w
  2113  03FA  0083               	movwf	status
  2114  03FB  0EFE               	swapf	saved_w,f
  2115  03FC  0E7E               	swapf	saved_w,w
  2116  03FD  0009               	retfie
  2117                           	opt stack 0
  2118                           GLOBAL	__end_of_ISR
  2119  03FE                     	__end_of_ISR:
  2120 ;; =============== function _ISR ends ============
  2121                           
  2122                           	signat	_ISR,88
  2123                           	global	_Display_In_Lcd
  2124                           psect	text325,local,class=CODE,delta=2
  2125                           global __ptext325
  2126  00D5                     __ptext325:
  2127                           
  2128 ;; *************** function _Display_In_Lcd *****************
  2129 ;; Defined at:
  2130 ;;		line 2 in file "F:\BEVERAGES_ENHANCEMENT\SOFTWARE_DESIGN\SLAVE_PIC_16F690\2015_09_13\disp_enums.h"
  2131 ;; Parameters:    Size  Location     Type
  2132 ;;  sel             1    wreg     unsigned char 
  2133 ;; Auto vars:     Size  Location     Type
  2134 ;;  sel             1   13[COMMON] unsigned char 
  2135 ;; Return value:  Size  Location     Type
  2136 ;;		None               void
  2137 ;; Registers used:
  2138 ;;		wreg, fsr0l, fsr0h, status,2, status,0, pclath, cstack
  2139 ;; Tracked objects:
  2140 ;;		On entry : 0/0
  2141 ;;		On exit  : 0/0
  2142 ;;		Unchanged: 0/0
  2143 ;; Data sizes:     COMMON   BANK0   BANK1   BANK2
  2144 ;;      Params:         0       0       0       0
  2145 ;;      Locals:         1       0       0       0
  2146 ;;      Temps:          1       0       0       0
  2147 ;;      Totals:         2       0       0       0
  2148 ;;Total ram usage:        2 bytes
  2149 ;; Hardware stack levels used:    1
  2150 ;; Hardware stack levels required when called:    2
  2151 ;; This function calls:
  2152 ;;		_Lcd_String
  2153 ;;		i1_Lcd_Write
  2154 ;; This function is called by:
  2155 ;;		_ISR
  2156 ;; This function uses a non-reentrant model
  2157 ;;
  2158                           psect	text325
  2159                           	file	"F:\BEVERAGES_ENHANCEMENT\SOFTWARE_DESIGN\SLAVE_PIC_16F690\2015_09_13\disp_enums.h
                                 "
  2160                           	line	2
  2161                           	global	__size_of_Display_In_Lcd
  2162  00B4                     	__size_of_Display_In_Lcd	equ	__end_of_Display_In_Lcd-_Display_In_Lcd
  2163                           	
  2164  00D5                     _Display_In_Lcd:	
  2165                           	opt	stack 2
  2166                           ; Regs used in _Display_In_Lcd: [wreg-fsr0h+status,2+status,0+pclath+cstack]
  2167                           ;Display_In_Lcd@sel stored from wreg
  2168  00D5  00FD               	movwf	(Display_In_Lcd@sel)
  2169                           	line	3
  2170                           	
  2171  00D6                     i1l3572:	
  2172                           ;disp_enums.h: 3: switch(sel)
  2173  00D6  2979               	goto	i1l3610
  2174                           	line	5
  2175                           ;disp_enums.h: 4: {
  2176                           ;disp_enums.h: 5: case 0x01: Lcd_String("  CAFE DE VIE",1,0);
  2177                           	
  2178  00D7                     i1l966:	
  2179                           	
  2180  00D7                     i1l3574:	
  2181  00D7  01F8               	clrf	(?_Lcd_String)
  2182  00D8  1403               	bsf	status,0
  2183  00D9  0DF8               	rlf	(?_Lcd_String),f
  2184  00DA  01F9               	clrf	0+(?_Lcd_String)+01h
  2185  00DB  303C               	movlw	((STR_1-__stringbase))&0ffh
  2186  00DC  118A  2328  118A   	fcall	_Lcd_String
  2187                           	line	6
  2188                           ;disp_enums.h: 6: Lcd_String("   BEVERAGES",0,1);
  2189  00DF  01F8               	clrf	(?_Lcd_String)
  2190  00E0  01F9               	clrf	0+(?_Lcd_String)+01h
  2191  00E1  1403               	bsf	status,0
  2192  00E2  0DF9               	rlf	0+(?_Lcd_String)+01h,f
  2193  00E3  3071               	movlw	((STR_2-__stringbase))&0ffh
  2194  00E4  118A  2328  118A   	fcall	_Lcd_String
  2195                           	line	7
  2196                           ;disp_enums.h: 7: break;
  2197  00E7  2988               	goto	i1l980
  2198                           	line	8
  2199                           ;disp_enums.h: 8: case 0x02: Lcd_String(" NORMAL COFFEE",1,0);
  2200                           	
  2201  00E8                     i1l968:	
  2202                           	
  2203  00E8                     i1l3576:	
  2204  00E8  01F8               	clrf	(?_Lcd_String)
  2205  00E9  1403               	bsf	status,0
  2206  00EA  0DF8               	rlf	(?_Lcd_String),f
  2207  00EB  01F9               	clrf	0+(?_Lcd_String)+01h
  2208  00EC  3010               	movlw	((STR_3-__stringbase))&0ffh
  2209  00ED  118A  2328  118A   	fcall	_Lcd_String
  2210                           	line	9
  2211                           ;disp_enums.h: 9: break;
  2212  00F0  2988               	goto	i1l980
  2213                           	line	10
  2214                           ;disp_enums.h: 10: case 0x03: Lcd_String("   NORMAL TEA",1,0);
  2215                           	
  2216  00F1                     i1l969:	
  2217                           	
  2218  00F1                     i1l3578:	
  2219  00F1  01F8               	clrf	(?_Lcd_String)
  2220  00F2  1403               	bsf	status,0
  2221  00F3  0DF8               	rlf	(?_Lcd_String),f
  2222  00F4  01F9               	clrf	0+(?_Lcd_String)+01h
  2223  00F5  302E               	movlw	((STR_4-__stringbase))&0ffh
  2224  00F6  118A  2328  118A   	fcall	_Lcd_String
  2225                           	line	11
  2226                           ;disp_enums.h: 11: break;
  2227  00F9  2988               	goto	i1l980
  2228                           	line	12
  2229                           ;disp_enums.h: 12: case 0x04: Lcd_String("  LIGHT COFFEE",1,0);
  2230                           	
  2231  00FA                     i1l970:	
  2232                           	
  2233  00FA                     i1l3580:	
  2234  00FA  01F8               	clrf	(?_Lcd_String)
  2235  00FB  1403               	bsf	status,0
  2236  00FC  0DF8               	rlf	(?_Lcd_String),f
  2237  00FD  01F9               	clrf	0+(?_Lcd_String)+01h
  2238  00FE  301F               	movlw	((STR_5-__stringbase))&0ffh
  2239  00FF  118A  2328  118A   	fcall	_Lcd_String
  2240                           	line	13
  2241                           ;disp_enums.h: 13: break;
  2242  0102  2988               	goto	i1l980
  2243                           	line	14
  2244                           ;disp_enums.h: 14: case 0x05: Lcd_String("   LIGHT TEA",1,0);
  2245                           	
  2246  0103                     i1l971:	
  2247                           	
  2248  0103                     i1l3582:	
  2249  0103  01F8               	clrf	(?_Lcd_String)
  2250  0104  1403               	bsf	status,0
  2251  0105  0DF8               	rlf	(?_Lcd_String),f
  2252  0106  01F9               	clrf	0+(?_Lcd_String)+01h
  2253  0107  3057               	movlw	((STR_6-__stringbase))&0ffh
  2254  0108  118A  2328  118A   	fcall	_Lcd_String
  2255                           	line	15
  2256                           ;disp_enums.h: 15: break;
  2257  010B  2988               	goto	i1l980
  2258                           	line	16
  2259                           ;disp_enums.h: 16: case 0x06: Lcd_String("  BLACK COFFEE",1,0);
  2260                           	
  2261  010C                     i1l972:	
  2262                           	
  2263  010C                     i1l3584:	
  2264  010C  01F8               	clrf	(?_Lcd_String)
  2265  010D  1403               	bsf	status,0
  2266  010E  0DF8               	rlf	(?_Lcd_String),f
  2267  010F  01F9               	clrf	0+(?_Lcd_String)+01h
  2268  0110  3001               	movlw	((STR_7-__stringbase))&0ffh
  2269  0111  118A  2328  118A   	fcall	_Lcd_String
  2270                           	line	17
  2271                           ;disp_enums.h: 17: break;
  2272  0114  2988               	goto	i1l980
  2273                           	line	18
  2274                           ;disp_enums.h: 18: case 0x07: Lcd_String("   BLACK TEA",1,0);
  2275                           	
  2276  0115                     i1l973:	
  2277                           	
  2278  0115                     i1l3586:	
  2279  0115  01F8               	clrf	(?_Lcd_String)
  2280  0116  1403               	bsf	status,0
  2281  0117  0DF8               	rlf	(?_Lcd_String),f
  2282  0118  01F9               	clrf	0+(?_Lcd_String)+01h
  2283  0119  304A               	movlw	((STR_8-__stringbase))&0ffh
  2284  011A  118A  2328  118A   	fcall	_Lcd_String
  2285                           	line	19
  2286                           ;disp_enums.h: 19: break;
  2287  011D  2988               	goto	i1l980
  2288                           	line	20
  2289                           ;disp_enums.h: 20: case 0x08: Lcd_String("      MILK",1,0);
  2290                           	
  2291  011E                     i1l974:	
  2292                           	
  2293  011E                     i1l3588:	
  2294  011E  01F8               	clrf	(?_Lcd_String)
  2295  011F  1403               	bsf	status,0
  2296  0120  0DF8               	rlf	(?_Lcd_String),f
  2297  0121  01F9               	clrf	0+(?_Lcd_String)+01h
  2298  0122  3096               	movlw	((STR_9-__stringbase))&0ffh
  2299  0123  118A  2328  118A   	fcall	_Lcd_String
  2300                           	line	21
  2301                           ;disp_enums.h: 21: break;
  2302  0126  2988               	goto	i1l980
  2303                           	line	22
  2304                           ;disp_enums.h: 22: case 0x09: Lcd_String("   HOT WATER",1,0);
  2305                           	
  2306  0127                     i1l975:	
  2307                           	
  2308  0127                     i1l3590:	
  2309  0127  01F8               	clrf	(?_Lcd_String)
  2310  0128  1403               	bsf	status,0
  2311  0129  0DF8               	rlf	(?_Lcd_String),f
  2312  012A  01F9               	clrf	0+(?_Lcd_String)+01h
  2313  012B  3064               	movlw	((STR_10-__stringbase))&0ffh
  2314  012C  118A  2328  118A   	fcall	_Lcd_String
  2315                           	line	23
  2316                           ;disp_enums.h: 23: break;
  2317  012F  2988               	goto	i1l980
  2318                           	line	24
  2319                           ;disp_enums.h: 24: case 0x0A: Lcd_String("      EXTRA",1,0);
  2320                           	
  2321  0130                     i1l976:	
  2322                           	
  2323  0130                     i1l3592:	
  2324  0130  01F8               	clrf	(?_Lcd_String)
  2325  0131  1403               	bsf	status,0
  2326  0132  0DF8               	rlf	(?_Lcd_String),f
  2327  0133  01F9               	clrf	0+(?_Lcd_String)+01h
  2328  0134  307E               	movlw	((STR_11-__stringbase))&0ffh
  2329  0135  118A  2328  118A   	fcall	_Lcd_String
  2330                           	line	25
  2331                           ;disp_enums.h: 25: break;
  2332  0138  2988               	goto	i1l980
  2333                           	line	26
  2334                           ;disp_enums.h: 26: case 0x0B: Lcd_String("CONTINUE",1,0);
  2335                           	
  2336  0139                     i1l977:	
  2337                           	
  2338  0139                     i1l3594:	
  2339  0139  01F8               	clrf	(?_Lcd_String)
  2340  013A  1403               	bsf	status,0
  2341  013B  0DF8               	rlf	(?_Lcd_String),f
  2342  013C  01F9               	clrf	0+(?_Lcd_String)+01h
  2343  013D  30AB               	movlw	((STR_12-__stringbase))&0ffh
  2344  013E  118A  2328  118A   	fcall	_Lcd_String
  2345                           	line	27
  2346                           ;disp_enums.h: 27: Lcd_String("PREPARATION",0,1);
  2347  0141  01F8               	clrf	(?_Lcd_String)
  2348  0142  01F9               	clrf	0+(?_Lcd_String)+01h
  2349  0143  1403               	bsf	status,0
  2350  0144  0DF9               	rlf	0+(?_Lcd_String)+01h,f
  2351  0145  308A               	movlw	((STR_13-__stringbase))&0ffh
  2352  0146  118A  2328  118A   	fcall	_Lcd_String
  2353                           	line	28
  2354                           ;disp_enums.h: 28: break;
  2355  0149  2988               	goto	i1l980
  2356                           	line	29
  2357                           ;disp_enums.h: 29: case 0x0C: Lcd_Write(0, 0x80);
  2358                           	
  2359  014A                     i1l978:	
  2360                           	
  2361  014A                     i1l3596:	
  2362  014A  3080               	movlw	(080h)
  2363  014B  00FC               	movwf	(??_Display_In_Lcd+0)+0
  2364  014C  087C               	movf	(??_Display_In_Lcd+0)+0,w
  2365  014D  00F0               	movwf	(?i1_Lcd_Write)
  2366  014E  3000               	movlw	(0)
  2367  014F  118A  22DA  118A   	fcall	i1_Lcd_Write
  2368                           	line	30
  2369                           	
  2370  0152                     i1l3598:	
  2371                           ;disp_enums.h: 30: Lcd_String("DICATION",0,0);
  2372  0152  01F8               	clrf	(?_Lcd_String)
  2373  0153  01F9               	clrf	0+(?_Lcd_String)+01h
  2374  0154  30B4               	movlw	((STR_14-__stringbase))&0ffh
  2375  0155  118A  2328  118A   	fcall	_Lcd_String
  2376                           	line	31
  2377                           ;disp_enums.h: 31: break;
  2378  0158  2988               	goto	i1l980
  2379                           	line	32
  2380                           ;disp_enums.h: 32: case 0x0D: Lcd_Write(0, 0x80);
  2381                           	
  2382  0159                     i1l979:	
  2383                           	
  2384  0159                     i1l3600:	
  2385  0159  3080               	movlw	(080h)
  2386  015A  00FC               	movwf	(??_Display_In_Lcd+0)+0
  2387  015B  087C               	movf	(??_Display_In_Lcd+0)+0,w
  2388  015C  00F0               	movwf	(?i1_Lcd_Write)
  2389  015D  3000               	movlw	(0)
  2390  015E  118A  22DA  118A   	fcall	i1_Lcd_Write
  2391                           	line	33
  2392                           	
  2393  0161                     i1l3602:	
  2394                           ;disp_enums.h: 33: Lcd_String("SELECTION",0,0);
  2395  0161  01F8               	clrf	(?_Lcd_String)
  2396  0162  01F9               	clrf	0+(?_Lcd_String)+01h
  2397  0163  30A1               	movlw	((STR_15-__stringbase))&0ffh
  2398  0164  118A  2328  118A   	fcall	_Lcd_String
  2399                           	line	34
  2400                           	
  2401  0167                     i1l3604:	
  2402                           ;disp_enums.h: 34: Lcd_Write(1, ':');
  2403  0167  303A               	movlw	(03Ah)
  2404  0168  00FC               	movwf	(??_Display_In_Lcd+0)+0
  2405  0169  087C               	movf	(??_Display_In_Lcd+0)+0,w
  2406  016A  00F0               	movwf	(?i1_Lcd_Write)
  2407  016B  3001               	movlw	(01h)
  2408  016C  118A  22DA  118A   	fcall	i1_Lcd_Write
  2409                           	line	35
  2410                           	
  2411  016F                     i1l3606:	
  2412                           ;disp_enums.h: 35: Lcd_Write(0, 0x8C);
  2413  016F  308C               	movlw	(08Ch)
  2414  0170  00FC               	movwf	(??_Display_In_Lcd+0)+0
  2415  0171  087C               	movf	(??_Display_In_Lcd+0)+0,w
  2416  0172  00F0               	movwf	(?i1_Lcd_Write)
  2417  0173  3000               	movlw	(0)
  2418  0174  118A  22DA  118A   	fcall	i1_Lcd_Write
  2419                           	line	36
  2420                           ;disp_enums.h: 36: break;
  2421  0177  2988               	goto	i1l980
  2422                           	line	37
  2423                           	
  2424  0178                     i1l3608:	
  2425                           ;disp_enums.h: 37: }
  2426  0178  2988               	goto	i1l980
  2427                           	line	3
  2428                           	
  2429  0179                     i1l965:	
  2430                           	
  2431  0179                     i1l3610:	
  2432  0179  087D               	movf	(Display_In_Lcd@sel),w
  2433                           	; Switch size 1, requested type "space"
  2434                           ; Number of cases is 13, Range of values is 1 to 13
  2435                           ; switch strategies available:
  2436                           ; Name         Instructions Cycles
  2437                           ; direct_byte           36    10 (fixed)
  2438                           ; simple_byte           40    21 (average)
  2439                           ; jumptable            263     9 (fixed)
  2440                           ;	Chosen strategy is direct_byte
  2441                           
  2442  017A  3EFF               	addlw	-1
  2443  017B  1C03               	skipc
  2444  017C  2988               goto i1l980
  2445  017D  0084               	movwf fsr
  2446  017E  300D               	movlw	13
  2447  017F  0204               	subwf	fsr,w
  2448  0180  1803               skipnc
  2449  0181  2988               goto i1l980
  2450  0182  3004               movlw high(i1S3816)
  2451  0183  008A               movwf pclath
  2452  0184  1003               	clrc
  2453  0185  0D04               	rlf fsr,w
  2454  0186  3E5C               	addlw low(i1S3816)
  2455  0187  0082               	movwf pc
  2456                           psect	swtext1,local,class=CONST,delta=2
  2457                           global __pswtext1
  2458  045C                     __pswtext1:
  2459  045C                     i1S3816:
  2460  045C  118A  28D7         	ljmp	i1l3574
  2461  045E  118A  28E8         	ljmp	i1l3576
  2462  0460  118A  28F1         	ljmp	i1l3578
  2463  0462  118A  28FA         	ljmp	i1l3580
  2464  0464  118A  2903         	ljmp	i1l3582
  2465  0466  118A  290C         	ljmp	i1l3584
  2466  0468  118A  2915         	ljmp	i1l3586
  2467  046A  118A  291E         	ljmp	i1l3588
  2468  046C  118A  2927         	ljmp	i1l3590
  2469  046E  118A  2930         	ljmp	i1l3592
  2470  0470  118A  2939         	ljmp	i1l3594
  2471  0472  118A  294A         	ljmp	i1l3596
  2472  0474  118A  2959         	ljmp	i1l3600
  2473                           psect	text325
  2474                           
  2475                           	line	37
  2476                           	
  2477  0188                     i1l967:	
  2478                           	line	38
  2479                           	
  2480  0188                     i1l980:	
  2481  0188  0008               	return
  2482                           	opt stack 0
  2483                           GLOBAL	__end_of_Display_In_Lcd
  2484  0189                     	__end_of_Display_In_Lcd:
  2485 ;; =============== function _Display_In_Lcd ends ============
  2486                           
  2487                           	signat	_Display_In_Lcd,4216
  2488                           	global	_Lcd_String
  2489                           psect	text326,local,class=CODE,delta=2
  2490                           global __ptext326
  2491  0328                     __ptext326:
  2492                           
  2493 ;; *************** function _Lcd_String *****************
  2494 ;; Defined at:
  2495 ;;		line 52 in file "F:\BEVERAGES_ENHANCEMENT\SOFTWARE_DESIGN\SLAVE_PIC_16F690\2015_09_13\lcd.h"
  2496 ;; Parameters:    Size  Location     Type
  2497 ;;  st              1    wreg     PTR const unsigned char 
  2498 ;;		 -> STR_15(10), STR_14(9), STR_13(12), STR_12(9), 
  2499 ;;		 -> STR_11(12), STR_10(13), STR_9(11), STR_8(13), 
  2500 ;;		 -> STR_7(15), STR_6(13), STR_5(15), STR_4(14), 
  2501 ;;		 -> STR_3(15), STR_2(13), STR_1(14), 
  2502 ;;  clear           1    8[COMMON] unsigned char 
  2503 ;;  second_line     1    9[COMMON] unsigned char 
  2504 ;; Auto vars:     Size  Location     Type
  2505 ;;  st              1   11[COMMON] PTR const unsigned char 
  2506 ;;		 -> STR_15(10), STR_14(9), STR_13(12), STR_12(9), 
  2507 ;;		 -> STR_11(12), STR_10(13), STR_9(11), STR_8(13), 
  2508 ;;		 -> STR_7(15), STR_6(13), STR_5(15), STR_4(14), 
  2509 ;;		 -> STR_3(15), STR_2(13), STR_1(14), 
  2510 ;; Return value:  Size  Location     Type
  2511 ;;		None               void
  2512 ;; Registers used:
  2513 ;;		wreg, fsr0l, fsr0h, status,2, status,0, pclath, cstack
  2514 ;; Tracked objects:
  2515 ;;		On entry : 0/0
  2516 ;;		On exit  : 0/0
  2517 ;;		Unchanged: 0/0
  2518 ;; Data sizes:     COMMON   BANK0   BANK1   BANK2
  2519 ;;      Params:         2       0       0       0
  2520 ;;      Locals:         1       0       0       0
  2521 ;;      Temps:          1       0       0       0
  2522 ;;      Totals:         4       0       0       0
  2523 ;;Total ram usage:        4 bytes
  2524 ;; Hardware stack levels used:    1
  2525 ;; Hardware stack levels required when called:    1
  2526 ;; This function calls:
  2527 ;;		i1_Lcd_Write
  2528 ;;		i1_DelayMs
  2529 ;; This function is called by:
  2530 ;;		_Display_In_Lcd
  2531 ;; This function uses a non-reentrant model
  2532 ;;
  2533                           psect	text326
  2534                           	file	"F:\BEVERAGES_ENHANCEMENT\SOFTWARE_DESIGN\SLAVE_PIC_16F690\2015_09_13\lcd.h"
  2535                           	line	52
  2536                           	global	__size_of_Lcd_String
  2537  004A                     	__size_of_Lcd_String	equ	__end_of_Lcd_String-_Lcd_String
  2538                           	
  2539  0328                     _Lcd_String:	
  2540                           	opt	stack 2
  2541                           ; Regs used in _Lcd_String: [wreg-fsr0h+status,2+status,0+pclath+cstack]
  2542                           ;Lcd_String@st stored from wreg
  2543  0328  00FB               	movwf	(Lcd_String@st)
  2544                           	line	53
  2545                           	
  2546  0329                     i1l3512:	
  2547                           ;lcd.h: 53: if(clear==1)
  2548  0329  0878               	movf	(Lcd_String@clear),w
  2549  032A  3A01               	xorlw	01h
  2550  032B  1D03               	skipz
  2551  032C  2B2E               	goto	u270_21
  2552  032D  2B2F               	goto	u270_20
  2553  032E                     u270_21:
  2554  032E  2B3E               	goto	i1l3516
  2555  032F                     u270_20:
  2556                           	line	54
  2557                           	
  2558  032F                     i1l3514:	
  2559                           ;lcd.h: 54: (Lcd_Write( 0, 0X01),DelayMs(2));
  2560  032F  01F0               	clrf	(?i1_Lcd_Write)
  2561  0330  1403               	bsf	status,0
  2562  0331  0DF0               	rlf	(?i1_Lcd_Write),f
  2563  0332  3000               	movlw	(0)
  2564  0333  118A  22DA  118A   	fcall	i1_Lcd_Write
  2565  0336  3002               	movlw	low(02h)
  2566  0337  00F0               	movwf	(?i1_DelayMs)
  2567  0338  3000               	movlw	high(02h)
  2568  0339  00F1               	movwf	((?i1_DelayMs))+1
  2569  033A  118A  2421  118A   	fcall	i1_DelayMs
  2570  033D  2B3E               	goto	i1l3516
  2571                           	
  2572  033E                     i1l917:	
  2573                           	line	55
  2574                           	
  2575  033E                     i1l3516:	
  2576                           ;lcd.h: 55: if(second_line==1)
  2577  033E  0879               	movf	(Lcd_String@second_line),w
  2578  033F  3A01               	xorlw	01h
  2579  0340  1D03               	skipz
  2580  0341  2B43               	goto	u271_21
  2581  0342  2B44               	goto	u271_20
  2582  0343                     u271_21:
  2583  0343  2B66               	goto	i1l3524
  2584  0344                     u271_20:
  2585                           	line	56
  2586                           	
  2587  0344                     i1l3518:	
  2588                           ;lcd.h: 56: (Lcd_Write( 0, 0xC0),DelayMs(2));
  2589  0344  30C0               	movlw	(0C0h)
  2590  0345  00FA               	movwf	(??_Lcd_String+0)+0
  2591  0346  087A               	movf	(??_Lcd_String+0)+0,w
  2592  0347  00F0               	movwf	(?i1_Lcd_Write)
  2593  0348  3000               	movlw	(0)
  2594  0349  118A  22DA  118A   	fcall	i1_Lcd_Write
  2595  034C  3002               	movlw	low(02h)
  2596  034D  00F0               	movwf	(?i1_DelayMs)
  2597  034E  3000               	movlw	high(02h)
  2598  034F  00F1               	movwf	((?i1_DelayMs))+1
  2599  0350  118A  2421  118A   	fcall	i1_DelayMs
  2600  0353  2B66               	goto	i1l3524
  2601                           	
  2602  0354                     i1l918:	
  2603                           	line	57
  2604                           ;lcd.h: 57: while(*st)
  2605  0354  2B66               	goto	i1l3524
  2606                           	
  2607  0355                     i1l920:	
  2608                           	line	59
  2609                           	
  2610  0355                     i1l3520:	
  2611                           ;lcd.h: 58: {
  2612                           ;lcd.h: 59: Lcd_Write(1, *st++);
  2613  0355  087B               	movf	(Lcd_String@st),w
  2614  0356  0084               	movwf	fsr0
  2615  0357  118A  2013  118A   	fcall	stringdir
  2616  035A  00FA               	movwf	(??_Lcd_String+0)+0
  2617  035B  087A               	movf	(??_Lcd_String+0)+0,w
  2618  035C  00F0               	movwf	(?i1_Lcd_Write)
  2619  035D  3001               	movlw	(01h)
  2620  035E  118A  22DA  118A   	fcall	i1_Lcd_Write
  2621                           	
  2622  0361                     i1l3522:	
  2623  0361  3001               	movlw	(01h)
  2624  0362  00FA               	movwf	(??_Lcd_String+0)+0
  2625  0363  087A               	movf	(??_Lcd_String+0)+0,w
  2626  0364  07FB               	addwf	(Lcd_String@st),f
  2627  0365  2B66               	goto	i1l3524
  2628                           	line	60
  2629                           	
  2630  0366                     i1l919:	
  2631                           	line	57
  2632                           	
  2633  0366                     i1l3524:	
  2634  0366  087B               	movf	(Lcd_String@st),w
  2635  0367  0084               	movwf	fsr0
  2636  0368  118A  2013  118A   	fcall	stringdir
  2637  036B  3800               	iorlw	0
  2638  036C  1D03               	skipz
  2639  036D  2B6F               	goto	u272_21
  2640  036E  2B70               	goto	u272_20
  2641  036F                     u272_21:
  2642  036F  2B55               	goto	i1l3520
  2643  0370                     u272_20:
  2644  0370  2B71               	goto	i1l922
  2645                           	
  2646  0371                     i1l921:	
  2647                           	line	61
  2648                           	
  2649  0371                     i1l922:	
  2650  0371  0008               	return
  2651                           	opt stack 0
  2652                           GLOBAL	__end_of_Lcd_String
  2653  0372                     	__end_of_Lcd_String:
  2654 ;; =============== function _Lcd_String ends ============
  2655                           
  2656                           	signat	_Lcd_String,12408
  2657                           	global	i1_Lcd_Write
  2658                           psect	text327,local,class=CODE,delta=2
  2659                           global __ptext327
  2660  02DA                     __ptext327:
  2661                           
  2662 ;; *************** function i1_Lcd_Write *****************
  2663 ;; Defined at:
  2664 ;;		line 15 in file "F:\BEVERAGES_ENHANCEMENT\SOFTWARE_DESIGN\SLAVE_PIC_16F690\2015_09_13\lcd.h"
  2665 ;; Parameters:    Size  Location     Type
  2666 ;;  Lcd_Write       1    wreg     unsigned char 
  2667 ;;  Lcd_Write       1    0[COMMON] unsigned char 
  2668 ;; Auto vars:     Size  Location     Type
  2669 ;;  Lcd_Write       1    3[COMMON] unsigned char 
  2670 ;;  Lcd_Write       2    6[COMMON] unsigned int 
  2671 ;;  Lcd_Write       2    4[COMMON] unsigned int 
  2672 ;; Return value:  Size  Location     Type
  2673 ;;		None               void
  2674 ;; Registers used:
  2675 ;;		wreg, status,2, status,0
  2676 ;; Tracked objects:
  2677 ;;		On entry : 0/0
  2678 ;;		On exit  : 0/0
  2679 ;;		Unchanged: 0/0
  2680 ;; Data sizes:     COMMON   BANK0   BANK1   BANK2
  2681 ;;      Params:         1       0       0       0
  2682 ;;      Locals:         5       0       0       0
  2683 ;;      Temps:          2       0       0       0
  2684 ;;      Totals:         8       0       0       0
  2685 ;;Total ram usage:        8 bytes
  2686 ;; Hardware stack levels used:    1
  2687 ;; This function calls:
  2688 ;;		Nothing
  2689 ;; This function is called by:
  2690 ;;		_Lcd_String
  2691 ;;		_Display_In_Lcd
  2692 ;; This function uses a non-reentrant model
  2693 ;;
  2694                           psect	text327
  2695                           	file	"F:\BEVERAGES_ENHANCEMENT\SOFTWARE_DESIGN\SLAVE_PIC_16F690\2015_09_13\lcd.h"
  2696                           	line	15
  2697                           	global	__size_ofi1_Lcd_Write
  2698  004E                     	__size_ofi1_Lcd_Write	equ	__end_ofi1_Lcd_Write-i1_Lcd_Write
  2699                           	
  2700  02DA                     i1_Lcd_Write:	
  2701                           	opt	stack 3
  2702                           ; Regs used in i1_Lcd_Write: [wreg+status,2+status,0]
  2703                           ;i1Lcd_Write@rs stored from wreg
  2704  02DA  00F3               	movwf	(i1Lcd_Write@rs)
  2705                           	line	16
  2706                           	
  2707  02DB                     i1l3726:	
  2708                           ;lcd.h: 16: RA4 =rs;
  2709  02DB  1873               	btfsc	(i1Lcd_Write@rs),0
  2710  02DC  2ADE               	goto	u311_21
  2711  02DD  2AE2               	goto	u311_20
  2712                           	
  2713  02DE                     u311_21:
  2714  02DE  1283               	bcf	status, 5	;RP0=0, select bank0
  2715  02DF  1303               	bcf	status, 6	;RP1=0, select bank0
  2716  02E0  1605               	bsf	(44/8),(44)&7
  2717  02E1  2AE5               	goto	u312_24
  2718  02E2                     u311_20:
  2719  02E2  1283               	bcf	status, 5	;RP0=0, select bank0
  2720  02E3  1303               	bcf	status, 6	;RP1=0, select bank0
  2721  02E4  1205               	bcf	(44/8),(44)&7
  2722  02E5                     u312_24:
  2723                           	line	17
  2724                           	
  2725  02E5                     i1l3728:	
  2726                           ;lcd.h: 17: { unsigned int _dcnt; _dcnt = (40)/7.5; while(--_dcnt != 0) continue; };
  2727  02E5  3005               	movlw	low(05h)
  2728  02E6  00F4               	movwf	(i1Lcd_Write@_dcnt)
  2729  02E7  3000               	movlw	high(05h)
  2730  02E8  00F5               	movwf	((i1Lcd_Write@_dcnt))+1
  2731  02E9  2AEB               	goto	i1l3730
  2732                           	
  2733  02EA                     i1l900:	
  2734  02EA  2AEB               	goto	i1l3730
  2735                           	
  2736  02EB                     i1l899:	
  2737                           	
  2738  02EB                     i1l3730:	
  2739  02EB  3001               	movlw	low(01h)
  2740  02EC  02F4               	subwf	(i1Lcd_Write@_dcnt),f
  2741  02ED  3000               	movlw	high(01h)
  2742  02EE  1C03               	skipc
  2743  02EF  03F5               	decf	(i1Lcd_Write@_dcnt+1),f
  2744  02F0  02F5               	subwf	(i1Lcd_Write@_dcnt+1),f
  2745  02F1  0875               	movf	(((i1Lcd_Write@_dcnt+1))),w
  2746  02F2  0474               	iorwf	(((i1Lcd_Write@_dcnt))),w
  2747  02F3  1D03               	skipz
  2748  02F4  2AF6               	goto	u313_21
  2749  02F5  2AF7               	goto	u313_20
  2750  02F6                     u313_21:
  2751  02F6  2AEB               	goto	i1l3730
  2752  02F7                     u313_20:
  2753  02F7  2AF8               	goto	i1l3732
  2754                           	
  2755  02F8                     i1l901:	
  2756                           	line	18
  2757                           	
  2758  02F8                     i1l3732:	
  2759                           ;lcd.h: 18: PORTC = (PORTC & 0x0F) | (c & 0xF0);
  2760  02F8  30F0               	movlw	(0F0h)
  2761  02F9  0570               	andwf	(i1Lcd_Write@c),w
  2762  02FA  00F1               	movwf	(??i1_Lcd_Write+0)+0
  2763  02FB  1283               	bcf	status, 5	;RP0=0, select bank0
  2764  02FC  1303               	bcf	status, 6	;RP1=0, select bank0
  2765  02FD  0807               	movf	(7),w
  2766  02FE  390F               	andlw	0Fh
  2767  02FF  0471               	iorwf	0+(??i1_Lcd_Write+0)+0,w
  2768  0300  0087               	movwf	(7)	;volatile
  2769                           	line	19
  2770                           	
  2771  0301                     i1l3734:	
  2772                           ;lcd.h: 19: ((RA5 = 1),(RA5=0));
  2773  0301  1685               	bsf	(45/8),(45)&7
  2774                           	
  2775  0302                     i1l3736:	
  2776  0302  1285               	bcf	(45/8),(45)&7
  2777                           	line	20
  2778                           ;lcd.h: 20: PORTC = (PORTC & 0x0F) | ( ( c << 4 ) & 0xF0 );
  2779  0303  0870               	movf	(i1Lcd_Write@c),w
  2780  0304  00F1               	movwf	(??i1_Lcd_Write+0)+0
  2781  0305  3004               	movlw	04h
  2782  0306                     u314_25:
  2783  0306  1003               	clrc
  2784  0307  0DF1               	rlf	(??i1_Lcd_Write+0)+0,f
  2785  0308  3EFF               	addlw	-1
  2786  0309  1D03               	skipz
  2787  030A  2B06               	goto	u314_25
  2788  030B  30F0               	movlw	(0F0h)
  2789  030C  0571               	andwf	0+(??i1_Lcd_Write+0)+0,w
  2790  030D  00F2               	movwf	(??i1_Lcd_Write+1)+0
  2791  030E  0807               	movf	(7),w
  2792  030F  390F               	andlw	0Fh
  2793  0310  0472               	iorwf	0+(??i1_Lcd_Write+1)+0,w
  2794  0311  0087               	movwf	(7)	;volatile
  2795                           	line	21
  2796                           	
  2797  0312                     i1l3738:	
  2798                           ;lcd.h: 21: ((RA5 = 1),(RA5=0));
  2799  0312  1685               	bsf	(45/8),(45)&7
  2800                           	
  2801  0313                     i1l3740:	
  2802  0313  1285               	bcf	(45/8),(45)&7
  2803                           	line	22
  2804                           	
  2805  0314                     i1l3742:	
  2806                           ;lcd.h: 22: { unsigned int _dcnt; _dcnt = (40)/7.5; while(--_dcnt != 0) continue; };
  2807  0314  3005               	movlw	low(05h)
  2808  0315  00F6               	movwf	(i1Lcd_Write@_dcnt_1579)
  2809  0316  3000               	movlw	high(05h)
  2810  0317  00F7               	movwf	((i1Lcd_Write@_dcnt_1579))+1
  2811  0318  2B1A               	goto	i1l3744
  2812                           	
  2813  0319                     i1l903:	
  2814  0319  2B1A               	goto	i1l3744
  2815                           	
  2816  031A                     i1l902:	
  2817                           	
  2818  031A                     i1l3744:	
  2819  031A  3001               	movlw	low(01h)
  2820  031B  02F6               	subwf	(i1Lcd_Write@_dcnt_1579),f
  2821  031C  3000               	movlw	high(01h)
  2822  031D  1C03               	skipc
  2823  031E  03F7               	decf	(i1Lcd_Write@_dcnt_1579+1),f
  2824  031F  02F7               	subwf	(i1Lcd_Write@_dcnt_1579+1),f
  2825  0320  0877               	movf	(((i1Lcd_Write@_dcnt_1579+1))),w
  2826  0321  0476               	iorwf	(((i1Lcd_Write@_dcnt_1579))),w
  2827  0322  1D03               	skipz
  2828  0323  2B25               	goto	u315_21
  2829  0324  2B26               	goto	u315_20
  2830  0325                     u315_21:
  2831  0325  2B1A               	goto	i1l3744
  2832  0326                     u315_20:
  2833  0326  2B27               	goto	i1l905
  2834                           	
  2835  0327                     i1l904:	
  2836                           	line	23
  2837                           	
  2838  0327                     i1l905:	
  2839  0327  0008               	return
  2840                           	opt stack 0
  2841                           GLOBAL	__end_ofi1_Lcd_Write
  2842  0328                     	__end_ofi1_Lcd_Write:
  2843 ;; =============== function i1_Lcd_Write ends ============
  2844                           
  2845                           	signat	i1_Lcd_Write,88
  2846                           	global	i1_DelayMs
  2847                           psect	text328,local,class=CODE,delta=2
  2848                           global __ptext328
  2849  0421                     __ptext328:
  2850                           
  2851 ;; *************** function i1_DelayMs *****************
  2852 ;; Defined at:
  2853 ;;		line 54 in file "F:\BEVERAGES_ENHANCEMENT\SOFTWARE_DESIGN\SLAVE_PIC_16F690\2015_09_13\delay.h"
  2854 ;; Parameters:    Size  Location     Type
  2855 ;;  DelayMs         2    0[COMMON] unsigned int 
  2856 ;; Auto vars:     Size  Location     Type
  2857 ;;  DelayMs         2    2[COMMON] unsigned int 
  2858 ;; Return value:  Size  Location     Type
  2859 ;;		None               void
  2860 ;; Registers used:
  2861 ;;		wreg, status,2, status,0
  2862 ;; Tracked objects:
  2863 ;;		On entry : 0/0
  2864 ;;		On exit  : 0/0
  2865 ;;		Unchanged: 0/0
  2866 ;; Data sizes:     COMMON   BANK0   BANK1   BANK2
  2867 ;;      Params:         2       0       0       0
  2868 ;;      Locals:         2       0       0       0
  2869 ;;      Temps:          0       0       0       0
  2870 ;;      Totals:         4       0       0       0
  2871 ;;Total ram usage:        4 bytes
  2872 ;; Hardware stack levels used:    1
  2873 ;; This function calls:
  2874 ;;		Nothing
  2875 ;; This function is called by:
  2876 ;;		_Lcd_String
  2877 ;; This function uses a non-reentrant model
  2878 ;;
  2879                           psect	text328
  2880                           	file	"F:\BEVERAGES_ENHANCEMENT\SOFTWARE_DESIGN\SLAVE_PIC_16F690\2015_09_13\delay.h"
  2881                           	line	54
  2882                           	global	__size_ofi1_DelayMs
  2883  0021                     	__size_ofi1_DelayMs	equ	__end_ofi1_DelayMs-i1_DelayMs
  2884                           	
  2885  0421                     i1_DelayMs:	
  2886                           	opt	stack 2
  2887                           ; Regs used in i1_DelayMs: [wreg+status,2+status,0]
  2888                           	line	55
  2889                           ;delay.h: 55: do {
  2890                           	
  2891  0421                     i1l891:	
  2892                           	line	56
  2893                           	
  2894  0421                     i1l3354:	
  2895                           ;delay.h: 56: { unsigned int _dcnt; _dcnt = (1000)/7.5; while(--_dcnt != 0) continue; };
  2896  0421  3085               	movlw	low(085h)
  2897  0422  00F2               	movwf	(i1DelayMs@_dcnt)
  2898  0423  3000               	movlw	high(085h)
  2899  0424  00F3               	movwf	((i1DelayMs@_dcnt))+1
  2900  0425  2C27               	goto	i1l3356
  2901                           	
  2902  0426                     i1l893:	
  2903  0426  2C27               	goto	i1l3356
  2904                           	
  2905  0427                     i1l892:	
  2906                           	
  2907  0427                     i1l3356:	
  2908  0427  3001               	movlw	low(01h)
  2909  0428  02F2               	subwf	(i1DelayMs@_dcnt),f
  2910  0429  3000               	movlw	high(01h)
  2911  042A  1C03               	skipc
  2912  042B  03F3               	decf	(i1DelayMs@_dcnt+1),f
  2913  042C  02F3               	subwf	(i1DelayMs@_dcnt+1),f
  2914  042D  0873               	movf	(((i1DelayMs@_dcnt+1))),w
  2915  042E  0472               	iorwf	(((i1DelayMs@_dcnt))),w
  2916  042F  1D03               	skipz
  2917  0430  2C32               	goto	u249_21
  2918  0431  2C33               	goto	u249_20
  2919  0432                     u249_21:
  2920  0432  2C27               	goto	i1l3356
  2921  0433                     u249_20:
  2922  0433  2C34               	goto	i1l3358
  2923                           	
  2924  0434                     i1l894:	
  2925                           	line	57
  2926                           	
  2927  0434                     i1l3358:	
  2928                           ;delay.h: 57: } while(--cnt);
  2929  0434  3001               	movlw	low(01h)
  2930  0435  02F0               	subwf	(i1DelayMs@cnt),f
  2931  0436  3000               	movlw	high(01h)
  2932  0437  1C03               	skipc
  2933  0438  03F1               	decf	(i1DelayMs@cnt+1),f
  2934  0439  02F1               	subwf	(i1DelayMs@cnt+1),f
  2935  043A  0871               	movf	(((i1DelayMs@cnt+1))),w
  2936  043B  0470               	iorwf	(((i1DelayMs@cnt))),w
  2937  043C  1D03               	skipz
  2938  043D  2C3F               	goto	u250_21
  2939  043E  2C40               	goto	u250_20
  2940  043F                     u250_21:
  2941  043F  2C21               	goto	i1l891
  2942  0440                     u250_20:
  2943  0440  2C41               	goto	i1l896
  2944                           	
  2945  0441                     i1l895:	
  2946                           	line	58
  2947                           	
  2948  0441                     i1l896:	
  2949  0441  0008               	return
  2950                           	opt stack 0
  2951                           GLOBAL	__end_ofi1_DelayMs
  2952  0442                     	__end_ofi1_DelayMs:
  2953 ;; =============== function i1_DelayMs ends ============
  2954                           
  2955                           	signat	i1_DelayMs,88
  2956                           	global	_SendByteSerially
  2957                           psect	text329,local,class=CODE,delta=2
  2958                           global __ptext329
  2959  0496                     __ptext329:
  2960                           
  2961 ;; *************** function _SendByteSerially *****************
  2962 ;; Defined at:
  2963 ;;		line 18 in file "F:\BEVERAGES_ENHANCEMENT\SOFTWARE_DESIGN\SLAVE_PIC_16F690\2015_09_13\uart.h"
  2964 ;; Parameters:    Size  Location     Type
  2965 ;;  Byte            1    wreg     unsigned char 
  2966 ;; Auto vars:     Size  Location     Type
  2967 ;;  Byte            1    0[COMMON] unsigned char 
  2968 ;; Return value:  Size  Location     Type
  2969 ;;		None               void
  2970 ;; Registers used:
  2971 ;;		wreg
  2972 ;; Tracked objects:
  2973 ;;		On entry : 0/0
  2974 ;;		On exit  : 0/0
  2975 ;;		Unchanged: 0/0
  2976 ;; Data sizes:     COMMON   BANK0   BANK1   BANK2
  2977 ;;      Params:         0       0       0       0
  2978 ;;      Locals:         1       0       0       0
  2979 ;;      Temps:          0       0       0       0
  2980 ;;      Totals:         1       0       0       0
  2981 ;;Total ram usage:        1 bytes
  2982 ;; Hardware stack levels used:    1
  2983 ;; This function calls:
  2984 ;;		Nothing
  2985 ;; This function is called by:
  2986 ;;		_ISR
  2987 ;;		_SendStringSerially
  2988 ;; This function uses a non-reentrant model
  2989 ;;
  2990                           psect	text329
  2991                           	file	"F:\BEVERAGES_ENHANCEMENT\SOFTWARE_DESIGN\SLAVE_PIC_16F690\2015_09_13\uart.h"
  2992                           	line	18
  2993                           	global	__size_of_SendByteSerially
  2994  000C                     	__size_of_SendByteSerially	equ	__end_of_SendByteSerially-_SendByteSerially
  2995                           	
  2996  0496                     _SendByteSerially:	
  2997                           	opt	stack 4
  2998                           ; Regs used in _SendByteSerially: [wreg]
  2999                           ;SendByteSerially@Byte stored from wreg
  3000  0496  00F0               	movwf	(SendByteSerially@Byte)
  3001                           	line	19
  3002                           	
  3003  0497                     i1l2400:	
  3004                           ;uart.h: 19: while(!TXIF);
  3005  0497  2C98               	goto	i1l943
  3006                           	
  3007  0498                     i1l944:	
  3008                           	
  3009  0498                     i1l943:	
  3010  0498  1283               	bcf	status, 5	;RP0=0, select bank0
  3011  0499  1303               	bcf	status, 6	;RP1=0, select bank0
  3012  049A  1E0C               	btfss	(100/8),(100)&7
  3013  049B  2C9D               	goto	u19_21
  3014  049C  2C9E               	goto	u19_20
  3015  049D                     u19_21:
  3016  049D  2C98               	goto	i1l943
  3017  049E                     u19_20:
  3018  049E  2C9F               	goto	i1l2402
  3019                           	
  3020  049F                     i1l945:	
  3021                           	line	20
  3022                           	
  3023  049F                     i1l2402:	
  3024                           ;uart.h: 20: TXREG = Byte;
  3025  049F  0870               	movf	(SendByteSerially@Byte),w
  3026  04A0  0099               	movwf	(25)	;volatile
  3027                           	line	21
  3028                           	
  3029  04A1                     i1l946:	
  3030  04A1  0008               	return
  3031                           	opt stack 0
  3032                           GLOBAL	__end_of_SendByteSerially
  3033  04A2                     	__end_of_SendByteSerially:
  3034 ;; =============== function _SendByteSerially ends ============
  3035                           
  3036                           	signat	_SendByteSerially,4216
  3037                           psect	text330,local,class=CODE,delta=2
  3038                           global __ptext330
  3039  0000                     __ptext330:
  3040                           	global	btemp
  3041  007E                     	btemp set 07Eh
  3042                           
  3043                           	DABS	1,126,2	;btemp
  3044                           	global	wtemp0
  3045  007E                     	wtemp0 set btemp


HI-TECH Software PICC Macro Assembler V9.82 build 9453 
Symbol Table                                                                                   Sun Sep 13 15:10:03 2015

                        pc 0002                         _RD 0C60                         _WR 0C61  
                       fsr 0004              LCD_INIT@_dcnt 002D                        l900 029E  
                      l901 02AC                        l902 02CC                        l910 0257  
                      l903 02CB                        l911 028B                        l904 02D9  
                      l905 02D9                        l908 024A                        l940 03AB  
                      l909 0249                        l891 03FE                        l892 0406  
                      l893 0405                        l894 0413                        l895 0420  
                      l991 045B                        l896 0420                        l994 03D2  
                      l899 029F                        l995 03D2                        _GIE 005F  
                      l996 03D3                        l997 03D3                        _RA4 002C  
                      _RA5 002D                        _ISR 03D5                        fsr0 0004  
                      indf 0000                       ?_ISR 0070                       l2051 019F  
                     l2060 0227                       l2052 01B3                       l2061 0230  
                     l2053 0217                       l2054 01D5                       l2055 01C7  
                     l2056 01DA                       l2057 01DB                       l2058 0206  
                     l2059 0216                       l3500 02B4                       l3502 02C4  
                     l3504 02C5                       l3506 02C6                       l3508 02CC  
                     l3700 01C3                       l3710 01F6                       l3702 01C7  
                     l3720 021B                       l3712 0204                       l3704 01D5  
                     l3800 0450                       l3490 028F                       l3722 0227  
                     l3714 0206                       l3706 01DB                       l3802 0454  
                     l3484 03FE                       l3492 0299                       l3724 0230  
                     l3716 020F                       l3708 01E4                       l3804 03AC  
                     l3486 0406                       l3494 029F                       l3718 0217  
                     l3750 023C                       l3488 0413                       l3496 02AC  
                     l3760 0257                       l3752 0242                       l3498 02B3  
                     l3690 019F                       l3770 026F                       l3762 025B  
                     l3754 0243                       l3746 0231                       l3692 01A3  
                     l3684 0189                       l3772 0278                       l3764 025C  
                     l3756 0244                       l3748 0235                       l3780 03A0  
                     l3694 01AE                       l3686 0190                       l3774 0281  
                     l3766 025D                       l3758 024A                       l3790 03A9  
                     l3782 03A1                       l3696 01B3                       l3688 019B  
                     l3768 0265                       l3792 03AA                       l3784 03A4  
                     l3776 0372                       l3698 01BB                       l3786 03A5  
                     l3778 039F                       l3794 0442                       l3788 03A8  
                     l3796 0447                       l3798 044F                       STR_1 0054  
                     STR_2 0089                       STR_3 0028                       STR_4 0046  
                     STR_5 0037                       STR_6 006F                       STR_7 0019  
                     STR_8 0062                       STR_9 00AE                       _BRGH 04C2  
                     _CREN 00C4                       u3010 0190                       u3011 018F  
                     u3100 021B                       u3020 01A3                       u3021 01A2  
                     u3030 01C3                       u3031 01C2                       u3050 01D9  
                     u3051 01D8                       u3045 01C9                       u3070 01F6  
                     u3071 01F5                       u3160 0256                       u3065 01DD  
                     u3161 0255                       u3090 0215                       u3170 0382  
                     u3091 0214                       u3075 01F2                       u3085 0207  
                     u2630 0412                       u2631 0411                       u3175 037D  
                     u2640 041F                       u2641 041E                       u2650 0296  
                     u2651 0292                       u2670 02AB                       u2671 02AA  
                     u2664 0299                       u2690 02D8                       u2691 02D7  
                     _PEIE 005E                       u2685 02B8                       _RCIE 0465  
                     _RCIF 0065                       _OERR 00C1                       _SPEN 00C7  
                     _WREN 0C62                       _TXEN 04C5                       _TXIF 0064  
                     _SYNC 04C4                       _main 03AC                       btemp 007E  
                     start 0011            __end_of_DelayMs 0421                _SYSTEM_INIT 0442  
                    ??_ISR 0020           __end_of_LCD_INIT 028C          Display_In_Lcd@sel 007D  
          __end_of___aldiv 0231                 _Lcd_String 0328                      ?_main 0070  
                    _EEADR 010D                      STR_10 007C                      STR_11 0096  
                    STR_12 00C3                      STR_13 00A2                      STR_14 00CC  
                    STR_15 00B9                      _CARRY 0018                      _ANSEL 011E  
                    _IRCF0 047C                      _IRCF1 047D                      _IRCF2 047E  
                    i1l900 02EA                      i1l901 02F8                      i1l902 031A  
                    i1l903 0319                      i1l904 0327                      i1l920 0355  
                    i1l905 0327                      i1l921 0371                      i1l922 0371  
                    i1l917 033E                      i1l918 0354                      i1l943 0498  
                    i1l919 0366                      i1l944 0498                      i1l945 049F  
                    i1l946 04A1                      i1l970 00FA                      i1l891 0421  
                    i1l971 0103                      i1l892 0427                      i1l972 010C  
                    i1l980 0188                      i1l893 0426                      i1l965 0179  
                    i1l973 0115                      i1l894 0434                      i1l974 011E  
                    i1l966 00D7                      i1l895 0441                      i1l967 0188  
                    i1l975 0127                      i1l983 03F1                      i1l896 0441  
                    i1l976 0130                      i1l968 00E8                      i1l984 03E0  
                    i1l977 0139                      i1l969 00F1                      i1l985 03E1  
                    i1l978 014A                      i1l986 03E1                      i1l899 02EB  
                    i1l979 0159                      i1l987 03E6                      i1l988 03F1  
                    _RCREG 001A                      _SPBRG 0099                      u19_20 049E  
                    u19_21 049D                      _PORTC 0007                      _TRISA 0085  
                    _TRISC 0087                      _WPUA2 04AA                      _TXREG 0019  
       __size_of_UART_INIT 003A         __size_ofi1_DelayMs 0021                      pclath 000A  
                    status 0003                      wtemp0 007E               __end_of_main 03D5  
                   ??_main 003B         __size_of_Lcd_Write 004E                     i1S3816 045C  
                   _EEDATA 010C                     _EECON1 018C                     _EECON2 018D  
                   _ANSELH 011F                     i1l2400 0497                     i1l2402 049F  
                   i1l3520 0355                     i1l3512 0329                     i1l3600 0159  
                   i1l3354 0421                     i1l3522 0361                     i1l3514 032F  
                   i1l3602 0161                     i1l3610 0179                     i1l3356 0427  
                   i1l3524 0366                     i1l3516 033E                     i1l3604 0167  
                   i1l3620 03E6                     i1l3358 0434                     i1l3518 0344  
                   i1l3606 016F                     i1l3622 03EA                     i1l3614 03D5  
                   i1l3608 0178                     i1l3616 03D9                     i1l3730 02EB  
                   i1l3618 03DD                     i1l3740 0313                     i1l3732 02F8  
                   i1l3580 00FA                     i1l3572 00D6                     i1l3742 0314  
                   i1l3734 0301                     i1l3726 02DB                     i1l3590 0127  
                   i1l3582 0103                     i1l3574 00D7                     i1l3744 031A  
                   i1l3736 0302                     i1l3728 02E5                     i1l3592 0130  
                   i1l3584 010C                     i1l3576 00E8                     i1l3738 0312  
                   i1l3594 0139                     i1l3586 0115                     i1l3578 00F1  
                   i1l3596 014A                     i1l3588 011E                     i1l3598 0152  
                   u311_20 02E2                     u311_21 02DE                     u312_24 02E5  
                   u313_20 02F7                     u313_21 02F6                     u250_20 0440  
                   u250_21 043F                     u314_25 0306                     u315_20 0326  
                   u315_21 0325                     u270_20 032F                     u270_21 032E  
                   u271_20 0344                     u271_21 0343                  ??_DelayMs 0026  
                   u272_20 0370                     u272_21 036F                     u249_20 0433  
                   u281_20 03D9                     u249_21 0432                     u281_21 03D8  
                   u282_20 03DD                     u282_21 03DC                     u283_20 03E5  
                   u283_21 03E4               ?i1_Lcd_Write 0070          __end_of_UART_INIT 03AC  
        __end_ofi1_DelayMs 0442                     _nRABPU 040F                  ??___aldiv 002C  
              ?_Lcd_String 0078   __end_of_SendByteSerially 04A2                     saved_w 007E  
                ?_LCD_INIT 0070          __end_of_Lcd_Write 02DA             __pcstackCOMMON 0070  
             __pidataBANK0 04A2       SendByteSerially@Byte 0070             Lcd_Write@_dcnt 0027  
               ??_LCD_INIT 002C        __size_of_Lcd_String 004A               ?_SYSTEM_INIT 0070  
               __pmaintext 03AC                 __pintentry 0004                 _asciitable 003B  
                  _DelayMs 03FE       __size_ofi1_Lcd_Write 004E                    ___aldiv 0189  
  __size_of_Display_In_Lcd 00B4               __size_of_ISR 0029           ___aldiv@dividend 0028  
     end_of_initialization 0493              i1Lcd_Write@rs 0073                    init_ram 047A  
         ___aldiv@quotient 002F                  _UART_INIT 0372                  i1_DelayMs 0421  
             ??_Lcd_String 007A          ?_SendByteSerially 0070         ??_SendByteSerially 0070  
      Lcd_Write@_dcnt_1579 0029          __size_of_LCD_INIT 005B         __end_of_Lcd_String 0372  
     __size_of_SYSTEM_INIT 001A                  _Lcd_Write 028C                 ?_UART_INIT 0033  
               ?i1_DelayMs 0070               DelayMs@_dcnt 0026        start_initialization 0487  
              __end_of_ISR 03FE            Lcd_String@clear 0078      Lcd_String@second_line 0079  
         i1Lcd_Write@_dcnt 0074                 ?_Lcd_Write 0024             _Display_In_Lcd 00D5  
              __pdataBANK0 003B             i1DelayMs@_dcnt 0072              __pcstackBANK0 0020  
                 ?_DelayMs 0024               i1DelayMs@cnt 0070     __end_of_Display_In_Lcd 0189  
                 ?___aldiv 0024                  __ptext320 0231                  __ptext321 0189  
                __ptext330 0000                  __ptext322 028C                  __ptext323 03FE  
                __ptext324 03D5                  __ptext325 00D5                  __ptext326 0328  
                __ptext318 0442                  __ptext327 02DA                  __ptext319 0372  
                __ptext328 0421                  __ptext329 0496                ??_UART_INIT 0037  
              ??i1_DelayMs 0072                  __pstrings 0013                  __pswtext1 045C  
                 _LCD_INIT 0231            ___aldiv@divisor 0024          interrupt_function 0004  
          ___aldiv@counter 002D               i1Lcd_Write@c 0070              ??i1_Lcd_Write 0071  
          ?_Display_In_Lcd 0070                ??_Lcd_Write 0025                __stringbase 0018  
         __size_of_DelayMs 0023  __size_of_SendByteSerially 000C                  init_fetch 0476  
      __end_ofi1_Lcd_Write 0328           __size_of___aldiv 00A8               Lcd_String@st 007B  
        UART_INIT@baudrate 0033              __size_of_main 0029              ??_SYSTEM_INIT 0028  
               DelayMs@cnt 0024                   intlevel1 0000                Lcd_Write@rs 002B  
              i1_Lcd_Write 02DA                  stringcode 0013        __end_of_SYSTEM_INIT 045C  
               Lcd_Write@c 0024                   stringdir 0013                   stringtab 0013  
             ___aldiv@sign 002E           ??_Display_In_Lcd 007C      i1Lcd_Write@_dcnt_1579 0076  
         _SendByteSerially 0496  
