

HI-TECH Software PIC LITE Macro Assembler V9.82 build 9453 
                                                                                               Sun Sep 13 13:56:18 2015

HI-TECH Software Omniscient Code Generator (Lite mode) build 9453
     1  0000                     opt subtitle "HI-TECH Software Omniscient Code Generator (Lite mode) build 9453"
     2                           
     3                           opt pagewidth 120
     4                           
     5                           	opt lm
     6                           
     7                           	processor	16F877A
     8                           clrc	macro
     9                           	bcf	3,0
    10  0000                     	endm
    11                           clrz	macro
    12                           	bcf	3,2
    13  0000                     	endm
    14                           setc	macro
    15                           	bsf	3,0
    16  0000                     	endm
    17                           setz	macro
    18                           	bsf	3,2
    19  0000                     	endm
    20                           skipc	macro
    21                           	btfss	3,0
    22  0000                     	endm
    23                           skipz	macro
    24                           	btfss	3,2
    25  0000                     	endm
    26                           skipnc	macro
    27                           	btfsc	3,0
    28  0000                     	endm
    29                           skipnz	macro
    30                           	btfsc	3,2
    31  0000                     	endm
    32  0000                     indf	equ	0
    33  0000                     indf0	equ	0
    34  0002                     pc	equ	2
    35  0002                     pcl	equ	2
    36  0003                     status	equ	3
    37  0004                     fsr	equ	4
    38  0004                     fsr0	equ	4
    39  0001                     c	equ	1
    40  0000                     z	equ	0
    41  000A                     pclath	equ	10
    42                           # 9 "F:\BEVERAGES_ENHANCEMENT\SOFTWARE_DESIGN\MASTER_PIC_16F877A\2015_09_03\Beverage.c"
    43                           	psect config,class=CONFIG,delta=2 ;#
    44                           # 9 "F:\BEVERAGES_ENHANCEMENT\SOFTWARE_DESIGN\MASTER_PIC_16F877A\2015_09_03\Beverage.c"
    45  2007  FF32               	dw 0xFFFF & 0xFF7F & 0xFFBF & 0xFFFF & 0xFFFF & 0xFFF7 & 0xFFFB & 0xFFFE & 0xFFFF ;#
    46                           	FNCALL	_main,_Port_Init
    47                           	FNCALL	_main,_Lcd_Init
    48                           	FNCALL	_main,_Inidcate_Buzzer
    49                           	FNCALL	_main,_Print_Name
    50                           	FNCALL	_main,_InitADC
    51                           	FNCALL	_main,_Mode_Init
    52                           	FNCALL	_main,_GetADCValue
    53                           	FNCALL	_main,___wmul
    54                           	FNCALL	_main,___lwdiv
    55                           	FNCALL	_main,_DelayMs
    56                           	FNCALL	_main,_eeprom_read
    57                           	FNCALL	_main,_myitoa
    58                           	FNCALL	_main,_Lcd_String
    59                           	FNCALL	_main,_Lcd_Cmd
    60                           	FNCALL	_main,_key_press
    61                           	FNCALL	_main,_enable_valves
    62                           	FNCALL	_main,_change_modes
    63                           	FNCALL	_change_modes,_Print_Name
    64                           	FNCALL	_change_modes,_Lcd_String
    65                           	FNCALL	_change_modes,_DelayMs
    66                           	FNCALL	_change_modes,_Lcd_Cmd
    67                           	FNCALL	_change_modes,_Lcd_Data
    68                           	FNCALL	_change_modes,_print_yes_no
    69                           	FNCALL	_change_modes,_eeprom_read
    70                           	FNCALL	_change_modes,_count_read
    71                           	FNCALL	_change_modes,_Num_Disp
    72                           	FNCALL	_enable_valves,_Print_Menu
    73                           	FNCALL	_enable_valves,_Inidcate_Buzzer
    74                           	FNCALL	_enable_valves,_eeprom_read
    75                           	FNCALL	_enable_valves,_count_write
    76                           	FNCALL	_enable_valves,_call_control_valve
    77                           	FNCALL	_enable_valves,_Print_Name
    78                           	FNCALL	_enable_valves,_key_press
    79                           	FNCALL	_enable_valves,_offthevalve
    80                           	FNCALL	_enable_valves,_eeprom_write
    81                           	FNCALL	_enable_valves,_Lcd_Cmd
    82                           	FNCALL	_enable_valves,_Num_Disp
    83                           	FNCALL	_enable_valves,_DelayMs
    84                           	FNCALL	_enable_valves,_myitoa
    85                           	FNCALL	_enable_valves,_Lcd_String
    86                           	FNCALL	_enable_valves,_Write_ValveIn_Memory
    87                           	FNCALL	_enable_valves,_print_yes_no
    88                           	FNCALL	_enable_valves,___bmul
    89                           	FNCALL	_enable_valves,_Lcd_Data
    90                           	FNCALL	_enable_valves,___awdiv
    91                           	FNCALL	_enable_valves,_onthevalve
    92                           	FNCALL	_enable_valves,___wmul
    93                           	FNCALL	_enable_valves,_count_read
    94                           	FNCALL	_Mode_Init,_Read_ValveFrom_Memory
    95                           	FNCALL	_Mode_Init,_eeprom_read
    96                           	FNCALL	_Mode_Init,_Lcd_String
    97                           	FNCALL	_Mode_Init,_eeprom_write
    98                           	FNCALL	_Mode_Init,_Lcd_Cmd
    99                           	FNCALL	_Mode_Init,_call_control_valve
   100                           	FNCALL	_call_control_valve,___bmul
   101                           	FNCALL	_call_control_valve,_eeprom_read
   102                           	FNCALL	_call_control_valve,_control_valve
   103                           	FNCALL	_call_control_valve,_Lcd_Cmd
   104                           	FNCALL	_call_control_valve,_myitoa
   105                           	FNCALL	_call_control_valve,_Lcd_String
   106                           	FNCALL	_call_control_valve,_eeprom_write
   107                           	FNCALL	_call_control_valve,___wmul
   108                           	FNCALL	_Print_Menu,_Lcd_String
   109                           	FNCALL	_Print_Name,_Lcd_String
   110                           	FNCALL	_print_yes_no,_Read_ValveFrom_Memory
   111                           	FNCALL	_print_yes_no,_Lcd_Cmd
   112                           	FNCALL	_print_yes_no,_Lcd_Data
   113                           	FNCALL	_myitoa,___awmod
   114                           	FNCALL	_myitoa,___awdiv
   115                           	FNCALL	_myitoa,_rev
   116                           	FNCALL	_Num_Disp,___wmul
   117                           	FNCALL	_Num_Disp,___lwdiv
   118                           	FNCALL	_Num_Disp,_Lcd_Data
   119                           	FNCALL	_Num_Disp,___lwmod
   120                           	FNCALL	_Lcd_String,_Lcd_Cmd
   121                           	FNCALL	_Lcd_String,_Lcd_Data
   122                           	FNCALL	_Lcd_Init,_Lcd_Cmd
   123                           	FNCALL	_Lcd_Init,_DelayMs
   124                           	FNCALL	_control_valve,_onthevalve
   125                           	FNCALL	_control_valve,___wmul
   126                           	FNCALL	_control_valve,_DelayMs
   127                           	FNCALL	_control_valve,_offthevalve
   128                           	FNCALL	_count_read,_eeprom_read
   129                           	FNCALL	_count_read,___wmul
   130                           	FNCALL	_Write_ValveIn_Memory,_eeprom_write
   131                           	FNCALL	_count_write,_eeprom_write
   132                           	FNCALL	_count_write,_eeprom_read
   133                           	FNCALL	_Read_ValveFrom_Memory,_eeprom_read
   134                           	FNCALL	_Inidcate_Buzzer,_DelayMs
   135                           	FNCALL	_rev,_strlen
   136                           	FNCALL	_Lcd_Data,_DelayMs
   137                           	FNCALL	_Lcd_Cmd,_DelayMs
   138                           	FNROOT	_main
   139                           	global	_asciitable
   140                           psect	idataBANK1,class=CODE,space=0,delta=2
   141                           global __pidataBANK1
   142  18C1                     __pidataBANK1:
   143                           	file	"F:\BEVERAGES_ENHANCEMENT\SOFTWARE_DESIGN\MASTER_PIC_16F877A\2015_09_03\lcd.h"
   144                           	line	8
   145                           
   146                           ;initializer for _asciitable
   147  18C1  3430               	retlw	030h
   148  18C2  3431               	retlw	031h
   149  18C3  3432               	retlw	032h
   150  18C4  3433               	retlw	033h
   151  18C5  3434               	retlw	034h
   152  18C6  3435               	retlw	035h
   153  18C7  3436               	retlw	036h
   154  18C8  3437               	retlw	037h
   155  18C9  3438               	retlw	038h
   156  18CA  3439               	retlw	039h
   157                           	global	_MENU
   158                           	global	_ADC_value
   159                           	global	_i
   160                           	global	_j
   161                           	global	_password
   162                           	global	_temperature
   163                           	global	_time
   164                           	global	_Next
   165                           	global	_VALVE
   166                           	global	__DISABLE_MODE
   167                           	global	__ENABLE_MODE
   168                           	global	__OFF
   169                           	global	__ON
   170                           	global	__PRESSED
   171                           	global	__PREVIOUS_MODE
   172                           	global	__PREVIOUS_PROCESS
   173                           	global	__PROCESS
   174                           	global	__SHORTCUT_PRESSED
   175                           	global	_itoai
   176                           	global	_mem_index1
   177                           	global	_mem_index2
   178                           	global	_Enable_Coffee_Dication_Time
   179                           	global	_Enable_Coffee_Hot_Water_Valve
   180                           	global	_Enable_Coffee_Valve
   181                           	global	_Enable_Config_Mode
   182                           	global	_Enable_Count_Reset
   183                           	global	_Enable_Cup_Count
   184                           	global	_Enable_Dication_Delay
   185                           	global	_Enable_Heater1
   186                           	global	_Enable_Heater2
   187                           	global	_Enable_Hot_Water_Time
   188                           	global	_Enable_Hot_Water_Valve
   189                           	global	_Enable_Milk_Forward
   190                           	global	_Enable_Milk_Reverse
   191                           	global	_Enable_Milk_Reverse_Time
   192                           	global	_Enable_Mixing_Hot_Water_Valve
   193                           	global	_Enable_Normal_Mode
   194                           	global	_Enable_Password
   195                           	global	_Enable_Selection
   196                           	global	_Enable_Shortcut_Mode
   197                           	global	_Enable_Tea_Dication_Time
   198                           	global	_Enable_Tea_Hot_Water_Valve
   199                           	global	_Enable_Tea_Valve
   200                           	global	_Enable_Temperature
   201                           	global	_Enable_Valves
   202                           	global	_Enable_Viber_Motor
   203                           	global	__Demo
   204                           	global	__SHORTCUT
   205                           	global	__clear
   206                           	global	__temp_flag
   207                           	global	_buff
   208                           	global	_Selection_Next
   209                           	global	__CHOICE_SELECTED
   210                           	global	_ADCON0
   211  001F                     _ADCON0	set	31
   212                           	global	_ADRESH
   213  001E                     _ADRESH	set	30
   214                           	global	_PORTA
   215  0005                     _PORTA	set	5
   216                           	global	_PORTB
   217  0006                     _PORTB	set	6
   218                           	global	_PORTC
   219  0007                     _PORTC	set	7
   220                           	global	_PORTD
   221  0008                     _PORTD	set	8
   222                           	global	_PORTE
   223  0009                     _PORTE	set	9
   224                           	global	_CARRY
   225  0018                     _CARRY	set	24
   226                           	global	_GIE
   227  005F                     _GIE	set	95
   228                           	global	_GO_nDONE
   229  00FA                     _GO_nDONE	set	250
   230                           	global	_RA2
   231  002A                     _RA2	set	42
   232                           	global	_RA4
   233  002C                     _RA4	set	44
   234                           	global	_RA5
   235  002D                     _RA5	set	45
   236                           	global	_RB0
   237  0030                     _RB0	set	48
   238                           	global	_RB1
   239  0031                     _RB1	set	49
   240                           	global	_RB2
   241  0032                     _RB2	set	50
   242                           	global	_RB3
   243  0033                     _RB3	set	51
   244                           	global	_RB4
   245  0034                     _RB4	set	52
   246                           	global	_RB5
   247  0035                     _RB5	set	53
   248                           	global	_RB6
   249  0036                     _RB6	set	54
   250                           	global	_RB7
   251  0037                     _RB7	set	55
   252                           	global	_RC0
   253  0038                     _RC0	set	56
   254                           	global	_RC1
   255  0039                     _RC1	set	57
   256                           	global	_RC2
   257  003A                     _RC2	set	58
   258                           	global	_RC3
   259  003B                     _RC3	set	59
   260                           	global	_RC4
   261  003C                     _RC4	set	60
   262                           	global	_RC5
   263  003D                     _RC5	set	61
   264                           	global	_RD1
   265  0041                     _RD1	set	65
   266                           	global	_RD2
   267  0042                     _RD2	set	66
   268                           	global	_RD3
   269  0043                     _RD3	set	67
   270                           	global	_RE0
   271  0048                     _RE0	set	72
   272                           	global	_RE1
   273  0049                     _RE1	set	73
   274                           	global	_RE2
   275  004A                     _RE2	set	74
   276                           	global	_ADCON1
   277  009F                     _ADCON1	set	159
   278                           	global	_ADRESL
   279  009E                     _ADRESL	set	158
   280                           	global	_CMCON
   281  009C                     _CMCON	set	156
   282                           	global	_TRISA
   283  0085                     _TRISA	set	133
   284                           	global	_TRISB
   285  0086                     _TRISB	set	134
   286                           	global	_TRISC
   287  0087                     _TRISC	set	135
   288                           	global	_TRISD
   289  0088                     _TRISD	set	136
   290                           	global	_TRISE
   291  0089                     _TRISE	set	137
   292                           	global	_EEADR
   293  010D                     _EEADR	set	269
   294                           	global	_EEDATA
   295  010C                     _EEDATA	set	268
   296                           	global	_EECON1
   297  018C                     _EECON1	set	396
   298                           	global	_EECON2
   299  018D                     _EECON2	set	397
   300                           	global	_RD
   301  0C60                     _RD	set	3168
   302                           	global	_WR
   303  0C61                     _WR	set	3169
   304                           	global	_WREN
   305  0C62                     _WREN	set	3170
   306                           psect	strings,class=STRING,delta=2
   307                           global __pstrings
   308  1800                     __pstrings:
   309                           ;	global	stringtab,__stringbase
   310  1800                     stringtab:
   311                           ;	String table - string pointers are 2 bytes each
   312  1800  1BFF               	btfsc	(btemp+1),7
   313  1801  280A               	ljmp	stringcode
   314  1802  1383               	bcf	status,7
   315  1803  187F               	btfsc	(btemp+1),0
   316  1804  1783               	bsf	status,7
   317  1805  0800               	movf	indf,w
   318  1806  0A84               	incf fsr
   319  1807  1903               skipnz
   320  1808  0AFF               incf btemp+1
   321  1809  0008               	return
   322  180A                     stringcode:
   323  180A  087F               	movf btemp+1,w
   324  180B  397F               andlw 7Fh
   325  180C  008A               movwf	pclath
   326  180D  0804               	movf	fsr,w
   327  180E  0A84               incf fsr
   328  180F  1903               skipnz
   329  1810  0AFF               incf btemp+1
   330  1811  0082               	movwf pc
   331  1812                     __stringbase:
   332                           psect	stringtext,class=STRCODE,delta=2,reloc=256
   333                           global __pstringtext
   334  1000                     __pstringtext:
   335                           	
   336  1000                     STR_21:	
   337  1000  3450               	retlw	80	;'P'
   338  1001  3452               	retlw	82	;'R'
   339  1002  3445               	retlw	69	;'E'
   340  1003  3450               	retlw	80	;'P'
   341  1004  3441               	retlw	65	;'A'
   342  1005  3452               	retlw	82	;'R'
   343  1006  3449               	retlw	73	;'I'
   344  1007  344E               	retlw	78	;'N'
   345  1008  3447               	retlw	71	;'G'
   346  1009  3420               	retlw	32	;' '
   347  100A  3443               	retlw	67	;'C'
   348  100B  344F               	retlw	79	;'O'
   349  100C  3446               	retlw	70	;'F'
   350  100D  3446               	retlw	70	;'F'
   351  100E  3445               	retlw	69	;'E'
   352  100F  3445               	retlw	69	;'E'
   353  1010  3400               	retlw	0
   354                           psect	stringtext
   355                           	
   356  1011                     STR_2:	
   357  1011  3448               	retlw	72	;'H'
   358  1012  3441               	retlw	65	;'A'
   359  1013  3456               	retlw	86	;'V'
   360  1014  3445               	retlw	69	;'E'
   361  1015  3420               	retlw	32	;' '
   362  1016  3441               	retlw	65	;'A'
   363  1017  3420               	retlw	32	;' '
   364  1018  3448               	retlw	72	;'H'
   365  1019  344F               	retlw	79	;'O'
   366  101A  3454               	retlw	84	;'T'
   367  101B  3420               	retlw	32	;' '
   368  101C  3453               	retlw	83	;'S'
   369  101D  3449               	retlw	73	;'I'
   370  101E  3450               	retlw	80	;'P'
   371  101F  3420               	retlw	32	;' '
   372  1020  3421               	retlw	33	;'!'
   373  1021  3400               	retlw	0
   374                           psect	stringtext
   375                           	
   376  1022                     STR_22:	
   377  1022  3443               	retlw	67	;'C'
   378  1023  344F               	retlw	79	;'O'
   379  1024  3446               	retlw	70	;'F'
   380  1025  3446               	retlw	70	;'F'
   381  1026  3445               	retlw	69	;'E'
   382  1027  3445               	retlw	69	;'E'
   383  1028  3420               	retlw	32	;' '
   384  1029  3443               	retlw	67	;'C'
   385  102A  344C               	retlw	76	;'L'
   386  102B  3445               	retlw	69	;'E'
   387  102C  3441               	retlw	65	;'A'
   388  102D  344E               	retlw	78	;'N'
   389  102E  3449               	retlw	73	;'I'
   390  102F  344E               	retlw	78	;'N'
   391  1030  3447               	retlw	71	;'G'
   392  1031  3400               	retlw	0
   393                           psect	stringtext
   394                           	
   395  1032                     STR_35:	
   396  1032  3443               	retlw	67	;'C'
   397  1033  344F               	retlw	79	;'O'
   398  1034  3446               	retlw	70	;'F'
   399  1035  3446               	retlw	70	;'F'
   400  1036  3445               	retlw	69	;'E'
   401  1037  3445               	retlw	69	;'E'
   402  1038  3420               	retlw	32	;' '
   403  1039  3444               	retlw	68	;'D'
   404  103A  3449               	retlw	73	;'I'
   405  103B  3443               	retlw	67	;'C'
   406  103C  3441               	retlw	65	;'A'
   407  103D  3454               	retlw	84	;'T'
   408  103E  3449               	retlw	73	;'I'
   409  103F  344F               	retlw	79	;'O'
   410  1040  344E               	retlw	78	;'N'
   411  1041  3400               	retlw	0
   412                           psect	stringtext
   413                           	
   414  1042                     STR_1:	
   415  1042  344C               	retlw	76	;'L'
   416  1043  344F               	retlw	79	;'O'
   417  1044  3457               	retlw	87	;'W'
   418  1045  3420               	retlw	32	;' '
   419  1046  3454               	retlw	84	;'T'
   420  1047  3445               	retlw	69	;'E'
   421  1048  344D               	retlw	77	;'M'
   422  1049  3450               	retlw	80	;'P'
   423  104A  3445               	retlw	69	;'E'
   424  104B  3452               	retlw	82	;'R'
   425  104C  3441               	retlw	65	;'A'
   426  104D  3454               	retlw	84	;'T'
   427  104E  3455               	retlw	85	;'U'
   428  104F  3452               	retlw	82	;'R'
   429  1050  3445               	retlw	69	;'E'
   430  1051  3400               	retlw	0
   431                           psect	stringtext
   432                           	
   433  1052                     STR_23:	
   434  1052  3420               	retlw	32	;' '
   435  1053  3450               	retlw	80	;'P'
   436  1054  3452               	retlw	82	;'R'
   437  1055  3445               	retlw	69	;'E'
   438  1056  3450               	retlw	80	;'P'
   439  1057  3441               	retlw	65	;'A'
   440  1058  3452               	retlw	82	;'R'
   441  1059  3449               	retlw	73	;'I'
   442  105A  344E               	retlw	78	;'N'
   443  105B  3447               	retlw	71	;'G'
   444  105C  3420               	retlw	32	;' '
   445  105D  3454               	retlw	84	;'T'
   446  105E  3445               	retlw	69	;'E'
   447  105F  3441               	retlw	65	;'A'
   448  1060  3400               	retlw	0
   449                           psect	stringtext
   450                           	
   451  1061                     STR_31:	
   452  1061  3443               	retlw	67	;'C'
   453  1062  344F               	retlw	79	;'O'
   454  1063  344E               	retlw	78	;'N'
   455  1064  3446               	retlw	70	;'F'
   456  1065  3449               	retlw	73	;'I'
   457  1066  3447               	retlw	71	;'G'
   458  1067  3455               	retlw	85	;'U'
   459  1068  3452               	retlw	82	;'R'
   460  1069  3445               	retlw	69	;'E'
   461  106A  3420               	retlw	32	;' '
   462  106B  344D               	retlw	77	;'M'
   463  106C  344F               	retlw	79	;'O'
   464  106D  3444               	retlw	68	;'D'
   465  106E  3445               	retlw	69	;'E'
   466  106F  3400               	retlw	0
   467                           psect	stringtext
   468                           	
   469  1070                     STR_9:	
   470  1070  3420               	retlw	32	;' '
   471  1071  3420               	retlw	32	;' '
   472  1072  3442               	retlw	66	;'B'
   473  1073  344C               	retlw	76	;'L'
   474  1074  3441               	retlw	65	;'A'
   475  1075  3443               	retlw	67	;'C'
   476  1076  344B               	retlw	75	;'K'
   477  1077  3420               	retlw	32	;' '
   478  1078  3443               	retlw	67	;'C'
   479  1079  344F               	retlw	79	;'O'
   480  107A  3446               	retlw	70	;'F'
   481  107B  3446               	retlw	70	;'F'
   482  107C  3445               	retlw	69	;'E'
   483  107D  3445               	retlw	69	;'E'
   484  107E  3400               	retlw	0
   485                           psect	stringtext
   486                           	
   487  107F                     STR_5:	
   488  107F  3420               	retlw	32	;' '
   489  1080  344E               	retlw	78	;'N'
   490  1081  344F               	retlw	79	;'O'
   491  1082  3452               	retlw	82	;'R'
   492  1083  344D               	retlw	77	;'M'
   493  1084  3441               	retlw	65	;'A'
   494  1085  344C               	retlw	76	;'L'
   495  1086  3420               	retlw	32	;' '
   496  1087  3443               	retlw	67	;'C'
   497  1088  344F               	retlw	79	;'O'
   498  1089  3446               	retlw	70	;'F'
   499  108A  3446               	retlw	70	;'F'
   500  108B  3445               	retlw	69	;'E'
   501  108C  3445               	retlw	69	;'E'
   502  108D  3400               	retlw	0
   503                           psect	stringtext
   504                           	
   505  108E                     STR_7:	
   506  108E  3420               	retlw	32	;' '
   507  108F  3420               	retlw	32	;' '
   508  1090  344C               	retlw	76	;'L'
   509  1091  3449               	retlw	73	;'I'
   510  1092  3447               	retlw	71	;'G'
   511  1093  3448               	retlw	72	;'H'
   512  1094  3454               	retlw	84	;'T'
   513  1095  3420               	retlw	32	;' '
   514  1096  3443               	retlw	67	;'C'
   515  1097  344F               	retlw	79	;'O'
   516  1098  3446               	retlw	70	;'F'
   517  1099  3446               	retlw	70	;'F'
   518  109A  3445               	retlw	69	;'E'
   519  109B  3445               	retlw	69	;'E'
   520  109C  3400               	retlw	0
   521                           psect	stringtext
   522                           	
   523  109D                     STR_40:	
   524  109D  3444               	retlw	68	;'D'
   525  109E  3449               	retlw	73	;'I'
   526  109F  3443               	retlw	67	;'C'
   527  10A0  3441               	retlw	65	;'A'
   528  10A1  3454               	retlw	84	;'T'
   529  10A2  3449               	retlw	73	;'I'
   530  10A3  344F               	retlw	79	;'O'
   531  10A4  344E               	retlw	78	;'N'
   532  10A5  3420               	retlw	32	;' '
   533  10A6  3444               	retlw	68	;'D'
   534  10A7  3445               	retlw	69	;'E'
   535  10A8  344C               	retlw	76	;'L'
   536  10A9  3441               	retlw	65	;'A'
   537  10AA  3459               	retlw	89	;'Y'
   538  10AB  3400               	retlw	0
   539                           psect	stringtext
   540                           	
   541  10AC                     STR_6:	
   542  10AC  3420               	retlw	32	;' '
   543  10AD  3420               	retlw	32	;' '
   544  10AE  3420               	retlw	32	;' '
   545  10AF  344E               	retlw	78	;'N'
   546  10B0  344F               	retlw	79	;'O'
   547  10B1  3452               	retlw	82	;'R'
   548  10B2  344D               	retlw	77	;'M'
   549  10B3  3441               	retlw	65	;'A'
   550  10B4  344C               	retlw	76	;'L'
   551  10B5  3420               	retlw	32	;' '
   552  10B6  3454               	retlw	84	;'T'
   553  10B7  3445               	retlw	69	;'E'
   554  10B8  3441               	retlw	65	;'A'
   555  10B9  3400               	retlw	0
   556                           psect	stringtext
   557                           	
   558  10BA                     STR_3:	
   559  10BA  3420               	retlw	32	;' '
   560  10BB  3420               	retlw	32	;' '
   561  10BC  3443               	retlw	67	;'C'
   562  10BD  3441               	retlw	65	;'A'
   563  10BE  3446               	retlw	70	;'F'
   564  10BF  3445               	retlw	69	;'E'
   565  10C0  3420               	retlw	32	;' '
   566  10C1  3444               	retlw	68	;'D'
   567  10C2  3445               	retlw	69	;'E'
   568  10C3  3420               	retlw	32	;' '
   569  10C4  3456               	retlw	86	;'V'
   570  10C5  3449               	retlw	73	;'I'
   571  10C6  3445               	retlw	69	;'E'
   572  10C7  3400               	retlw	0
   573                           psect	stringtext
   574                           	
   575  10C8                     STR_25:	
   576  10C8  344D               	retlw	77	;'M'
   577  10C9  3449               	retlw	73	;'I'
   578  10CA  344C               	retlw	76	;'L'
   579  10CB  344B               	retlw	75	;'K'
   580  10CC  3420               	retlw	32	;' '
   581  10CD  3443               	retlw	67	;'C'
   582  10CE  344C               	retlw	76	;'L'
   583  10CF  3445               	retlw	69	;'E'
   584  10D0  3441               	retlw	65	;'A'
   585  10D1  344E               	retlw	78	;'N'
   586  10D2  3449               	retlw	73	;'I'
   587  10D3  344E               	retlw	78	;'N'
   588  10D4  3447               	retlw	71	;'G'
   589  10D5  3400               	retlw	0
   590                           psect	stringtext
   591                           	
   592  10D6                     STR_26:	
   593  10D6  3443               	retlw	67	;'C'
   594  10D7  344F               	retlw	79	;'O'
   595  10D8  3455               	retlw	85	;'U'
   596  10D9  344E               	retlw	78	;'N'
   597  10DA  3454               	retlw	84	;'T'
   598  10DB  3420               	retlw	32	;' '
   599  10DC  3444               	retlw	68	;'D'
   600  10DD  3449               	retlw	73	;'I'
   601  10DE  3453               	retlw	83	;'S'
   602  10DF  3450               	retlw	80	;'P'
   603  10E0  344C               	retlw	76	;'L'
   604  10E1  3441               	retlw	65	;'A'
   605  10E2  3459               	retlw	89	;'Y'
   606  10E3  3400               	retlw	0
   607                           psect	stringtext
   608                           	
   609  10E4                     STR_10:	
   610  10E4  3420               	retlw	32	;' '
   611  10E5  3420               	retlw	32	;' '
   612  10E6  3420               	retlw	32	;' '
   613  10E7  3442               	retlw	66	;'B'
   614  10E8  344C               	retlw	76	;'L'
   615  10E9  3441               	retlw	65	;'A'
   616  10EA  3443               	retlw	67	;'C'
   617  10EB  344B               	retlw	75	;'K'
   618  10EC  3420               	retlw	32	;' '
   619  10ED  3454               	retlw	84	;'T'
   620  10EE  3445               	retlw	69	;'E'
   621  10EF  3441               	retlw	65	;'A'
   622  10F0  3400               	retlw	0
   623                           psect	stringtext
   624                           	
   625  10F1                     STR_8:	
   626  10F1  3420               	retlw	32	;' '
   627  10F2  3420               	retlw	32	;' '
   628  10F3  3420               	retlw	32	;' '
   629  10F4  344C               	retlw	76	;'L'
   630  10F5  3449               	retlw	73	;'I'
   631  10F6  3447               	retlw	71	;'G'
   632  10F7  3448               	retlw	72	;'H'
   633  10F8  3454               	retlw	84	;'T'
   634  10F9  3420               	retlw	32	;' '
   635  10FA  3454               	retlw	84	;'T'
   636  10FB  3445               	retlw	69	;'E'
   637  10FC  3441               	retlw	65	;'A'
   638  10FD  3400               	retlw	0
   639                           psect	stringtext
   640                           	
   641  10FE                     STR_24:	
   642  10FE  3454               	retlw	84	;'T'
   643  10FF  3445               	retlw	69	;'E'
   644  1100  3441               	retlw	65	;'A'
   645  1101  3420               	retlw	32	;' '
   646  1102  3443               	retlw	67	;'C'
   647  1103  344C               	retlw	76	;'L'
   648  1104  3445               	retlw	69	;'E'
   649  1105  3441               	retlw	65	;'A'
   650  1106  344E               	retlw	78	;'N'
   651  1107  3449               	retlw	73	;'I'
   652  1108  344E               	retlw	78	;'N'
   653  1109  3447               	retlw	71	;'G'
   654  110A  3400               	retlw	0
   655                           psect	stringtext
   656                           	
   657  110B                     STR_37:	
   658  110B  3454               	retlw	84	;'T'
   659  110C  3445               	retlw	69	;'E'
   660  110D  3441               	retlw	65	;'A'
   661  110E  3420               	retlw	32	;' '
   662  110F  3444               	retlw	68	;'D'
   663  1110  3449               	retlw	73	;'I'
   664  1111  3443               	retlw	67	;'C'
   665  1112  3441               	retlw	65	;'A'
   666  1113  3454               	retlw	84	;'T'
   667  1114  3449               	retlw	73	;'I'
   668  1115  344F               	retlw	79	;'O'
   669  1116  344E               	retlw	78	;'N'
   670  1117  3400               	retlw	0
   671                           psect	stringtext
   672                           	
   673  1118                     STR_12:	
   674  1118  3420               	retlw	32	;' '
   675  1119  3420               	retlw	32	;' '
   676  111A  3420               	retlw	32	;' '
   677  111B  3448               	retlw	72	;'H'
   678  111C  344F               	retlw	79	;'O'
   679  111D  3454               	retlw	84	;'T'
   680  111E  3420               	retlw	32	;' '
   681  111F  3457               	retlw	87	;'W'
   682  1120  3441               	retlw	65	;'A'
   683  1121  3454               	retlw	84	;'T'
   684  1122  3445               	retlw	69	;'E'
   685  1123  3452               	retlw	82	;'R'
   686  1124  3400               	retlw	0
   687                           psect	stringtext
   688                           	
   689  1125                     STR_4:	
   690  1125  3420               	retlw	32	;' '
   691  1126  3420               	retlw	32	;' '
   692  1127  3420               	retlw	32	;' '
   693  1128  3442               	retlw	66	;'B'
   694  1129  3445               	retlw	69	;'E'
   695  112A  3456               	retlw	86	;'V'
   696  112B  3445               	retlw	69	;'E'
   697  112C  3452               	retlw	82	;'R'
   698  112D  3441               	retlw	65	;'A'
   699  112E  3447               	retlw	71	;'G'
   700  112F  3445               	retlw	69	;'E'
   701  1130  3453               	retlw	83	;'S'
   702  1131  3400               	retlw	0
   703                           psect	stringtext
   704                           	
   705  1132                     STR_13:	
   706  1132  3420               	retlw	32	;' '
   707  1133  3420               	retlw	32	;' '
   708  1134  3420               	retlw	32	;' '
   709  1135  3420               	retlw	32	;' '
   710  1136  3420               	retlw	32	;' '
   711  1137  3420               	retlw	32	;' '
   712  1138  3445               	retlw	69	;'E'
   713  1139  3458               	retlw	88	;'X'
   714  113A  3454               	retlw	84	;'T'
   715  113B  3452               	retlw	82	;'R'
   716  113C  3441               	retlw	65	;'A'
   717  113D  3400               	retlw	0
   718                           psect	stringtext
   719                           	
   720  113E                     STR_15:	
   721  113E  3450               	retlw	80	;'P'
   722  113F  3452               	retlw	82	;'R'
   723  1140  3445               	retlw	69	;'E'
   724  1141  3450               	retlw	80	;'P'
   725  1142  3441               	retlw	65	;'A'
   726  1143  3452               	retlw	82	;'R'
   727  1144  3441               	retlw	65	;'A'
   728  1145  3454               	retlw	84	;'T'
   729  1146  3449               	retlw	73	;'I'
   730  1147  344F               	retlw	79	;'O'
   731  1148  344E               	retlw	78	;'N'
   732  1149  3400               	retlw	0
   733                           psect	stringtext
   734                           	
   735  114A                     STR_45:	
   736  114A  3443               	retlw	67	;'C'
   737  114B  344F               	retlw	79	;'O'
   738  114C  3455               	retlw	85	;'U'
   739  114D  344E               	retlw	78	;'N'
   740  114E  3454               	retlw	84	;'T'
   741  114F  3420               	retlw	32	;' '
   742  1150  3452               	retlw	82	;'R'
   743  1151  3445               	retlw	69	;'E'
   744  1152  3453               	retlw	83	;'S'
   745  1153  3445               	retlw	69	;'E'
   746  1154  3454               	retlw	84	;'T'
   747  1155  3400               	retlw	0
   748                           psect	stringtext
   749                           	
   750  1156                     STR_30:	
   751  1156  3450               	retlw	80	;'P'
   752  1157  3441               	retlw	65	;'A'
   753  1158  3453               	retlw	83	;'S'
   754  1159  3453               	retlw	83	;'S'
   755  115A  3457               	retlw	87	;'W'
   756  115B  344F               	retlw	79	;'O'
   757  115C  3452               	retlw	82	;'R'
   758  115D  3444               	retlw	68	;'D'
   759  115E  343A               	retlw	58	;':'
   760  115F  3420               	retlw	32	;' '
   761  1160  3400               	retlw	0
   762                           psect	stringtext
   763                           	
   764  1161                     STR_11:	
   765  1161  3420               	retlw	32	;' '
   766  1162  3420               	retlw	32	;' '
   767  1163  3420               	retlw	32	;' '
   768  1164  3420               	retlw	32	;' '
   769  1165  3420               	retlw	32	;' '
   770  1166  3420               	retlw	32	;' '
   771  1167  344D               	retlw	77	;'M'
   772  1168  3449               	retlw	73	;'I'
   773  1169  344C               	retlw	76	;'L'
   774  116A  344B               	retlw	75	;'K'
   775  116B  3400               	retlw	0
   776                           psect	stringtext
   777                           	
   778  116C                     STR_17:	
   779  116C  3453               	retlw	83	;'S'
   780  116D  3445               	retlw	69	;'E'
   781  116E  344C               	retlw	76	;'L'
   782  116F  3445               	retlw	69	;'E'
   783  1170  3443               	retlw	67	;'C'
   784  1171  3454               	retlw	84	;'T'
   785  1172  3449               	retlw	73	;'I'
   786  1173  344F               	retlw	79	;'O'
   787  1174  344E               	retlw	78	;'N'
   788  1175  3400               	retlw	0
   789                           psect	stringtext
   790                           	
   791  1176                     STR_44:	
   792  1176  3443               	retlw	67	;'C'
   793  1177  3455               	retlw	85	;'U'
   794  1178  3450               	retlw	80	;'P'
   795  1179  3420               	retlw	32	;' '
   796  117A  3443               	retlw	67	;'C'
   797  117B  344F               	retlw	79	;'O'
   798  117C  3455               	retlw	85	;'U'
   799  117D  344E               	retlw	78	;'N'
   800  117E  3454               	retlw	84	;'T'
   801  117F  3400               	retlw	0
   802                           psect	stringtext
   803                           	
   804  1180                     STR_14:	
   805  1180  3443               	retlw	67	;'C'
   806  1181  344F               	retlw	79	;'O'
   807  1182  344E               	retlw	78	;'N'
   808  1183  3454               	retlw	84	;'T'
   809  1184  3449               	retlw	73	;'I'
   810  1185  344E               	retlw	78	;'N'
   811  1186  3455               	retlw	85	;'U'
   812  1187  3445               	retlw	69	;'E'
   813  1188  3400               	retlw	0
   814                           psect	stringtext
   815                           	
   816  1189                     STR_32:	
   817  1189  344D               	retlw	77	;'M'
   818  118A  3445               	retlw	69	;'E'
   819  118B  344E               	retlw	78	;'N'
   820  118C  3455               	retlw	85	;'U'
   821  118D  343A               	retlw	58	;':'
   822  118E  3420               	retlw	32	;' '
   823  118F  3400               	retlw	0
   824                           psect	stringtext
   825                           	
   826  1190                     STR_18:	
   827  1190  344C               	retlw	76	;'L'
   828  1191  344F               	retlw	79	;'O'
   829  1192  3441               	retlw	65	;'A'
   830  1193  3444               	retlw	68	;'D'
   831  1194  3420               	retlw	32	;' '
   832  1195  3400               	retlw	0
   833                           psect	stringtext
   834                           	
   835  1196                     STR_36:	
   836  1196  3454               	retlw	84	;'T'
   837  1197  3449               	retlw	73	;'I'
   838  1198  344D               	retlw	77	;'M'
   839  1199  3445               	retlw	69	;'E'
   840  119A  343A               	retlw	58	;':'
   841  119B  3400               	retlw	0
   842                           psect	stringtext
   843                           	
   844  119C                     STR_20:	
   845  119C  3453               	retlw	83	;'S'
   846  119D  3445               	retlw	69	;'E'
   847  119E  3443               	retlw	67	;'C'
   848  119F  3400               	retlw	0
   849                           psect	stringtext
   850  10A6                     STR_19	equ	STR_40+9
   851  111B                     STR_42	equ	STR_12+3
   852  116C                     STR_33	equ	STR_17+0
   853  113E                     STR_28	equ	STR_15+0
   854  110F                     STR_16	equ	STR_37+4
   855  110F                     STR_27	equ	STR_37+4
   856  1102                     STR_29	equ	STR_24+4
   857  1046                     STR_39	equ	STR_1+4
   858  106A                     STR_34	equ	STR_31+9
   859  1196                     STR_38	equ	STR_36+0
   860  1196                     STR_41	equ	STR_36+0
   861  1196                     STR_43	equ	STR_36+0
   862                           	file	"BEVERAGES_2014_10_08.as"
   863                           	line	#
   864                           psect cinit,class=CODE,delta=2
   865                           global start_initialization
   866  193D                     start_initialization:
   867                           
   868                           psect	bitbssBANK0,class=BANK0,bit,space=1
   869                           global __pbitbssBANK0
   870  0358                     __pbitbssBANK0:
   871  0358                     _Enable_Coffee_Dication_Time:
   872  0358                            ds      1
   873                           
   874  0359                     _Enable_Coffee_Hot_Water_Valve:
   875  0359                            ds      1
   876                           
   877  035A                     _Enable_Coffee_Valve:
   878  035A                            ds      1
   879                           
   880  035B                     _Enable_Config_Mode:
   881  035B                            ds      1
   882                           
   883  035C                     _Enable_Count_Reset:
   884  035C                            ds      1
   885                           
   886  035D                     _Enable_Cup_Count:
   887  035D                            ds      1
   888                           
   889  035E                     _Enable_Dication_Delay:
   890  035E                            ds      1
   891                           
   892  035F                     _Enable_Heater1:
   893  035F                            ds      1
   894                           
   895  0360                     _Enable_Heater2:
   896  0360                            ds      1
   897                           
   898  0361                     _Enable_Hot_Water_Time:
   899  0361                            ds      1
   900                           
   901  0362                     _Enable_Hot_Water_Valve:
   902  0362                            ds      1
   903                           
   904  0363                     _Enable_Milk_Forward:
   905  0363                            ds      1
   906                           
   907  0364                     _Enable_Milk_Reverse:
   908  0364                            ds      1
   909                           
   910  0365                     _Enable_Milk_Reverse_Time:
   911  0365                            ds      1
   912                           
   913  0366                     _Enable_Mixing_Hot_Water_Valve:
   914  0366                            ds      1
   915                           
   916  0367                     _Enable_Normal_Mode:
   917  0367                            ds      1
   918                           
   919  0368                     _Enable_Password:
   920  0368                            ds      1
   921                           
   922  0369                     _Enable_Selection:
   923  0369                            ds      1
   924                           
   925  036A                     _Enable_Shortcut_Mode:
   926  036A                            ds      1
   927                           
   928  036B                     _Enable_Tea_Dication_Time:
   929  036B                            ds      1
   930                           
   931  036C                     _Enable_Tea_Hot_Water_Valve:
   932  036C                            ds      1
   933                           
   934  036D                     _Enable_Tea_Valve:
   935  036D                            ds      1
   936                           
   937  036E                     _Enable_Temperature:
   938  036E                            ds      1
   939                           
   940  036F                     _Enable_Valves:
   941  036F                            ds      1
   942                           
   943  0370                     _Enable_Viber_Motor:
   944  0370                            ds      1
   945                           
   946  0371                     __Demo:
   947  0371                            ds      1
   948                           
   949  0372                     __SHORTCUT:
   950  0372                            ds      1
   951                           
   952  0373                     __clear:
   953  0373                            ds      1
   954                           
   955  0374                     __temp_flag:
   956  0374                            ds      1
   957                           
   958                           psect	bssBANK0,class=BANK0,space=1
   959                           global __pbssBANK0
   960  0020                     __pbssBANK0:
   961  0020                     _MENU:
   962  0020                            ds      9
   963                           
   964  0029                     _ADC_value:
   965  0029                            ds      2
   966                           
   967  002B                     _i:
   968  002B                            ds      2
   969                           
   970  002D                     _j:
   971  002D                            ds      2
   972                           
   973  002F                     _password:
   974  002F                            ds      2
   975                           
   976  0031                     _temperature:
   977  0031                            ds      2
   978                           
   979  0033                     _time:
   980  0033                            ds      2
   981                           
   982  0035                     _Next:
   983  0035                            ds      1
   984                           
   985  0036                     _VALVE:
   986  0036                            ds      1
   987                           
   988  0037                     __DISABLE_MODE:
   989  0037                            ds      1
   990                           
   991  0038                     __ENABLE_MODE:
   992  0038                            ds      1
   993                           
   994  0039                     __OFF:
   995  0039                            ds      1
   996                           
   997  003A                     __ON:
   998  003A                            ds      1
   999                           
  1000  003B                     __PRESSED:
  1001  003B                            ds      1
  1002                           
  1003  003C                     __PREVIOUS_MODE:
  1004  003C                            ds      1
  1005                           
  1006  003D                     __PREVIOUS_PROCESS:
  1007  003D                            ds      1
  1008                           
  1009  003E                     __PROCESS:
  1010  003E                            ds      1
  1011                           
  1012  003F                     __SHORTCUT_PRESSED:
  1013  003F                            ds      1
  1014                           
  1015  0040                     _itoai:
  1016  0040                            ds      1
  1017                           
  1018  0041                     _mem_index1:
  1019  0041                            ds      1
  1020                           
  1021  0042                     _mem_index2:
  1022  0042                            ds      1
  1023                           
  1024  0043                     _buff:
  1025  0043                            ds      4
  1026                           
  1027  0047                     _Selection_Next:
  1028  0047                            ds      1
  1029                           
  1030  0048                     __CHOICE_SELECTED:
  1031  0048                            ds      1
  1032                           
  1033                           psect	dataBANK1,class=BANK1,space=1
  1034                           global __pdataBANK1
  1035  00A0                     __pdataBANK1:
  1036                           	file	"F:\BEVERAGES_ENHANCEMENT\SOFTWARE_DESIGN\MASTER_PIC_16F877A\2015_09_03\lcd.h"
  1037  00A0                     _asciitable:
  1038  00A0                            ds      10
  1039                           
  1040                           psect clrtext,class=CODE,delta=2
  1041                           global clear_ram
  1042                           ;	Called with FSR containing the base address, and
  1043                           ;	W with the last address+1
  1044  0003                     clear_ram:
  1045  0003  0064               	clrwdt			;clear the watchdog before getting into this loop
  1046  0004                     clrloop:
  1047  0004  0180               	clrf	indf		;clear RAM location pointed to by FSR
  1048  0005  0A84               	incf	fsr,f		;increment pointer
  1049  0006  0604               	xorwf	fsr,w		;XOR with final address
  1050  0007  1903               	btfsc	status,2	;have we reached the end yet?
  1051  0008  3400               	retlw	0		;all done for this memory range, return
  1052  0009  0604               	xorwf	fsr,w		;XOR again to restore value
  1053  000A  2804               	goto	clrloop		;do the next byte
  1054                           
  1055                           ; Clear objects allocated to BITBANK0
  1056                           psect cinit,class=CODE,delta=2
  1057  193D  01EB               	clrf	((__pbitbssBANK0/8)+0)&07Fh
  1058  193E  01EC               	clrf	((__pbitbssBANK0/8)+1)&07Fh
  1059  193F  01ED               	clrf	((__pbitbssBANK0/8)+2)&07Fh
  1060  1940  01EE               	clrf	((__pbitbssBANK0/8)+3)&07Fh
  1061                           ; Clear objects allocated to BANK0
  1062                           psect cinit,class=CODE,delta=2
  1063  1941  1383               	bcf	status, 7	;select IRP bank0
  1064  1942  3020               	movlw	low(__pbssBANK0)
  1065  1943  0084               	movwf	fsr
  1066  1944  3049               	movlw	low((__pbssBANK0)+029h)
  1067  1945  120A  118A  2003   	fcall	clear_ram
              160A  158A         
  1068                           global btemp
  1069                           psect inittext,class=CODE,delta=2
  1070                           global init_fetch,btemp
  1071                           ;	Called with low address in FSR and high address in W
  1072  18DB                     init_fetch:
  1073  18DB  087E               	movf btemp,w
  1074  18DC  008A               	movwf pclath
  1075  18DD  087F               	movf btemp+1,w
  1076  18DE  0082               	movwf pc
  1077                           global init_ram
  1078                           ;Called with:
  1079                           ;	high address of idata address in btemp 
  1080                           ;	low address of idata address in btemp+1 
  1081                           ;	low address of data in FSR
  1082                           ;	high address + 1 of data in btemp-1
  1083  18DF                     init_ram:
  1084  18DF  160A  158A  20DB   	fcall init_fetch
              160A  158A         
  1085  18E4  0080               	movwf indf,f
  1086  18E5  0A84               	incf fsr,f
  1087  18E6  0804               	movf fsr,w
  1088  18E7  067D               	xorwf btemp-1,w
  1089  18E8  1903               	btfsc status,2
  1090  18E9  3400               	retlw 0
  1091  18EA  0AFF               	incf btemp+1,f
  1092  18EB  1903               	btfsc status,2
  1093  18EC  0AFE               	incf btemp,f
  1094  18ED  28DF               	goto init_ram
  1095                           ; Initialize objects allocated to BANK1
  1096                           psect cinit,class=CODE,delta=2
  1097                           global init_ram, __pidataBANK1
  1098  194A  30AA               	movlw low(__pdataBANK1+10)
  1099  194B  00FD               	movwf btemp-1,f
  1100  194C  3018               	movlw high(__pidataBANK1)
  1101  194D  00FE               	movwf btemp,f
  1102  194E  30C1               	movlw low(__pidataBANK1)
  1103  194F  00FF               	movwf btemp+1,f
  1104  1950  30A0               	movlw low(__pdataBANK1)
  1105  1951  0084               	movwf fsr,f
  1106  1952  160A  158A  20DF   	fcall init_ram
              160A  158A         
  1107                           psect cinit,class=CODE,delta=2
  1108                           global end_of_initialization
  1109                           
  1110                           ;End of C runtime variable initialization code
  1111                           
  1112  1957                     end_of_initialization:
  1113  1957  0183               clrf status
  1114  1958  160A  118A  29F9   ljmp _main	;jump to C main() function
  1115                           psect	cstackCOMMON,class=COMMON,space=1
  1116                           global __pcstackCOMMON
  1117  0070                     __pcstackCOMMON:
  1118                           	global	?_Lcd_Cmd
  1119  0070                     ?_Lcd_Cmd:	; 0 bytes @ 0x0
  1120                           	global	?_Inidcate_Buzzer
  1121  0070                     ?_Inidcate_Buzzer:	; 0 bytes @ 0x0
  1122                           	global	?_Print_Name
  1123  0070                     ?_Print_Name:	; 0 bytes @ 0x0
  1124                           	global	?_Mode_Init
  1125  0070                     ?_Mode_Init:	; 0 bytes @ 0x0
  1126                           	global	?_key_press
  1127  0070                     ?_key_press:	; 0 bytes @ 0x0
  1128                           	global	??_key_press
  1129  0070                     ??_key_press:	; 0 bytes @ 0x0
  1130                           	global	?_enable_valves
  1131  0070                     ?_enable_valves:	; 0 bytes @ 0x0
  1132                           	global	?_change_modes
  1133  0070                     ?_change_modes:	; 0 bytes @ 0x0
  1134                           	global	?_call_control_valve
  1135  0070                     ?_call_control_valve:	; 0 bytes @ 0x0
  1136                           	global	?_offthevalve
  1137  0070                     ?_offthevalve:	; 0 bytes @ 0x0
  1138                           	global	??_offthevalve
  1139  0070                     ??_offthevalve:	; 0 bytes @ 0x0
  1140                           	global	?_print_yes_no
  1141  0070                     ?_print_yes_no:	; 0 bytes @ 0x0
  1142                           	global	?_onthevalve
  1143  0070                     ?_onthevalve:	; 0 bytes @ 0x0
  1144                           	global	??_onthevalve
  1145  0070                     ??_onthevalve:	; 0 bytes @ 0x0
  1146                           	global	?_InitADC
  1147  0070                     ?_InitADC:	; 0 bytes @ 0x0
  1148                           	global	??_InitADC
  1149  0070                     ??_InitADC:	; 0 bytes @ 0x0
  1150                           	global	?_Lcd_Init
  1151  0070                     ?_Lcd_Init:	; 0 bytes @ 0x0
  1152                           	global	?_Lcd_Data
  1153  0070                     ?_Lcd_Data:	; 0 bytes @ 0x0
  1154                           	global	?_rev
  1155  0070                     ?_rev:	; 0 bytes @ 0x0
  1156                           	global	?_Port_Init
  1157  0070                     ?_Port_Init:	; 0 bytes @ 0x0
  1158                           	global	??_Port_Init
  1159  0070                     ??_Port_Init:	; 0 bytes @ 0x0
  1160                           	global	?_main
  1161  0070                     ?_main:	; 0 bytes @ 0x0
  1162                           	global	?_Print_Menu
  1163  0070                     ?_Print_Menu:	; 0 bytes @ 0x0
  1164                           	global	?_Read_ValveFrom_Memory
  1165  0070                     ?_Read_ValveFrom_Memory:	; 1 bytes @ 0x0
  1166                           	global	?___bmul
  1167  0070                     ?___bmul:	; 1 bytes @ 0x0
  1168                           	global	?_strlen
  1169  0070                     ?_strlen:	; 2 bytes @ 0x0
  1170                           	global	?_GetADCValue
  1171  0070                     ?_GetADCValue:	; 2 bytes @ 0x0
  1172                           	global	?___lwmod
  1173  0070                     ?___lwmod:	; 2 bytes @ 0x0
  1174                           	global	?___awdiv
  1175  0070                     ?___awdiv:	; 2 bytes @ 0x0
  1176                           	global	?___awmod
  1177  0070                     ?___awmod:	; 2 bytes @ 0x0
  1178                           	global	___bmul@multiplicand
  1179  0070                     ___bmul@multiplicand:	; 1 bytes @ 0x0
  1180                           	global	___lwmod@divisor
  1181  0070                     ___lwmod@divisor:	; 2 bytes @ 0x0
  1182                           	global	___awdiv@divisor
  1183  0070                     ___awdiv@divisor:	; 2 bytes @ 0x0
  1184                           	global	___awmod@divisor
  1185  0070                     ___awmod@divisor:	; 2 bytes @ 0x0
  1186  0070                     	ds	1
  1187                           	global	??___bmul
  1188  0071                     ??___bmul:	; 0 bytes @ 0x1
  1189  0071                     	ds	1
  1190                           	global	??_strlen
  1191  0072                     ??_strlen:	; 0 bytes @ 0x2
  1192                           	global	??_GetADCValue
  1193  0072                     ??_GetADCValue:	; 0 bytes @ 0x2
  1194                           	global	___bmul@product
  1195  0072                     ___bmul@product:	; 1 bytes @ 0x2
  1196                           	global	___lwmod@dividend
  1197  0072                     ___lwmod@dividend:	; 2 bytes @ 0x2
  1198                           	global	___awdiv@dividend
  1199  0072                     ___awdiv@dividend:	; 2 bytes @ 0x2
  1200                           	global	___awmod@dividend
  1201  0072                     ___awmod@dividend:	; 2 bytes @ 0x2
  1202  0072                     	ds	1
  1203                           	global	___bmul@multiplier
  1204  0073                     ___bmul@multiplier:	; 1 bytes @ 0x3
  1205  0073                     	ds	1
  1206                           	global	??___lwmod
  1207  0074                     ??___lwmod:	; 0 bytes @ 0x4
  1208                           	global	??___awdiv
  1209  0074                     ??___awdiv:	; 0 bytes @ 0x4
  1210                           	global	??___awmod
  1211  0074                     ??___awmod:	; 0 bytes @ 0x4
  1212                           	global	?_eeprom_read
  1213  0074                     ?_eeprom_read:	; 1 bytes @ 0x4
  1214                           	global	GetADCValue@Channel
  1215  0074                     GetADCValue@Channel:	; 1 bytes @ 0x4
  1216                           	global	eeprom_read@addr
  1217  0074                     eeprom_read@addr:	; 1 bytes @ 0x4
  1218  0074                     	ds	1
  1219                           	global	??_eeprom_read
  1220  0075                     ??_eeprom_read:	; 0 bytes @ 0x5
  1221                           	global	___lwmod@counter
  1222  0075                     ___lwmod@counter:	; 1 bytes @ 0x5
  1223                           	global	___awdiv@counter
  1224  0075                     ___awdiv@counter:	; 1 bytes @ 0x5
  1225                           	global	___awmod@counter
  1226  0075                     ___awmod@counter:	; 1 bytes @ 0x5
  1227  0075                     	ds	1
  1228                           	global	??_Read_ValveFrom_Memory
  1229  0076                     ??_Read_ValveFrom_Memory:	; 0 bytes @ 0x6
  1230                           	global	?_eeprom_write
  1231  0076                     ?_eeprom_write:	; 1 bytes @ 0x6
  1232                           	global	?___wmul
  1233  0076                     ?___wmul:	; 2 bytes @ 0x6
  1234                           	global	eeprom_write@value
  1235  0076                     eeprom_write@value:	; 1 bytes @ 0x6
  1236                           	global	___awdiv@sign
  1237  0076                     ___awdiv@sign:	; 1 bytes @ 0x6
  1238                           	global	___awmod@sign
  1239  0076                     ___awmod@sign:	; 1 bytes @ 0x6
  1240                           	global	___wmul@multiplier
  1241  0076                     ___wmul@multiplier:	; 2 bytes @ 0x6
  1242  0076                     	ds	1
  1243                           	global	??_eeprom_write
  1244  0077                     ??_eeprom_write:	; 0 bytes @ 0x7
  1245                           	global	___awdiv@quotient
  1246  0077                     ___awdiv@quotient:	; 2 bytes @ 0x7
  1247  0077                     	ds	1
  1248                           	global	eeprom_write@addr
  1249  0078                     eeprom_write@addr:	; 1 bytes @ 0x8
  1250                           	global	strlen@s
  1251  0078                     strlen@s:	; 1 bytes @ 0x8
  1252                           	global	___wmul@multiplicand
  1253  0078                     ___wmul@multiplicand:	; 2 bytes @ 0x8
  1254  0078                     	ds	1
  1255                           	global	?_count_write
  1256  0079                     ?_count_write:	; 0 bytes @ 0x9
  1257                           	global	?_Write_ValveIn_Memory
  1258  0079                     ?_Write_ValveIn_Memory:	; 0 bytes @ 0x9
  1259                           	global	count_write@addr2
  1260  0079                     count_write@addr2:	; 1 bytes @ 0x9
  1261                           	global	Write_ValveIn_Memory@loc
  1262  0079                     Write_ValveIn_Memory@loc:	; 1 bytes @ 0x9
  1263                           	global	Read_ValveFrom_Memory@MEM
  1264  0079                     Read_ValveFrom_Memory@MEM:	; 1 bytes @ 0x9
  1265                           	global	strlen@cp
  1266  0079                     strlen@cp:	; 1 bytes @ 0x9
  1267  0079                     	ds	1
  1268                           	global	??_Write_ValveIn_Memory
  1269  007A                     ??_Write_ValveIn_Memory:	; 0 bytes @ 0xA
  1270                           	global	??_rev
  1271  007A                     ??_rev:	; 0 bytes @ 0xA
  1272                           	global	??___wmul
  1273  007A                     ??___wmul:	; 0 bytes @ 0xA
  1274                           	global	count_write@count
  1275  007A                     count_write@count:	; 2 bytes @ 0xA
  1276                           	global	___wmul@product
  1277  007A                     ___wmul@product:	; 2 bytes @ 0xA
  1278  007A                     	ds	1
  1279                           	global	?_myitoa
  1280  007B                     ?_myitoa:	; 0 bytes @ 0xB
  1281                           	global	myitoa@val
  1282  007B                     myitoa@val:	; 2 bytes @ 0xB
  1283  007B                     	ds	1
  1284                           	global	?_DelayMs
  1285  007C                     ?_DelayMs:	; 0 bytes @ 0xC
  1286                           	global	??___lwdiv
  1287  007C                     ??___lwdiv:	; 0 bytes @ 0xC
  1288                           	global	?_count_read
  1289  007C                     ?_count_read:	; 2 bytes @ 0xC
  1290                           	global	count_write@addr1
  1291  007C                     count_write@addr1:	; 1 bytes @ 0xC
  1292                           	global	count_read@addr2
  1293  007C                     count_read@addr2:	; 1 bytes @ 0xC
  1294                           	global	DelayMs@cnt
  1295  007C                     DelayMs@cnt:	; 2 bytes @ 0xC
  1296  007C                     	ds	1
  1297                           	global	myitoa@p
  1298  007D                     myitoa@p:	; 1 bytes @ 0xD
  1299  007D                     	ds	1
  1300                           	global	??_Inidcate_Buzzer
  1301  007E                     ??_Inidcate_Buzzer:	; 0 bytes @ 0xE
  1302                           	global	??_Print_Name
  1303  007E                     ??_Print_Name:	; 0 bytes @ 0xE
  1304                           	global	??_control_valve
  1305  007E                     ??_control_valve:	; 0 bytes @ 0xE
  1306                           	global	??_Lcd_Init
  1307  007E                     ??_Lcd_Init:	; 0 bytes @ 0xE
  1308                           	global	??_Lcd_String
  1309  007E                     ??_Lcd_String:	; 0 bytes @ 0xE
  1310                           	global	??_Print_Menu
  1311  007E                     ??_Print_Menu:	; 0 bytes @ 0xE
  1312                           psect	cstackBANK0,class=BANK0,space=1
  1313                           global __pcstackBANK0
  1314  0049                     __pcstackBANK0:
  1315                           	global	??_DelayMs
  1316  0049                     ??_DelayMs:	; 0 bytes @ 0x0
  1317                           	global	??_count_write
  1318  0049                     ??_count_write:	; 0 bytes @ 0x0
  1319                           	global	??_count_read
  1320  0049                     ??_count_read:	; 0 bytes @ 0x0
  1321                           	global	?___lwdiv
  1322  0049                     ?___lwdiv:	; 2 bytes @ 0x0
  1323                           	global	rev@t
  1324  0049                     rev@t:	; 1 bytes @ 0x0
  1325                           	global	_Write_ValveIn_Memory$4135
  1326  0049                     _Write_ValveIn_Memory$4135:	; 2 bytes @ 0x0
  1327                           	global	___lwdiv@divisor
  1328  0049                     ___lwdiv@divisor:	; 2 bytes @ 0x0
  1329  0049                     	ds	1
  1330                           	global	rev@f
  1331  004A                     rev@f:	; 1 bytes @ 0x1
  1332                           	global	DelayMs@i
  1333  004A                     DelayMs@i:	; 1 bytes @ 0x1
  1334  004A                     	ds	1
  1335                           	global	rev@l
  1336  004B                     rev@l:	; 1 bytes @ 0x2
  1337                           	global	DelayMs@_dcnt
  1338  004B                     DelayMs@_dcnt:	; 1 bytes @ 0x2
  1339                           	global	_Write_ValveIn_Memory$4136
  1340  004B                     _Write_ValveIn_Memory$4136:	; 2 bytes @ 0x2
  1341                           	global	___lwdiv@dividend
  1342  004B                     ___lwdiv@dividend:	; 2 bytes @ 0x2
  1343  004B                     	ds	1
  1344                           	global	??_Lcd_Cmd
  1345  004C                     ??_Lcd_Cmd:	; 0 bytes @ 0x3
  1346                           	global	?_control_valve
  1347  004C                     ?_control_valve:	; 0 bytes @ 0x3
  1348                           	global	??_Lcd_Data
  1349  004C                     ??_Lcd_Data:	; 0 bytes @ 0x3
  1350                           	global	rev@buf
  1351  004C                     rev@buf:	; 1 bytes @ 0x3
  1352                           	global	control_valve@load_time
  1353  004C                     control_valve@load_time:	; 2 bytes @ 0x3
  1354  004C                     	ds	1
  1355                           	global	??_myitoa
  1356  004D                     ??_myitoa:	; 0 bytes @ 0x4
  1357                           	global	Lcd_Cmd@s
  1358  004D                     Lcd_Cmd@s:	; 1 bytes @ 0x4
  1359                           	global	Lcd_Data@x
  1360  004D                     Lcd_Data@x:	; 1 bytes @ 0x4
  1361                           	global	_Write_ValveIn_Memory$4137
  1362  004D                     _Write_ValveIn_Memory$4137:	; 2 bytes @ 0x4
  1363                           	global	___lwdiv@quotient
  1364  004D                     ___lwdiv@quotient:	; 2 bytes @ 0x4
  1365  004D                     	ds	1
  1366                           	global	??_print_yes_no
  1367  004E                     ??_print_yes_no:	; 0 bytes @ 0x5
  1368                           	global	?_Lcd_String
  1369  004E                     ?_Lcd_String:	; 0 bytes @ 0x5
  1370                           	global	count_read@addr1
  1371  004E                     count_read@addr1:	; 1 bytes @ 0x5
  1372                           	global	Lcd_String@st
  1373  004E                     Lcd_String@st:	; 2 bytes @ 0x5
  1374                           	global	control_valve@delay_time
  1375  004E                     control_valve@delay_time:	; 2 bytes @ 0x5
  1376  004E                     	ds	1
  1377                           	global	print_yes_no@MEM
  1378  004F                     print_yes_no@MEM:	; 1 bytes @ 0x6
  1379                           	global	___lwdiv@counter
  1380  004F                     ___lwdiv@counter:	; 1 bytes @ 0x6
  1381                           	global	_Write_ValveIn_Memory$4138
  1382  004F                     _Write_ValveIn_Memory$4138:	; 2 bytes @ 0x6
  1383  004F                     	ds	1
  1384                           	global	?_Num_Disp
  1385  0050                     ?_Num_Disp:	; 0 bytes @ 0x7
  1386                           	global	Lcd_String@clear
  1387  0050                     Lcd_String@clear:	; 1 bytes @ 0x7
  1388                           	global	Num_Disp@dat
  1389  0050                     Num_Disp@dat:	; 2 bytes @ 0x7
  1390  0050                     	ds	1
  1391                           	global	Lcd_String@second_line
  1392  0051                     Lcd_String@second_line:	; 1 bytes @ 0x8
  1393                           	global	_Write_ValveIn_Memory$4139
  1394  0051                     _Write_ValveIn_Memory$4139:	; 2 bytes @ 0x8
  1395  0051                     	ds	1
  1396                           	global	??_call_control_valve
  1397  0052                     ??_call_control_valve:	; 0 bytes @ 0x9
  1398                           	global	Num_Disp@digit
  1399  0052                     Num_Disp@digit:	; 1 bytes @ 0x9
  1400  0052                     	ds	1
  1401                           	global	Num_Disp@dot
  1402  0053                     Num_Disp@dot:	; 1 bytes @ 0xA
  1403                           	global	Write_ValveIn_Memory@VALVE
  1404  0053                     Write_ValveIn_Memory@VALVE:	; 1 bytes @ 0xA
  1405  0053                     	ds	1
  1406                           	global	??_Num_Disp
  1407  0054                     ??_Num_Disp:	; 0 bytes @ 0xB
  1408                           	global	Write_ValveIn_Memory@chr
  1409  0054                     Write_ValveIn_Memory@chr:	; 1 bytes @ 0xB
  1410  0054                     	ds	2
  1411                           	global	Num_Disp@i
  1412  0056                     Num_Disp@i:	; 2 bytes @ 0xD
  1413  0056                     	ds	2
  1414                           	global	Num_Disp@temp
  1415  0058                     Num_Disp@temp:	; 2 bytes @ 0xF
  1416  0058                     	ds	2
  1417                           	global	??_change_modes
  1418  005A                     ??_change_modes:	; 0 bytes @ 0x11
  1419                           	global	_call_control_valve$5508
  1420  005A                     _call_control_valve$5508:	; 2 bytes @ 0x11
  1421  005A                     	ds	2
  1422                           	global	??_Mode_Init
  1423  005C                     ??_Mode_Init:	; 0 bytes @ 0x13
  1424                           	global	??_enable_valves
  1425  005C                     ??_enable_valves:	; 0 bytes @ 0x13
  1426  005C                     	ds	2
  1427                           	global	Mode_Init@option
  1428  005E                     Mode_Init@option:	; 1 bytes @ 0x15
  1429  005E                     	ds	3
  1430                           	global	_enable_valves$5507
  1431  0061                     _enable_valves$5507:	; 2 bytes @ 0x18
  1432  0061                     	ds	2
  1433                           	global	enable_valves@i
  1434  0063                     enable_valves@i:	; 2 bytes @ 0x1A
  1435  0063                     	ds	2
  1436                           	global	enable_valves@index
  1437  0065                     enable_valves@index:	; 1 bytes @ 0x1C
  1438  0065                     	ds	1
  1439                           	global	??_main
  1440  0066                     ??_main:	; 0 bytes @ 0x1D
  1441  0066                     	ds	5
  1442 ;;Data sizes: Strings 416, constant 0, data 10, bss 41, persistent 0 stack 0
  1443 ;;Auto spaces:   Size  Autos    Used
  1444 ;; COMMON          14     14      14
  1445 ;; BANK0           80     34      79
  1446 ;; BANK1           80      0      10
  1447 ;; BANK3           96      0       0
  1448 ;; BANK2           96      0       0
  1449                           
  1450 ;;
  1451 ;; Pointer list with targets:
  1452                           
  1453 ;; ?_count_read	int  size(1) Largest target is 0
  1454 ;;
  1455 ;; ?___awdiv	int  size(1) Largest target is 0
  1456 ;;
  1457 ;; ?___awmod	int  size(1) Largest target is 0
  1458 ;;
  1459 ;; ?_strlen	unsigned int  size(1) Largest target is 4
  1460 ;;		 -> buff(BANK0[4]), 
  1461 ;;
  1462 ;; ?___lwmod	unsigned int  size(1) Largest target is 0
  1463 ;;
  1464 ;; ?___lwdiv	unsigned int  size(1) Largest target is 0
  1465 ;;
  1466 ;; ?___wmul	unsigned int  size(1) Largest target is 0
  1467 ;;
  1468 ;; ?_GetADCValue	unsigned int  size(1) Largest target is 0
  1469 ;;
  1470 ;; strlen@s	PTR const unsigned char  size(1) Largest target is 4
  1471 ;;		 -> buff(BANK0[4]), 
  1472 ;;
  1473 ;; strlen@cp	PTR const unsigned char  size(1) Largest target is 4
  1474 ;;		 -> buff(BANK0[4]), 
  1475 ;;
  1476 ;; myitoa@p	PTR unsigned char  size(1) Largest target is 4
  1477 ;;		 -> buff(BANK0[4]), 
  1478 ;;
  1479 ;; rev@l	PTR unsigned char  size(1) Largest target is 4
  1480 ;;		 -> buff(BANK0[4]), 
  1481 ;;
  1482 ;; rev@buf	PTR unsigned char  size(1) Largest target is 4
  1483 ;;		 -> buff(BANK0[4]), 
  1484 ;;
  1485 ;; rev@f	PTR unsigned char  size(1) Largest target is 4
  1486 ;;		 -> buff(BANK0[4]), 
  1487 ;;
  1488 ;; Lcd_String@st	PTR const unsigned char  size(2) Largest target is 17
  1489 ;;		 -> STR_45(CODE[12]), STR_44(CODE[10]), STR_43(CODE[6]), STR_42(CODE[10]), 
  1490 ;;		 -> STR_41(CODE[6]), STR_40(CODE[15]), STR_39(CODE[12]), STR_38(CODE[6]), 
  1491 ;;		 -> STR_37(CODE[13]), STR_36(CODE[6]), STR_35(CODE[16]), STR_34(CODE[6]), 
  1492 ;;		 -> STR_33(CODE[10]), STR_32(CODE[7]), STR_31(CODE[15]), STR_30(CODE[11]), 
  1493 ;;		 -> STR_29(CODE[9]), STR_28(CODE[12]), STR_27(CODE[9]), STR_26(CODE[14]), 
  1494 ;;		 -> STR_25(CODE[14]), STR_24(CODE[13]), STR_23(CODE[15]), STR_22(CODE[16]), 
  1495 ;;		 -> STR_21(CODE[17]), STR_20(CODE[4]), STR_19(CODE[6]), STR_18(CODE[6]), 
  1496 ;;		 -> STR_17(CODE[10]), STR_16(CODE[9]), STR_15(CODE[12]), STR_14(CODE[9]), 
  1497 ;;		 -> STR_13(CODE[12]), STR_12(CODE[13]), STR_11(CODE[11]), STR_10(CODE[13]), 
  1498 ;;		 -> STR_9(CODE[15]), STR_8(CODE[13]), STR_7(CODE[15]), STR_6(CODE[14]), 
  1499 ;;		 -> STR_5(CODE[15]), STR_4(CODE[13]), STR_3(CODE[14]), STR_2(CODE[17]), 
  1500 ;;		 -> STR_1(CODE[16]), buff(BANK0[4]), 
  1501 ;;
  1502                           
  1503                           
  1504 ;;
  1505 ;; Critical Paths under _main in COMMON
  1506 ;;
  1507 ;;   _main->_DelayMs
  1508 ;;   _main->_myitoa
  1509 ;;   _change_modes->_DelayMs
  1510 ;;   _change_modes->_count_read
  1511 ;;   _enable_valves->_DelayMs
  1512 ;;   _enable_valves->_myitoa
  1513 ;;   _enable_valves->_count_read
  1514 ;;   _call_control_valve->_myitoa
  1515 ;;   _myitoa->_rev
  1516 ;;   _Num_Disp->_count_read
  1517 ;;   _Lcd_Init->_DelayMs
  1518 ;;   _control_valve->_DelayMs
  1519 ;;   _count_read->___wmul
  1520 ;;   _Write_ValveIn_Memory->_eeprom_write
  1521 ;;   _count_write->_eeprom_write
  1522 ;;   _Read_ValveFrom_Memory->_eeprom_read
  1523 ;;   _Inidcate_Buzzer->_DelayMs
  1524 ;;   _rev->_strlen
  1525 ;;   _Lcd_Data->_DelayMs
  1526 ;;   _Lcd_Cmd->_DelayMs
  1527 ;;   ___lwdiv->___wmul
  1528 ;;   ___wmul->_eeprom_read
  1529 ;;   _eeprom_write->_eeprom_read
  1530 ;;   _eeprom_read->___bmul
  1531 ;;   _DelayMs->___wmul
  1532 ;;
  1533 ;; Critical Paths under _main in BANK0
  1534 ;;
  1535 ;;   _main->_enable_valves
  1536 ;;   _change_modes->_Num_Disp
  1537 ;;   _enable_valves->_call_control_valve
  1538 ;;   _Mode_Init->_call_control_valve
  1539 ;;   _call_control_valve->_Lcd_String
  1540 ;;   _Print_Menu->_Lcd_String
  1541 ;;   _Print_Name->_Lcd_String
  1542 ;;   _print_yes_no->_Lcd_Cmd
  1543 ;;   _print_yes_no->_Lcd_Data
  1544 ;;   _myitoa->_rev
  1545 ;;   _Num_Disp->___lwdiv
  1546 ;;   _Lcd_String->_Lcd_Cmd
  1547 ;;   _Lcd_String->_Lcd_Data
  1548 ;;   _Lcd_Init->_Lcd_Cmd
  1549 ;;   _control_valve->_DelayMs
  1550 ;;   _Inidcate_Buzzer->_DelayMs
  1551 ;;   _Lcd_Data->_DelayMs
  1552 ;;   _Lcd_Cmd->_DelayMs
  1553 ;;
  1554 ;; Critical Paths under _main in BANK1
  1555 ;;
  1556 ;;   None.
  1557 ;;
  1558 ;; Critical Paths under _main in BANK3
  1559 ;;
  1560 ;;   None.
  1561 ;;
  1562 ;; Critical Paths under _main in BANK2
  1563 ;;
  1564 ;;   None.
  1565                           
  1566 ;;
  1567 ;;Main: autosize = 0, tempsize = 5, incstack = 0, save=0
  1568 ;;
  1569                           
  1570 ;;
  1571 ;;Call Graph Tables:
  1572 ;;
  1573 ;; ---------------------------------------------------------------------------------
  1574 ;; (Depth) Function   	        Calls       Base Space   Used Autos Params    Refs
  1575 ;; ---------------------------------------------------------------------------------
  1576 ;; (0) _main                                                 5     5      0   15088
  1577 ;;                                             29 BANK0      5     5      0
  1578 ;;                          _Port_Init
  1579 ;;                           _Lcd_Init
  1580 ;;                    _Inidcate_Buzzer
  1581 ;;                         _Print_Name
  1582 ;;                            _InitADC
  1583 ;;                          _Mode_Init
  1584 ;;                        _GetADCValue
  1585 ;;                             ___wmul
  1586 ;;                            ___lwdiv
  1587 ;;                            _DelayMs
  1588 ;;                        _eeprom_read
  1589 ;;                             _myitoa
  1590 ;;                         _Lcd_String
  1591 ;;                            _Lcd_Cmd
  1592 ;;                          _key_press
  1593 ;;                      _enable_valves
  1594 ;;                       _change_modes
  1595 ;; ---------------------------------------------------------------------------------
  1596 ;; (1) _change_modes                                         3     3      0    2429
  1597 ;;                                             17 BANK0      3     3      0
  1598 ;;                         _Print_Name
  1599 ;;                         _Lcd_String
  1600 ;;                            _DelayMs
  1601 ;;                            _Lcd_Cmd
  1602 ;;                           _Lcd_Data
  1603 ;;                       _print_yes_no
  1604 ;;                        _eeprom_read
  1605 ;;                         _count_read
  1606 ;;                           _Num_Disp
  1607 ;; ---------------------------------------------------------------------------------
  1608 ;; (1) _enable_valves                                       12    12      0    7479
  1609 ;;                                             19 BANK0     10    10      0
  1610 ;;                         _Print_Menu
  1611 ;;                    _Inidcate_Buzzer
  1612 ;;                        _eeprom_read
  1613 ;;                        _count_write
  1614 ;;                 _call_control_valve
  1615 ;;                         _Print_Name
  1616 ;;                          _key_press
  1617 ;;                        _offthevalve
  1618 ;;                       _eeprom_write
  1619 ;;                            _Lcd_Cmd
  1620 ;;                           _Num_Disp
  1621 ;;                            _DelayMs
  1622 ;;                             _myitoa
  1623 ;;                         _Lcd_String
  1624 ;;               _Write_ValveIn_Memory
  1625 ;;                       _print_yes_no
  1626 ;;                             ___bmul
  1627 ;;                           _Lcd_Data
  1628 ;;                            ___awdiv
  1629 ;;                         _onthevalve
  1630 ;;                             ___wmul
  1631 ;;                         _count_read
  1632 ;; ---------------------------------------------------------------------------------
  1633 ;; (1) _Mode_Init                                            3     3      0    2762
  1634 ;;                                             19 BANK0      3     3      0
  1635 ;;              _Read_ValveFrom_Memory
  1636 ;;                        _eeprom_read
  1637 ;;                         _Lcd_String
  1638 ;;                       _eeprom_write
  1639 ;;                            _Lcd_Cmd
  1640 ;;                 _call_control_valve
  1641 ;; ---------------------------------------------------------------------------------
  1642 ;; (2) _call_control_valve                                  12    12      0    2043
  1643 ;;                                              9 BANK0     10    10      0
  1644 ;;                             ___bmul
  1645 ;;                        _eeprom_read
  1646 ;;                      _control_valve
  1647 ;;                            _Lcd_Cmd
  1648 ;;                             _myitoa
  1649 ;;                         _Lcd_String
  1650 ;;                       _eeprom_write
  1651 ;;                             ___wmul
  1652 ;; ---------------------------------------------------------------------------------
  1653 ;; (2) _Print_Menu                                           0     0      0     313
  1654 ;;                         _Lcd_String
  1655 ;; ---------------------------------------------------------------------------------
  1656 ;; (2) _Print_Name                                           0     0      0     313
  1657 ;;                         _Lcd_String
  1658 ;; ---------------------------------------------------------------------------------
  1659 ;; (2) _print_yes_no                                         2     2      0     378
  1660 ;;                                              5 BANK0      2     2      0
  1661 ;;              _Read_ValveFrom_Memory
  1662 ;;                            _Lcd_Cmd
  1663 ;;                           _Lcd_Data
  1664 ;; ---------------------------------------------------------------------------------
  1665 ;; (2) _myitoa                                               5     2      3    1066
  1666 ;;                                             11 COMMON     3     0      3
  1667 ;;                                              4 BANK0      2     2      0
  1668 ;;                            ___awmod
  1669 ;;                            ___awdiv
  1670 ;;                                _rev
  1671 ;; ---------------------------------------------------------------------------------
  1672 ;; (2) _Num_Disp                                            10     6      4     953
  1673 ;;                                              7 BANK0     10     6      4
  1674 ;;                             ___wmul
  1675 ;;                            ___lwdiv
  1676 ;;                           _Lcd_Data
  1677 ;;                            ___lwmod
  1678 ;;                         _count_read (ARG)
  1679 ;; ---------------------------------------------------------------------------------
  1680 ;; (2) _Lcd_String                                           4     0      4     313
  1681 ;;                                              5 BANK0      4     0      4
  1682 ;;                            _Lcd_Cmd
  1683 ;;                           _Lcd_Data
  1684 ;; ---------------------------------------------------------------------------------
  1685 ;; (1) _Lcd_Init                                             0     0      0     180
  1686 ;;                            _Lcd_Cmd
  1687 ;;                            _DelayMs
  1688 ;; ---------------------------------------------------------------------------------
  1689 ;; (3) _control_valve                                        4     0      4     204
  1690 ;;                                              3 BANK0      4     0      4
  1691 ;;                         _onthevalve
  1692 ;;                             ___wmul
  1693 ;;                            _DelayMs
  1694 ;;                        _offthevalve
  1695 ;;                        _eeprom_read (ARG)
  1696 ;;                             ___bmul (ARG)
  1697 ;; ---------------------------------------------------------------------------------
  1698 ;; (2) _count_read                                           8     6      2     158
  1699 ;;                                             12 COMMON     2     0      2
  1700 ;;                                              0 BANK0      6     6      0
  1701 ;;                        _eeprom_read
  1702 ;;                             ___wmul
  1703 ;; ---------------------------------------------------------------------------------
  1704 ;; (2) _Write_ValveIn_Memory                                15    14      1     550
  1705 ;;                                              9 COMMON     3     2      1
  1706 ;;                                              0 BANK0     12    12      0
  1707 ;;                       _eeprom_write
  1708 ;; ---------------------------------------------------------------------------------
  1709 ;; (2) _count_write                                          7     4      3     248
  1710 ;;                                              9 COMMON     4     1      3
  1711 ;;                                              0 BANK0      3     3      0
  1712 ;;                       _eeprom_write
  1713 ;;                        _eeprom_read
  1714 ;; ---------------------------------------------------------------------------------
  1715 ;; (3) _Read_ValveFrom_Memory                                4     4      0     132
  1716 ;;                                              6 COMMON     4     4      0
  1717 ;;                        _eeprom_read
  1718 ;; ---------------------------------------------------------------------------------
  1719 ;; (2) _Inidcate_Buzzer                                      0     0      0      68
  1720 ;;                            _DelayMs
  1721 ;; ---------------------------------------------------------------------------------
  1722 ;; (3) _rev                                                  5     5      0     337
  1723 ;;                                             10 COMMON     1     1      0
  1724 ;;                                              0 BANK0      4     4      0
  1725 ;;                             _strlen
  1726 ;; ---------------------------------------------------------------------------------
  1727 ;; (3) _Lcd_Data                                             2     2      0     112
  1728 ;;                                              3 BANK0      2     2      0
  1729 ;;                            _DelayMs
  1730 ;; ---------------------------------------------------------------------------------
  1731 ;; (3) _Lcd_Cmd                                              2     2      0     112
  1732 ;;                                              3 BANK0      2     2      0
  1733 ;;                            _DelayMs
  1734 ;; ---------------------------------------------------------------------------------
  1735 ;; (1) _GetADCValue                                          5     3      2      22
  1736 ;;                                              0 COMMON     5     3      2
  1737 ;; ---------------------------------------------------------------------------------
  1738 ;; (3) ___awmod                                              7     3      4     296
  1739 ;;                                              0 COMMON     7     3      4
  1740 ;; ---------------------------------------------------------------------------------
  1741 ;; (2) ___awdiv                                              9     5      4     300
  1742 ;;                                              0 COMMON     9     5      4
  1743 ;; ---------------------------------------------------------------------------------
  1744 ;; (3) ___lwmod                                              6     2      4     159
  1745 ;;                                              0 COMMON     6     2      4
  1746 ;; ---------------------------------------------------------------------------------
  1747 ;; (3) ___lwdiv                                              8     4      4     162
  1748 ;;                                             12 COMMON     1     1      0
  1749 ;;                                              0 BANK0      7     3      4
  1750 ;;                             ___wmul (ARG)
  1751 ;; ---------------------------------------------------------------------------------
  1752 ;; (3) ___wmul                                               6     2      4      92
  1753 ;;                                              6 COMMON     6     2      4
  1754 ;;                        _eeprom_read (ARG)
  1755 ;; ---------------------------------------------------------------------------------
  1756 ;; (2) ___bmul                                               4     3      1      92
  1757 ;;                                              0 COMMON     4     3      1
  1758 ;; ---------------------------------------------------------------------------------
  1759 ;; (2) _onthevalve                                           0     0      0       0
  1760 ;; ---------------------------------------------------------------------------------
  1761 ;; (2) _offthevalve                                          0     0      0       0
  1762 ;; ---------------------------------------------------------------------------------
  1763 ;; (3) _eeprom_write                                         3     2      1      50
  1764 ;;                                              6 COMMON     3     2      1
  1765 ;;                             ___bmul (ARG)
  1766 ;;                        _eeprom_read (ARG)
  1767 ;; ---------------------------------------------------------------------------------
  1768 ;; (2) _key_press                                            1     1      0       0
  1769 ;;                                              0 COMMON     1     1      0
  1770 ;; ---------------------------------------------------------------------------------
  1771 ;; (3) _eeprom_read                                          2     1      1      22
  1772 ;;                                              4 COMMON     2     1      1
  1773 ;;                             ___bmul (ARG)
  1774 ;; ---------------------------------------------------------------------------------
  1775 ;; (1) _Port_Init                                            0     0      0       0
  1776 ;; ---------------------------------------------------------------------------------
  1777 ;; (4) _strlen                                              10     8      2      89
  1778 ;;                                              0 COMMON    10     8      2
  1779 ;; ---------------------------------------------------------------------------------
  1780 ;; (4) _DelayMs                                              5     3      2      68
  1781 ;;                                             12 COMMON     2     0      2
  1782 ;;                                              0 BANK0      3     3      0
  1783 ;;                             ___wmul (ARG)
  1784 ;; ---------------------------------------------------------------------------------
  1785 ;; (1) _InitADC                                              0     0      0       0
  1786 ;; ---------------------------------------------------------------------------------
  1787 ;; Estimated maximum stack depth 4
  1788 ;; ---------------------------------------------------------------------------------
  1789                           
  1790 ;; Call Graph Graphs:
  1791                           
  1792 ;; _main (ROOT)
  1793 ;;   _Port_Init
  1794 ;;   _Lcd_Init
  1795 ;;     _Lcd_Cmd
  1796 ;;       _DelayMs
  1797 ;;         ___wmul (ARG)
  1798 ;;           _eeprom_read (ARG)
  1799 ;;             ___bmul (ARG)
  1800 ;;     _DelayMs
  1801 ;;       ___wmul (ARG)
  1802 ;;         _eeprom_read (ARG)
  1803 ;;           ___bmul (ARG)
  1804 ;;   _Inidcate_Buzzer
  1805 ;;     _DelayMs
  1806 ;;       ___wmul (ARG)
  1807 ;;         _eeprom_read (ARG)
  1808 ;;           ___bmul (ARG)
  1809 ;;   _Print_Name
  1810 ;;     _Lcd_String
  1811 ;;       _Lcd_Cmd
  1812 ;;         _DelayMs
  1813 ;;           ___wmul (ARG)
  1814 ;;             _eeprom_read (ARG)
  1815 ;;               ___bmul (ARG)
  1816 ;;       _Lcd_Data
  1817 ;;         _DelayMs
  1818 ;;           ___wmul (ARG)
  1819 ;;             _eeprom_read (ARG)
  1820 ;;               ___bmul (ARG)
  1821 ;;   _InitADC
  1822 ;;   _Mode_Init
  1823 ;;     _Read_ValveFrom_Memory
  1824 ;;       _eeprom_read
  1825 ;;         ___bmul (ARG)
  1826 ;;     _eeprom_read
  1827 ;;       ___bmul (ARG)
  1828 ;;     _Lcd_String
  1829 ;;       _Lcd_Cmd
  1830 ;;         _DelayMs
  1831 ;;           ___wmul (ARG)
  1832 ;;             _eeprom_read (ARG)
  1833 ;;               ___bmul (ARG)
  1834 ;;       _Lcd_Data
  1835 ;;         _DelayMs
  1836 ;;           ___wmul (ARG)
  1837 ;;             _eeprom_read (ARG)
  1838 ;;               ___bmul (ARG)
  1839 ;;     _eeprom_write
  1840 ;;       ___bmul (ARG)
  1841 ;;       _eeprom_read (ARG)
  1842 ;;         ___bmul (ARG)
  1843 ;;     _Lcd_Cmd
  1844 ;;       _DelayMs
  1845 ;;         ___wmul (ARG)
  1846 ;;           _eeprom_read (ARG)
  1847 ;;             ___bmul (ARG)
  1848 ;;     _call_control_valve
  1849 ;;       ___bmul
  1850 ;;       _eeprom_read
  1851 ;;         ___bmul (ARG)
  1852 ;;       _control_valve
  1853 ;;         _onthevalve
  1854 ;;         ___wmul
  1855 ;;           _eeprom_read (ARG)
  1856 ;;             ___bmul (ARG)
  1857 ;;         _DelayMs
  1858 ;;           ___wmul (ARG)
  1859 ;;             _eeprom_read (ARG)
  1860 ;;               ___bmul (ARG)
  1861 ;;         _offthevalve
  1862 ;;         _eeprom_read (ARG)
  1863 ;;           ___bmul (ARG)
  1864 ;;         ___bmul (ARG)
  1865 ;;       _Lcd_Cmd
  1866 ;;         _DelayMs
  1867 ;;           ___wmul (ARG)
  1868 ;;             _eeprom_read (ARG)
  1869 ;;               ___bmul (ARG)
  1870 ;;       _myitoa
  1871 ;;         ___awmod
  1872 ;;         ___awdiv
  1873 ;;         _rev
  1874 ;;           _strlen
  1875 ;;       _Lcd_String
  1876 ;;         _Lcd_Cmd
  1877 ;;           _DelayMs
  1878 ;;             ___wmul (ARG)
  1879 ;;               _eeprom_read (ARG)
  1880 ;;                 ___bmul (ARG)
  1881 ;;         _Lcd_Data
  1882 ;;           _DelayMs
  1883 ;;             ___wmul (ARG)
  1884 ;;               _eeprom_read (ARG)
  1885 ;;                 ___bmul (ARG)
  1886 ;;       _eeprom_write
  1887 ;;         ___bmul (ARG)
  1888 ;;         _eeprom_read (ARG)
  1889 ;;           ___bmul (ARG)
  1890 ;;       ___wmul
  1891 ;;         _eeprom_read (ARG)
  1892 ;;           ___bmul (ARG)
  1893 ;;   _GetADCValue
  1894 ;;   ___wmul
  1895 ;;     _eeprom_read (ARG)
  1896 ;;       ___bmul (ARG)
  1897 ;;   ___lwdiv
  1898 ;;     ___wmul (ARG)
  1899 ;;       _eeprom_read (ARG)
  1900 ;;         ___bmul (ARG)
  1901 ;;   _DelayMs
  1902 ;;     ___wmul (ARG)
  1903 ;;       _eeprom_read (ARG)
  1904 ;;         ___bmul (ARG)
  1905 ;;   _eeprom_read
  1906 ;;     ___bmul (ARG)
  1907 ;;   _myitoa
  1908 ;;     ___awmod
  1909 ;;     ___awdiv
  1910 ;;     _rev
  1911 ;;       _strlen
  1912 ;;   _Lcd_String
  1913 ;;     _Lcd_Cmd
  1914 ;;       _DelayMs
  1915 ;;         ___wmul (ARG)
  1916 ;;           _eeprom_read (ARG)
  1917 ;;             ___bmul (ARG)
  1918 ;;     _Lcd_Data
  1919 ;;       _DelayMs
  1920 ;;         ___wmul (ARG)
  1921 ;;           _eeprom_read (ARG)
  1922 ;;             ___bmul (ARG)
  1923 ;;   _Lcd_Cmd
  1924 ;;     _DelayMs
  1925 ;;       ___wmul (ARG)
  1926 ;;         _eeprom_read (ARG)
  1927 ;;           ___bmul (ARG)
  1928 ;;   _key_press
  1929 ;;   _enable_valves
  1930 ;;     _Print_Menu
  1931 ;;       _Lcd_String
  1932 ;;         _Lcd_Cmd
  1933 ;;           _DelayMs
  1934 ;;             ___wmul (ARG)
  1935 ;;               _eeprom_read (ARG)
  1936 ;;                 ___bmul (ARG)
  1937 ;;         _Lcd_Data
  1938 ;;           _DelayMs
  1939 ;;             ___wmul (ARG)
  1940 ;;               _eeprom_read (ARG)
  1941 ;;                 ___bmul (ARG)
  1942 ;;     _Inidcate_Buzzer
  1943 ;;       _DelayMs
  1944 ;;         ___wmul (ARG)
  1945 ;;           _eeprom_read (ARG)
  1946 ;;             ___bmul (ARG)
  1947 ;;     _eeprom_read
  1948 ;;       ___bmul (ARG)
  1949 ;;     _count_write
  1950 ;;       _eeprom_write
  1951 ;;         ___bmul (ARG)
  1952 ;;         _eeprom_read (ARG)
  1953 ;;           ___bmul (ARG)
  1954 ;;       _eeprom_read
  1955 ;;         ___bmul (ARG)
  1956 ;;     _call_control_valve
  1957 ;;       ___bmul
  1958 ;;       _eeprom_read
  1959 ;;         ___bmul (ARG)
  1960 ;;       _control_valve
  1961 ;;         _onthevalve
  1962 ;;         ___wmul
  1963 ;;           _eeprom_read (ARG)
  1964 ;;             ___bmul (ARG)
  1965 ;;         _DelayMs
  1966 ;;           ___wmul (ARG)
  1967 ;;             _eeprom_read (ARG)
  1968 ;;               ___bmul (ARG)
  1969 ;;         _offthevalve
  1970 ;;         _eeprom_read (ARG)
  1971 ;;           ___bmul (ARG)
  1972 ;;         ___bmul (ARG)
  1973 ;;       _Lcd_Cmd
  1974 ;;         _DelayMs
  1975 ;;           ___wmul (ARG)
  1976 ;;             _eeprom_read (ARG)
  1977 ;;               ___bmul (ARG)
  1978 ;;       _myitoa
  1979 ;;         ___awmod
  1980 ;;         ___awdiv
  1981 ;;         _rev
  1982 ;;           _strlen
  1983 ;;       _Lcd_String
  1984 ;;         _Lcd_Cmd
  1985 ;;           _DelayMs
  1986 ;;             ___wmul (ARG)
  1987 ;;               _eeprom_read (ARG)
  1988 ;;                 ___bmul (ARG)
  1989 ;;         _Lcd_Data
  1990 ;;           _DelayMs
  1991 ;;             ___wmul (ARG)
  1992 ;;               _eeprom_read (ARG)
  1993 ;;                 ___bmul (ARG)
  1994 ;;       _eeprom_write
  1995 ;;         ___bmul (ARG)
  1996 ;;         _eeprom_read (ARG)
  1997 ;;           ___bmul (ARG)
  1998 ;;       ___wmul
  1999 ;;         _eeprom_read (ARG)
  2000 ;;           ___bmul (ARG)
  2001 ;;     _Print_Name
  2002 ;;       _Lcd_String
  2003 ;;         _Lcd_Cmd
  2004 ;;           _DelayMs
  2005 ;;             ___wmul (ARG)
  2006 ;;               _eeprom_read (ARG)
  2007 ;;                 ___bmul (ARG)
  2008 ;;         _Lcd_Data
  2009 ;;           _DelayMs
  2010 ;;             ___wmul (ARG)
  2011 ;;               _eeprom_read (ARG)
  2012 ;;                 ___bmul (ARG)
  2013 ;;     _key_press
  2014 ;;     _offthevalve
  2015 ;;     _eeprom_write
  2016 ;;       ___bmul (ARG)
  2017 ;;       _eeprom_read (ARG)
  2018 ;;         ___bmul (ARG)
  2019 ;;     _Lcd_Cmd
  2020 ;;       _DelayMs
  2021 ;;         ___wmul (ARG)
  2022 ;;           _eeprom_read (ARG)
  2023 ;;             ___bmul (ARG)
  2024 ;;     _Num_Disp
  2025 ;;       ___wmul
  2026 ;;         _eeprom_read (ARG)
  2027 ;;           ___bmul (ARG)
  2028 ;;       ___lwdiv
  2029 ;;         ___wmul (ARG)
  2030 ;;           _eeprom_read (ARG)
  2031 ;;             ___bmul (ARG)
  2032 ;;       _Lcd_Data
  2033 ;;         _DelayMs
  2034 ;;           ___wmul (ARG)
  2035 ;;             _eeprom_read (ARG)
  2036 ;;               ___bmul (ARG)
  2037 ;;       ___lwmod
  2038 ;;       _count_read (ARG)
  2039 ;;         _eeprom_read
  2040 ;;           ___bmul (ARG)
  2041 ;;         ___wmul
  2042 ;;           _eeprom_read (ARG)
  2043 ;;             ___bmul (ARG)
  2044 ;;     _DelayMs
  2045 ;;       ___wmul (ARG)
  2046 ;;         _eeprom_read (ARG)
  2047 ;;           ___bmul (ARG)
  2048 ;;     _myitoa
  2049 ;;       ___awmod
  2050 ;;       ___awdiv
  2051 ;;       _rev
  2052 ;;         _strlen
  2053 ;;     _Lcd_String
  2054 ;;       _Lcd_Cmd
  2055 ;;         _DelayMs
  2056 ;;           ___wmul (ARG)
  2057 ;;             _eeprom_read (ARG)
  2058 ;;               ___bmul (ARG)
  2059 ;;       _Lcd_Data
  2060 ;;         _DelayMs
  2061 ;;           ___wmul (ARG)
  2062 ;;             _eeprom_read (ARG)
  2063 ;;               ___bmul (ARG)
  2064 ;;     _Write_ValveIn_Memory
  2065 ;;       _eeprom_write
  2066 ;;         ___bmul (ARG)
  2067 ;;         _eeprom_read (ARG)
  2068 ;;           ___bmul (ARG)
  2069 ;;     _print_yes_no
  2070 ;;       _Read_ValveFrom_Memory
  2071 ;;         _eeprom_read
  2072 ;;           ___bmul (ARG)
  2073 ;;       _Lcd_Cmd
  2074 ;;         _DelayMs
  2075 ;;           ___wmul (ARG)
  2076 ;;             _eeprom_read (ARG)
  2077 ;;               ___bmul (ARG)
  2078 ;;       _Lcd_Data
  2079 ;;         _DelayMs
  2080 ;;           ___wmul (ARG)
  2081 ;;             _eeprom_read (ARG)
  2082 ;;               ___bmul (ARG)
  2083 ;;     ___bmul
  2084 ;;     _Lcd_Data
  2085 ;;       _DelayMs
  2086 ;;         ___wmul (ARG)
  2087 ;;           _eeprom_read (ARG)
  2088 ;;             ___bmul (ARG)
  2089 ;;     ___awdiv
  2090 ;;     _onthevalve
  2091 ;;     ___wmul
  2092 ;;       _eeprom_read (ARG)
  2093 ;;         ___bmul (ARG)
  2094 ;;     _count_read
  2095 ;;       _eeprom_read
  2096 ;;         ___bmul (ARG)
  2097 ;;       ___wmul
  2098 ;;         _eeprom_read (ARG)
  2099 ;;           ___bmul (ARG)
  2100 ;;   _change_modes
  2101 ;;     _Print_Name
  2102 ;;       _Lcd_String
  2103 ;;         _Lcd_Cmd
  2104 ;;           _DelayMs
  2105 ;;             ___wmul (ARG)
  2106 ;;               _eeprom_read (ARG)
  2107 ;;                 ___bmul (ARG)
  2108 ;;         _Lcd_Data
  2109 ;;           _DelayMs
  2110 ;;             ___wmul (ARG)
  2111 ;;               _eeprom_read (ARG)
  2112 ;;                 ___bmul (ARG)
  2113 ;;     _Lcd_String
  2114 ;;       _Lcd_Cmd
  2115 ;;         _DelayMs
  2116 ;;           ___wmul (ARG)
  2117 ;;             _eeprom_read (ARG)
  2118 ;;               ___bmul (ARG)
  2119 ;;       _Lcd_Data
  2120 ;;         _DelayMs
  2121 ;;           ___wmul (ARG)
  2122 ;;             _eeprom_read (ARG)
  2123 ;;               ___bmul (ARG)
  2124 ;;     _DelayMs
  2125 ;;       ___wmul (ARG)
  2126 ;;         _eeprom_read (ARG)
  2127 ;;           ___bmul (ARG)
  2128 ;;     _Lcd_Cmd
  2129 ;;       _DelayMs
  2130 ;;         ___wmul (ARG)
  2131 ;;           _eeprom_read (ARG)
  2132 ;;             ___bmul (ARG)
  2133 ;;     _Lcd_Data
  2134 ;;       _DelayMs
  2135 ;;         ___wmul (ARG)
  2136 ;;           _eeprom_read (ARG)
  2137 ;;             ___bmul (ARG)
  2138 ;;     _print_yes_no
  2139 ;;       _Read_ValveFrom_Memory
  2140 ;;         _eeprom_read
  2141 ;;           ___bmul (ARG)
  2142 ;;       _Lcd_Cmd
  2143 ;;         _DelayMs
  2144 ;;           ___wmul (ARG)
  2145 ;;             _eeprom_read (ARG)
  2146 ;;               ___bmul (ARG)
  2147 ;;       _Lcd_Data
  2148 ;;         _DelayMs
  2149 ;;           ___wmul (ARG)
  2150 ;;             _eeprom_read (ARG)
  2151 ;;               ___bmul (ARG)
  2152 ;;     _eeprom_read
  2153 ;;       ___bmul (ARG)
  2154 ;;     _count_read
  2155 ;;       _eeprom_read
  2156 ;;         ___bmul (ARG)
  2157 ;;       ___wmul
  2158 ;;         _eeprom_read (ARG)
  2159 ;;           ___bmul (ARG)
  2160 ;;     _Num_Disp
  2161 ;;       ___wmul
  2162 ;;         _eeprom_read (ARG)
  2163 ;;           ___bmul (ARG)
  2164 ;;       ___lwdiv
  2165 ;;         ___wmul (ARG)
  2166 ;;           _eeprom_read (ARG)
  2167 ;;             ___bmul (ARG)
  2168 ;;       _Lcd_Data
  2169 ;;         _DelayMs
  2170 ;;           ___wmul (ARG)
  2171 ;;             _eeprom_read (ARG)
  2172 ;;               ___bmul (ARG)
  2173 ;;       ___lwmod
  2174 ;;       _count_read (ARG)
  2175 ;;         _eeprom_read
  2176 ;;           ___bmul (ARG)
  2177 ;;         ___wmul
  2178 ;;           _eeprom_read (ARG)
  2179 ;;             ___bmul (ARG)
  2180 ;;
  2181                           
  2182 ;; Address spaces:
  2183                           
  2184 ;;Name               Size   Autos  Total    Cost      Usage
  2185 ;;BANK3               60      0       0       9        0.0%
  2186 ;;BITBANK3            60      0       0       8        0.0%
  2187 ;;SFR3                 0      0       0       4        0.0%
  2188 ;;BITSFR3              0      0       0       4        0.0%
  2189 ;;BANK2               60      0       0      11        0.0%
  2190 ;;BITBANK2            60      0       0      10        0.0%
  2191 ;;SFR2                 0      0       0       5        0.0%
  2192 ;;BITSFR2              0      0       0       5        0.0%
  2193 ;;SFR1                 0      0       0       2        0.0%
  2194 ;;BITSFR1              0      0       0       2        0.0%
  2195 ;;BANK1               50      0       A       7       12.5%
  2196 ;;BITBANK1            50      0       0       6        0.0%
  2197 ;;CODE                 0      0       0       0        0.0%
  2198 ;;DATA                 0      0      6C      12        0.0%
  2199 ;;ABS                  0      0      67       3        0.0%
  2200 ;;NULL                 0      0       0       0        0.0%
  2201 ;;STACK                0      0       5       2        0.0%
  2202 ;;BANK0               50     22      4F       5       98.8%
  2203 ;;BITBANK0            50      0       4       4        5.0%
  2204 ;;SFR0                 0      0       0       1        0.0%
  2205 ;;BITSFR0              0      0       0       1        0.0%
  2206 ;;COMMON               E      E       E       1      100.0%
  2207 ;;BITCOMMON            E      0       0       0        0.0%
  2208 ;;EEDATA             100      0       0       0        0.0%
  2209                           
  2210                           	global	_main
  2211                           psect	maintext,global,class=CODE,delta=2
  2212                           global __pmaintext
  2213  11F9                     __pmaintext:
  2214                           
  2215 ;; *************** function _main *****************
  2216 ;; Defined at:
  2217 ;;		line 31 in file "F:\BEVERAGES_ENHANCEMENT\SOFTWARE_DESIGN\MASTER_PIC_16F877A\2015_09_03\Beverage.c"
  2218 ;; Parameters:    Size  Location     Type
  2219 ;;		None
  2220 ;; Auto vars:     Size  Location     Type
  2221 ;;		None
  2222 ;; Return value:  Size  Location     Type
  2223 ;;		None               void
  2224 ;; Registers used:
  2225 ;;		wreg, fsr0l, fsr0h, status,2, status,0, btemp+1, pclath, cstack
  2226 ;; Tracked objects:
  2227 ;;		On entry : 17F/0
  2228 ;;		On exit  : 0/0
  2229 ;;		Unchanged: 0/0
  2230 ;; Data sizes:     COMMON   BANK0   BANK1   BANK3   BANK2
  2231 ;;      Params:         0       0       0       0       0
  2232 ;;      Locals:         0       0       0       0       0
  2233 ;;      Temps:          0       5       0       0       0
  2234 ;;      Totals:         0       5       0       0       0
  2235 ;;Total ram usage:        5 bytes
  2236 ;; Hardware stack levels required when called:    5
  2237 ;; This function calls:
  2238 ;;		_Port_Init
  2239 ;;		_Lcd_Init
  2240 ;;		_Inidcate_Buzzer
  2241 ;;		_Print_Name
  2242 ;;		_InitADC
  2243 ;;		_Mode_Init
  2244 ;;		_GetADCValue
  2245 ;;		___wmul
  2246 ;;		___lwdiv
  2247 ;;		_DelayMs
  2248 ;;		_eeprom_read
  2249 ;;		_myitoa
  2250 ;;		_Lcd_String
  2251 ;;		_Lcd_Cmd
  2252 ;;		_key_press
  2253 ;;		_enable_valves
  2254 ;;		_change_modes
  2255 ;; This function is called by:
  2256 ;;		Startup code after reset
  2257 ;; This function uses a non-reentrant model
  2258 ;;
  2259                           psect	maintext
  2260                           	file	"F:\BEVERAGES_ENHANCEMENT\SOFTWARE_DESIGN\MASTER_PIC_16F877A\2015_09_03\Beverage.c
                                 "
  2261                           	line	31
  2262                           	global	__size_of_main
  2263  0113                     	__size_of_main	equ	__end_of_main-_main
  2264                           	
  2265  11F9                     _main:	
  2266                           	opt	stack 3
  2267                           ; Regs used in _main: [wreg-fsr0h+status,2+status,0+btemp+1+pclath+cstack]
  2268                           	line	33
  2269                           	
  2270  11F9                     l10164:	
  2271                           ;Beverage.c: 33: Port_Init();
  2272  11F9  160A  158A  2106   	fcall	_Port_Init
              160A  118A         
  2273                           	line	34
  2274                           ;Beverage.c: 34: Lcd_Init();
  2275  11FE  160A  158A  244C   	fcall	_Lcd_Init
              160A  118A         
  2276                           	line	35
  2277                           ;Beverage.c: 35: Inidcate_Buzzer();
  2278  1203  160A  158A  20CB   	fcall	_Inidcate_Buzzer
              160A  118A         
  2279                           	line	36
  2280                           	
  2281  1208                     l10166:	
  2282                           ;Beverage.c: 36: Print_Name();
  2283  1208  160A  158A  215B   	fcall	_Print_Name
              160A  118A         
  2284                           	line	37
  2285                           	
  2286  120D                     l10168:	
  2287                           ;Beverage.c: 37: InitADC();
  2288  120D  160A  118A  21A0   	fcall	_InitADC
              160A  118A         
  2289                           	line	38
  2290                           ;Beverage.c: 38: Mode_Init();
  2291  1212  160A  118A  2425   	fcall	_Mode_Init
              160A  118A         
  2292                           	line	40
  2293                           	
  2294  1217                     l10170:	
  2295                           ;Beverage.c: 40: Enable_Config_Mode=1;
  2296  1217  1283               	bcf	status, 5	;RP0=0, select bank0
  2297  1218  1303               	bcf	status, 6	;RP1=0, select bank0
  2298  1219  15EB               	bsf	(_Enable_Config_Mode/8),(_Enable_Config_Mode)&7
  2299  121A  2A1B               	goto	l10172
  2300                           	line	42
  2301                           ;Beverage.c: 42: while(1)
  2302                           	
  2303  121B                     l2248:	
  2304                           	line	44
  2305                           	
  2306  121B                     l10172:	
  2307                           ;Beverage.c: 43: {
  2308                           ;Beverage.c: 44: ADC_value=GetADCValue(0);
  2309  121B  3000               	movlw	(0)
  2310  121C  160A  158A  2263   	fcall	_GetADCValue
              160A  118A         
  2311  1221  0871               	movf	(1+(?_GetADCValue)),w
  2312  1222  1283               	bcf	status, 5	;RP0=0, select bank0
  2313  1223  1303               	bcf	status, 6	;RP1=0, select bank0
  2314  1224  01AA               	clrf	(_ADC_value+1)
  2315  1225  07AA               	addwf	(_ADC_value+1)
  2316  1226  0870               	movf	(0+(?_GetADCValue)),w
  2317  1227  01A9               	clrf	(_ADC_value)
  2318  1228  07A9               	addwf	(_ADC_value)
  2319                           
  2320                           	line	45
  2321                           	
  2322  1229                     l10174:	
  2323                           ;Beverage.c: 45: temperature=(ADC_value*100)/204;
  2324  1229  30CC               	movlw	low(0CCh)
  2325  122A  00C9               	movwf	(?___lwdiv)
  2326  122B  3000               	movlw	high(0CCh)
  2327  122C  00CA               	movwf	((?___lwdiv))+1
  2328  122D  082A               	movf	(_ADC_value+1),w
  2329  122E  01F7               	clrf	(?___wmul+1)
  2330  122F  07F7               	addwf	(?___wmul+1)
  2331  1230  0829               	movf	(_ADC_value),w
  2332  1231  01F6               	clrf	(?___wmul)
  2333  1232  07F6               	addwf	(?___wmul)
  2334                           
  2335  1233  3064               	movlw	low(064h)
  2336  1234  00F8               	movwf	0+(?___wmul)+02h
  2337  1235  3000               	movlw	high(064h)
  2338  1236  00F9               	movwf	(0+(?___wmul)+02h)+1
  2339  1237  160A  158A  21A2   	fcall	___wmul
              160A  118A         
  2340  123C  0877               	movf	(1+(?___wmul)),w
  2341  123D  1283               	bcf	status, 5	;RP0=0, select bank0
  2342  123E  1303               	bcf	status, 6	;RP1=0, select bank0
  2343  123F  01CC               	clrf	1+(?___lwdiv)+02h
  2344  1240  07CC               	addwf	1+(?___lwdiv)+02h
  2345  1241  0876               	movf	(0+(?___wmul)),w
  2346  1242  01CB               	clrf	0+(?___lwdiv)+02h
  2347  1243  07CB               	addwf	0+(?___lwdiv)+02h
  2348                           
  2349  1244  160A  118A  21A9   	fcall	___lwdiv
              160A  118A         
  2350  1249  1283               	bcf	status, 5	;RP0=0, select bank0
  2351  124A  1303               	bcf	status, 6	;RP1=0, select bank0
  2352  124B  084A               	movf	(1+(?___lwdiv)),w
  2353  124C  01B2               	clrf	(_temperature+1)
  2354  124D  07B2               	addwf	(_temperature+1)
  2355  124E  0849               	movf	(0+(?___lwdiv)),w
  2356  124F  01B1               	clrf	(_temperature)
  2357  1250  07B1               	addwf	(_temperature)
  2358                           
  2359                           	line	46
  2360                           	
  2361  1251                     l10176:	
  2362                           ;Beverage.c: 46: DelayMs(100);
  2363  1251  3064               	movlw	low(064h)
  2364  1252  00FC               	movwf	(?_DelayMs)
  2365  1253  3000               	movlw	high(064h)
  2366  1254  00FD               	movwf	((?_DelayMs))+1
  2367  1255  160A  158A  217A   	fcall	_DelayMs
              160A  118A         
  2368                           	line	48
  2369                           	
  2370  125A                     l10178:	
  2371                           ;Beverage.c: 48: if(temperature+10<=(eeprom_read(120)) && Enable_Config_Mode==1)
  2372  125A  1283               	bcf	status, 5	;RP0=0, select bank0
  2373  125B  1303               	bcf	status, 6	;RP1=0, select bank0
  2374  125C  0831               	movf	(_temperature),w
  2375  125D  3E0A               	addlw	low(0Ah)
  2376  125E  00E6               	movwf	(??_main+0)+0
  2377  125F  0832               	movf	(_temperature+1),w
  2378  1260  1803               	skipnc
  2379  1261  3E01               	addlw	1
  2380  1262  3E00               	addlw	high(0Ah)
  2381  1263  00E7               	movwf	1+(??_main+0)+0
  2382  1264  3078               	movlw	(078h)
  2383  1265  00E8               	movwf	(??_main+2)+0
  2384  1266  0868               	movf	(??_main+2)+0,w
  2385  1267  00F4               	movwf	(?_eeprom_read)
  2386  1268  160A  158A  211F   	fcall	_eeprom_read
              160A  118A         
  2387  126D  1283               	bcf	status, 5	;RP0=0, select bank0
  2388  126E  1303               	bcf	status, 6	;RP1=0, select bank0
  2389  126F  00E9               	movwf	(??_main+3)+0
  2390  1270  01EA               	clrf	(??_main+3)+0+1
  2391  1271  0867               	movf	1+(??_main+0)+0,w
  2392  1272  026A               	subwf	1+(??_main+3)+0,w
  2393  1273  1D03               	skipz
  2394  1274  2A77               	goto	u7235
  2395  1275  0866               	movf	0+(??_main+0)+0,w
  2396  1276  0269               	subwf	0+(??_main+3)+0,w
  2397  1277                     u7235:
  2398  1277  1C03               	skipc
  2399  1278  2A7A               	goto	u7231
  2400  1279  2A7B               	goto	u7230
  2401  127A                     u7231:
  2402  127A  2ABA               	goto	l2249
  2403  127B                     u7230:
  2404                           	
  2405  127B                     l10180:	
  2406  127B  1DEB               	btfss	(_Enable_Config_Mode/8),(_Enable_Config_Mode)&7
  2407  127C  2A7E               	goto	u7241
  2408  127D  2A7F               	goto	u7240
  2409  127E                     u7241:
  2410  127E  2ABA               	goto	l2249
  2411  127F                     u7240:
  2412                           	line	50
  2413                           	
  2414  127F                     l10182:	
  2415                           ;Beverage.c: 49: {
  2416                           ;Beverage.c: 50: RC3=1;
  2417  127F  1587               	bsf	(59/8),(59)&7
  2418                           	line	51
  2419                           ;Beverage.c: 51: Enable_Normal_Mode=0;
  2420  1280  13EC               	bcf	(_Enable_Normal_Mode/8),(_Enable_Normal_Mode)&7
  2421                           	line	52
  2422                           	
  2423  1281                     l10184:	
  2424                           ;Beverage.c: 52: myitoa(temperature,buff);
  2425  1281  0832               	movf	(_temperature+1),w
  2426  1282  01FC               	clrf	(?_myitoa+1)
  2427  1283  07FC               	addwf	(?_myitoa+1)
  2428  1284  0831               	movf	(_temperature),w
  2429  1285  01FB               	clrf	(?_myitoa)
  2430  1286  07FB               	addwf	(?_myitoa)
  2431                           
  2432  1287  3043               	movlw	(_buff)&0ffh
  2433  1288  00E6               	movwf	(??_main+0)+0
  2434  1289  0866               	movf	(??_main+0)+0,w
  2435  128A  00FD               	movwf	0+(?_myitoa)+02h
  2436  128B  120A  118A  200B   	fcall	_myitoa
              160A  118A         
  2437                           	line	53
  2438                           	
  2439  1290                     l10186:	
  2440                           ;Beverage.c: 53: if(_temp_flag==0)
  2441  1290  1283               	bcf	status, 5	;RP0=0, select bank0
  2442  1291  1303               	bcf	status, 6	;RP1=0, select bank0
  2443  1292  1A6E               	btfsc	(__temp_flag/8),(__temp_flag)&7
  2444  1293  2A95               	goto	u7251
  2445  1294  2A96               	goto	u7250
  2446  1295                     u7251:
  2447  1295  2AA4               	goto	l10190
  2448  1296                     u7250:
  2449                           	line	54
  2450                           	
  2451  1296                     l10188:	
  2452                           ;Beverage.c: 54: Lcd_String("LOW TEMPERATURE",1,0);
  2453  1296  3042               	movlw	low(STR_1|8000h)
  2454  1297  00CE               	movwf	(?_Lcd_String)
  2455  1298  3090               	movlw	high(STR_1|8000h)
  2456  1299  00CF               	movwf	((?_Lcd_String))+1
  2457  129A  01D0               	clrf	0+(?_Lcd_String)+02h
  2458  129B  1403               	bsf	status,0
  2459  129C  0DD0               	rlf	0+(?_Lcd_String)+02h,f
  2460  129D  01D1               	clrf	0+(?_Lcd_String)+03h
  2461  129E  120A  158A  2000   	fcall	_Lcd_String
              160A  118A         
  2462  12A3  2AA4               	goto	l10190
  2463                           	
  2464  12A4                     l2250:	
  2465                           	line	55
  2466                           	
  2467  12A4                     l10190:	
  2468                           ;Beverage.c: 55: Lcd_Cmd(0xC7);
  2469  12A4  30C7               	movlw	(0C7h)
  2470  12A5  160A  158A  229B   	fcall	_Lcd_Cmd
              160A  118A         
  2471                           	line	56
  2472                           	
  2473  12AA                     l10192:	
  2474                           ;Beverage.c: 56: Lcd_String(buff,0,0);
  2475  12AA  3043               	movlw	(_buff&0ffh)
  2476  12AB  1283               	bcf	status, 5	;RP0=0, select bank0
  2477  12AC  1303               	bcf	status, 6	;RP1=0, select bank0
  2478  12AD  00CE               	movwf	(?_Lcd_String)
  2479  12AE  3000               	movlw	(0x0/2)
  2480  12AF  00CF               	movwf	(?_Lcd_String+1)
  2481  12B0  01D0               	clrf	0+(?_Lcd_String)+02h
  2482  12B1  01D1               	clrf	0+(?_Lcd_String)+03h
  2483  12B2  120A  158A  2000   	fcall	_Lcd_String
              160A  118A         
  2484                           	line	57
  2485                           	
  2486  12B7                     l10194:	
  2487                           ;Beverage.c: 57: _temp_flag=1;
  2488  12B7  1283               	bcf	status, 5	;RP0=0, select bank0
  2489  12B8  1303               	bcf	status, 6	;RP1=0, select bank0
  2490  12B9  166E               	bsf	(__temp_flag/8),(__temp_flag)&7
  2491                           	line	58
  2492                           	
  2493  12BA                     l2249:	
  2494                           	line	59
  2495                           ;Beverage.c: 58: }
  2496                           ;Beverage.c: 59: if(temperature>eeprom_read(120) && _temp_flag==1)
  2497  12BA  3078               	movlw	(078h)
  2498  12BB  00E6               	movwf	(??_main+0)+0
  2499  12BC  0866               	movf	(??_main+0)+0,w
  2500  12BD  00F4               	movwf	(?_eeprom_read)
  2501  12BE  160A  158A  211F   	fcall	_eeprom_read
              160A  118A         
  2502  12C3  1283               	bcf	status, 5	;RP0=0, select bank0
  2503  12C4  1303               	bcf	status, 6	;RP1=0, select bank0
  2504  12C5  00E7               	movwf	(??_main+1)+0
  2505  12C6  01E8               	clrf	(??_main+1)+0+1
  2506  12C7  0832               	movf	(_temperature+1),w
  2507  12C8  0268               	subwf	1+(??_main+1)+0,w
  2508  12C9  1D03               	skipz
  2509  12CA  2ACD               	goto	u7265
  2510  12CB  0831               	movf	(_temperature),w
  2511  12CC  0267               	subwf	0+(??_main+1)+0,w
  2512  12CD                     u7265:
  2513  12CD  1803               	skipnc
  2514  12CE  2AD0               	goto	u7261
  2515  12CF  2AD1               	goto	u7260
  2516  12D0                     u7261:
  2517  12D0  2AF8               	goto	l2251
  2518  12D1                     u7260:
  2519                           	
  2520  12D1                     l10196:	
  2521  12D1  1E6E               	btfss	(__temp_flag/8),(__temp_flag)&7
  2522  12D2  2AD4               	goto	u7271
  2523  12D3  2AD5               	goto	u7270
  2524  12D4                     u7271:
  2525  12D4  2AF8               	goto	l2251
  2526  12D5                     u7270:
  2527                           	line	61
  2528                           	
  2529  12D5                     l10198:	
  2530                           ;Beverage.c: 60: {
  2531                           ;Beverage.c: 61: RC3=0;
  2532  12D5  1187               	bcf	(59/8),(59)&7
  2533                           	line	62
  2534                           	
  2535  12D6                     l10200:	
  2536                           ;Beverage.c: 62: Lcd_String("HAVE A HOT SIP !",1,0);
  2537  12D6  3011               	movlw	low(STR_2|8000h)
  2538  12D7  00CE               	movwf	(?_Lcd_String)
  2539  12D8  3090               	movlw	high(STR_2|8000h)
  2540  12D9  00CF               	movwf	((?_Lcd_String))+1
  2541  12DA  01D0               	clrf	0+(?_Lcd_String)+02h
  2542  12DB  1403               	bsf	status,0
  2543  12DC  0DD0               	rlf	0+(?_Lcd_String)+02h,f
  2544  12DD  01D1               	clrf	0+(?_Lcd_String)+03h
  2545  12DE  120A  158A  2000   	fcall	_Lcd_String
              160A  118A         
  2546                           	line	63
  2547                           	
  2548  12E3                     l10202:	
  2549                           ;Beverage.c: 63: DelayMs(1500);
  2550  12E3  30DC               	movlw	low(05DCh)
  2551  12E4  00FC               	movwf	(?_DelayMs)
  2552  12E5  3005               	movlw	high(05DCh)
  2553  12E6  00FD               	movwf	((?_DelayMs))+1
  2554  12E7  160A  158A  217A   	fcall	_DelayMs
              160A  118A         
  2555                           	line	64
  2556                           	
  2557  12EC                     l10204:	
  2558                           ;Beverage.c: 64: Enable_Normal_Mode=1;
  2559  12EC  1283               	bcf	status, 5	;RP0=0, select bank0
  2560  12ED  1303               	bcf	status, 6	;RP1=0, select bank0
  2561  12EE  17EC               	bsf	(_Enable_Normal_Mode/8),(_Enable_Normal_Mode)&7
  2562                           	line	65
  2563                           	
  2564  12EF                     l10206:	
  2565                           ;Beverage.c: 65: Enable_Config_Mode=1;
  2566  12EF  15EB               	bsf	(_Enable_Config_Mode/8),(_Enable_Config_Mode)&7
  2567                           	line	66
  2568                           	
  2569  12F0                     l10208:	
  2570                           ;Beverage.c: 66: Print_Name();
  2571  12F0  160A  158A  215B   	fcall	_Print_Name
              160A  118A         
  2572                           	line	67
  2573                           	
  2574  12F5                     l10210:	
  2575                           ;Beverage.c: 67: _temp_flag=0;
  2576  12F5  1283               	bcf	status, 5	;RP0=0, select bank0
  2577  12F6  1303               	bcf	status, 6	;RP1=0, select bank0
  2578  12F7  126E               	bcf	(__temp_flag/8),(__temp_flag)&7
  2579                           	line	68
  2580                           	
  2581  12F8                     l2251:	
  2582                           	line	69
  2583                           ;Beverage.c: 68: }
  2584                           ;Beverage.c: 69: key_press();
  2585  12F8  120A  118A  205C   	fcall	_key_press
              160A  118A         
  2586                           	line	70
  2587                           	
  2588  12FD                     l10212:	
  2589                           ;Beverage.c: 70: enable_valves();
  2590  12FD  160A  118A  255A   	fcall	_enable_valves
              160A  118A         
  2591                           	line	71
  2592                           	
  2593  1302                     l10214:	
  2594                           ;Beverage.c: 71: change_modes();
  2595  1302  120A  118A  20F8   	fcall	_change_modes
              160A  118A         
  2596  1307  2A1B               	goto	l10172
  2597                           	line	72
  2598                           	
  2599  1308                     l2252:	
  2600                           	line	42
  2601  1308  2A1B               	goto	l10172
  2602                           	
  2603  1309                     l2253:	
  2604                           	line	73
  2605                           	
  2606  1309                     l2254:	
  2607                           	global	start
  2608  1309  120A  118A  2800   	ljmp	start
  2609                           	opt stack 0
  2610                           GLOBAL	__end_of_main
  2611  130C                     	__end_of_main:
  2612 ;; =============== function _main ends ============
  2613                           
  2614                           	signat	_main,88
  2615                           	global	_change_modes
  2616                           psect	text779,local,class=CODE,delta=2
  2617                           global __ptext779
  2618  00F8                     __ptext779:
  2619                           
  2620 ;; *************** function _change_modes *****************
  2621 ;; Defined at:
  2622 ;;		line 741 in file "F:\BEVERAGES_ENHANCEMENT\SOFTWARE_DESIGN\MASTER_PIC_16F877A\2015_09_03\Beverage_services.c"
  2623 ;; Parameters:    Size  Location     Type
  2624 ;;		None
  2625 ;; Auto vars:     Size  Location     Type
  2626 ;;		None
  2627 ;; Return value:  Size  Location     Type
  2628 ;;		None               void
  2629 ;; Registers used:
  2630 ;;		wreg, fsr0l, fsr0h, status,2, status,0, btemp+1, pclath, cstack
  2631 ;; Tracked objects:
  2632 ;;		On entry : 0/0
  2633 ;;		On exit  : 0/0
  2634 ;;		Unchanged: 0/0
  2635 ;; Data sizes:     COMMON   BANK0   BANK1   BANK3   BANK2
  2636 ;;      Params:         0       0       0       0       0
  2637 ;;      Locals:         0       0       0       0       0
  2638 ;;      Temps:          0       3       0       0       0
  2639 ;;      Totals:         0       3       0       0       0
  2640 ;;Total ram usage:        3 bytes
  2641 ;; Hardware stack levels used:    1
  2642 ;; Hardware stack levels required when called:    4
  2643 ;; This function calls:
  2644 ;;		_Print_Name
  2645 ;;		_Lcd_String
  2646 ;;		_DelayMs
  2647 ;;		_Lcd_Cmd
  2648 ;;		_Lcd_Data
  2649 ;;		_print_yes_no
  2650 ;;		_eeprom_read
  2651 ;;		_count_read
  2652 ;;		_Num_Disp
  2653 ;; This function is called by:
  2654 ;;		_main
  2655 ;; This function uses a non-reentrant model
  2656 ;;
  2657                           psect	text779
  2658                           	file	"F:\BEVERAGES_ENHANCEMENT\SOFTWARE_DESIGN\MASTER_PIC_16F877A\2015_09_03\Beverage_s
                                 ervices.c"
  2659                           	line	741
  2660                           	global	__size_of_change_modes
  2661  02E3                     	__size_of_change_modes	equ	__end_of_change_modes-_change_modes
  2662                           	
  2663  00F8                     _change_modes:	
  2664                           	opt	stack 3
  2665                           ; Regs used in _change_modes: [wreg-fsr0h+status,2+status,0+btemp+1+pclath+cstack]
  2666                           	line	742
  2667                           	
  2668  00F8                     l10044:	
  2669                           ;Beverage_services.c: 742: switch (_DISABLE_MODE)
  2670  00F8  2914               	goto	l10048
  2671                           	line	744
  2672                           ;Beverage_services.c: 743: {
  2673                           ;Beverage_services.c: 744: case _Normal_Mode: Enable_Normal_Mode=0;
  2674                           	
  2675  00F9                     l3325:	
  2676  00F9  13EC               	bcf	(_Enable_Normal_Mode/8),(_Enable_Normal_Mode)&7
  2677                           	line	745
  2678                           ;Beverage_services.c: 745: break;
  2679  00FA  295B               	goto	l10052
  2680                           	line	746
  2681                           ;Beverage_services.c: 746: case _Password: Enable_Password=0;
  2682                           	
  2683  00FB                     l3327:	
  2684  00FB  106D               	bcf	(_Enable_Password/8),(_Enable_Password)&7
  2685                           	line	747
  2686                           ;Beverage_services.c: 747: break;
  2687  00FC  295B               	goto	l10052
  2688                           	line	748
  2689                           ;Beverage_services.c: 748: case _Config_Mode: Enable_Config_Mode=0;
  2690                           	
  2691  00FD                     l3328:	
  2692  00FD  11EB               	bcf	(_Enable_Config_Mode/8),(_Enable_Config_Mode)&7
  2693                           	line	749
  2694                           ;Beverage_services.c: 749: break;
  2695  00FE  295B               	goto	l10052
  2696                           	line	750
  2697                           ;Beverage_services.c: 750: case _Valves: Enable_Valves=0;
  2698                           	
  2699  00FF                     l3329:	
  2700  00FF  13ED               	bcf	(_Enable_Valves/8),(_Enable_Valves)&7
  2701                           	line	751
  2702                           ;Beverage_services.c: 751: break;
  2703  0100  295B               	goto	l10052
  2704                           	line	752
  2705                           ;Beverage_services.c: 752: case _Selection: Enable_Selection=0;
  2706                           	
  2707  0101                     l3330:	
  2708  0101  10ED               	bcf	(_Enable_Selection/8),(_Enable_Selection)&7
  2709                           	line	753
  2710                           ;Beverage_services.c: 753: break;
  2711  0102  295B               	goto	l10052
  2712                           	line	754
  2713                           ;Beverage_services.c: 754: case _Coffee_Dication_Time: Enable_Coffee_Dication_Time=0;
  2714                           	
  2715  0103                     l3331:	
  2716  0103  106B               	bcf	(_Enable_Coffee_Dication_Time/8),(_Enable_Coffee_Dication_Time)&7
  2717                           	line	755
  2718                           ;Beverage_services.c: 755: break;
  2719  0104  295B               	goto	l10052
  2720                           	line	756
  2721                           ;Beverage_services.c: 756: case _Tea_Dication_Time: Enable_Tea_Dication_Time=0;
  2722                           	
  2723  0105                     l3332:	
  2724  0105  11ED               	bcf	(_Enable_Tea_Dication_Time/8),(_Enable_Tea_Dication_Time)&7
  2725                           	line	757
  2726                           ;Beverage_services.c: 757: break;
  2727  0106  295B               	goto	l10052
  2728                           	line	758
  2729                           ;Beverage_services.c: 758: case _Dication_Delay: Enable_Dication_Delay=0;
  2730                           	
  2731  0107                     l3333:	
  2732  0107  136B               	bcf	(_Enable_Dication_Delay/8),(_Enable_Dication_Delay)&7
  2733                           	line	759
  2734                           ;Beverage_services.c: 759: break;
  2735  0108  295B               	goto	l10052
  2736                           	line	760
  2737                           ;Beverage_services.c: 760: case _Hot_Water_Time: Enable_Hot_Water_Time=0;
  2738                           	
  2739  0109                     l3334:	
  2740  0109  10EC               	bcf	(_Enable_Hot_Water_Time/8),(_Enable_Hot_Water_Time)&7
  2741                           	line	761
  2742                           ;Beverage_services.c: 761: break;
  2743  010A  295B               	goto	l10052
  2744                           	line	762
  2745                           ;Beverage_services.c: 762: case _Temperature: Enable_Temperature=0;
  2746                           	
  2747  010B                     l3335:	
  2748  010B  136D               	bcf	(_Enable_Temperature/8),(_Enable_Temperature)&7
  2749                           	line	763
  2750                           ;Beverage_services.c: 763: break;
  2751  010C  295B               	goto	l10052
  2752                           	line	764
  2753                           ;Beverage_services.c: 764: case _Cup_Count: Enable_Cup_Count=0;
  2754                           	
  2755  010D                     l3336:	
  2756  010D  12EB               	bcf	(_Enable_Cup_Count/8),(_Enable_Cup_Count)&7
  2757                           	line	765
  2758                           ;Beverage_services.c: 765: break;
  2759  010E  295B               	goto	l10052
  2760                           	line	766
  2761                           ;Beverage_services.c: 766: case _Count_Reset: Enable_Count_Reset=0;
  2762                           	
  2763  010F                     l3337:	
  2764  010F  126B               	bcf	(_Enable_Count_Reset/8),(_Enable_Count_Reset)&7
  2765                           	line	767
  2766                           ;Beverage_services.c: 767: break;
  2767  0110  295B               	goto	l10052
  2768                           	line	768
  2769                           ;Beverage_services.c: 768: case _Shortcut_Mode: Enable_Shortcut_Mode=0;
  2770                           	
  2771  0111                     l3338:	
  2772  0111  116D               	bcf	(_Enable_Shortcut_Mode/8),(_Enable_Shortcut_Mode)&7
  2773                           	line	769
  2774                           ;Beverage_services.c: 769: break;
  2775  0112  295B               	goto	l10052
  2776                           	line	770
  2777                           	
  2778  0113                     l10046:	
  2779                           ;Beverage_services.c: 770: }
  2780  0113  295B               	goto	l10052
  2781                           	line	742
  2782                           	
  2783  0114                     l3324:	
  2784                           	
  2785  0114                     l10048:	
  2786  0114  1283               	bcf	status, 5	;RP0=0, select bank0
  2787  0115  1303               	bcf	status, 6	;RP1=0, select bank0
  2788  0116  0837               	movf	(__DISABLE_MODE),w
  2789                           	; Switch size 1, requested type "space"
  2790                           ; Number of cases is 13, Range of values is 1 to 14
  2791                           ; switch strategies available:
  2792                           ; Name         Instructions Cycles
  2793                           ; simple_byte           40    21 (average)
  2794                           ; direct_byte           53    11 (fixed)
  2795                           ; jumptable            263     9 (fixed)
  2796                           ;	Chosen strategy is simple_byte
  2797                           
  2798                           	opt asmopt_off
  2799  0117  3A01               	xorlw	1^0	; case 1
  2800  0118  1903               	skipnz
  2801  0119  28F9               	goto	l3325
  2802  011A  3A03               	xorlw	2^1	; case 2
  2803  011B  1903               	skipnz
  2804  011C  28FB               	goto	l3327
  2805  011D  3A01               	xorlw	3^2	; case 3
  2806  011E  1903               	skipnz
  2807  011F  28FD               	goto	l3328
  2808  0120  3A07               	xorlw	4^3	; case 4
  2809  0121  1903               	skipnz
  2810  0122  28FF               	goto	l3329
  2811  0123  3A01               	xorlw	5^4	; case 5
  2812  0124  1903               	skipnz
  2813  0125  2901               	goto	l3330
  2814  0126  3A03               	xorlw	6^5	; case 6
  2815  0127  1903               	skipnz
  2816  0128  2903               	goto	l3331
  2817  0129  3A01               	xorlw	7^6	; case 7
  2818  012A  1903               	skipnz
  2819  012B  2905               	goto	l3332
  2820  012C  3A0F               	xorlw	8^7	; case 8
  2821  012D  1903               	skipnz
  2822  012E  2907               	goto	l3333
  2823  012F  3A01               	xorlw	9^8	; case 9
  2824  0130  1903               	skipnz
  2825  0131  2909               	goto	l3334
  2826  0132  3A02               	xorlw	11^9	; case 11
  2827  0133  1903               	skipnz
  2828  0134  290B               	goto	l3335
  2829  0135  3A07               	xorlw	12^11	; case 12
  2830  0136  1903               	skipnz
  2831  0137  290D               	goto	l3336
  2832  0138  3A01               	xorlw	13^12	; case 13
  2833  0139  1903               	skipnz
  2834  013A  290F               	goto	l3337
  2835  013B  3A03               	xorlw	14^13	; case 14
  2836  013C  1903               	skipnz
  2837  013D  2911               	goto	l3338
  2838  013E  295B               	goto	l10052
  2839                           	opt asmopt_on
  2840                           
  2841                           	line	770
  2842                           	
  2843  013F                     l3326:	
  2844                           	line	771
  2845                           ;Beverage_services.c: 771: switch (_ENABLE_MODE)
  2846  013F  295B               	goto	l10052
  2847                           	line	773
  2848                           ;Beverage_services.c: 772: {
  2849                           ;Beverage_services.c: 773: case _Normal_Mode: Enable_Normal_Mode=1;
  2850                           	
  2851  0140                     l3340:	
  2852  0140  17EC               	bsf	(_Enable_Normal_Mode/8),(_Enable_Normal_Mode)&7
  2853                           	line	774
  2854                           ;Beverage_services.c: 774: break;
  2855  0141  2984               	goto	l3341
  2856                           	line	775
  2857                           ;Beverage_services.c: 775: case _Password: Enable_Password=1;
  2858                           	
  2859  0142                     l3342:	
  2860  0142  146D               	bsf	(_Enable_Password/8),(_Enable_Password)&7
  2861                           	line	776
  2862                           ;Beverage_services.c: 776: break;
  2863  0143  2984               	goto	l3341
  2864                           	line	777
  2865                           ;Beverage_services.c: 777: case _Config_Mode: Enable_Config_Mode=1;
  2866                           	
  2867  0144                     l3343:	
  2868  0144  15EB               	bsf	(_Enable_Config_Mode/8),(_Enable_Config_Mode)&7
  2869                           	line	778
  2870                           ;Beverage_services.c: 778: break;
  2871  0145  2984               	goto	l3341
  2872                           	line	779
  2873                           ;Beverage_services.c: 779: case _Valves: Enable_Valves=1;
  2874                           	
  2875  0146                     l3344:	
  2876  0146  17ED               	bsf	(_Enable_Valves/8),(_Enable_Valves)&7
  2877                           	line	780
  2878                           ;Beverage_services.c: 780: break;
  2879  0147  2984               	goto	l3341
  2880                           	line	781
  2881                           ;Beverage_services.c: 781: case _Selection: Enable_Selection=1;
  2882                           	
  2883  0148                     l3345:	
  2884  0148  14ED               	bsf	(_Enable_Selection/8),(_Enable_Selection)&7
  2885                           	line	782
  2886                           ;Beverage_services.c: 782: break;
  2887  0149  2984               	goto	l3341
  2888                           	line	783
  2889                           ;Beverage_services.c: 783: case _Coffee_Dication_Time: Enable_Coffee_Dication_Time=1;
  2890                           	
  2891  014A                     l3346:	
  2892  014A  146B               	bsf	(_Enable_Coffee_Dication_Time/8),(_Enable_Coffee_Dication_Time)&7
  2893                           	line	784
  2894                           ;Beverage_services.c: 784: break;
  2895  014B  2984               	goto	l3341
  2896                           	line	785
  2897                           ;Beverage_services.c: 785: case _Tea_Dication_Time: Enable_Tea_Dication_Time=1;
  2898                           	
  2899  014C                     l3347:	
  2900  014C  15ED               	bsf	(_Enable_Tea_Dication_Time/8),(_Enable_Tea_Dication_Time)&7
  2901                           	line	786
  2902                           ;Beverage_services.c: 786: break;
  2903  014D  2984               	goto	l3341
  2904                           	line	787
  2905                           ;Beverage_services.c: 787: case _Dication_Delay: Enable_Dication_Delay=1;
  2906                           	
  2907  014E                     l3348:	
  2908  014E  176B               	bsf	(_Enable_Dication_Delay/8),(_Enable_Dication_Delay)&7
  2909                           	line	788
  2910                           ;Beverage_services.c: 788: break;
  2911  014F  2984               	goto	l3341
  2912                           	line	789
  2913                           ;Beverage_services.c: 789: case _Hot_Water_Time: Enable_Hot_Water_Time=1;
  2914                           	
  2915  0150                     l3349:	
  2916  0150  14EC               	bsf	(_Enable_Hot_Water_Time/8),(_Enable_Hot_Water_Time)&7
  2917                           	line	790
  2918                           ;Beverage_services.c: 790: break;
  2919  0151  2984               	goto	l3341
  2920                           	line	791
  2921                           ;Beverage_services.c: 791: case _Temperature: Enable_Temperature=1;
  2922                           	
  2923  0152                     l3350:	
  2924  0152  176D               	bsf	(_Enable_Temperature/8),(_Enable_Temperature)&7
  2925                           	line	792
  2926                           ;Beverage_services.c: 792: break;
  2927  0153  2984               	goto	l3341
  2928                           	line	793
  2929                           ;Beverage_services.c: 793: case _Cup_Count: Enable_Cup_Count=1;
  2930                           	
  2931  0154                     l3351:	
  2932  0154  16EB               	bsf	(_Enable_Cup_Count/8),(_Enable_Cup_Count)&7
  2933                           	line	794
  2934                           ;Beverage_services.c: 794: break;
  2935  0155  2984               	goto	l3341
  2936                           	line	795
  2937                           ;Beverage_services.c: 795: case _Count_Reset: Enable_Count_Reset=1;
  2938                           	
  2939  0156                     l3352:	
  2940  0156  166B               	bsf	(_Enable_Count_Reset/8),(_Enable_Count_Reset)&7
  2941                           	line	796
  2942                           ;Beverage_services.c: 796: break;
  2943  0157  2984               	goto	l3341
  2944                           	line	797
  2945                           ;Beverage_services.c: 797: case _Shortcut_Mode: Enable_Shortcut_Mode=1;
  2946                           	
  2947  0158                     l3353:	
  2948  0158  156D               	bsf	(_Enable_Shortcut_Mode/8),(_Enable_Shortcut_Mode)&7
  2949                           	line	798
  2950                           ;Beverage_services.c: 798: break;
  2951  0159  2984               	goto	l3341
  2952                           	line	799
  2953                           	
  2954  015A                     l10050:	
  2955                           ;Beverage_services.c: 799: }
  2956  015A  2984               	goto	l3341
  2957                           	line	771
  2958                           	
  2959  015B                     l3339:	
  2960                           	
  2961  015B                     l10052:	
  2962  015B  0838               	movf	(__ENABLE_MODE),w
  2963                           	; Switch size 1, requested type "space"
  2964                           ; Number of cases is 13, Range of values is 1 to 14
  2965                           ; switch strategies available:
  2966                           ; Name         Instructions Cycles
  2967                           ; simple_byte           40    21 (average)
  2968                           ; direct_byte           53    11 (fixed)
  2969                           ; jumptable            263     9 (fixed)
  2970                           ;	Chosen strategy is simple_byte
  2971                           
  2972                           	opt asmopt_off
  2973  015C  3A01               	xorlw	1^0	; case 1
  2974  015D  1903               	skipnz
  2975  015E  2940               	goto	l3340
  2976  015F  3A03               	xorlw	2^1	; case 2
  2977  0160  1903               	skipnz
  2978  0161  2942               	goto	l3342
  2979  0162  3A01               	xorlw	3^2	; case 3
  2980  0163  1903               	skipnz
  2981  0164  2944               	goto	l3343
  2982  0165  3A07               	xorlw	4^3	; case 4
  2983  0166  1903               	skipnz
  2984  0167  2946               	goto	l3344
  2985  0168  3A01               	xorlw	5^4	; case 5
  2986  0169  1903               	skipnz
  2987  016A  2948               	goto	l3345
  2988  016B  3A03               	xorlw	6^5	; case 6
  2989  016C  1903               	skipnz
  2990  016D  294A               	goto	l3346
  2991  016E  3A01               	xorlw	7^6	; case 7
  2992  016F  1903               	skipnz
  2993  0170  294C               	goto	l3347
  2994  0171  3A0F               	xorlw	8^7	; case 8
  2995  0172  1903               	skipnz
  2996  0173  294E               	goto	l3348
  2997  0174  3A01               	xorlw	9^8	; case 9
  2998  0175  1903               	skipnz
  2999  0176  2950               	goto	l3349
  3000  0177  3A02               	xorlw	11^9	; case 11
  3001  0178  1903               	skipnz
  3002  0179  2952               	goto	l3350
  3003  017A  3A07               	xorlw	12^11	; case 12
  3004  017B  1903               	skipnz
  3005  017C  2954               	goto	l3351
  3006  017D  3A01               	xorlw	13^12	; case 13
  3007  017E  1903               	skipnz
  3008  017F  2956               	goto	l3352
  3009  0180  3A03               	xorlw	14^13	; case 14
  3010  0181  1903               	skipnz
  3011  0182  2958               	goto	l3353
  3012  0183  2984               	goto	l3341
  3013                           	opt asmopt_on
  3014                           
  3015                           	line	799
  3016                           	
  3017  0184                     l3341:	
  3018                           	line	801
  3019                           ;Beverage_services.c: 801: if(Enable_Normal_Mode && (_PREVIOUS_MODE != _ENABLE_MODE))
  3020  0184  1FEC               	btfss	(_Enable_Normal_Mode/8),(_Enable_Normal_Mode)&7
  3021  0185  2987               	goto	u7011
  3022  0186  2988               	goto	u7010
  3023  0187                     u7011:
  3024  0187  2994               	goto	l10058
  3025  0188                     u7010:
  3026                           	
  3027  0188                     l10054:	
  3028  0188  083C               	movf	(__PREVIOUS_MODE),w
  3029  0189  0638               	xorwf	(__ENABLE_MODE),w
  3030  018A  1903               	skipnz
  3031  018B  298D               	goto	u7021
  3032  018C  298E               	goto	u7020
  3033  018D                     u7021:
  3034  018D  2994               	goto	l10058
  3035  018E                     u7020:
  3036                           	line	803
  3037                           	
  3038  018E                     l10056:	
  3039                           ;Beverage_services.c: 802: {
  3040                           ;Beverage_services.c: 803: Print_Name();
  3041  018E  160A  158A  215B   	fcall	_Print_Name
              120A  118A         
  3042  0193  2994               	goto	l10058
  3043                           	line	804
  3044                           	
  3045  0194                     l3354:	
  3046                           	line	805
  3047                           	
  3048  0194                     l10058:	
  3049                           ;Beverage_services.c: 804: }
  3050                           ;Beverage_services.c: 805: if(Enable_Password && (_PREVIOUS_MODE != _ENABLE_MODE))
  3051  0194  1283               	bcf	status, 5	;RP0=0, select bank0
  3052  0195  1303               	bcf	status, 6	;RP1=0, select bank0
  3053  0196  1C6D               	btfss	(_Enable_Password/8),(_Enable_Password)&7
  3054  0197  2999               	goto	u7031
  3055  0198  299A               	goto	u7030
  3056  0199                     u7031:
  3057  0199  29AE               	goto	l10064
  3058  019A                     u7030:
  3059                           	
  3060  019A                     l10060:	
  3061  019A  083C               	movf	(__PREVIOUS_MODE),w
  3062  019B  0638               	xorwf	(__ENABLE_MODE),w
  3063  019C  1903               	skipnz
  3064  019D  299F               	goto	u7041
  3065  019E  29A0               	goto	u7040
  3066  019F                     u7041:
  3067  019F  29AE               	goto	l10064
  3068  01A0                     u7040:
  3069                           	line	807
  3070                           	
  3071  01A0                     l10062:	
  3072                           ;Beverage_services.c: 806: {
  3073                           ;Beverage_services.c: 807: Lcd_String("PASSWORD: ",1,0);
  3074  01A0  3056               	movlw	low(STR_30|8000h)
  3075  01A1  00CE               	movwf	(?_Lcd_String)
  3076  01A2  3091               	movlw	high(STR_30|8000h)
  3077  01A3  00CF               	movwf	((?_Lcd_String))+1
  3078  01A4  01D0               	clrf	0+(?_Lcd_String)+02h
  3079  01A5  1403               	bsf	status,0
  3080  01A6  0DD0               	rlf	0+(?_Lcd_String)+02h,f
  3081  01A7  01D1               	clrf	0+(?_Lcd_String)+03h
  3082  01A8  120A  158A  2000   	fcall	_Lcd_String
              120A  118A         
  3083  01AD  29AE               	goto	l10064
  3084                           	line	808
  3085                           	
  3086  01AE                     l3355:	
  3087                           	line	809
  3088                           	
  3089  01AE                     l10064:	
  3090                           ;Beverage_services.c: 808: }
  3091                           ;Beverage_services.c: 809: if(Enable_Valves && (_PREVIOUS_MODE != _ENABLE_MODE))
  3092  01AE  1283               	bcf	status, 5	;RP0=0, select bank0
  3093  01AF  1303               	bcf	status, 6	;RP1=0, select bank0
  3094  01B0  1FED               	btfss	(_Enable_Valves/8),(_Enable_Valves)&7
  3095  01B1  29B3               	goto	u7051
  3096  01B2  29B4               	goto	u7050
  3097  01B3                     u7051:
  3098  01B3  29F4               	goto	l10074
  3099  01B4                     u7050:
  3100                           	
  3101  01B4                     l10066:	
  3102  01B4  083C               	movf	(__PREVIOUS_MODE),w
  3103  01B5  0638               	xorwf	(__ENABLE_MODE),w
  3104  01B6  1903               	skipnz
  3105  01B7  29B9               	goto	u7061
  3106  01B8  29BA               	goto	u7060
  3107  01B9                     u7061:
  3108  01B9  29F4               	goto	l10074
  3109  01BA                     u7060:
  3110                           	line	811
  3111                           	
  3112  01BA                     l10068:	
  3113                           ;Beverage_services.c: 810: {
  3114                           ;Beverage_services.c: 811: Lcd_String("CONFIGURE MODE",1,0);
  3115  01BA  3061               	movlw	low(STR_31|8000h)
  3116  01BB  00CE               	movwf	(?_Lcd_String)
  3117  01BC  3090               	movlw	high(STR_31|8000h)
  3118  01BD  00CF               	movwf	((?_Lcd_String))+1
  3119  01BE  01D0               	clrf	0+(?_Lcd_String)+02h
  3120  01BF  1403               	bsf	status,0
  3121  01C0  0DD0               	rlf	0+(?_Lcd_String)+02h,f
  3122  01C1  01D1               	clrf	0+(?_Lcd_String)+03h
  3123  01C2  120A  158A  2000   	fcall	_Lcd_String
              120A  118A         
  3124                           	line	812
  3125                           	
  3126  01C7                     l10070:	
  3127                           ;Beverage_services.c: 812: DelayMs(100);
  3128  01C7  3064               	movlw	low(064h)
  3129  01C8  00FC               	movwf	(?_DelayMs)
  3130  01C9  3000               	movlw	high(064h)
  3131  01CA  00FD               	movwf	((?_DelayMs))+1
  3132  01CB  160A  158A  217A   	fcall	_DelayMs
              120A  118A         
  3133                           	line	813
  3134                           	
  3135  01D0                     l10072:	
  3136                           ;Beverage_services.c: 813: Lcd_String("MENU: ",1,0);
  3137  01D0  3089               	movlw	low(STR_32|8000h)
  3138  01D1  1283               	bcf	status, 5	;RP0=0, select bank0
  3139  01D2  1303               	bcf	status, 6	;RP1=0, select bank0
  3140  01D3  00CE               	movwf	(?_Lcd_String)
  3141  01D4  3091               	movlw	high(STR_32|8000h)
  3142  01D5  00CF               	movwf	((?_Lcd_String))+1
  3143  01D6  01D0               	clrf	0+(?_Lcd_String)+02h
  3144  01D7  1403               	bsf	status,0
  3145  01D8  0DD0               	rlf	0+(?_Lcd_String)+02h,f
  3146  01D9  01D1               	clrf	0+(?_Lcd_String)+03h
  3147  01DA  120A  158A  2000   	fcall	_Lcd_String
              120A  118A         
  3148                           	line	814
  3149                           ;Beverage_services.c: 814: Lcd_Cmd(0x86);
  3150  01DF  3086               	movlw	(086h)
  3151  01E0  160A  158A  229B   	fcall	_Lcd_Cmd
              120A  118A         
  3152                           	line	815
  3153                           ;Beverage_services.c: 815: Lcd_Data('1');
  3154  01E5  3031               	movlw	(031h)
  3155  01E6  160A  158A  22D4   	fcall	_Lcd_Data
              120A  118A         
  3156                           	line	816
  3157                           ;Beverage_services.c: 816: print_yes_no(Next);
  3158  01EB  1283               	bcf	status, 5	;RP0=0, select bank0
  3159  01EC  1303               	bcf	status, 6	;RP1=0, select bank0
  3160  01ED  0835               	movf	(_Next),w
  3161  01EE  160A  158A  2663   	fcall	_print_yes_no
              120A  118A         
  3162  01F3  29F4               	goto	l10074
  3163                           	line	817
  3164                           	
  3165  01F4                     l3356:	
  3166                           	line	818
  3167                           	
  3168  01F4                     l10074:	
  3169                           ;Beverage_services.c: 817: }
  3170                           ;Beverage_services.c: 818: if(Enable_Selection && (_PREVIOUS_MODE != _ENABLE_MODE))
  3171  01F4  1283               	bcf	status, 5	;RP0=0, select bank0
  3172  01F5  1303               	bcf	status, 6	;RP1=0, select bank0
  3173  01F6  1CED               	btfss	(_Enable_Selection/8),(_Enable_Selection)&7
  3174  01F7  29F9               	goto	u7071
  3175  01F8  29FA               	goto	u7070
  3176  01F9                     u7071:
  3177  01F9  2A46               	goto	l10088
  3178  01FA                     u7070:
  3179                           	
  3180  01FA                     l10076:	
  3181  01FA  083C               	movf	(__PREVIOUS_MODE),w
  3182  01FB  0638               	xorwf	(__ENABLE_MODE),w
  3183  01FC  1903               	skipnz
  3184  01FD  29FF               	goto	u7081
  3185  01FE  2A00               	goto	u7080
  3186  01FF                     u7081:
  3187  01FF  2A46               	goto	l10088
  3188  0200                     u7080:
  3189                           	line	820
  3190                           	
  3191  0200                     l10078:	
  3192                           ;Beverage_services.c: 819: {
  3193                           ;Beverage_services.c: 820: Lcd_Cmd(0x01);
  3194  0200  3001               	movlw	(01h)
  3195  0201  160A  158A  229B   	fcall	_Lcd_Cmd
              120A  118A         
  3196                           	line	821
  3197                           	
  3198  0206                     l10080:	
  3199                           ;Beverage_services.c: 821: Lcd_String("SELECTION",0,0);
  3200  0206  306C               	movlw	low(STR_33|8000h)
  3201  0207  1283               	bcf	status, 5	;RP0=0, select bank0
  3202  0208  1303               	bcf	status, 6	;RP1=0, select bank0
  3203  0209  00CE               	movwf	(?_Lcd_String)
  3204  020A  3091               	movlw	high(STR_33|8000h)
  3205  020B  00CF               	movwf	((?_Lcd_String))+1
  3206  020C  01D0               	clrf	0+(?_Lcd_String)+02h
  3207  020D  01D1               	clrf	0+(?_Lcd_String)+03h
  3208  020E  120A  158A  2000   	fcall	_Lcd_String
              120A  118A         
  3209                           	line	822
  3210                           	
  3211  0213                     l10082:	
  3212                           ;Beverage_services.c: 822: Lcd_String(" MODE",0,0);
  3213  0213  306A               	movlw	low(STR_34|8000h)
  3214  0214  1283               	bcf	status, 5	;RP0=0, select bank0
  3215  0215  1303               	bcf	status, 6	;RP1=0, select bank0
  3216  0216  00CE               	movwf	(?_Lcd_String)
  3217  0217  3090               	movlw	high(STR_34|8000h)
  3218  0218  00CF               	movwf	((?_Lcd_String))+1
  3219  0219  01D0               	clrf	0+(?_Lcd_String)+02h
  3220  021A  01D1               	clrf	0+(?_Lcd_String)+03h
  3221  021B  120A  158A  2000   	fcall	_Lcd_String
              120A  118A         
  3222                           	line	823
  3223                           ;Beverage_services.c: 823: DelayMs(100);
  3224  0220  3064               	movlw	low(064h)
  3225  0221  00FC               	movwf	(?_DelayMs)
  3226  0222  3000               	movlw	high(064h)
  3227  0223  00FD               	movwf	((?_DelayMs))+1
  3228  0224  160A  158A  217A   	fcall	_DelayMs
              120A  118A         
  3229                           	line	824
  3230                           ;Beverage_services.c: 824: time=eeprom_read(10);
  3231  0229  300A               	movlw	(0Ah)
  3232  022A  1283               	bcf	status, 5	;RP0=0, select bank0
  3233  022B  1303               	bcf	status, 6	;RP1=0, select bank0
  3234  022C  00DA               	movwf	(??_change_modes+0)+0
  3235  022D  085A               	movf	(??_change_modes+0)+0,w
  3236  022E  00F4               	movwf	(?_eeprom_read)
  3237  022F  160A  158A  211F   	fcall	_eeprom_read
              120A  118A         
  3238  0234  1283               	bcf	status, 5	;RP0=0, select bank0
  3239  0235  1303               	bcf	status, 6	;RP1=0, select bank0
  3240  0236  00DB               	movwf	(??_change_modes+1)+0
  3241  0237  01DC               	clrf	(??_change_modes+1)+0+1
  3242  0238  085B               	movf	0+(??_change_modes+1)+0,w
  3243  0239  00B3               	movwf	(_time)
  3244  023A  085C               	movf	1+(??_change_modes+1)+0,w
  3245  023B  00B4               	movwf	(_time+1)
  3246                           	line	825
  3247                           	
  3248  023C                     l10084:	
  3249                           ;Beverage_services.c: 825: _PRESSED=_NORMAL_COFFEE_BUTTON;
  3250  023C  01BB               	clrf	(__PRESSED)
  3251  023D  1403               	bsf	status,0
  3252  023E  0DBB               	rlf	(__PRESSED),f
  3253                           	line	826
  3254                           	
  3255  023F                     l10086:	
  3256                           ;Beverage_services.c: 826: Lcd_Cmd(0x01);
  3257  023F  3001               	movlw	(01h)
  3258  0240  160A  158A  229B   	fcall	_Lcd_Cmd
              120A  118A         
  3259  0245  2A46               	goto	l10088
  3260                           	line	827
  3261                           	
  3262  0246                     l3357:	
  3263                           	line	828
  3264                           	
  3265  0246                     l10088:	
  3266                           ;Beverage_services.c: 827: }
  3267                           ;Beverage_services.c: 828: if(Enable_Coffee_Dication_Time && (_PREVIOUS_MODE != _ENABLE_
                                 MODE))
  3268  0246  1283               	bcf	status, 5	;RP0=0, select bank0
  3269  0247  1303               	bcf	status, 6	;RP1=0, select bank0
  3270  0248  1C6B               	btfss	(_Enable_Coffee_Dication_Time/8),(_Enable_Coffee_Dication_Time)&7
  3271  0249  2A4B               	goto	u7091
  3272  024A  2A4C               	goto	u7090
  3273  024B                     u7091:
  3274  024B  2A86               	goto	l10098
  3275  024C                     u7090:
  3276                           	
  3277  024C                     l10090:	
  3278  024C  083C               	movf	(__PREVIOUS_MODE),w
  3279  024D  0638               	xorwf	(__ENABLE_MODE),w
  3280  024E  1903               	skipnz
  3281  024F  2A51               	goto	u7101
  3282  0250  2A52               	goto	u7100
  3283  0251                     u7101:
  3284  0251  2A86               	goto	l10098
  3285  0252                     u7100:
  3286                           	line	830
  3287                           	
  3288  0252                     l10092:	
  3289                           ;Beverage_services.c: 829: {
  3290                           ;Beverage_services.c: 830: Lcd_String("COFFEE DICATION",1,0);
  3291  0252  3032               	movlw	low(STR_35|8000h)
  3292  0253  00CE               	movwf	(?_Lcd_String)
  3293  0254  3090               	movlw	high(STR_35|8000h)
  3294  0255  00CF               	movwf	((?_Lcd_String))+1
  3295  0256  01D0               	clrf	0+(?_Lcd_String)+02h
  3296  0257  1403               	bsf	status,0
  3297  0258  0DD0               	rlf	0+(?_Lcd_String)+02h,f
  3298  0259  01D1               	clrf	0+(?_Lcd_String)+03h
  3299  025A  120A  158A  2000   	fcall	_Lcd_String
              120A  118A         
  3300                           	line	831
  3301                           ;Beverage_services.c: 831: Lcd_String("TIME:",0,1);
  3302  025F  3096               	movlw	low(STR_36|8000h)
  3303  0260  1283               	bcf	status, 5	;RP0=0, select bank0
  3304  0261  1303               	bcf	status, 6	;RP1=0, select bank0
  3305  0262  00CE               	movwf	(?_Lcd_String)
  3306  0263  3091               	movlw	high(STR_36|8000h)
  3307  0264  00CF               	movwf	((?_Lcd_String))+1
  3308  0265  01D0               	clrf	0+(?_Lcd_String)+02h
  3309  0266  01D1               	clrf	0+(?_Lcd_String)+03h
  3310  0267  1403               	bsf	status,0
  3311  0268  0DD1               	rlf	0+(?_Lcd_String)+03h,f
  3312  0269  120A  158A  2000   	fcall	_Lcd_String
              120A  118A         
  3313                           	line	832
  3314                           	
  3315  026E                     l10094:	
  3316                           ;Beverage_services.c: 832: time=eeprom_read(118);
  3317  026E  3076               	movlw	(076h)
  3318  026F  1283               	bcf	status, 5	;RP0=0, select bank0
  3319  0270  1303               	bcf	status, 6	;RP1=0, select bank0
  3320  0271  00DA               	movwf	(??_change_modes+0)+0
  3321  0272  085A               	movf	(??_change_modes+0)+0,w
  3322  0273  00F4               	movwf	(?_eeprom_read)
  3323  0274  160A  158A  211F   	fcall	_eeprom_read
              120A  118A         
  3324  0279  1283               	bcf	status, 5	;RP0=0, select bank0
  3325  027A  1303               	bcf	status, 6	;RP1=0, select bank0
  3326  027B  00DB               	movwf	(??_change_modes+1)+0
  3327  027C  01DC               	clrf	(??_change_modes+1)+0+1
  3328  027D  085B               	movf	0+(??_change_modes+1)+0,w
  3329  027E  00B3               	movwf	(_time)
  3330  027F  085C               	movf	1+(??_change_modes+1)+0,w
  3331  0280  00B4               	movwf	(_time+1)
  3332                           	line	833
  3333                           	
  3334  0281                     l10096:	
  3335                           ;Beverage_services.c: 833: _PRESSED=_NORMAL_TEA_BUTTON;
  3336  0281  3002               	movlw	(02h)
  3337  0282  00DA               	movwf	(??_change_modes+0)+0
  3338  0283  085A               	movf	(??_change_modes+0)+0,w
  3339  0284  00BB               	movwf	(__PRESSED)
  3340  0285  2A86               	goto	l10098
  3341                           	line	834
  3342                           	
  3343  0286                     l3358:	
  3344                           	line	835
  3345                           	
  3346  0286                     l10098:	
  3347                           ;Beverage_services.c: 834: }
  3348                           ;Beverage_services.c: 835: if(Enable_Tea_Dication_Time && (_PREVIOUS_MODE != _ENABLE_MOD
                                 E))
  3349  0286  1DED               	btfss	(_Enable_Tea_Dication_Time/8),(_Enable_Tea_Dication_Time)&7
  3350  0287  2A89               	goto	u7111
  3351  0288  2A8A               	goto	u7110
  3352  0289                     u7111:
  3353  0289  2AC4               	goto	l10108
  3354  028A                     u7110:
  3355                           	
  3356  028A                     l10100:	
  3357  028A  083C               	movf	(__PREVIOUS_MODE),w
  3358  028B  0638               	xorwf	(__ENABLE_MODE),w
  3359  028C  1903               	skipnz
  3360  028D  2A8F               	goto	u7121
  3361  028E  2A90               	goto	u7120
  3362  028F                     u7121:
  3363  028F  2AC4               	goto	l10108
  3364  0290                     u7120:
  3365                           	line	837
  3366                           	
  3367  0290                     l10102:	
  3368                           ;Beverage_services.c: 836: {
  3369                           ;Beverage_services.c: 837: Lcd_String("TEA DICATION",1,0);
  3370  0290  300B               	movlw	low(STR_37|8000h)
  3371  0291  00CE               	movwf	(?_Lcd_String)
  3372  0292  3091               	movlw	high(STR_37|8000h)
  3373  0293  00CF               	movwf	((?_Lcd_String))+1
  3374  0294  01D0               	clrf	0+(?_Lcd_String)+02h
  3375  0295  1403               	bsf	status,0
  3376  0296  0DD0               	rlf	0+(?_Lcd_String)+02h,f
  3377  0297  01D1               	clrf	0+(?_Lcd_String)+03h
  3378  0298  120A  158A  2000   	fcall	_Lcd_String
              120A  118A         
  3379                           	line	838
  3380                           ;Beverage_services.c: 838: Lcd_String("TIME:",0,1);
  3381  029D  3096               	movlw	low(STR_38|8000h)
  3382  029E  1283               	bcf	status, 5	;RP0=0, select bank0
  3383  029F  1303               	bcf	status, 6	;RP1=0, select bank0
  3384  02A0  00CE               	movwf	(?_Lcd_String)
  3385  02A1  3091               	movlw	high(STR_38|8000h)
  3386  02A2  00CF               	movwf	((?_Lcd_String))+1
  3387  02A3  01D0               	clrf	0+(?_Lcd_String)+02h
  3388  02A4  01D1               	clrf	0+(?_Lcd_String)+03h
  3389  02A5  1403               	bsf	status,0
  3390  02A6  0DD1               	rlf	0+(?_Lcd_String)+03h,f
  3391  02A7  120A  158A  2000   	fcall	_Lcd_String
              120A  118A         
  3392                           	line	839
  3393                           	
  3394  02AC                     l10104:	
  3395                           ;Beverage_services.c: 839: time=eeprom_read(119);
  3396  02AC  3077               	movlw	(077h)
  3397  02AD  1283               	bcf	status, 5	;RP0=0, select bank0
  3398  02AE  1303               	bcf	status, 6	;RP1=0, select bank0
  3399  02AF  00DA               	movwf	(??_change_modes+0)+0
  3400  02B0  085A               	movf	(??_change_modes+0)+0,w
  3401  02B1  00F4               	movwf	(?_eeprom_read)
  3402  02B2  160A  158A  211F   	fcall	_eeprom_read
              120A  118A         
  3403  02B7  1283               	bcf	status, 5	;RP0=0, select bank0
  3404  02B8  1303               	bcf	status, 6	;RP1=0, select bank0
  3405  02B9  00DB               	movwf	(??_change_modes+1)+0
  3406  02BA  01DC               	clrf	(??_change_modes+1)+0+1
  3407  02BB  085B               	movf	0+(??_change_modes+1)+0,w
  3408  02BC  00B3               	movwf	(_time)
  3409  02BD  085C               	movf	1+(??_change_modes+1)+0,w
  3410  02BE  00B4               	movwf	(_time+1)
  3411                           	line	840
  3412                           	
  3413  02BF                     l10106:	
  3414                           ;Beverage_services.c: 840: _PRESSED=_NORMAL_TEA_BUTTON;
  3415  02BF  3002               	movlw	(02h)
  3416  02C0  00DA               	movwf	(??_change_modes+0)+0
  3417  02C1  085A               	movf	(??_change_modes+0)+0,w
  3418  02C2  00BB               	movwf	(__PRESSED)
  3419  02C3  2AC4               	goto	l10108
  3420                           	line	841
  3421                           	
  3422  02C4                     l3359:	
  3423                           	line	842
  3424                           	
  3425  02C4                     l10108:	
  3426                           ;Beverage_services.c: 841: }
  3427                           ;Beverage_services.c: 842: if(Enable_Temperature && (_PREVIOUS_MODE != _ENABLE_MODE))
  3428  02C4  1F6D               	btfss	(_Enable_Temperature/8),(_Enable_Temperature)&7
  3429  02C5  2AC7               	goto	u7131
  3430  02C6  2AC8               	goto	u7130
  3431  02C7                     u7131:
  3432  02C7  2AF3               	goto	l10118
  3433  02C8                     u7130:
  3434                           	
  3435  02C8                     l10110:	
  3436  02C8  083C               	movf	(__PREVIOUS_MODE),w
  3437  02C9  0638               	xorwf	(__ENABLE_MODE),w
  3438  02CA  1903               	skipnz
  3439  02CB  2ACD               	goto	u7141
  3440  02CC  2ACE               	goto	u7140
  3441  02CD                     u7141:
  3442  02CD  2AF3               	goto	l10118
  3443  02CE                     u7140:
  3444                           	line	844
  3445                           	
  3446  02CE                     l10112:	
  3447                           ;Beverage_services.c: 843: {
  3448                           ;Beverage_services.c: 844: Lcd_String("TEMPERATURE",1,0);
  3449  02CE  3046               	movlw	low(STR_39|8000h)
  3450  02CF  00CE               	movwf	(?_Lcd_String)
  3451  02D0  3090               	movlw	high(STR_39|8000h)
  3452  02D1  00CF               	movwf	((?_Lcd_String))+1
  3453  02D2  01D0               	clrf	0+(?_Lcd_String)+02h
  3454  02D3  1403               	bsf	status,0
  3455  02D4  0DD0               	rlf	0+(?_Lcd_String)+02h,f
  3456  02D5  01D1               	clrf	0+(?_Lcd_String)+03h
  3457  02D6  120A  158A  2000   	fcall	_Lcd_String
              120A  118A         
  3458                           	line	845
  3459                           	
  3460  02DB                     l10114:	
  3461                           ;Beverage_services.c: 845: time=eeprom_read(120);
  3462  02DB  3078               	movlw	(078h)
  3463  02DC  1283               	bcf	status, 5	;RP0=0, select bank0
  3464  02DD  1303               	bcf	status, 6	;RP1=0, select bank0
  3465  02DE  00DA               	movwf	(??_change_modes+0)+0
  3466  02DF  085A               	movf	(??_change_modes+0)+0,w
  3467  02E0  00F4               	movwf	(?_eeprom_read)
  3468  02E1  160A  158A  211F   	fcall	_eeprom_read
              120A  118A         
  3469  02E6  1283               	bcf	status, 5	;RP0=0, select bank0
  3470  02E7  1303               	bcf	status, 6	;RP1=0, select bank0
  3471  02E8  00DB               	movwf	(??_change_modes+1)+0
  3472  02E9  01DC               	clrf	(??_change_modes+1)+0+1
  3473  02EA  085B               	movf	0+(??_change_modes+1)+0,w
  3474  02EB  00B3               	movwf	(_time)
  3475  02EC  085C               	movf	1+(??_change_modes+1)+0,w
  3476  02ED  00B4               	movwf	(_time+1)
  3477                           	line	846
  3478                           	
  3479  02EE                     l10116:	
  3480                           ;Beverage_services.c: 846: _PRESSED=_NORMAL_TEA_BUTTON;
  3481  02EE  3002               	movlw	(02h)
  3482  02EF  00DA               	movwf	(??_change_modes+0)+0
  3483  02F0  085A               	movf	(??_change_modes+0)+0,w
  3484  02F1  00BB               	movwf	(__PRESSED)
  3485  02F2  2AF3               	goto	l10118
  3486                           	line	847
  3487                           	
  3488  02F3                     l3360:	
  3489                           	line	848
  3490                           	
  3491  02F3                     l10118:	
  3492                           ;Beverage_services.c: 847: }
  3493                           ;Beverage_services.c: 848: if(Enable_Dication_Delay && (_PREVIOUS_MODE != _ENABLE_MODE))
  3494  02F3  1F6B               	btfss	(_Enable_Dication_Delay/8),(_Enable_Dication_Delay)&7
  3495  02F4  2AF6               	goto	u7151
  3496  02F5  2AF7               	goto	u7150
  3497  02F6                     u7151:
  3498  02F6  2B31               	goto	l10128
  3499  02F7                     u7150:
  3500                           	
  3501  02F7                     l10120:	
  3502  02F7  083C               	movf	(__PREVIOUS_MODE),w
  3503  02F8  0638               	xorwf	(__ENABLE_MODE),w
  3504  02F9  1903               	skipnz
  3505  02FA  2AFC               	goto	u7161
  3506  02FB  2AFD               	goto	u7160
  3507  02FC                     u7161:
  3508  02FC  2B31               	goto	l10128
  3509  02FD                     u7160:
  3510                           	line	850
  3511                           	
  3512  02FD                     l10122:	
  3513                           ;Beverage_services.c: 849: {
  3514                           ;Beverage_services.c: 850: Lcd_String("DICATION DELAY",1,0);
  3515  02FD  309D               	movlw	low(STR_40|8000h)
  3516  02FE  00CE               	movwf	(?_Lcd_String)
  3517  02FF  3090               	movlw	high(STR_40|8000h)
  3518  0300  00CF               	movwf	((?_Lcd_String))+1
  3519  0301  01D0               	clrf	0+(?_Lcd_String)+02h
  3520  0302  1403               	bsf	status,0
  3521  0303  0DD0               	rlf	0+(?_Lcd_String)+02h,f
  3522  0304  01D1               	clrf	0+(?_Lcd_String)+03h
  3523  0305  120A  158A  2000   	fcall	_Lcd_String
              120A  118A         
  3524                           	line	851
  3525                           ;Beverage_services.c: 851: Lcd_String("TIME:",0,1);
  3526  030A  3096               	movlw	low(STR_41|8000h)
  3527  030B  1283               	bcf	status, 5	;RP0=0, select bank0
  3528  030C  1303               	bcf	status, 6	;RP1=0, select bank0
  3529  030D  00CE               	movwf	(?_Lcd_String)
  3530  030E  3091               	movlw	high(STR_41|8000h)
  3531  030F  00CF               	movwf	((?_Lcd_String))+1
  3532  0310  01D0               	clrf	0+(?_Lcd_String)+02h
  3533  0311  01D1               	clrf	0+(?_Lcd_String)+03h
  3534  0312  1403               	bsf	status,0
  3535  0313  0DD1               	rlf	0+(?_Lcd_String)+03h,f
  3536  0314  120A  158A  2000   	fcall	_Lcd_String
              120A  118A         
  3537                           	line	852
  3538                           	
  3539  0319                     l10124:	
  3540                           ;Beverage_services.c: 852: time=eeprom_read(121);
  3541  0319  3079               	movlw	(079h)
  3542  031A  1283               	bcf	status, 5	;RP0=0, select bank0
  3543  031B  1303               	bcf	status, 6	;RP1=0, select bank0
  3544  031C  00DA               	movwf	(??_change_modes+0)+0
  3545  031D  085A               	movf	(??_change_modes+0)+0,w
  3546  031E  00F4               	movwf	(?_eeprom_read)
  3547  031F  160A  158A  211F   	fcall	_eeprom_read
              120A  118A         
  3548  0324  1283               	bcf	status, 5	;RP0=0, select bank0
  3549  0325  1303               	bcf	status, 6	;RP1=0, select bank0
  3550  0326  00DB               	movwf	(??_change_modes+1)+0
  3551  0327  01DC               	clrf	(??_change_modes+1)+0+1
  3552  0328  085B               	movf	0+(??_change_modes+1)+0,w
  3553  0329  00B3               	movwf	(_time)
  3554  032A  085C               	movf	1+(??_change_modes+1)+0,w
  3555  032B  00B4               	movwf	(_time+1)
  3556                           	line	853
  3557                           	
  3558  032C                     l10126:	
  3559                           ;Beverage_services.c: 853: _PRESSED=_NORMAL_TEA_BUTTON;
  3560  032C  3002               	movlw	(02h)
  3561  032D  00DA               	movwf	(??_change_modes+0)+0
  3562  032E  085A               	movf	(??_change_modes+0)+0,w
  3563  032F  00BB               	movwf	(__PRESSED)
  3564  0330  2B31               	goto	l10128
  3565                           	line	854
  3566                           	
  3567  0331                     l3361:	
  3568                           	line	855
  3569                           	
  3570  0331                     l10128:	
  3571                           ;Beverage_services.c: 854: }
  3572                           ;Beverage_services.c: 855: if(Enable_Hot_Water_Time && (_PREVIOUS_MODE != _ENABLE_MODE))
  3573  0331  1CEC               	btfss	(_Enable_Hot_Water_Time/8),(_Enable_Hot_Water_Time)&7
  3574  0332  2B34               	goto	u7171
  3575  0333  2B35               	goto	u7170
  3576  0334                     u7171:
  3577  0334  2B6F               	goto	l10138
  3578  0335                     u7170:
  3579                           	
  3580  0335                     l10130:	
  3581  0335  083C               	movf	(__PREVIOUS_MODE),w
  3582  0336  0638               	xorwf	(__ENABLE_MODE),w
  3583  0337  1903               	skipnz
  3584  0338  2B3A               	goto	u7181
  3585  0339  2B3B               	goto	u7180
  3586  033A                     u7181:
  3587  033A  2B6F               	goto	l10138
  3588  033B                     u7180:
  3589                           	line	857
  3590                           	
  3591  033B                     l10132:	
  3592                           ;Beverage_services.c: 856: {
  3593                           ;Beverage_services.c: 857: Lcd_String("HOT WATER",1,0);
  3594  033B  301B               	movlw	low(STR_42|8000h)
  3595  033C  00CE               	movwf	(?_Lcd_String)
  3596  033D  3091               	movlw	high(STR_42|8000h)
  3597  033E  00CF               	movwf	((?_Lcd_String))+1
  3598  033F  01D0               	clrf	0+(?_Lcd_String)+02h
  3599  0340  1403               	bsf	status,0
  3600  0341  0DD0               	rlf	0+(?_Lcd_String)+02h,f
  3601  0342  01D1               	clrf	0+(?_Lcd_String)+03h
  3602  0343  120A  158A  2000   	fcall	_Lcd_String
              120A  118A         
  3603                           	line	858
  3604                           ;Beverage_services.c: 858: Lcd_String("TIME:",0,1);
  3605  0348  3096               	movlw	low(STR_43|8000h)
  3606  0349  1283               	bcf	status, 5	;RP0=0, select bank0
  3607  034A  1303               	bcf	status, 6	;RP1=0, select bank0
  3608  034B  00CE               	movwf	(?_Lcd_String)
  3609  034C  3091               	movlw	high(STR_43|8000h)
  3610  034D  00CF               	movwf	((?_Lcd_String))+1
  3611  034E  01D0               	clrf	0+(?_Lcd_String)+02h
  3612  034F  01D1               	clrf	0+(?_Lcd_String)+03h
  3613  0350  1403               	bsf	status,0
  3614  0351  0DD1               	rlf	0+(?_Lcd_String)+03h,f
  3615  0352  120A  158A  2000   	fcall	_Lcd_String
              120A  118A         
  3616                           	line	859
  3617                           	
  3618  0357                     l10134:	
  3619                           ;Beverage_services.c: 859: time=eeprom_read(147);
  3620  0357  3093               	movlw	(093h)
  3621  0358  1283               	bcf	status, 5	;RP0=0, select bank0
  3622  0359  1303               	bcf	status, 6	;RP1=0, select bank0
  3623  035A  00DA               	movwf	(??_change_modes+0)+0
  3624  035B  085A               	movf	(??_change_modes+0)+0,w
  3625  035C  00F4               	movwf	(?_eeprom_read)
  3626  035D  160A  158A  211F   	fcall	_eeprom_read
              120A  118A         
  3627  0362  1283               	bcf	status, 5	;RP0=0, select bank0
  3628  0363  1303               	bcf	status, 6	;RP1=0, select bank0
  3629  0364  00DB               	movwf	(??_change_modes+1)+0
  3630  0365  01DC               	clrf	(??_change_modes+1)+0+1
  3631  0366  085B               	movf	0+(??_change_modes+1)+0,w
  3632  0367  00B3               	movwf	(_time)
  3633  0368  085C               	movf	1+(??_change_modes+1)+0,w
  3634  0369  00B4               	movwf	(_time+1)
  3635                           	line	860
  3636                           	
  3637  036A                     l10136:	
  3638                           ;Beverage_services.c: 860: _PRESSED=_NORMAL_TEA_BUTTON;
  3639  036A  3002               	movlw	(02h)
  3640  036B  00DA               	movwf	(??_change_modes+0)+0
  3641  036C  085A               	movf	(??_change_modes+0)+0,w
  3642  036D  00BB               	movwf	(__PRESSED)
  3643  036E  2B6F               	goto	l10138
  3644                           	line	861
  3645                           	
  3646  036F                     l3362:	
  3647                           	line	862
  3648                           	
  3649  036F                     l10138:	
  3650                           ;Beverage_services.c: 861: }
  3651                           ;Beverage_services.c: 862: if(Enable_Cup_Count && (_PREVIOUS_MODE != _ENABLE_MODE))
  3652  036F  1EEB               	btfss	(_Enable_Cup_Count/8),(_Enable_Cup_Count)&7
  3653  0370  2B72               	goto	u7191
  3654  0371  2B73               	goto	u7190
  3655  0372                     u7191:
  3656  0372  2BB4               	goto	l10150
  3657  0373                     u7190:
  3658                           	
  3659  0373                     l10140:	
  3660  0373  083C               	movf	(__PREVIOUS_MODE),w
  3661  0374  0638               	xorwf	(__ENABLE_MODE),w
  3662  0375  1903               	skipnz
  3663  0376  2B78               	goto	u7201
  3664  0377  2B79               	goto	u7200
  3665  0378                     u7201:
  3666  0378  2BB4               	goto	l10150
  3667  0379                     u7200:
  3668                           	line	864
  3669                           	
  3670  0379                     l10142:	
  3671                           ;Beverage_services.c: 863: {
  3672                           ;Beverage_services.c: 864: Lcd_String("CUP COUNT",1,0);
  3673  0379  3076               	movlw	low(STR_44|8000h)
  3674  037A  00CE               	movwf	(?_Lcd_String)
  3675  037B  3091               	movlw	high(STR_44|8000h)
  3676  037C  00CF               	movwf	((?_Lcd_String))+1
  3677  037D  01D0               	clrf	0+(?_Lcd_String)+02h
  3678  037E  1403               	bsf	status,0
  3679  037F  0DD0               	rlf	0+(?_Lcd_String)+02h,f
  3680  0380  01D1               	clrf	0+(?_Lcd_String)+03h
  3681  0381  120A  158A  2000   	fcall	_Lcd_String
              120A  118A         
  3682                           	line	865
  3683                           	
  3684  0386                     l10144:	
  3685                           ;Beverage_services.c: 865: Lcd_Cmd(0xC8); Num_Disp(count_read(126,127),5,0);
  3686  0386  30C8               	movlw	(0C8h)
  3687  0387  160A  158A  229B   	fcall	_Lcd_Cmd
              120A  118A         
  3688                           	
  3689  038C                     l10146:	
  3690  038C  307F               	movlw	(07Fh)
  3691  038D  1283               	bcf	status, 5	;RP0=0, select bank0
  3692  038E  1303               	bcf	status, 6	;RP1=0, select bank0
  3693  038F  00DA               	movwf	(??_change_modes+0)+0
  3694  0390  085A               	movf	(??_change_modes+0)+0,w
  3695  0391  00FC               	movwf	(?_count_read)
  3696  0392  307E               	movlw	(07Eh)
  3697  0393  160A  158A  222E   	fcall	_count_read
              120A  118A         
  3698  0398  087D               	movf	(1+(?_count_read)),w
  3699  0399  1283               	bcf	status, 5	;RP0=0, select bank0
  3700  039A  1303               	bcf	status, 6	;RP1=0, select bank0
  3701  039B  01D1               	clrf	(?_Num_Disp+1)
  3702  039C  07D1               	addwf	(?_Num_Disp+1)
  3703  039D  087C               	movf	(0+(?_count_read)),w
  3704  039E  01D0               	clrf	(?_Num_Disp)
  3705  039F  07D0               	addwf	(?_Num_Disp)
  3706                           
  3707  03A0  3005               	movlw	(05h)
  3708  03A1  00DB               	movwf	(??_change_modes+1)+0
  3709  03A2  085B               	movf	(??_change_modes+1)+0,w
  3710  03A3  00D2               	movwf	0+(?_Num_Disp)+02h
  3711  03A4  01D3               	clrf	0+(?_Num_Disp)+03h
  3712  03A5  160A  158A  26F5   	fcall	_Num_Disp
              120A  118A         
  3713                           	line	866
  3714                           	
  3715  03AA                     l10148:	
  3716                           ;Beverage_services.c: 866: DelayMs(50);
  3717  03AA  3032               	movlw	low(032h)
  3718  03AB  00FC               	movwf	(?_DelayMs)
  3719  03AC  3000               	movlw	high(032h)
  3720  03AD  00FD               	movwf	((?_DelayMs))+1
  3721  03AE  160A  158A  217A   	fcall	_DelayMs
              120A  118A         
  3722  03B3  2BB4               	goto	l10150
  3723                           	line	867
  3724                           	
  3725  03B4                     l3363:	
  3726                           	line	868
  3727                           	
  3728  03B4                     l10150:	
  3729                           ;Beverage_services.c: 867: }
  3730                           ;Beverage_services.c: 868: if(Enable_Count_Reset && (_PREVIOUS_MODE != _ENABLE_MODE))
  3731  03B4  1283               	bcf	status, 5	;RP0=0, select bank0
  3732  03B5  1303               	bcf	status, 6	;RP1=0, select bank0
  3733  03B6  1E6B               	btfss	(_Enable_Count_Reset/8),(_Enable_Count_Reset)&7
  3734  03B7  2BB9               	goto	u7211
  3735  03B8  2BBA               	goto	u7210
  3736  03B9                     u7211:
  3737  03B9  2BD4               	goto	l10158
  3738  03BA                     u7210:
  3739                           	
  3740  03BA                     l10152:	
  3741  03BA  083C               	movf	(__PREVIOUS_MODE),w
  3742  03BB  0638               	xorwf	(__ENABLE_MODE),w
  3743  03BC  1903               	skipnz
  3744  03BD  2BBF               	goto	u7221
  3745  03BE  2BC0               	goto	u7220
  3746  03BF                     u7221:
  3747  03BF  2BD4               	goto	l10158
  3748  03C0                     u7220:
  3749                           	line	870
  3750                           	
  3751  03C0                     l10154:	
  3752                           ;Beverage_services.c: 869: {
  3753                           ;Beverage_services.c: 870: Lcd_String("COUNT RESET",1,0);
  3754  03C0  304A               	movlw	low(STR_45|8000h)
  3755  03C1  00CE               	movwf	(?_Lcd_String)
  3756  03C2  3091               	movlw	high(STR_45|8000h)
  3757  03C3  00CF               	movwf	((?_Lcd_String))+1
  3758  03C4  01D0               	clrf	0+(?_Lcd_String)+02h
  3759  03C5  1403               	bsf	status,0
  3760  03C6  0DD0               	rlf	0+(?_Lcd_String)+02h,f
  3761  03C7  01D1               	clrf	0+(?_Lcd_String)+03h
  3762  03C8  120A  158A  2000   	fcall	_Lcd_String
              120A  118A         
  3763                           	line	871
  3764                           	
  3765  03CD                     l10156:	
  3766                           ;Beverage_services.c: 871: _PRESSED=_MILK_BUTTON;
  3767  03CD  3007               	movlw	(07h)
  3768  03CE  1283               	bcf	status, 5	;RP0=0, select bank0
  3769  03CF  1303               	bcf	status, 6	;RP1=0, select bank0
  3770  03D0  00DA               	movwf	(??_change_modes+0)+0
  3771  03D1  085A               	movf	(??_change_modes+0)+0,w
  3772  03D2  00BB               	movwf	(__PRESSED)
  3773  03D3  2BD4               	goto	l10158
  3774                           	line	872
  3775                           	
  3776  03D4                     l3364:	
  3777                           	line	874
  3778                           	
  3779  03D4                     l10158:	
  3780                           ;Beverage_services.c: 872: }
  3781                           ;Beverage_services.c: 874: _ENABLE_MODE=0;
  3782  03D4  01B8               	clrf	(__ENABLE_MODE)
  3783                           	line	875
  3784                           	
  3785  03D5                     l10160:	
  3786                           ;Beverage_services.c: 875: _DISABLE_MODE=0;
  3787  03D5  01B7               	clrf	(__DISABLE_MODE)
  3788                           	line	876
  3789                           	
  3790  03D6                     l10162:	
  3791                           ;Beverage_services.c: 876: _PREVIOUS_MODE=_ENABLE_MODE;
  3792  03D6  0838               	movf	(__ENABLE_MODE),w
  3793  03D7  00DA               	movwf	(??_change_modes+0)+0
  3794  03D8  085A               	movf	(??_change_modes+0)+0,w
  3795  03D9  00BC               	movwf	(__PREVIOUS_MODE)
  3796                           	line	877
  3797                           	
  3798  03DA                     l3365:	
  3799  03DA  0008               	return
  3800                           	opt stack 0
  3801                           GLOBAL	__end_of_change_modes
  3802  03DB                     	__end_of_change_modes:
  3803 ;; =============== function _change_modes ends ============
  3804                           
  3805                           	signat	_change_modes,88
  3806                           	global	_enable_valves
  3807                           psect	text780,local,class=CODE,delta=2
  3808                           global __ptext780
  3809  155A                     __ptext780:
  3810                           
  3811 ;; *************** function _enable_valves *****************
  3812 ;; Defined at:
  3813 ;;		line 155 in file "F:\BEVERAGES_ENHANCEMENT\SOFTWARE_DESIGN\MASTER_PIC_16F877A\2015_09_03\Beverage_services.c"
  3814 ;; Parameters:    Size  Location     Type
  3815 ;;		None
  3816 ;; Auto vars:     Size  Location     Type
  3817 ;;  index           1   28[BANK0 ] unsigned char 
  3818 ;;  i               2   26[BANK0 ] unsigned int 
  3819 ;; Return value:  Size  Location     Type
  3820 ;;		None               void
  3821 ;; Registers used:
  3822 ;;		wreg, fsr0l, fsr0h, status,2, status,0, btemp+1, pclath, cstack
  3823 ;; Tracked objects:
  3824 ;;		On entry : 0/0
  3825 ;;		On exit  : 0/0
  3826 ;;		Unchanged: 0/0
  3827 ;; Data sizes:     COMMON   BANK0   BANK1   BANK3   BANK2
  3828 ;;      Params:         0       0       0       0       0
  3829 ;;      Locals:         0       5       0       0       0
  3830 ;;      Temps:          0       5       0       0       0
  3831 ;;      Totals:         0      10       0       0       0
  3832 ;;Total ram usage:       10 bytes
  3833 ;; Hardware stack levels used:    1
  3834 ;; Hardware stack levels required when called:    4
  3835 ;; This function calls:
  3836 ;;		_Print_Menu
  3837 ;;		_Inidcate_Buzzer
  3838 ;;		_eeprom_read
  3839 ;;		_count_write
  3840 ;;		_call_control_valve
  3841 ;;		_Print_Name
  3842 ;;		_key_press
  3843 ;;		_offthevalve
  3844 ;;		_eeprom_write
  3845 ;;		_Lcd_Cmd
  3846 ;;		_Num_Disp
  3847 ;;		_DelayMs
  3848 ;;		_myitoa
  3849 ;;		_Lcd_String
  3850 ;;		_Write_ValveIn_Memory
  3851 ;;		_print_yes_no
  3852 ;;		___bmul
  3853 ;;		_Lcd_Data
  3854 ;;		___awdiv
  3855 ;;		_onthevalve
  3856 ;;		___wmul
  3857 ;;		_count_read
  3858 ;; This function is called by:
  3859 ;;		_main
  3860 ;; This function uses a non-reentrant model
  3861 ;;
  3862                           psect	text780
  3863                           	file	"F:\BEVERAGES_ENHANCEMENT\SOFTWARE_DESIGN\MASTER_PIC_16F877A\2015_09_03\Beverage_s
                                 ervices.c"
  3864                           	line	155
  3865                           	global	__size_of_enable_valves
  3866  EAA6                     	__size_of_enable_valves	equ	__end_of_enable_valves-_enable_valves
  3867                           	
  3868  155A                     _enable_valves:	
  3869                           	opt	stack 3
  3870                           ; Regs used in _enable_valves: [wreg-fsr0h+status,2+status,0+btemp+1+pclath+cstack]
  3871                           	line	156
  3872                           	
  3873  155A                     l9300:	
  3874                           ;Beverage_services.c: 156: if(Enable_Normal_Mode && (_PRESSED!=_MENU_BUTTON))
  3875  155A  1283               	bcf	status, 5	;RP0=0, select bank0
  3876  155B  1303               	bcf	status, 6	;RP1=0, select bank0
  3877  155C  1FEC               	btfss	(_Enable_Normal_Mode/8),(_Enable_Normal_Mode)&7
  3878  155D  2D5F               	goto	u5741
  3879  155E  2D60               	goto	u5740
  3880  155F                     u5741:
  3881  155F  2E14               	goto	l9342
  3882  1560                     u5740:
  3883                           	
  3884  1560                     l9302:	
  3885  1560  083B               	movf	(__PRESSED),w
  3886  1561  3A0A               	xorlw	0Ah
  3887  1562  1903               	skipnz
  3888  1563  2D65               	goto	u5751
  3889  1564  2D66               	goto	u5750
  3890  1565                     u5751:
  3891  1565  2E14               	goto	l9342
  3892  1566                     u5750:
  3893                           	line	158
  3894                           	
  3895  1566                     l9304:	
  3896                           ;Beverage_services.c: 157: {
  3897                           ;Beverage_services.c: 158: Print_Menu();
  3898  1566  120A  118A  2709   	fcall	_Print_Menu
              160A  118A         
  3899                           	line	159
  3900                           	
  3901  156B                     l9306:	
  3902                           ;Beverage_services.c: 159: if(_PRESSED==_HOT_WATER_BUTTON)
  3903  156B  1283               	bcf	status, 5	;RP0=0, select bank0
  3904  156C  1303               	bcf	status, 6	;RP1=0, select bank0
  3905  156D  083B               	movf	(__PRESSED),w
  3906  156E  3A09               	xorlw	09h
  3907  156F  1D03               	skipz
  3908  1570  2D72               	goto	u5761
  3909  1571  2D73               	goto	u5760
  3910  1572                     u5761:
  3911  1572  2D75               	goto	l9310
  3912  1573                     u5760:
  3913                           	line	160
  3914                           	
  3915  1573                     l9308:	
  3916                           ;Beverage_services.c: 160: Enable_Hot_Water_Valve=1;
  3917  1573  156C               	bsf	(_Enable_Hot_Water_Valve/8),(_Enable_Hot_Water_Valve)&7
  3918  1574  2D75               	goto	l9310
  3919                           	
  3920  1575                     l3138:	
  3921                           	line	162
  3922                           	
  3923  1575                     l9310:	
  3924                           ;Beverage_services.c: 162: if(_PRESSED)
  3925  1575  083B               	movf	(__PRESSED),w
  3926  1576  1D03               	skipz
  3927  1577  2D79               	goto	u5770
  3928  1578  2E14               	goto	l9342
  3929  1579                     u5770:
  3930                           	line	164
  3931                           	
  3932  1579                     l9312:	
  3933                           ;Beverage_services.c: 163: {
  3934                           ;Beverage_services.c: 164: if(MENU[_PRESSED-1].COFFEE_DICATION)
  3935  1579  083B               	movf	(__PRESSED),w
  3936  157A  3EFF               	addlw	0FFh
  3937  157B  3E20               	addlw	_MENU&0ffh
  3938  157C  0084               	movwf	fsr0
  3939  157D  1383               	bcf	status, 7	;select IRP bank0
  3940  157E  1C00               	btfss	indf,0
  3941  157F  2D81               	goto	u5781
  3942  1580  2D82               	goto	u5780
  3943  1581                     u5781:
  3944  1581  2D84               	goto	l9316
  3945  1582                     u5780:
  3946                           	line	166
  3947                           	
  3948  1582                     l9314:	
  3949                           ;Beverage_services.c: 165: {
  3950                           ;Beverage_services.c: 166: Enable_Coffee_Valve = 1;
  3951  1582  156B               	bsf	(_Enable_Coffee_Valve/8),(_Enable_Coffee_Valve)&7
  3952  1583  2D84               	goto	l9316
  3953                           	line	167
  3954                           	
  3955  1584                     l3140:	
  3956                           	line	168
  3957                           	
  3958  1584                     l9316:	
  3959                           ;Beverage_services.c: 167: }
  3960                           ;Beverage_services.c: 168: if(MENU[_PRESSED-1].TEA_DICATION)
  3961  1584  083B               	movf	(__PRESSED),w
  3962  1585  3EFF               	addlw	0FFh
  3963  1586  3E20               	addlw	_MENU&0ffh
  3964  1587  0084               	movwf	fsr0
  3965  1588  1C80               	btfss	indf,1
  3966  1589  2D8B               	goto	u5791
  3967  158A  2D8C               	goto	u5790
  3968  158B                     u5791:
  3969  158B  2D8E               	goto	l9320
  3970  158C                     u5790:
  3971                           	line	170
  3972                           	
  3973  158C                     l9318:	
  3974                           ;Beverage_services.c: 169: {
  3975                           ;Beverage_services.c: 170: Enable_Tea_Valve = 1;
  3976  158C  16ED               	bsf	(_Enable_Tea_Valve/8),(_Enable_Tea_Valve)&7
  3977  158D  2D8E               	goto	l9320
  3978                           	line	171
  3979                           	
  3980  158E                     l3141:	
  3981                           	line	172
  3982                           	
  3983  158E                     l9320:	
  3984                           ;Beverage_services.c: 171: }
  3985                           ;Beverage_services.c: 172: if(MENU[_PRESSED-1].MIXING_HOT_WATER)
  3986  158E  083B               	movf	(__PRESSED),w
  3987  158F  3EFF               	addlw	0FFh
  3988  1590  3E20               	addlw	_MENU&0ffh
  3989  1591  0084               	movwf	fsr0
  3990  1592  1D00               	btfss	indf,2
  3991  1593  2D95               	goto	u5801
  3992  1594  2D96               	goto	u5800
  3993  1595                     u5801:
  3994  1595  2D98               	goto	l9324
  3995  1596                     u5800:
  3996                           	line	174
  3997                           	
  3998  1596                     l9322:	
  3999                           ;Beverage_services.c: 173: {
  4000                           ;Beverage_services.c: 174: Enable_Mixing_Hot_Water_Valve = 1;
  4001  1596  176C               	bsf	(_Enable_Mixing_Hot_Water_Valve/8),(_Enable_Mixing_Hot_Water_Valve)&7
  4002  1597  2D98               	goto	l9324
  4003                           	line	175
  4004                           	
  4005  1598                     l3142:	
  4006                           	line	176
  4007                           	
  4008  1598                     l9324:	
  4009                           ;Beverage_services.c: 175: }
  4010                           ;Beverage_services.c: 176: if(MENU[_PRESSED-1].MILK)
  4011  1598  083B               	movf	(__PRESSED),w
  4012  1599  3EFF               	addlw	0FFh
  4013  159A  3E20               	addlw	_MENU&0ffh
  4014  159B  0084               	movwf	fsr0
  4015  159C  1D80               	btfss	indf,3
  4016  159D  2D9F               	goto	u5811
  4017  159E  2DA0               	goto	u5810
  4018  159F                     u5811:
  4019  159F  2DA3               	goto	l9328
  4020  15A0                     u5810:
  4021                           	line	178
  4022                           	
  4023  15A0                     l9326:	
  4024                           ;Beverage_services.c: 177: {
  4025                           ;Beverage_services.c: 178: Enable_Milk_Forward = 1;
  4026  15A0  15EC               	bsf	(_Enable_Milk_Forward/8),(_Enable_Milk_Forward)&7
  4027                           	line	179
  4028                           ;Beverage_services.c: 179: Enable_Milk_Reverse = 1;
  4029  15A1  166C               	bsf	(_Enable_Milk_Reverse/8),(_Enable_Milk_Reverse)&7
  4030  15A2  2DA3               	goto	l9328
  4031                           	line	180
  4032                           	
  4033  15A3                     l3143:	
  4034                           	line	181
  4035                           	
  4036  15A3                     l9328:	
  4037                           ;Beverage_services.c: 180: }
  4038                           ;Beverage_services.c: 181: if(MENU[_PRESSED-1].VIBR_MOTOR)
  4039  15A3  083B               	movf	(__PRESSED),w
  4040  15A4  3EFF               	addlw	0FFh
  4041  15A5  3E20               	addlw	_MENU&0ffh
  4042  15A6  0084               	movwf	fsr0
  4043  15A7  1E00               	btfss	indf,4
  4044  15A8  2DAA               	goto	u5821
  4045  15A9  2DAB               	goto	u5820
  4046  15AA                     u5821:
  4047  15AA  2DAD               	goto	l9332
  4048  15AB                     u5820:
  4049                           	line	183
  4050                           	
  4051  15AB                     l9330:	
  4052                           ;Beverage_services.c: 182: {
  4053                           ;Beverage_services.c: 183: Enable_Viber_Motor = 1;
  4054  15AB  146E               	bsf	(_Enable_Viber_Motor/8),(_Enable_Viber_Motor)&7
  4055  15AC  2DAD               	goto	l9332
  4056                           	line	184
  4057                           	
  4058  15AD                     l3144:	
  4059                           	line	186
  4060                           	
  4061  15AD                     l9332:	
  4062                           ;Beverage_services.c: 184: }
  4063                           ;Beverage_services.c: 186: Inidcate_Buzzer();
  4064  15AD  160A  158A  20CB   	fcall	_Inidcate_Buzzer
              160A  118A         
  4065                           	line	187
  4066                           	
  4067  15B2                     l9334:	
  4068                           ;Beverage_services.c: 187: if(_PRESSED!=_EXTRA_BUTTON)
  4069  15B2  1283               	bcf	status, 5	;RP0=0, select bank0
  4070  15B3  1303               	bcf	status, 6	;RP1=0, select bank0
  4071  15B4  083B               	movf	(__PRESSED),w
  4072  15B5  3A08               	xorlw	08h
  4073  15B6  1903               	skipnz
  4074  15B7  2DB9               	goto	u5831
  4075  15B8  2DBA               	goto	u5830
  4076  15B9                     u5831:
  4077  15B9  2E08               	goto	l9338
  4078  15BA                     u5830:
  4079                           	line	189
  4080                           	
  4081  15BA                     l9336:	
  4082                           ;Beverage_services.c: 188: {
  4083                           ;Beverage_services.c: 189: count_write(126,127,eeprom_read(126)+1);
  4084  15BA  307E               	movlw	(07Eh)
  4085  15BB  00DC               	movwf	(??_enable_valves+0)+0
  4086  15BC  085C               	movf	(??_enable_valves+0)+0,w
  4087  15BD  00F4               	movwf	(?_eeprom_read)
  4088  15BE  160A  158A  211F   	fcall	_eeprom_read
              160A  118A         
  4089  15C3  3E01               	addlw	low(01h)
  4090  15C4  1283               	bcf	status, 5	;RP0=0, select bank0
  4091  15C5  1303               	bcf	status, 6	;RP1=0, select bank0
  4092  15C6  00E1               	movwf	(_enable_valves$5507)
  4093  15C7  3000               	movlw	high(01h)
  4094  15C8  1803               	skipnc
  4095  15C9  3001               	movlw	(high(01h)+1)&0ffh
  4096  15CA  00E2               	movwf	((_enable_valves$5507))+1
  4097                           ;Beverage_services.c: 188: {
  4098                           ;Beverage_services.c: 189: count_write(126,127,eeprom_read(126)+1);
  4099  15CB  307F               	movlw	(07Fh)
  4100  15CC  00DC               	movwf	(??_enable_valves+0)+0
  4101  15CD  085C               	movf	(??_enable_valves+0)+0,w
  4102  15CE  00F9               	movwf	(?_count_write)
  4103  15CF  0862               	movf	(_enable_valves$5507+1),w
  4104  15D0  01FB               	clrf	1+(?_count_write)+01h
  4105  15D1  07FB               	addwf	1+(?_count_write)+01h
  4106  15D2  0861               	movf	(_enable_valves$5507),w
  4107  15D3  01FA               	clrf	0+(?_count_write)+01h
  4108  15D4  07FA               	addwf	0+(?_count_write)+01h
  4109                           
  4110  15D5  307E               	movlw	(07Eh)
  4111  15D6  160A  158A  2382   	fcall	_count_write
              160A  118A         
  4112                           	line	190
  4113                           ;Beverage_services.c: 190: count_write(126+(_PRESSED*2),127+(_PRESSED*2),eeprom_read(126
                                 +(_PRESSED*2))+1);
  4114  15DB  1283               	bcf	status, 5	;RP0=0, select bank0
  4115  15DC  1303               	bcf	status, 6	;RP1=0, select bank0
  4116  15DD  083B               	movf	(__PRESSED),w
  4117  15DE  00DC               	movwf	(??_enable_valves+0)+0
  4118  15DF  075C               	addwf	(??_enable_valves+0)+0,w
  4119  15E0  3E7E               	addlw	07Eh
  4120  15E1  00DD               	movwf	(??_enable_valves+1)+0
  4121  15E2  085D               	movf	(??_enable_valves+1)+0,w
  4122  15E3  00F4               	movwf	(?_eeprom_read)
  4123  15E4  160A  158A  211F   	fcall	_eeprom_read
              160A  118A         
  4124  15E9  3E01               	addlw	low(01h)
  4125  15EA  1283               	bcf	status, 5	;RP0=0, select bank0
  4126  15EB  1303               	bcf	status, 6	;RP1=0, select bank0
  4127  15EC  00E1               	movwf	(_enable_valves$5507)
  4128  15ED  3000               	movlw	high(01h)
  4129  15EE  1803               	skipnc
  4130  15EF  3001               	movlw	(high(01h)+1)&0ffh
  4131  15F0  00E2               	movwf	((_enable_valves$5507))+1
  4132                           ;Beverage_services.c: 190: count_write(126+(_PRESSED*2),127+(_PRESSED*2),eeprom_read(126
                                 +(_PRESSED*2))+1);
  4133  15F1  083B               	movf	(__PRESSED),w
  4134  15F2  00DC               	movwf	(??_enable_valves+0)+0
  4135  15F3  075C               	addwf	(??_enable_valves+0)+0,w
  4136  15F4  3E7F               	addlw	07Fh
  4137  15F5  00DD               	movwf	(??_enable_valves+1)+0
  4138  15F6  085D               	movf	(??_enable_valves+1)+0,w
  4139  15F7  00F9               	movwf	(?_count_write)
  4140  15F8  0862               	movf	(_enable_valves$5507+1),w
  4141  15F9  01FB               	clrf	1+(?_count_write)+01h
  4142  15FA  07FB               	addwf	1+(?_count_write)+01h
  4143  15FB  0861               	movf	(_enable_valves$5507),w
  4144  15FC  01FA               	clrf	0+(?_count_write)+01h
  4145  15FD  07FA               	addwf	0+(?_count_write)+01h
  4146                           
  4147  15FE  083B               	movf	(__PRESSED),w
  4148  15FF  00DE               	movwf	(??_enable_valves+2)+0
  4149  1600  075E               	addwf	(??_enable_valves+2)+0,w
  4150  1601  3E7E               	addlw	07Eh
  4151  1602  160A  158A  2382   	fcall	_count_write
              160A  118A         
  4152  1607  2E08               	goto	l9338
  4153                           	line	191
  4154                           	
  4155  1608                     l3145:	
  4156                           	line	192
  4157                           	
  4158  1608                     l9338:	
  4159                           ;Beverage_services.c: 191: }
  4160                           ;Beverage_services.c: 192: call_control_valve();
  4161  1608  120A  118A  23DB   	fcall	_call_control_valve
              160A  118A         
  4162                           	line	193
  4163                           	
  4164  160D                     l9340:	
  4165                           ;Beverage_services.c: 193: Print_Name();
  4166  160D  160A  158A  215B   	fcall	_Print_Name
              160A  118A         
  4167  1612  2E14               	goto	l9342
  4168                           	line	194
  4169                           	
  4170  1613                     l3139:	
  4171  1613  2E14               	goto	l9342
  4172                           	line	195
  4173                           	
  4174  1614                     l3137:	
  4175                           	line	197
  4176                           	
  4177  1614                     l9342:	
  4178                           ;Beverage_services.c: 194: }
  4179                           ;Beverage_services.c: 195: }
  4180                           ;Beverage_services.c: 197: if(Enable_Config_Mode || Enable_Normal_Mode || Enable_Shortcu
                                 t_Mode)
  4181  1614  1283               	bcf	status, 5	;RP0=0, select bank0
  4182  1615  1303               	bcf	status, 6	;RP1=0, select bank0
  4183  1616  19EB               	btfsc	(_Enable_Config_Mode/8),(_Enable_Config_Mode)&7
  4184  1617  2E19               	goto	u5841
  4185  1618  2E1C               	goto	u5840
  4186  1619                     u5841:
  4187  1619  160A  118A  2EAC   	goto	l9408
  4188  161C                     u5840:
  4189                           	
  4190  161C                     l9344:	
  4191  161C  1BEC               	btfsc	(_Enable_Normal_Mode/8),(_Enable_Normal_Mode)&7
  4192  161D  2E1F               	goto	u5851
  4193  161E  2E20               	goto	u5850
  4194  161F                     u5851:
  4195  161F  2E19               	goto	l9408
  4196  1620                     u5850:
  4197                           	
  4198  1620                     l9346:	
  4199  1620  1D6D               	btfss	(_Enable_Shortcut_Mode/8),(_Enable_Shortcut_Mode)&7
  4200  1621  2E23               	goto	u5861
  4201  1622  2E26               	goto	u5860
  4202  1623                     u5861:
  4203  1623  160A  118A  2EB1   	goto	l3146
  4204  1626                     u5860:
  4205  1626  2E19               	goto	l9408
  4206                           	
  4207  1627                     l3148:	
  4208                           	line	199
  4209                           ;Beverage_services.c: 198: {
  4210                           ;Beverage_services.c: 199: switch(_PRESSED)
  4211  1627  2E19               	goto	l9408
  4212                           	line	201
  4213                           ;Beverage_services.c: 200: {
  4214                           ;Beverage_services.c: 201: case _MENU_BUTTON: while(RB7==0 && (Enable_Normal_Mode || Ena
                                 ble_Config_Mode))
  4215                           	
  4216  1628                     l3150:	
  4217  1628  2E5F               	goto	l9370
  4218                           	
  4219  1629                     l3152:	
  4220                           	line	203
  4221                           	
  4222  1629                     l9348:	
  4223                           ;Beverage_services.c: 202: {
  4224                           ;Beverage_services.c: 203: i++;
  4225  1629  3001               	movlw	low(01h)
  4226  162A  07AB               	addwf	(_i),f
  4227  162B  1803               	skipnc
  4228  162C  0AAC               	incf	(_i+1),f
  4229  162D  3000               	movlw	high(01h)
  4230  162E  07AC               	addwf	(_i+1),f
  4231                           	line	204
  4232                           ;Beverage_services.c: 204: if(i==39999)
  4233  162F  309C               	movlw	high(09C3Fh)
  4234  1630  062C               	xorwf	(_i+1),w
  4235  1631  1D03               	skipz
  4236  1632  2E35               	goto	u5875
  4237  1633  303F               	movlw	low(09C3Fh)
  4238  1634  062B               	xorwf	(_i),w
  4239  1635                     u5875:
  4240                           
  4241  1635  1D03               	skipz
  4242  1636  2E38               	goto	u5871
  4243  1637  2E39               	goto	u5870
  4244  1638                     u5871:
  4245  1638  2E47               	goto	l9356
  4246  1639                     u5870:
  4247                           	line	206
  4248                           	
  4249  1639                     l9350:	
  4250                           ;Beverage_services.c: 205: {
  4251                           ;Beverage_services.c: 206: j++;
  4252  1639  3001               	movlw	low(01h)
  4253  163A  07AD               	addwf	(_j),f
  4254  163B  1803               	skipnc
  4255  163C  0AAE               	incf	(_j+1),f
  4256  163D  3000               	movlw	high(01h)
  4257  163E  07AE               	addwf	(_j+1),f
  4258                           	line	207
  4259                           	
  4260  163F                     l9352:	
  4261                           ;Beverage_services.c: 207: i=0;
  4262  163F  01AB               	clrf	(_i)
  4263  1640  01AC               	clrf	(_i+1)
  4264                           	line	208
  4265                           	
  4266  1641                     l9354:	
  4267                           ;Beverage_services.c: 208: key_press();
  4268  1641  120A  118A  205C   	fcall	_key_press
              160A  118A         
  4269  1646  2E47               	goto	l9356
  4270                           	line	209
  4271                           	
  4272  1647                     l3153:	
  4273                           	line	210
  4274                           	
  4275  1647                     l9356:	
  4276                           ;Beverage_services.c: 209: }
  4277                           ;Beverage_services.c: 210: if(j==5)
  4278  1647  3005               	movlw	05h
  4279  1648  1283               	bcf	status, 5	;RP0=0, select bank0
  4280  1649  1303               	bcf	status, 6	;RP1=0, select bank0
  4281  164A  062D               	xorwf	(_j),w
  4282  164B  042E               	iorwf	(_j+1),w
  4283  164C  1D03               	skipz
  4284  164D  2E4F               	goto	u5881
  4285  164E  2E50               	goto	u5880
  4286  164F                     u5881:
  4287  164F  2E5F               	goto	l9370
  4288  1650                     u5880:
  4289                           	line	212
  4290                           	
  4291  1650                     l9358:	
  4292                           ;Beverage_services.c: 211: {
  4293                           ;Beverage_services.c: 212: Enable_Normal_Mode=0;
  4294  1650  13EC               	bcf	(_Enable_Normal_Mode/8),(_Enable_Normal_Mode)&7
  4295                           	line	213
  4296                           ;Beverage_services.c: 213: Enable_Config_Mode=0;
  4297  1651  11EB               	bcf	(_Enable_Config_Mode/8),(_Enable_Config_Mode)&7
  4298                           	line	214
  4299                           	
  4300  1652                     l9360:	
  4301                           ;Beverage_services.c: 214: _DISABLE_MODE=_Normal_Mode;
  4302  1652  01B7               	clrf	(__DISABLE_MODE)
  4303  1653  1403               	bsf	status,0
  4304  1654  0DB7               	rlf	(__DISABLE_MODE),f
  4305                           	line	215
  4306                           	
  4307  1655                     l9362:	
  4308                           ;Beverage_services.c: 215: _ENABLE_MODE=_Password;
  4309  1655  3002               	movlw	(02h)
  4310  1656  00DC               	movwf	(??_enable_valves+0)+0
  4311  1657  085C               	movf	(??_enable_valves+0)+0,w
  4312  1658  00B8               	movwf	(__ENABLE_MODE)
  4313                           	line	216
  4314                           	
  4315  1659                     l9364:	
  4316                           ;Beverage_services.c: 216: j=0;
  4317  1659  01AD               	clrf	(_j)
  4318  165A  01AE               	clrf	(_j+1)
  4319                           	line	217
  4320                           	
  4321  165B                     l9366:	
  4322                           ;Beverage_services.c: 217: Enable_Config_Mode=0;
  4323  165B  11EB               	bcf	(_Enable_Config_Mode/8),(_Enable_Config_Mode)&7
  4324                           	line	218
  4325                           	
  4326  165C                     l9368:	
  4327                           ;Beverage_services.c: 218: _SHORTCUT=0;
  4328  165C  116E               	bcf	(__SHORTCUT/8),(__SHORTCUT)&7
  4329  165D  2E5F               	goto	l9370
  4330                           	line	219
  4331                           	
  4332  165E                     l3154:	
  4333  165E  2E5F               	goto	l9370
  4334                           	line	220
  4335                           	
  4336  165F                     l3151:	
  4337                           	line	201
  4338                           	
  4339  165F                     l9370:	
  4340  165F  1B86               	btfsc	(55/8),(55)&7
  4341  1660  2E62               	goto	u5891
  4342  1661  2E63               	goto	u5890
  4343  1662                     u5891:
  4344  1662  2E6C               	goto	l3157
  4345  1663                     u5890:
  4346                           	
  4347  1663                     l9372:	
  4348  1663  1BEC               	btfsc	(_Enable_Normal_Mode/8),(_Enable_Normal_Mode)&7
  4349  1664  2E66               	goto	u5901
  4350  1665  2E67               	goto	u5900
  4351  1666                     u5901:
  4352  1666  2E29               	goto	l9348
  4353  1667                     u5900:
  4354                           	
  4355  1667                     l9374:	
  4356  1667  19EB               	btfsc	(_Enable_Config_Mode/8),(_Enable_Config_Mode)&7
  4357  1668  2E6A               	goto	u5911
  4358  1669  2E6B               	goto	u5910
  4359  166A                     u5911:
  4360  166A  2E29               	goto	l9348
  4361  166B                     u5910:
  4362  166B  2E6C               	goto	l3157
  4363                           	
  4364  166C                     l3156:	
  4365                           	
  4366  166C                     l3157:	
  4367                           	line	221
  4368                           ;Beverage_services.c: 219: }
  4369                           ;Beverage_services.c: 220: }
  4370                           ;Beverage_services.c: 221: if(_SHORTCUT==1 && Enable_Shortcut_Mode==0)
  4371  166C  1D6E               	btfss	(__SHORTCUT/8),(__SHORTCUT)&7
  4372  166D  2E6F               	goto	u5921
  4373  166E  2E70               	goto	u5920
  4374  166F                     u5921:
  4375  166F  2E82               	goto	l9388
  4376  1670                     u5920:
  4377                           	
  4378  1670                     l9376:	
  4379  1670  196D               	btfsc	(_Enable_Shortcut_Mode/8),(_Enable_Shortcut_Mode)&7
  4380  1671  2E73               	goto	u5931
  4381  1672  2E74               	goto	u5930
  4382  1673                     u5931:
  4383  1673  2E82               	goto	l9388
  4384  1674                     u5930:
  4385                           	line	223
  4386                           	
  4387  1674                     l9378:	
  4388                           ;Beverage_services.c: 222: {
  4389                           ;Beverage_services.c: 223: Enable_Normal_Mode=0;
  4390  1674  13EC               	bcf	(_Enable_Normal_Mode/8),(_Enable_Normal_Mode)&7
  4391                           	line	224
  4392                           ;Beverage_services.c: 224: Enable_Config_Mode=0;
  4393  1675  11EB               	bcf	(_Enable_Config_Mode/8),(_Enable_Config_Mode)&7
  4394                           	line	225
  4395                           	
  4396  1676                     l9380:	
  4397                           ;Beverage_services.c: 225: _ENABLE_MODE=_Shortcut_Mode;
  4398  1676  300E               	movlw	(0Eh)
  4399  1677  00DC               	movwf	(??_enable_valves+0)+0
  4400  1678  085C               	movf	(??_enable_valves+0)+0,w
  4401  1679  00B8               	movwf	(__ENABLE_MODE)
  4402                           	line	226
  4403                           	
  4404  167A                     l9382:	
  4405                           ;Beverage_services.c: 226: _PROCESS=_Countdisplay;
  4406  167A  01BE               	clrf	(__PROCESS)
  4407  167B  1403               	bsf	status,0
  4408  167C  0DBE               	rlf	(__PROCESS),f
  4409                           	line	227
  4410                           	
  4411  167D                     l9384:	
  4412                           ;Beverage_services.c: 227: i=0;j=0;
  4413  167D  01AB               	clrf	(_i)
  4414  167E  01AC               	clrf	(_i+1)
  4415                           	
  4416  167F                     l9386:	
  4417  167F  01AD               	clrf	(_j)
  4418  1680  01AE               	clrf	(_j+1)
  4419  1681  2E82               	goto	l9388
  4420                           	line	228
  4421                           	
  4422  1682                     l3158:	
  4423                           	line	229
  4424                           	
  4425  1682                     l9388:	
  4426                           ;Beverage_services.c: 228: }
  4427                           ;Beverage_services.c: 229: if(_SHORTCUT==0 && Enable_Shortcut_Mode==1)
  4428  1682  196E               	btfsc	(__SHORTCUT/8),(__SHORTCUT)&7
  4429  1683  2E85               	goto	u5941
  4430  1684  2E86               	goto	u5940
  4431  1685                     u5941:
  4432  1685  2E23               	goto	l3146
  4433  1686                     u5940:
  4434                           	
  4435  1686                     l9390:	
  4436  1686  1D6D               	btfss	(_Enable_Shortcut_Mode/8),(_Enable_Shortcut_Mode)&7
  4437  1687  2E89               	goto	u5951
  4438  1688  2E8A               	goto	u5950
  4439  1689                     u5951:
  4440  1689  2E23               	goto	l3146
  4441  168A                     u5950:
  4442                           	line	231
  4443                           	
  4444  168A                     l9392:	
  4445                           ;Beverage_services.c: 230: {
  4446                           ;Beverage_services.c: 231: _OFF=_Mixing_Hot_Water_Valve;
  4447  168A  3003               	movlw	(03h)
  4448  168B  00DC               	movwf	(??_enable_valves+0)+0
  4449  168C  085C               	movf	(??_enable_valves+0)+0,w
  4450  168D  00B9               	movwf	(__OFF)
  4451                           	line	232
  4452                           	
  4453  168E                     l9394:	
  4454                           ;Beverage_services.c: 232: offthevalve();
  4455  168E  160A  158A  230D   	fcall	_offthevalve
              160A  118A         
  4456                           	line	233
  4457                           	
  4458  1693                     l9396:	
  4459                           ;Beverage_services.c: 233: _OFF=_Viber_Motor;
  4460  1693  3009               	movlw	(09h)
  4461  1694  1283               	bcf	status, 5	;RP0=0, select bank0
  4462  1695  1303               	bcf	status, 6	;RP1=0, select bank0
  4463  1696  00DC               	movwf	(??_enable_valves+0)+0
  4464  1697  085C               	movf	(??_enable_valves+0)+0,w
  4465  1698  00B9               	movwf	(__OFF)
  4466                           	line	234
  4467                           ;Beverage_services.c: 234: offthevalve();
  4468  1699  160A  158A  230D   	fcall	_offthevalve
              160A  118A         
  4469                           	line	235
  4470                           	
  4471  169E                     l9398:	
  4472                           ;Beverage_services.c: 235: _DISABLE_MODE=_Shortcut_Mode;
  4473  169E  300E               	movlw	(0Eh)
  4474  169F  1283               	bcf	status, 5	;RP0=0, select bank0
  4475  16A0  1303               	bcf	status, 6	;RP1=0, select bank0
  4476  16A1  00DC               	movwf	(??_enable_valves+0)+0
  4477  16A2  085C               	movf	(??_enable_valves+0)+0,w
  4478  16A3  00B7               	movwf	(__DISABLE_MODE)
  4479                           	line	236
  4480                           	
  4481  16A4                     l9400:	
  4482                           ;Beverage_services.c: 236: _ENABLE_MODE=_Normal_Mode;
  4483  16A4  01B8               	clrf	(__ENABLE_MODE)
  4484  16A5  1403               	bsf	status,0
  4485  16A6  0DB8               	rlf	(__ENABLE_MODE),f
  4486                           	line	237
  4487                           	
  4488  16A7                     l9402:	
  4489                           ;Beverage_services.c: 237: _PROCESS=0;
  4490  16A7  01BE               	clrf	(__PROCESS)
  4491                           	line	238
  4492                           	
  4493  16A8                     l9404:	
  4494                           ;Beverage_services.c: 238: _PREVIOUS_PROCESS=0;
  4495  16A8  01BD               	clrf	(__PREVIOUS_PROCESS)
  4496  16A9  2E23               	goto	l3146
  4497                           	line	239
  4498                           	
  4499  16AA                     l3159:	
  4500                           	line	240
  4501                           ;Beverage_services.c: 239: }
  4502                           ;Beverage_services.c: 240: break;
  4503  16AA  2EB1               	goto	l3146
  4504                           	line	241
  4505                           	
  4506  16AB                     l9406:	
  4507                           ;Beverage_services.c: 241: }
  4508  16AB  2EB1               	goto	l3146
  4509                           	line	199
  4510                           	
  4511  16AC                     l3149:	
  4512                           	
  4513  16AC                     l9408:	
  4514  16AC  083B               	movf	(__PRESSED),w
  4515                           	; Switch size 1, requested type "space"
  4516                           ; Number of cases is 1, Range of values is 10 to 10
  4517                           ; switch strategies available:
  4518                           ; Name         Instructions Cycles
  4519                           ; simple_byte            4     3 (average)
  4520                           ; direct_byte           14    11 (fixed)
  4521                           ; jumptable            263     9 (fixed)
  4522                           ;	Chosen strategy is simple_byte
  4523                           
  4524                           	opt asmopt_off
  4525  16AD  3A0A               	xorlw	10^0	; case 10
  4526  16AE  1903               	skipnz
  4527  16AF  2FFD               	goto	l9370
  4528  16B0  2EB1               	goto	l3146
  4529                           	opt asmopt_on
  4530                           
  4531                           	line	241
  4532                           	
  4533  16B1                     l3160:	
  4534                           	line	242
  4535                           	
  4536  16B1                     l3146:	
  4537                           	line	243
  4538                           ;Beverage_services.c: 242: }
  4539                           ;Beverage_services.c: 243: if(Enable_Password)
  4540  16B1  1C6D               	btfss	(_Enable_Password/8),(_Enable_Password)&7
  4541  16B2  2EB4               	goto	u5961
  4542  16B3  2EB5               	goto	u5960
  4543  16B4                     u5961:
  4544  16B4  2F45               	goto	l9452
  4545  16B5                     u5960:
  4546  16B5  2F07               	goto	l9440
  4547                           	line	245
  4548                           	
  4549  16B6                     l9410:	
  4550                           ;Beverage_services.c: 244: {
  4551                           ;Beverage_services.c: 245: switch(_PRESSED)
  4552  16B6  2F07               	goto	l9440
  4553                           	line	247
  4554                           ;Beverage_services.c: 246: {
  4555                           ;Beverage_services.c: 247: case _NORMAL_COFFEE_BUTTON:
  4556                           	
  4557  16B7                     l3163:	
  4558                           	line	248
  4559                           	
  4560  16B7                     l9412:	
  4561                           ;Beverage_services.c: 248: for(unsigned int i=0;i<256;i++)
  4562  16B7  01E3               	clrf	(enable_valves@i)
  4563  16B8  01E4               	clrf	(enable_valves@i+1)
  4564                           	
  4565  16B9                     l9414:	
  4566  16B9  3001               	movlw	high(0100h)
  4567  16BA  0264               	subwf	(enable_valves@i+1),w
  4568  16BB  3000               	movlw	low(0100h)
  4569  16BC  1903               	skipnz
  4570  16BD  0263               	subwf	(enable_valves@i),w
  4571  16BE  1C03               	skipc
  4572  16BF  2EC1               	goto	u5971
  4573  16C0  2EC2               	goto	u5970
  4574  16C1                     u5971:
  4575  16C1  2EC4               	goto	l9418
  4576  16C2                     u5970:
  4577  16C2  2F15               	goto	l9442
  4578                           	
  4579  16C3                     l9416:	
  4580  16C3  2F15               	goto	l9442
  4581                           	line	249
  4582                           	
  4583  16C4                     l3164:	
  4584                           	line	250
  4585                           	
  4586  16C4                     l9418:	
  4587                           ;Beverage_services.c: 249: {
  4588                           ;Beverage_services.c: 250: eeprom_write(i,0x00);
  4589  16C4  01F6               	clrf	(?_eeprom_write)
  4590  16C5  0863               	movf	(enable_valves@i),w
  4591  16C6  160A  158A  21FD   	fcall	_eeprom_write
              160A  118A         
  4592                           	line	248
  4593                           	
  4594  16CB                     l9420:	
  4595  16CB  3001               	movlw	low(01h)
  4596  16CC  1283               	bcf	status, 5	;RP0=0, select bank0
  4597  16CD  1303               	bcf	status, 6	;RP1=0, select bank0
  4598  16CE  07E3               	addwf	(enable_valves@i),f
  4599  16CF  1803               	skipnc
  4600  16D0  0AE4               	incf	(enable_valves@i+1),f
  4601  16D1  3000               	movlw	high(01h)
  4602  16D2  07E4               	addwf	(enable_valves@i+1),f
  4603                           	
  4604  16D3                     l9422:	
  4605  16D3  3001               	movlw	high(0100h)
  4606  16D4  0264               	subwf	(enable_valves@i+1),w
  4607  16D5  3000               	movlw	low(0100h)
  4608  16D6  1903               	skipnz
  4609  16D7  0263               	subwf	(enable_valves@i),w
  4610  16D8  1C03               	skipc
  4611  16D9  2EDB               	goto	u5981
  4612  16DA  2EDC               	goto	u5980
  4613  16DB                     u5981:
  4614  16DB  2EC4               	goto	l9418
  4615  16DC                     u5980:
  4616  16DC  2F15               	goto	l9442
  4617                           	
  4618  16DD                     l3165:	
  4619                           	line	252
  4620                           ;Beverage_services.c: 251: }
  4621                           ;Beverage_services.c: 252: break;
  4622  16DD  2F15               	goto	l9442
  4623                           	line	253
  4624                           ;Beverage_services.c: 253: case _MILK_BUTTON: if(password>0)
  4625                           	
  4626  16DE                     l3167:	
  4627                           	
  4628  16DE                     l9424:	
  4629  16DE  0830               	movf	(_password+1),w
  4630  16DF  042F               	iorwf	(_password),w
  4631  16E0  1903               	skipnz
  4632  16E1  2EE3               	goto	u5991
  4633  16E2  2EE4               	goto	u5990
  4634  16E3                     u5991:
  4635  16E3  2F15               	goto	l9442
  4636  16E4                     u5990:
  4637                           	line	255
  4638                           	
  4639  16E4                     l9426:	
  4640                           ;Beverage_services.c: 254: {
  4641                           ;Beverage_services.c: 255: password--;
  4642  16E4  3001               	movlw	low(01h)
  4643  16E5  02AF               	subwf	(_password),f
  4644  16E6  3000               	movlw	high(01h)
  4645  16E7  1C03               	skipc
  4646  16E8  03B0               	decf	(_password+1),f
  4647  16E9  02B0               	subwf	(_password+1),f
  4648  16EA  2F15               	goto	l9442
  4649                           	line	256
  4650                           	
  4651  16EB                     l3168:	
  4652                           	line	257
  4653                           ;Beverage_services.c: 256: }
  4654                           ;Beverage_services.c: 257: break;
  4655  16EB  2F15               	goto	l9442
  4656                           	line	258
  4657                           ;Beverage_services.c: 258: case _HOT_WATER_BUTTON: password++;
  4658                           	
  4659  16EC                     l3169:	
  4660                           	
  4661  16EC                     l9428:	
  4662  16EC  3001               	movlw	low(01h)
  4663  16ED  07AF               	addwf	(_password),f
  4664  16EE  1803               	skipnc
  4665  16EF  0AB0               	incf	(_password+1),f
  4666  16F0  3000               	movlw	high(01h)
  4667  16F1  07B0               	addwf	(_password+1),f
  4668                           	line	259
  4669                           ;Beverage_services.c: 259: break;
  4670  16F2  2F15               	goto	l9442
  4671                           	line	260
  4672                           ;Beverage_services.c: 260: case _MENU_BUTTON: if(password==(0+2))
  4673                           	
  4674  16F3                     l3170:	
  4675                           	
  4676  16F3                     l9430:	
  4677  16F3  3002               	movlw	02h
  4678  16F4  062F               	xorwf	(_password),w
  4679  16F5  0430               	iorwf	(_password+1),w
  4680  16F6  1D03               	skipz
  4681  16F7  2EF9               	goto	u6001
  4682  16F8  2EFA               	goto	u6000
  4683  16F9                     u6001:
  4684  16F9  2F15               	goto	l9442
  4685  16FA                     u6000:
  4686                           	line	262
  4687                           	
  4688  16FA                     l9432:	
  4689                           ;Beverage_services.c: 261: {
  4690                           ;Beverage_services.c: 262: password=0;
  4691  16FA  01AF               	clrf	(_password)
  4692  16FB  01B0               	clrf	(_password+1)
  4693                           	line	263
  4694                           	
  4695  16FC                     l9434:	
  4696                           ;Beverage_services.c: 263: _DISABLE_MODE=_Password;
  4697  16FC  3002               	movlw	(02h)
  4698  16FD  00DC               	movwf	(??_enable_valves+0)+0
  4699  16FE  085C               	movf	(??_enable_valves+0)+0,w
  4700  16FF  00B7               	movwf	(__DISABLE_MODE)
  4701                           	line	264
  4702                           	
  4703  1700                     l9436:	
  4704                           ;Beverage_services.c: 264: _ENABLE_MODE=_Valves;
  4705  1700  3004               	movlw	(04h)
  4706  1701  00DC               	movwf	(??_enable_valves+0)+0
  4707  1702  085C               	movf	(??_enable_valves+0)+0,w
  4708  1703  00B8               	movwf	(__ENABLE_MODE)
  4709  1704  2F15               	goto	l9442
  4710                           	line	265
  4711                           	
  4712  1705                     l3171:	
  4713                           	line	266
  4714                           ;Beverage_services.c: 265: }
  4715                           ;Beverage_services.c: 266: break;
  4716  1705  2F15               	goto	l9442
  4717                           	line	267
  4718                           	
  4719  1706                     l9438:	
  4720                           ;Beverage_services.c: 267: }
  4721  1706  2F15               	goto	l9442
  4722                           	line	245
  4723                           	
  4724  1707                     l3162:	
  4725                           	
  4726  1707                     l9440:	
  4727  1707  083B               	movf	(__PRESSED),w
  4728                           	; Switch size 1, requested type "space"
  4729                           ; Number of cases is 4, Range of values is 1 to 10
  4730                           ; switch strategies available:
  4731                           ; Name         Instructions Cycles
  4732                           ; simple_byte           13     7 (average)
  4733                           ; direct_byte           41    11 (fixed)
  4734                           ; jumptable            263     9 (fixed)
  4735                           ;	Chosen strategy is simple_byte
  4736                           
  4737                           	opt asmopt_off
  4738  1708  3A01               	xorlw	1^0	; case 1
  4739  1709  1903               	skipnz
  4740  170A  2EB7               	goto	l9412
  4741  170B  3A06               	xorlw	7^1	; case 7
  4742  170C  1903               	skipnz
  4743  170D  2EDE               	goto	l9424
  4744  170E  3A0E               	xorlw	9^7	; case 9
  4745  170F  1903               	skipnz
  4746  1710  2EEC               	goto	l9428
  4747  1711  3A03               	xorlw	10^9	; case 10
  4748  1712  1903               	skipnz
  4749  1713  2EF3               	goto	l9430
  4750  1714  2F15               	goto	l9442
  4751                           	opt asmopt_on
  4752                           
  4753                           	line	267
  4754                           	
  4755  1715                     l3166:	
  4756                           	line	268
  4757                           	
  4758  1715                     l9442:	
  4759                           ;Beverage_services.c: 268: if(_PRESSED==_MILK_BUTTON || _PRESSED==_HOT_WATER_BUTTON)
  4760  1715  083B               	movf	(__PRESSED),w
  4761  1716  3A07               	xorlw	07h
  4762  1717  1903               	skipnz
  4763  1718  2F1A               	goto	u6011
  4764  1719  2F1B               	goto	u6010
  4765  171A                     u6011:
  4766  171A  2F22               	goto	l9446
  4767  171B                     u6010:
  4768                           	
  4769  171B                     l9444:	
  4770  171B  083B               	movf	(__PRESSED),w
  4771  171C  3A09               	xorlw	09h
  4772  171D  1D03               	skipz
  4773  171E  2F20               	goto	u6021
  4774  171F  2F21               	goto	u6020
  4775  1720                     u6021:
  4776  1720  2F45               	goto	l9452
  4777  1721                     u6020:
  4778  1721  2F22               	goto	l9446
  4779                           	
  4780  1722                     l3174:	
  4781                           	line	270
  4782                           	
  4783  1722                     l9446:	
  4784                           ;Beverage_services.c: 269: {
  4785                           ;Beverage_services.c: 270: Lcd_Cmd(0x8C);
  4786  1722  308C               	movlw	(08Ch)
  4787  1723  160A  158A  229B   	fcall	_Lcd_Cmd
              160A  118A         
  4788                           	line	271
  4789                           	
  4790  1728                     l9448:	
  4791                           ;Beverage_services.c: 271: Num_Disp(password,4,0);
  4792  1728  1283               	bcf	status, 5	;RP0=0, select bank0
  4793  1729  1303               	bcf	status, 6	;RP1=0, select bank0
  4794  172A  0830               	movf	(_password+1),w
  4795  172B  01D1               	clrf	(?_Num_Disp+1)
  4796  172C  07D1               	addwf	(?_Num_Disp+1)
  4797  172D  082F               	movf	(_password),w
  4798  172E  01D0               	clrf	(?_Num_Disp)
  4799  172F  07D0               	addwf	(?_Num_Disp)
  4800                           
  4801  1730  3004               	movlw	(04h)
  4802  1731  00DC               	movwf	(??_enable_valves+0)+0
  4803  1732  085C               	movf	(??_enable_valves+0)+0,w
  4804  1733  00D2               	movwf	0+(?_Num_Disp)+02h
  4805  1734  01D3               	clrf	0+(?_Num_Disp)+03h
  4806  1735  160A  158A  26F5   	fcall	_Num_Disp
              160A  118A         
  4807                           	line	272
  4808                           	
  4809  173A                     l9450:	
  4810                           ;Beverage_services.c: 272: DelayMs(150);
  4811  173A  3096               	movlw	low(096h)
  4812  173B  00FC               	movwf	(?_DelayMs)
  4813  173C  3000               	movlw	high(096h)
  4814  173D  00FD               	movwf	((?_DelayMs))+1
  4815  173E  160A  158A  217A   	fcall	_DelayMs
              160A  118A         
  4816  1743  2F45               	goto	l9452
  4817                           	line	273
  4818                           	
  4819  1744                     l3172:	
  4820  1744  2F45               	goto	l9452
  4821                           	line	274
  4822                           	
  4823  1745                     l3161:	
  4824                           	line	275
  4825                           	
  4826  1745                     l9452:	
  4827                           ;Beverage_services.c: 273: }
  4828                           ;Beverage_services.c: 274: }
  4829                           ;Beverage_services.c: 275: if(Enable_Valves)
  4830  1745  1283               	bcf	status, 5	;RP0=0, select bank0
  4831  1746  1303               	bcf	status, 6	;RP1=0, select bank0
  4832  1747  1FED               	btfss	(_Enable_Valves/8),(_Enable_Valves)&7
  4833  1748  2F4A               	goto	u6031
  4834  1749  2F4D               	goto	u6030
  4835  174A                     u6031:
  4836  174A  160A  118A  2B66   	goto	l9502
  4837  174D                     u6030:
  4838  174D  2FD7               	goto	l9480
  4839                           	line	277
  4840                           	
  4841  174E                     l9454:	
  4842                           ;Beverage_services.c: 276: {
  4843                           ;Beverage_services.c: 277: switch(_PRESSED)
  4844  174E  2FD7               	goto	l9480
  4845                           	line	279
  4846                           ;Beverage_services.c: 278: {
  4847                           ;Beverage_services.c: 279: case _NORMAL_COFFEE_BUTTON: MENU[Next].COFFEE_DICATION=~MENU[
                                 Next].COFFEE_DICATION;
  4848                           	
  4849  174F                     l3177:	
  4850                           	
  4851  174F                     l9456:	
  4852  174F  0835               	movf	(_Next),w
  4853  1750  3E20               	addlw	_MENU&0ffh
  4854  1751  0084               	movwf	fsr0
  4855  1752  1003               	clrc
  4856  1753  1383               	bcf	status, 7	;select IRP bank0
  4857  1754  1C00               	btfss	indf,0
  4858  1755  1403               	setc
  4859  1756  1803               	btfsc	status,0
  4860  1757  2F5C               	goto	u6041
  4861  1758  2F5F               	goto	u6040
  4862  1759  0835               	movf	(_Next),w
  4863  175A  3E20               	addlw	_MENU&0ffh
  4864  175B  0084               	movwf	fsr0
  4865                           	
  4866  175C                     u6041:
  4867  175C  1383               	bcf	status, 7	;select IRP bank0
  4868  175D  1400               	bsf	indf,0
  4869  175E  2F61               	goto	u6054
  4870  175F                     u6040:
  4871  175F  1383               	bcf	status, 7	;select IRP bank0
  4872  1760  1000               	bcf	indf,0
  4873  1761                     u6054:
  4874                           	line	280
  4875                           ;Beverage_services.c: 280: break;
  4876  1761  2FF1               	goto	l9482
  4877                           	line	281
  4878                           ;Beverage_services.c: 281: case _NORMAL_TEA_BUTTON: MENU[Next].TEA_DICATION=~MENU[Next].
                                 TEA_DICATION;
  4879                           	
  4880  1762                     l3179:	
  4881                           	
  4882  1762                     l9458:	
  4883  1762  1283               	bcf	status, 5	;RP0=0, select bank0
  4884  1763  1303               	bcf	status, 6	;RP1=0, select bank0
  4885  1764  0835               	movf	(_Next),w
  4886  1765  3E20               	addlw	_MENU&0ffh
  4887  1766  0084               	movwf	fsr0
  4888  1767  1003               	clrc
  4889  1768  1383               	bcf	status, 7	;select IRP bank0
  4890  1769  1C80               	btfss	indf,1
  4891  176A  1403               	setc
  4892  176B  1803               	btfsc	status,0
  4893  176C  2F71               	goto	u6061
  4894  176D  2F74               	goto	u6060
  4895  176E  0835               	movf	(_Next),w
  4896  176F  3E20               	addlw	_MENU&0ffh
  4897  1770  0084               	movwf	fsr0
  4898                           	
  4899  1771                     u6061:
  4900  1771  1383               	bcf	status, 7	;select IRP bank0
  4901  1772  1480               	bsf	indf,1
  4902  1773  2F76               	goto	u6074
  4903  1774                     u6060:
  4904  1774  1383               	bcf	status, 7	;select IRP bank0
  4905  1775  1080               	bcf	indf,1
  4906  1776                     u6074:
  4907                           	line	282
  4908                           ;Beverage_services.c: 282: break;
  4909  1776  2FF1               	goto	l9482
  4910                           	line	283
  4911                           ;Beverage_services.c: 283: case _LIGHT_COFFEE_BUTTON: MENU[Next].MIXING_HOT_WATER=~MENU[
                                 Next].MIXING_HOT_WATER;
  4912                           	
  4913  1777                     l3180:	
  4914                           	
  4915  1777                     l9460:	
  4916  1777  1283               	bcf	status, 5	;RP0=0, select bank0
  4917  1778  1303               	bcf	status, 6	;RP1=0, select bank0
  4918  1779  0835               	movf	(_Next),w
  4919  177A  3E20               	addlw	_MENU&0ffh
  4920  177B  0084               	movwf	fsr0
  4921  177C  1003               	clrc
  4922  177D  1383               	bcf	status, 7	;select IRP bank0
  4923  177E  1D00               	btfss	indf,2
  4924  177F  1403               	setc
  4925  1780  1803               	btfsc	status,0
  4926  1781  2F86               	goto	u6081
  4927  1782  2F89               	goto	u6080
  4928  1783  0835               	movf	(_Next),w
  4929  1784  3E20               	addlw	_MENU&0ffh
  4930  1785  0084               	movwf	fsr0
  4931                           	
  4932  1786                     u6081:
  4933  1786  1383               	bcf	status, 7	;select IRP bank0
  4934  1787  1500               	bsf	indf,2
  4935  1788  2F8B               	goto	u6094
  4936  1789                     u6080:
  4937  1789  1383               	bcf	status, 7	;select IRP bank0
  4938  178A  1100               	bcf	indf,2
  4939  178B                     u6094:
  4940                           	line	284
  4941                           ;Beverage_services.c: 284: break;
  4942  178B  2FF1               	goto	l9482
  4943                           	line	285
  4944                           ;Beverage_services.c: 285: case _LIGHT_TEA_BUTTON: MENU[Next].MILK=~MENU[Next].MILK;
  4945                           	
  4946  178C                     l3181:	
  4947                           	
  4948  178C                     l9462:	
  4949  178C  1283               	bcf	status, 5	;RP0=0, select bank0
  4950  178D  1303               	bcf	status, 6	;RP1=0, select bank0
  4951  178E  0835               	movf	(_Next),w
  4952  178F  3E20               	addlw	_MENU&0ffh
  4953  1790  0084               	movwf	fsr0
  4954  1791  1003               	clrc
  4955  1792  1383               	bcf	status, 7	;select IRP bank0
  4956  1793  1D80               	btfss	indf,3
  4957  1794  1403               	setc
  4958  1795  1803               	btfsc	status,0
  4959  1796  2F9B               	goto	u6101
  4960  1797  2F9E               	goto	u6100
  4961  1798  0835               	movf	(_Next),w
  4962  1799  3E20               	addlw	_MENU&0ffh
  4963  179A  0084               	movwf	fsr0
  4964                           	
  4965  179B                     u6101:
  4966  179B  1383               	bcf	status, 7	;select IRP bank0
  4967  179C  1580               	bsf	indf,3
  4968  179D  2FA0               	goto	u6114
  4969  179E                     u6100:
  4970  179E  1383               	bcf	status, 7	;select IRP bank0
  4971  179F  1180               	bcf	indf,3
  4972  17A0                     u6114:
  4973                           	line	286
  4974                           ;Beverage_services.c: 286: break;
  4975  17A0  2FF1               	goto	l9482
  4976                           	line	287
  4977                           ;Beverage_services.c: 287: case _BLACK_COFFEE_BUTTON: MENU[Next].VIBR_MOTOR=~MENU[Next].
                                 VIBR_MOTOR;
  4978                           	
  4979  17A1                     l3182:	
  4980                           	
  4981  17A1                     l9464:	
  4982  17A1  1283               	bcf	status, 5	;RP0=0, select bank0
  4983  17A2  1303               	bcf	status, 6	;RP1=0, select bank0
  4984  17A3  0835               	movf	(_Next),w
  4985  17A4  3E20               	addlw	_MENU&0ffh
  4986  17A5  0084               	movwf	fsr0
  4987  17A6  1003               	clrc
  4988  17A7  1383               	bcf	status, 7	;select IRP bank0
  4989  17A8  1E00               	btfss	indf,4
  4990  17A9  1403               	setc
  4991  17AA  1803               	btfsc	status,0
  4992  17AB  2FB0               	goto	u6121
  4993  17AC  2FB3               	goto	u6120
  4994  17AD  0835               	movf	(_Next),w
  4995  17AE  3E20               	addlw	_MENU&0ffh
  4996  17AF  0084               	movwf	fsr0
  4997                           	
  4998  17B0                     u6121:
  4999  17B0  1383               	bcf	status, 7	;select IRP bank0
  5000  17B1  1600               	bsf	indf,4
  5001  17B2  2FB5               	goto	u6134
  5002  17B3                     u6120:
  5003  17B3  1383               	bcf	status, 7	;select IRP bank0
  5004  17B4  1200               	bcf	indf,4
  5005  17B5                     u6134:
  5006                           	line	288
  5007                           ;Beverage_services.c: 288: break;
  5008  17B5  2FF1               	goto	l9482
  5009                           	line	289
  5010                           ;Beverage_services.c: 289: case _MILK_BUTTON: if(Next>0)
  5011                           	
  5012  17B6                     l3183:	
  5013                           	
  5014  17B6                     l9466:	
  5015  17B6  1283               	bcf	status, 5	;RP0=0, select bank0
  5016  17B7  1303               	bcf	status, 6	;RP1=0, select bank0
  5017  17B8  0835               	movf	(_Next),w
  5018  17B9  1D03               	skipz
  5019  17BA  2FBC               	goto	u6140
  5020  17BB  2FF1               	goto	l9482
  5021  17BC                     u6140:
  5022                           	line	291
  5023                           	
  5024  17BC                     l9468:	
  5025                           ;Beverage_services.c: 290: {
  5026                           ;Beverage_services.c: 291: Next--;
  5027  17BC  3001               	movlw	low(01h)
  5028  17BD  02B5               	subwf	(_Next),f
  5029  17BE  2FF1               	goto	l9482
  5030                           	line	292
  5031                           	
  5032  17BF                     l3184:	
  5033                           	line	293
  5034                           ;Beverage_services.c: 292: }
  5035                           ;Beverage_services.c: 293: break;
  5036  17BF  2FF1               	goto	l9482
  5037                           	line	294
  5038                           ;Beverage_services.c: 294: case _HOT_WATER_BUTTON: if(Next<7)
  5039                           	
  5040  17C0                     l3185:	
  5041                           	
  5042  17C0                     l9470:	
  5043  17C0  3007               	movlw	(07h)
  5044  17C1  0235               	subwf	(_Next),w
  5045  17C2  1803               	skipnc
  5046  17C3  2FC5               	goto	u6151
  5047  17C4  2FC6               	goto	u6150
  5048  17C5                     u6151:
  5049  17C5  2FF1               	goto	l9482
  5050  17C6                     u6150:
  5051                           	line	296
  5052                           	
  5053  17C6                     l9472:	
  5054                           ;Beverage_services.c: 295: {
  5055                           ;Beverage_services.c: 296: Next++;
  5056  17C6  3001               	movlw	(01h)
  5057  17C7  00DC               	movwf	(??_enable_valves+0)+0
  5058  17C8  085C               	movf	(??_enable_valves+0)+0,w
  5059  17C9  07B5               	addwf	(_Next),f
  5060  17CA  2FF1               	goto	l9482
  5061                           	line	297
  5062                           	
  5063  17CB                     l3186:	
  5064                           	line	298
  5065                           ;Beverage_services.c: 297: }
  5066                           ;Beverage_services.c: 298: break;
  5067  17CB  2FF1               	goto	l9482
  5068                           	line	299
  5069                           ;Beverage_services.c: 299: case _MENU_BUTTON: _DISABLE_MODE=_Valves;
  5070                           	
  5071  17CC                     l3187:	
  5072                           	
  5073  17CC                     l9474:	
  5074  17CC  3004               	movlw	(04h)
  5075  17CD  00DC               	movwf	(??_enable_valves+0)+0
  5076  17CE  085C               	movf	(??_enable_valves+0)+0,w
  5077  17CF  00B7               	movwf	(__DISABLE_MODE)
  5078                           	line	300
  5079                           ;Beverage_services.c: 300: _ENABLE_MODE=_Selection;
  5080  17D0  3005               	movlw	(05h)
  5081  17D1  00DC               	movwf	(??_enable_valves+0)+0
  5082  17D2  085C               	movf	(??_enable_valves+0)+0,w
  5083  17D3  00B8               	movwf	(__ENABLE_MODE)
  5084                           	line	301
  5085                           	
  5086  17D4                     l9476:	
  5087                           ;Beverage_services.c: 301: Next=0;
  5088  17D4  01B5               	clrf	(_Next)
  5089                           	line	302
  5090                           ;Beverage_services.c: 302: break;
  5091  17D5  2FF1               	goto	l9482
  5092                           	line	303
  5093                           	
  5094  17D6                     l9478:	
  5095                           ;Beverage_services.c: 303: }
  5096  17D6  2FF1               	goto	l9482
  5097                           	line	277
  5098                           	
  5099  17D7                     l3176:	
  5100                           	
  5101  17D7                     l9480:	
  5102  17D7  083B               	movf	(__PRESSED),w
  5103                           	; Switch size 1, requested type "space"
  5104                           ; Number of cases is 8, Range of values is 1 to 10
  5105                           ; switch strategies available:
  5106                           ; Name         Instructions Cycles
  5107                           ; simple_byte           25    13 (average)
  5108                           ; direct_byte           41    11 (fixed)
  5109                           ; jumptable            263     9 (fixed)
  5110                           ;	Chosen strategy is simple_byte
  5111                           
  5112                           	opt asmopt_off
  5113  17D8  3A01               	xorlw	1^0	; case 1
  5114  17D9  1903               	skipnz
  5115  17DA  2F4F               	goto	l9456
  5116  17DB  3A03               	xorlw	2^1	; case 2
  5117  17DC  1903               	skipnz
  5118  17DD  2F62               	goto	l9458
  5119  17DE  3A01               	xorlw	3^2	; case 3
  5120  17DF  1903               	skipnz
  5121  17E0  2F77               	goto	l9460
  5122  17E1  3A07               	xorlw	4^3	; case 4
  5123  17E2  1903               	skipnz
  5124  17E3  2F8C               	goto	l9462
  5125  17E4  3A01               	xorlw	5^4	; case 5
  5126  17E5  1903               	skipnz
  5127  17E6  2FA1               	goto	l9464
  5128  17E7  3A02               	xorlw	7^5	; case 7
  5129  17E8  1903               	skipnz
  5130  17E9  2FB6               	goto	l9466
  5131  17EA  3A0E               	xorlw	9^7	; case 9
  5132  17EB  1903               	skipnz
  5133  17EC  2FC0               	goto	l9470
  5134  17ED  3A03               	xorlw	10^9	; case 10
  5135  17EE  1903               	skipnz
  5136  17EF  2FCC               	goto	l9474
  5137  17F0  2FF1               	goto	l9482
  5138                           	opt asmopt_on
  5139                           
  5140                           	line	303
  5141                           	
  5142  17F1                     l3178:	
  5143                           	line	304
  5144                           	
  5145  17F1                     l9482:	
  5146                           ;Beverage_services.c: 304: if(_PRESSED==_MILK_BUTTON || _PRESSED==_HOT_WATER_BUTTON)
  5147  17F1  1283               	bcf	status, 5	;RP0=0, select bank0
  5148  17F2  1303               	bcf	status, 6	;RP1=0, select bank0
  5149  17F3  083B               	movf	(__PRESSED),w
  5150  17F4  3A07               	xorlw	07h
  5151  17F5  1903               	skipnz
  5152  17F6  2FFA               	goto	u6161
  5153  17F7  160A  118A  2B0C   	goto	u6160
  5154  17FA                     u6161:
  5155  17FA  160A  118A  2B13   	goto	l9486
      + 17FD                     L3:	
      + 17FD  120A  158A  2FFD   	ljmp	L1
  5156  130C                     u6160:
  5157                           	
  5158  130C                     l9484:	
  5159  130C  083B               	movf	(__PRESSED),w
  5160  130D  3A09               	xorlw	09h
  5161  130E  1D03               	skipz
  5162  130F  2B11               	goto	u6171
  5163  1310  2B12               	goto	u6170
  5164  1311                     u6171:
  5165  1311  2B39               	goto	l9492
  5166  1312                     u6170:
  5167  1312  2B13               	goto	l9486
  5168                           	
  5169  1313                     l3190:	
  5170                           	line	306
  5171                           	
  5172  1313                     l9486:	
  5173                           ;Beverage_services.c: 305: {
  5174                           ;Beverage_services.c: 306: Lcd_Cmd(0x86);
  5175  1313  3086               	movlw	(086h)
  5176  1314  160A  158A  229B   	fcall	_Lcd_Cmd
              160A  118A         
  5177                           	line	307
  5178                           	
  5179  1319                     l9488:	
  5180                           ;Beverage_services.c: 307: myitoa(Next+1,buff);
  5181  1319  1283               	bcf	status, 5	;RP0=0, select bank0
  5182  131A  1303               	bcf	status, 6	;RP1=0, select bank0
  5183  131B  0835               	movf	(_Next),w
  5184  131C  3E01               	addlw	low(01h)
  5185  131D  00FB               	movwf	(?_myitoa)
  5186  131E  3000               	movlw	high(01h)
  5187  131F  1803               	skipnc
  5188  1320  3001               	movlw	(high(01h)+1)&0ffh
  5189  1321  00FC               	movwf	((?_myitoa))+1
  5190  1322  3043               	movlw	(_buff)&0ffh
  5191  1323  00DC               	movwf	(??_enable_valves+0)+0
  5192  1324  085C               	movf	(??_enable_valves+0)+0,w
  5193  1325  00FD               	movwf	0+(?_myitoa)+02h
  5194  1326  120A  118A  200B   	fcall	_myitoa
              160A  118A         
  5195                           	line	308
  5196                           	
  5197  132B                     l9490:	
  5198                           ;Beverage_services.c: 308: Lcd_String(buff,0,0);
  5199  132B  3043               	movlw	(_buff&0ffh)
  5200  132C  1283               	bcf	status, 5	;RP0=0, select bank0
  5201  132D  1303               	bcf	status, 6	;RP1=0, select bank0
  5202  132E  00CE               	movwf	(?_Lcd_String)
  5203  132F  3000               	movlw	(0x0/2)
  5204  1330  00CF               	movwf	(?_Lcd_String+1)
  5205  1331  01D0               	clrf	0+(?_Lcd_String)+02h
  5206  1332  01D1               	clrf	0+(?_Lcd_String)+03h
  5207  1333  120A  158A  2000   	fcall	_Lcd_String
              160A  118A         
  5208  1338  2B39               	goto	l9492
  5209                           	line	309
  5210                           	
  5211  1339                     l3188:	
  5212                           	line	310
  5213                           	
  5214  1339                     l9492:	
  5215                           ;Beverage_services.c: 309: }
  5216                           ;Beverage_services.c: 310: if(_PRESSED && (_PRESSED!=_MENU_BUTTON))
  5217  1339  1283               	bcf	status, 5	;RP0=0, select bank0
  5218  133A  1303               	bcf	status, 6	;RP1=0, select bank0
  5219  133B  083B               	movf	(__PRESSED),w
  5220  133C  1D03               	skipz
  5221  133D  2B3F               	goto	u6180
  5222  133E  2B66               	goto	l9502
  5223  133F                     u6180:
  5224                           	
  5225  133F                     l9494:	
  5226  133F  083B               	movf	(__PRESSED),w
  5227  1340  3A0A               	xorlw	0Ah
  5228  1341  1903               	skipnz
  5229  1342  2B44               	goto	u6191
  5230  1343  2B45               	goto	u6190
  5231  1344                     u6191:
  5232  1344  2B66               	goto	l9502
  5233  1345                     u6190:
  5234                           	line	312
  5235                           	
  5236  1345                     l9496:	
  5237                           ;Beverage_services.c: 311: {
  5238                           ;Beverage_services.c: 312: Write_ValveIn_Memory(MENU[Next],Next);
  5239  1345  0835               	movf	(_Next),w
  5240  1346  00DC               	movwf	(??_enable_valves+0)+0
  5241  1347  085C               	movf	(??_enable_valves+0)+0,w
  5242  1348  00F9               	movwf	(?_Write_ValveIn_Memory)
  5243  1349  0835               	movf	(_Next),w
  5244  134A  3E20               	addlw	_MENU&0ffh
  5245  134B  0084               	movwf	fsr0
  5246  134C  1383               	bcf	status, 7	;select IRP bank0
  5247  134D  0800               	movf	indf,w
  5248  134E  160A  158A  25E6   	fcall	_Write_ValveIn_Memory
              160A  118A         
  5249                           	line	313
  5250                           	
  5251  1353                     l9498:	
  5252                           ;Beverage_services.c: 313: print_yes_no(Next);
  5253  1353  1283               	bcf	status, 5	;RP0=0, select bank0
  5254  1354  1303               	bcf	status, 6	;RP1=0, select bank0
  5255  1355  0835               	movf	(_Next),w
  5256  1356  160A  158A  2663   	fcall	_print_yes_no
              160A  118A         
  5257                           	line	314
  5258                           	
  5259  135B                     l9500:	
  5260                           ;Beverage_services.c: 314: DelayMs(50);
  5261  135B  3032               	movlw	low(032h)
  5262  135C  00FC               	movwf	(?_DelayMs)
  5263  135D  3000               	movlw	high(032h)
  5264  135E  00FD               	movwf	((?_DelayMs))+1
  5265  135F  160A  158A  217A   	fcall	_DelayMs
              160A  118A         
  5266  1364  2B66               	goto	l9502
  5267                           	line	315
  5268                           	
  5269  1365                     l3191:	
  5270  1365  2B66               	goto	l9502
  5271                           	line	316
  5272                           	
  5273  1366                     l3175:	
  5274                           	line	317
  5275                           	
  5276  1366                     l9502:	
  5277                           ;Beverage_services.c: 315: }
  5278                           ;Beverage_services.c: 316: }
  5279                           ;Beverage_services.c: 317: if(Enable_Selection)
  5280  1366  1283               	bcf	status, 5	;RP0=0, select bank0
  5281  1367  1303               	bcf	status, 6	;RP1=0, select bank0
  5282  1368  1CED               	btfss	(_Enable_Selection/8),(_Enable_Selection)&7
  5283  1369  2B6B               	goto	u6201
  5284  136A  2B6E               	goto	u6200
  5285  136B                     u6201:
  5286  136B  120A  158A  29A6   	goto	l9614
  5287  136E                     u6200:
  5288  136E  2BC8               	goto	l9544
  5289                           	line	319
  5290                           	
  5291  136F                     l9504:	
  5292                           ;Beverage_services.c: 318: {
  5293                           ;Beverage_services.c: 319: switch(_PRESSED)
  5294  136F  2BC8               	goto	l9544
  5295                           	line	321
  5296                           ;Beverage_services.c: 320: {
  5297                           ;Beverage_services.c: 321: case _NORMAL_COFFEE_BUTTON: if(Selection_Next>0)
  5298                           	
  5299  1370                     l3194:	
  5300                           	
  5301  1370                     l9506:	
  5302  1370  0847               	movf	(_Selection_Next),w
  5303  1371  1D03               	skipz
  5304  1372  2B74               	goto	u6210
  5305  1373  2BE8               	goto	l9546
  5306  1374                     u6210:
  5307                           	line	323
  5308                           	
  5309  1374                     l9508:	
  5310                           ;Beverage_services.c: 322: {
  5311                           ;Beverage_services.c: 323: Selection_Next--;
  5312  1374  3001               	movlw	low(01h)
  5313  1375  02C7               	subwf	(_Selection_Next),f
  5314                           	line	324
  5315                           	
  5316  1376                     l9510:	
  5317                           ;Beverage_services.c: 324: Next=0;
  5318  1376  01B5               	clrf	(_Next)
  5319  1377  2BE8               	goto	l9546
  5320                           	line	325
  5321                           	
  5322  1378                     l3195:	
  5323                           	line	326
  5324                           ;Beverage_services.c: 325: }
  5325                           ;Beverage_services.c: 326: break;
  5326  1378  2BE8               	goto	l9546
  5327                           	line	327
  5328                           ;Beverage_services.c: 327: case _NORMAL_TEA_BUTTON: if(Selection_Next<7)
  5329                           	
  5330  1379                     l3197:	
  5331                           	
  5332  1379                     l9512:	
  5333  1379  3007               	movlw	(07h)
  5334  137A  0247               	subwf	(_Selection_Next),w
  5335  137B  1803               	skipnc
  5336  137C  2B7E               	goto	u6221
  5337  137D  2B7F               	goto	u6220
  5338  137E                     u6221:
  5339  137E  2BE8               	goto	l9546
  5340  137F                     u6220:
  5341                           	line	329
  5342                           	
  5343  137F                     l9514:	
  5344                           ;Beverage_services.c: 328: {
  5345                           ;Beverage_services.c: 329: Selection_Next++;
  5346  137F  3001               	movlw	(01h)
  5347  1380  00DC               	movwf	(??_enable_valves+0)+0
  5348  1381  085C               	movf	(??_enable_valves+0)+0,w
  5349  1382  07C7               	addwf	(_Selection_Next),f
  5350                           	line	330
  5351                           	
  5352  1383                     l9516:	
  5353                           ;Beverage_services.c: 330: Next=0;
  5354  1383  01B5               	clrf	(_Next)
  5355  1384  2BE8               	goto	l9546
  5356                           	line	331
  5357                           	
  5358  1385                     l3198:	
  5359                           	line	332
  5360                           ;Beverage_services.c: 331: }
  5361                           ;Beverage_services.c: 332: break;
  5362  1385  2BE8               	goto	l9546
  5363                           	line	333
  5364                           ;Beverage_services.c: 333: case _LIGHT_COFFEE_BUTTON: if(Next>0)
  5365                           	
  5366  1386                     l3199:	
  5367                           	
  5368  1386                     l9518:	
  5369  1386  0835               	movf	(_Next),w
  5370  1387  1D03               	skipz
  5371  1388  2B8A               	goto	u6230
  5372  1389  2BE8               	goto	l9546
  5373  138A                     u6230:
  5374                           	line	335
  5375                           	
  5376  138A                     l9520:	
  5377                           ;Beverage_services.c: 334: {
  5378                           ;Beverage_services.c: 335: Next--;
  5379  138A  3001               	movlw	low(01h)
  5380  138B  02B5               	subwf	(_Next),f
  5381  138C  2BE8               	goto	l9546
  5382                           	line	336
  5383                           	
  5384  138D                     l3200:	
  5385                           	line	337
  5386                           ;Beverage_services.c: 336: }
  5387                           ;Beverage_services.c: 337: break;
  5388  138D  2BE8               	goto	l9546
  5389                           	line	338
  5390                           ;Beverage_services.c: 338: case _LIGHT_TEA_BUTTON: if(Next<9)
  5391                           	
  5392  138E                     l3201:	
  5393                           	
  5394  138E                     l9522:	
  5395  138E  3009               	movlw	(09h)
  5396  138F  0235               	subwf	(_Next),w
  5397  1390  1803               	skipnc
  5398  1391  2B93               	goto	u6241
  5399  1392  2B94               	goto	u6240
  5400  1393                     u6241:
  5401  1393  2BE8               	goto	l9546
  5402  1394                     u6240:
  5403                           	line	340
  5404                           	
  5405  1394                     l9524:	
  5406                           ;Beverage_services.c: 339: {
  5407                           ;Beverage_services.c: 340: Next++;
  5408  1394  3001               	movlw	(01h)
  5409  1395  00DC               	movwf	(??_enable_valves+0)+0
  5410  1396  085C               	movf	(??_enable_valves+0)+0,w
  5411  1397  07B5               	addwf	(_Next),f
  5412  1398  2BE8               	goto	l9546
  5413                           	line	341
  5414                           	
  5415  1399                     l3202:	
  5416                           	line	342
  5417                           ;Beverage_services.c: 341: }
  5418                           ;Beverage_services.c: 342: break;
  5419  1399  2BE8               	goto	l9546
  5420                           	line	343
  5421                           ;Beverage_services.c: 343: case _BLACK_COFFEE_BUTTON:
  5422                           	
  5423  139A                     l3203:	
  5424                           	line	344
  5425                           ;Beverage_services.c: 344: break;
  5426  139A  2BE8               	goto	l9546
  5427                           	line	345
  5428                           ;Beverage_services.c: 345: case _BLACK_TEA_BUTTON: _Demo=1;
  5429                           	
  5430  139B                     l3204:	
  5431  139B  14EE               	bsf	(__Demo/8),(__Demo)&7
  5432                           	line	346
  5433                           ;Beverage_services.c: 346: break;
  5434  139C  2BE8               	goto	l9546
  5435                           	line	347
  5436                           ;Beverage_services.c: 347: case _MILK_BUTTON: if(time>0)
  5437                           	
  5438  139D                     l3205:	
  5439                           	
  5440  139D                     l9526:	
  5441  139D  0834               	movf	(_time+1),w
  5442  139E  0433               	iorwf	(_time),w
  5443  139F  1903               	skipnz
  5444  13A0  2BA2               	goto	u6251
  5445  13A1  2BA3               	goto	u6250
  5446  13A2                     u6251:
  5447  13A2  2BE8               	goto	l9546
  5448  13A3                     u6250:
  5449                           	line	349
  5450                           	
  5451  13A3                     l9528:	
  5452                           ;Beverage_services.c: 348: {
  5453                           ;Beverage_services.c: 349: time--;
  5454  13A3  3001               	movlw	low(01h)
  5455  13A4  02B3               	subwf	(_time),f
  5456  13A5  3000               	movlw	high(01h)
  5457  13A6  1C03               	skipc
  5458  13A7  03B4               	decf	(_time+1),f
  5459  13A8  02B4               	subwf	(_time+1),f
  5460  13A9  2BE8               	goto	l9546
  5461                           	line	350
  5462                           	
  5463  13AA                     l3206:	
  5464                           	line	351
  5465                           ;Beverage_services.c: 350: }
  5466                           ;Beverage_services.c: 351: break;
  5467  13AA  2BE8               	goto	l9546
  5468                           	line	352
  5469                           ;Beverage_services.c: 352: case _HOT_WATER_BUTTON: time++;
  5470                           	
  5471  13AB                     l3207:	
  5472                           	
  5473  13AB                     l9530:	
  5474  13AB  3001               	movlw	low(01h)
  5475  13AC  07B3               	addwf	(_time),f
  5476  13AD  1803               	skipnc
  5477  13AE  0AB4               	incf	(_time+1),f
  5478  13AF  3000               	movlw	high(01h)
  5479  13B0  07B4               	addwf	(_time+1),f
  5480                           	line	353
  5481                           ;Beverage_services.c: 353: break;
  5482  13B1  2BE8               	goto	l9546
  5483                           	line	354
  5484                           ;Beverage_services.c: 354: case _EXTRA_BUTTON: _DISABLE_MODE=_Selection;
  5485                           	
  5486  13B2                     l3208:	
  5487                           	
  5488  13B2                     l9532:	
  5489  13B2  3005               	movlw	(05h)
  5490  13B3  00DC               	movwf	(??_enable_valves+0)+0
  5491  13B4  085C               	movf	(??_enable_valves+0)+0,w
  5492  13B5  00B7               	movwf	(__DISABLE_MODE)
  5493                           	line	355
  5494                           ;Beverage_services.c: 355: _ENABLE_MODE=_Valves;
  5495  13B6  3004               	movlw	(04h)
  5496  13B7  00DC               	movwf	(??_enable_valves+0)+0
  5497  13B8  085C               	movf	(??_enable_valves+0)+0,w
  5498  13B9  00B8               	movwf	(__ENABLE_MODE)
  5499                           	line	356
  5500                           	
  5501  13BA                     l9534:	
  5502                           ;Beverage_services.c: 356: Selection_Next=0;
  5503  13BA  01C7               	clrf	(_Selection_Next)
  5504                           	line	357
  5505                           	
  5506  13BB                     l9536:	
  5507                           ;Beverage_services.c: 357: Next=0;
  5508  13BB  01B5               	clrf	(_Next)
  5509                           	line	358
  5510                           ;Beverage_services.c: 358: break;
  5511  13BC  2BE8               	goto	l9546
  5512                           	line	359
  5513                           ;Beverage_services.c: 359: case _MENU_BUTTON: _DISABLE_MODE=_Selection;
  5514                           	
  5515  13BD                     l3209:	
  5516                           	
  5517  13BD                     l9538:	
  5518  13BD  3005               	movlw	(05h)
  5519  13BE  00DC               	movwf	(??_enable_valves+0)+0
  5520  13BF  085C               	movf	(??_enable_valves+0)+0,w
  5521  13C0  00B7               	movwf	(__DISABLE_MODE)
  5522                           	line	360
  5523                           ;Beverage_services.c: 360: _ENABLE_MODE=_Coffee_Dication_Time;
  5524  13C1  3006               	movlw	(06h)
  5525  13C2  00DC               	movwf	(??_enable_valves+0)+0
  5526  13C3  085C               	movf	(??_enable_valves+0)+0,w
  5527  13C4  00B8               	movwf	(__ENABLE_MODE)
  5528                           	line	361
  5529                           	
  5530  13C5                     l9540:	
  5531                           ;Beverage_services.c: 361: Selection_Next=0;
  5532  13C5  01C7               	clrf	(_Selection_Next)
  5533                           	line	362
  5534                           ;Beverage_services.c: 362: break;
  5535  13C6  2BE8               	goto	l9546
  5536                           	line	363
  5537                           	
  5538  13C7                     l9542:	
  5539                           ;Beverage_services.c: 363: }
  5540  13C7  2BE8               	goto	l9546
  5541                           	line	319
  5542                           	
  5543  13C8                     l3193:	
  5544                           	
  5545  13C8                     l9544:	
  5546  13C8  083B               	movf	(__PRESSED),w
  5547                           	; Switch size 1, requested type "space"
  5548                           ; Number of cases is 10, Range of values is 1 to 10
  5549                           ; switch strategies available:
  5550                           ; Name         Instructions Cycles
  5551                           ; simple_byte           31    16 (average)
  5552                           ; direct_byte           41    11 (fixed)
  5553                           ; jumptable            263     9 (fixed)
  5554                           ;	Chosen strategy is simple_byte
  5555                           
  5556                           	opt asmopt_off
  5557  13C9  3A01               	xorlw	1^0	; case 1
  5558  13CA  1903               	skipnz
  5559  13CB  2B70               	goto	l9506
  5560  13CC  3A03               	xorlw	2^1	; case 2
  5561  13CD  1903               	skipnz
  5562  13CE  2B79               	goto	l9512
  5563  13CF  3A01               	xorlw	3^2	; case 3
  5564  13D0  1903               	skipnz
  5565  13D1  2B86               	goto	l9518
  5566  13D2  3A07               	xorlw	4^3	; case 4
  5567  13D3  1903               	skipnz
  5568  13D4  2B8E               	goto	l9522
  5569  13D5  3A01               	xorlw	5^4	; case 5
  5570  13D6  1903               	skipnz
  5571  13D7  2BE8               	goto	l9546
  5572  13D8  3A03               	xorlw	6^5	; case 6
  5573  13D9  1903               	skipnz
  5574  13DA  2B9B               	goto	l3204
  5575  13DB  3A01               	xorlw	7^6	; case 7
  5576  13DC  1903               	skipnz
  5577  13DD  2B9D               	goto	l9526
  5578  13DE  3A0F               	xorlw	8^7	; case 8
  5579  13DF  1903               	skipnz
  5580  13E0  2BB2               	goto	l9532
  5581  13E1  3A01               	xorlw	9^8	; case 9
  5582  13E2  1903               	skipnz
  5583  13E3  2BAB               	goto	l9530
  5584  13E4  3A03               	xorlw	10^9	; case 10
  5585  13E5  1903               	skipnz
  5586  13E6  2BBD               	goto	l9538
  5587  13E7  2BE8               	goto	l9546
  5588                           	opt asmopt_on
  5589                           
  5590                           	line	363
  5591                           	
  5592  13E8                     l3196:	
  5593                           	line	364
  5594                           	
  5595  13E8                     l9546:	
  5596                           ;Beverage_services.c: 364: if(_PRESSED==_NORMAL_COFFEE_BUTTON || _PRESSED==_NORMAL_TEA_B
                                 UTTON || _PRESSED==_LIGHT_COFFEE_BUTTON || _PRESSED==_LIGHT_TEA_BUTTON)
  5597  13E8  083B               	movf	(__PRESSED),w
  5598  13E9  3A01               	xorlw	01h
  5599  13EA  1903               	skipnz
  5600  13EB  2BED               	goto	u6261
  5601  13EC  2BEE               	goto	u6260
  5602  13ED                     u6261:
  5603  13ED  2C03               	goto	l9554
  5604  13EE                     u6260:
  5605                           	
  5606  13EE                     l9548:	
  5607  13EE  083B               	movf	(__PRESSED),w
  5608  13EF  3A02               	xorlw	02h
  5609  13F0  1903               	skipnz
  5610  13F1  2BF3               	goto	u6271
  5611  13F2  2BF4               	goto	u6270
  5612  13F3                     u6271:
  5613  13F3  2C03               	goto	l9554
  5614  13F4                     u6270:
  5615                           	
  5616  13F4                     l9550:	
  5617  13F4  083B               	movf	(__PRESSED),w
  5618  13F5  3A03               	xorlw	03h
  5619  13F6  1903               	skipnz
  5620  13F7  2BF9               	goto	u6281
  5621  13F8  2BFA               	goto	u6280
  5622  13F9                     u6281:
  5623  13F9  2C03               	goto	l9554
  5624  13FA                     u6280:
  5625                           	
  5626  13FA                     l9552:	
  5627  13FA  083B               	movf	(__PRESSED),w
  5628  13FB  3A04               	xorlw	04h
  5629  13FC  1D03               	skipz
  5630  13FD  2BFF               	goto	u6291
  5631  13FE  2C02               	goto	u6290
  5632  13FF                     u6291:
  5633  13FF  120A  158A  284A   	goto	l9556
  5634  1402                     u6290:
  5635  1402  2C03               	goto	l9554
  5636                           	
  5637  1403                     l3212:	
  5638                           	line	366
  5639                           	
  5640  1403                     l9554:	
  5641                           ;Beverage_services.c: 365: {
  5642                           ;Beverage_services.c: 366: time=eeprom_read(((12*(Selection_Next+1))-2)+Next);
  5643  1403  300C               	movlw	(0Ch)
  5644  1404  00DC               	movwf	(??_enable_valves+0)+0
  5645  1405  085C               	movf	(??_enable_valves+0)+0,w
  5646  1406  00F0               	movwf	(?___bmul)
  5647  1407  0847               	movf	(_Selection_Next),w
  5648  1408  3E01               	addlw	01h
  5649  1409  160A  158A  20EE   	fcall	___bmul
              160A  118A         
  5650  140E  1283               	bcf	status, 5	;RP0=0, select bank0
  5651  140F  1303               	bcf	status, 6	;RP1=0, select bank0
  5652  1410  00DD               	movwf	(??_enable_valves+1)+0
  5653  1411  0835               	movf	(_Next),w
  5654  1412  075D               	addwf	0+(??_enable_valves+1)+0,w
  5655  1413  3EFE               	addlw	0FEh
  5656  1414  00DE               	movwf	(??_enable_valves+2)+0
  5657  1415  085E               	movf	(??_enable_valves+2)+0,w
  5658  1416  00F4               	movwf	(?_eeprom_read)
  5659  1417  160A  158A  211F   	fcall	_eeprom_read
              160A  118A         
  5660  141C  1283               	bcf	status, 5	;RP0=0, select bank0
  5661  141D  1303               	bcf	status, 6	;RP1=0, select bank0
  5662  141E  00DF               	movwf	(??_enable_valves+3)+0
  5663  141F  01E0               	clrf	(??_enable_valves+3)+0+1
  5664  1420  085F               	movf	0+(??_enable_valves+3)+0,w
  5665  1421  00B3               	movwf	(_time)
  5666  1422  0860               	movf	1+(??_enable_valves+3)+0,w
  5667  1423  00B4               	movwf	(_time+1)
  5668  1424  2BFF               	goto	l9556
  5669                           	line	367
  5670                           	
  5671  084A                     l3210:	
  5672                           	line	368
  5673                           	
  5674  084A                     l9556:	
  5675                           ;Beverage_services.c: 367: }
  5676                           ;Beverage_services.c: 368: if(_PRESSED && (_PRESSED!=_MENU_BUTTON) && (_PRESSED!=_EXTRA_
                                 BUTTON))
  5677  084A  083B               	movf	(__PRESSED),w
  5678  084B  1D03               	skipz
  5679  084C  284E               	goto	u6300
  5680  084D  29A6               	goto	l9614
  5681  084E                     u6300:
  5682                           	
  5683  084E                     l9558:	
  5684  084E  083B               	movf	(__PRESSED),w
  5685  084F  3A0A               	xorlw	0Ah
  5686  0850  1903               	skipnz
  5687  0851  2853               	goto	u6311
  5688  0852  2854               	goto	u6310
  5689  0853                     u6311:
  5690  0853  29A6               	goto	l9614
  5691  0854                     u6310:
  5692                           	
  5693  0854                     l9560:	
  5694  0854  083B               	movf	(__PRESSED),w
  5695  0855  3A08               	xorlw	08h
  5696  0856  1903               	skipnz
  5697  0857  2859               	goto	u6321
  5698  0858  285A               	goto	u6320
  5699  0859                     u6321:
  5700  0859  29A6               	goto	l9614
  5701  085A                     u6320:
  5702                           	line	370
  5703                           	
  5704  085A                     l9562:	
  5705                           ;Beverage_services.c: 369: {
  5706                           ;Beverage_services.c: 370: Lcd_Cmd(0x80);
  5707  085A  3080               	movlw	(080h)
  5708  085B  160A  158A  229B   	fcall	_Lcd_Cmd
              120A  158A         
  5709                           	line	371
  5710                           	
  5711  0860                     l9564:	
  5712                           ;Beverage_services.c: 371: Lcd_String("SELECTION",0,0);
  5713  0860  306C               	movlw	low(STR_17|8000h)
  5714  0861  1283               	bcf	status, 5	;RP0=0, select bank0
  5715  0862  1303               	bcf	status, 6	;RP1=0, select bank0
  5716  0863  00CE               	movwf	(?_Lcd_String)
  5717  0864  3091               	movlw	high(STR_17|8000h)
  5718  0865  00CF               	movwf	((?_Lcd_String))+1
  5719  0866  01D0               	clrf	0+(?_Lcd_String)+02h
  5720  0867  01D1               	clrf	0+(?_Lcd_String)+03h
  5721  0868  120A  158A  2000   	fcall	_Lcd_String
              120A  158A         
  5722                           	line	372
  5723                           	
  5724  086D                     l9566:	
  5725                           ;Beverage_services.c: 372: Lcd_Data(':');
  5726  086D  303A               	movlw	(03Ah)
  5727  086E  160A  158A  22D4   	fcall	_Lcd_Data
              120A  158A         
  5728                           	line	373
  5729                           	
  5730  0873                     l9568:	
  5731                           ;Beverage_services.c: 373: Lcd_Cmd(0x8C);
  5732  0873  308C               	movlw	(08Ch)
  5733  0874  160A  158A  229B   	fcall	_Lcd_Cmd
              120A  158A         
  5734                           	line	374
  5735                           	
  5736  0879                     l9570:	
  5737                           ;Beverage_services.c: 374: myitoa(Selection_Next+1,buff);
  5738  0879  1283               	bcf	status, 5	;RP0=0, select bank0
  5739  087A  1303               	bcf	status, 6	;RP1=0, select bank0
  5740  087B  0847               	movf	(_Selection_Next),w
  5741  087C  3E01               	addlw	low(01h)
  5742  087D  00FB               	movwf	(?_myitoa)
  5743  087E  3000               	movlw	high(01h)
  5744  087F  1803               	skipnc
  5745  0880  3001               	movlw	(high(01h)+1)&0ffh
  5746  0881  00FC               	movwf	((?_myitoa))+1
  5747  0882  3043               	movlw	(_buff)&0ffh
  5748  0883  00DC               	movwf	(??_enable_valves+0)+0
  5749  0884  085C               	movf	(??_enable_valves+0)+0,w
  5750  0885  00FD               	movwf	0+(?_myitoa)+02h
  5751  0886  120A  118A  200B   	fcall	_myitoa
              120A  158A         
  5752                           	line	375
  5753                           	
  5754  088B                     l9572:	
  5755                           ;Beverage_services.c: 375: Lcd_String(buff,0,0);
  5756  088B  3043               	movlw	(_buff&0ffh)
  5757  088C  1283               	bcf	status, 5	;RP0=0, select bank0
  5758  088D  1303               	bcf	status, 6	;RP1=0, select bank0
  5759  088E  00CE               	movwf	(?_Lcd_String)
  5760  088F  3000               	movlw	(0x0/2)
  5761  0890  00CF               	movwf	(?_Lcd_String+1)
  5762  0891  01D0               	clrf	0+(?_Lcd_String)+02h
  5763  0892  01D1               	clrf	0+(?_Lcd_String)+03h
  5764  0893  120A  158A  2000   	fcall	_Lcd_String
              120A  158A         
  5765                           	line	376
  5766                           	
  5767  0898                     l9574:	
  5768                           ;Beverage_services.c: 376: if(!(Next%2))
  5769  0898  1283               	bcf	status, 5	;RP0=0, select bank0
  5770  0899  1303               	bcf	status, 6	;RP1=0, select bank0
  5771  089A  1835               	btfsc	(_Next),(0)&7
  5772  089B  289D               	goto	u6331
  5773  089C  289E               	goto	u6330
  5774  089D                     u6331:
  5775  089D  2930               	goto	l9602
  5776  089E                     u6330:
  5777                           	line	378
  5778                           	
  5779  089E                     l9576:	
  5780                           ;Beverage_services.c: 377: {
  5781                           ;Beverage_services.c: 378: Lcd_String("LOAD ",0,1);
  5782  089E  3090               	movlw	low(STR_18|8000h)
  5783  089F  00CE               	movwf	(?_Lcd_String)
  5784  08A0  3091               	movlw	high(STR_18|8000h)
  5785  08A1  00CF               	movwf	((?_Lcd_String))+1
  5786  08A2  01D0               	clrf	0+(?_Lcd_String)+02h
  5787  08A3  01D1               	clrf	0+(?_Lcd_String)+03h
  5788  08A4  1403               	bsf	status,0
  5789  08A5  0DD1               	rlf	0+(?_Lcd_String)+03h,f
  5790  08A6  120A  158A  2000   	fcall	_Lcd_String
              120A  158A         
  5791                           	line	379
  5792                           	
  5793  08AB                     l9578:	
  5794                           ;Beverage_services.c: 379: Lcd_Data(asciitable[(Next/2)+1]);
  5795  08AB  3002               	movlw	low(02h)
  5796  08AC  00F0               	movwf	(?___awdiv)
  5797  08AD  3000               	movlw	high(02h)
  5798  08AE  00F1               	movwf	((?___awdiv))+1
  5799  08AF  1283               	bcf	status, 5	;RP0=0, select bank0
  5800  08B0  1303               	bcf	status, 6	;RP1=0, select bank0
  5801  08B1  0835               	movf	(_Next),w
  5802  08B2  00DC               	movwf	(??_enable_valves+0)+0
  5803  08B3  01DD               	clrf	(??_enable_valves+0)+0+1
  5804  08B4  085C               	movf	0+(??_enable_valves+0)+0,w
  5805  08B5  00F2               	movwf	0+(?___awdiv)+02h
  5806  08B6  085D               	movf	1+(??_enable_valves+0)+0,w
  5807  08B7  00F3               	movwf	1+(?___awdiv)+02h
  5808  08B8  160A  158A  24FE   	fcall	___awdiv
              120A  158A         
  5809  08BD  0870               	movf	(0+(?___awdiv)),w
  5810  08BE  3E01               	addlw	01h
  5811  08BF  3EA0               	addlw	_asciitable&0ffh
  5812  08C0  0084               	movwf	fsr0
  5813  08C1  1383               	bcf	status, 7	;select IRP bank1
  5814  08C2  0800               	movf	indf,w
  5815  08C3  160A  158A  22D4   	fcall	_Lcd_Data
              120A  158A         
  5816                           	line	380
  5817                           	
  5818  08C8                     l9580:	
  5819                           ;Beverage_services.c: 380: if(_Demo==1)
  5820  08C8  1283               	bcf	status, 5	;RP0=0, select bank0
  5821  08C9  1303               	bcf	status, 6	;RP1=0, select bank0
  5822  08CA  1CEE               	btfss	(__Demo/8),(__Demo)&7
  5823  08CB  28CD               	goto	u6341
  5824  08CC  28CE               	goto	u6340
  5825  08CD                     u6341:
  5826  08CD  295B               	goto	l9606
  5827  08CE                     u6340:
  5828                           	line	382
  5829                           	
  5830  08CE                     l9582:	
  5831                           ;Beverage_services.c: 381: {
  5832                           ;Beverage_services.c: 382: if(Next==0)
  5833  08CE  08B5               	movf	(_Next),f
  5834  08CF  1D03               	skipz
  5835  08D0  28D2               	goto	u6351
  5836  08D1  28D3               	goto	u6350
  5837  08D2                     u6351:
  5838  08D2  28D8               	goto	l3216
  5839  08D3                     u6350:
  5840                           	line	383
  5841                           	
  5842  08D3                     l9584:	
  5843                           ;Beverage_services.c: 383: _ON=_OFF=_Coffee_Valve;
  5844  08D3  3006               	movlw	(06h)
  5845  08D4  00B9               	movwf	(__OFF)
  5846  08D5  00DC               	movwf	(??_enable_valves+0)+0
  5847  08D6  085C               	movf	(??_enable_valves+0)+0,w
  5848  08D7  00BA               	movwf	(__ON)
  5849                           	
  5850  08D8                     l3216:	
  5851                           	line	384
  5852                           ;Beverage_services.c: 384: if(Next==2)
  5853  08D8  0835               	movf	(_Next),w
  5854  08D9  3A02               	xorlw	02h
  5855  08DA  1D03               	skipz
  5856  08DB  28DD               	goto	u6361
  5857  08DC  28DE               	goto	u6360
  5858  08DD                     u6361:
  5859  08DD  28E3               	goto	l3217
  5860  08DE                     u6360:
  5861                           	line	385
  5862                           	
  5863  08DE                     l9586:	
  5864                           ;Beverage_services.c: 385: _ON=_OFF=_Tea_Valve;
  5865  08DE  3008               	movlw	(08h)
  5866  08DF  00B9               	movwf	(__OFF)
  5867  08E0  00DC               	movwf	(??_enable_valves+0)+0
  5868  08E1  085C               	movf	(??_enable_valves+0)+0,w
  5869  08E2  00BA               	movwf	(__ON)
  5870                           	
  5871  08E3                     l3217:	
  5872                           	line	386
  5873                           ;Beverage_services.c: 386: if(Next==4)
  5874  08E3  0835               	movf	(_Next),w
  5875  08E4  3A04               	xorlw	04h
  5876  08E5  1D03               	skipz
  5877  08E6  28E8               	goto	u6371
  5878  08E7  28E9               	goto	u6370
  5879  08E8                     u6371:
  5880  08E8  28EE               	goto	l3218
  5881  08E9                     u6370:
  5882                           	line	387
  5883                           	
  5884  08E9                     l9588:	
  5885                           ;Beverage_services.c: 387: _ON=_OFF=_Mixing_Hot_Water_Valve;
  5886  08E9  3003               	movlw	(03h)
  5887  08EA  00B9               	movwf	(__OFF)
  5888  08EB  00DC               	movwf	(??_enable_valves+0)+0
  5889  08EC  085C               	movf	(??_enable_valves+0)+0,w
  5890  08ED  00BA               	movwf	(__ON)
  5891                           	
  5892  08EE                     l3218:	
  5893                           	line	388
  5894                           ;Beverage_services.c: 388: if(Next==6)
  5895  08EE  0835               	movf	(_Next),w
  5896  08EF  3A06               	xorlw	06h
  5897  08F0  1D03               	skipz
  5898  08F1  28F3               	goto	u6381
  5899  08F2  28F4               	goto	u6380
  5900  08F3                     u6381:
  5901  08F3  28F9               	goto	l3219
  5902  08F4                     u6380:
  5903                           	line	389
  5904                           	
  5905  08F4                     l9590:	
  5906                           ;Beverage_services.c: 389: _ON=_OFF=_Milk_Valve_Forward;
  5907  08F4  3001               	movlw	(01h)
  5908  08F5  00B9               	movwf	(__OFF)
  5909  08F6  00DC               	movwf	(??_enable_valves+0)+0
  5910  08F7  085C               	movf	(??_enable_valves+0)+0,w
  5911  08F8  00BA               	movwf	(__ON)
  5912                           	
  5913  08F9                     l3219:	
  5914                           	line	390
  5915                           ;Beverage_services.c: 390: if(Next==8)
  5916  08F9  0835               	movf	(_Next),w
  5917  08FA  3A08               	xorlw	08h
  5918  08FB  1D03               	skipz
  5919  08FC  28FE               	goto	u6391
  5920  08FD  28FF               	goto	u6390
  5921  08FE                     u6391:
  5922  08FE  2905               	goto	l9594
  5923  08FF                     u6390:
  5924                           	line	391
  5925                           	
  5926  08FF                     l9592:	
  5927                           ;Beverage_services.c: 391: _ON=_OFF=_Viber_Motor;
  5928  08FF  3009               	movlw	(09h)
  5929  0900  00B9               	movwf	(__OFF)
  5930  0901  00DC               	movwf	(??_enable_valves+0)+0
  5931  0902  085C               	movf	(??_enable_valves+0)+0,w
  5932  0903  00BA               	movwf	(__ON)
  5933  0904  2905               	goto	l9594
  5934                           	
  5935  0905                     l3220:	
  5936                           	line	392
  5937                           	
  5938  0905                     l9594:	
  5939                           ;Beverage_services.c: 392: onthevalve();
  5940  0905  160A  158A  2347   	fcall	_onthevalve
              120A  158A         
  5941                           	line	393
  5942                           	
  5943  090A                     l9596:	
  5944                           ;Beverage_services.c: 393: DelayMs(time*100);
  5945  090A  1283               	bcf	status, 5	;RP0=0, select bank0
  5946  090B  1303               	bcf	status, 6	;RP1=0, select bank0
  5947  090C  0834               	movf	(_time+1),w
  5948  090D  01F7               	clrf	(?___wmul+1)
  5949  090E  07F7               	addwf	(?___wmul+1)
  5950  090F  0833               	movf	(_time),w
  5951  0910  01F6               	clrf	(?___wmul)
  5952  0911  07F6               	addwf	(?___wmul)
  5953                           
  5954  0912  3064               	movlw	low(064h)
  5955  0913  00F8               	movwf	0+(?___wmul)+02h
  5956  0914  3000               	movlw	high(064h)
  5957  0915  00F9               	movwf	(0+(?___wmul)+02h)+1
  5958  0916  160A  158A  21A2   	fcall	___wmul
              120A  158A         
  5959  091B  0877               	movf	(1+(?___wmul)),w
  5960  091C  01FD               	clrf	(?_DelayMs+1)
  5961  091D  07FD               	addwf	(?_DelayMs+1)
  5962  091E  0876               	movf	(0+(?___wmul)),w
  5963  091F  01FC               	clrf	(?_DelayMs)
  5964  0920  07FC               	addwf	(?_DelayMs)
  5965                           
  5966  0921  160A  158A  217A   	fcall	_DelayMs
              120A  158A         
  5967                           	line	394
  5968                           	
  5969  0926                     l9598:	
  5970                           ;Beverage_services.c: 394: offthevalve();
  5971  0926  160A  158A  230D   	fcall	_offthevalve
              120A  158A         
  5972                           	line	395
  5973                           	
  5974  092B                     l9600:	
  5975                           ;Beverage_services.c: 395: _Demo=0;
  5976  092B  1283               	bcf	status, 5	;RP0=0, select bank0
  5977  092C  1303               	bcf	status, 6	;RP1=0, select bank0
  5978  092D  10EE               	bcf	(__Demo/8),(__Demo)&7
  5979  092E  295B               	goto	l9606
  5980                           	line	396
  5981                           	
  5982  092F                     l3215:	
  5983                           	line	397
  5984                           ;Beverage_services.c: 396: }
  5985                           ;Beverage_services.c: 397: }
  5986  092F  295B               	goto	l9606
  5987                           	line	398
  5988                           	
  5989  0930                     l3214:	
  5990                           	line	400
  5991                           	
  5992  0930                     l9602:	
  5993                           ;Beverage_services.c: 398: else
  5994                           ;Beverage_services.c: 399: {
  5995                           ;Beverage_services.c: 400: Lcd_String("DELAY",0,1);
  5996  0930  30A6               	movlw	low(STR_19|8000h)
  5997  0931  00CE               	movwf	(?_Lcd_String)
  5998  0932  3090               	movlw	high(STR_19|8000h)
  5999  0933  00CF               	movwf	((?_Lcd_String))+1
  6000  0934  01D0               	clrf	0+(?_Lcd_String)+02h
  6001  0935  01D1               	clrf	0+(?_Lcd_String)+03h
  6002  0936  1403               	bsf	status,0
  6003  0937  0DD1               	rlf	0+(?_Lcd_String)+03h,f
  6004  0938  120A  158A  2000   	fcall	_Lcd_String
              120A  158A         
  6005                           	line	401
  6006                           	
  6007  093D                     l9604:	
  6008                           ;Beverage_services.c: 401: Lcd_Data(asciitable[(Next/2)+1]);
  6009  093D  3002               	movlw	low(02h)
  6010  093E  00F0               	movwf	(?___awdiv)
  6011  093F  3000               	movlw	high(02h)
  6012  0940  00F1               	movwf	((?___awdiv))+1
  6013  0941  1283               	bcf	status, 5	;RP0=0, select bank0
  6014  0942  1303               	bcf	status, 6	;RP1=0, select bank0
  6015  0943  0835               	movf	(_Next),w
  6016  0944  00DC               	movwf	(??_enable_valves+0)+0
  6017  0945  01DD               	clrf	(??_enable_valves+0)+0+1
  6018  0946  085C               	movf	0+(??_enable_valves+0)+0,w
  6019  0947  00F2               	movwf	0+(?___awdiv)+02h
  6020  0948  085D               	movf	1+(??_enable_valves+0)+0,w
  6021  0949  00F3               	movwf	1+(?___awdiv)+02h
  6022  094A  160A  158A  24FE   	fcall	___awdiv
              120A  158A         
  6023  094F  0870               	movf	(0+(?___awdiv)),w
  6024  0950  3E01               	addlw	01h
  6025  0951  3EA0               	addlw	_asciitable&0ffh
  6026  0952  0084               	movwf	fsr0
  6027  0953  1383               	bcf	status, 7	;select IRP bank1
  6028  0954  0800               	movf	indf,w
  6029  0955  160A  158A  22D4   	fcall	_Lcd_Data
              120A  158A         
  6030  095A  295B               	goto	l9606
  6031                           	line	402
  6032                           	
  6033  095B                     l3221:	
  6034                           	line	403
  6035                           	
  6036  095B                     l9606:	
  6037                           ;Beverage_services.c: 402: }
  6038                           ;Beverage_services.c: 403: Lcd_Cmd(0xC9);
  6039  095B  30C9               	movlw	(0C9h)
  6040  095C  160A  158A  229B   	fcall	_Lcd_Cmd
              120A  158A         
  6041                           	line	404
  6042                           	
  6043  0961                     l9608:	
  6044                           ;Beverage_services.c: 404: Num_Disp(time,2,1);
  6045  0961  1283               	bcf	status, 5	;RP0=0, select bank0
  6046  0962  1303               	bcf	status, 6	;RP1=0, select bank0
  6047  0963  0834               	movf	(_time+1),w
  6048  0964  01D1               	clrf	(?_Num_Disp+1)
  6049  0965  07D1               	addwf	(?_Num_Disp+1)
  6050  0966  0833               	movf	(_time),w
  6051  0967  01D0               	clrf	(?_Num_Disp)
  6052  0968  07D0               	addwf	(?_Num_Disp)
  6053                           
  6054  0969  3002               	movlw	(02h)
  6055  096A  00DC               	movwf	(??_enable_valves+0)+0
  6056  096B  085C               	movf	(??_enable_valves+0)+0,w
  6057  096C  00D2               	movwf	0+(?_Num_Disp)+02h
  6058  096D  01D3               	clrf	0+(?_Num_Disp)+03h
  6059  096E  1403               	bsf	status,0
  6060  096F  0DD3               	rlf	0+(?_Num_Disp)+03h,f
  6061  0970  160A  158A  26F5   	fcall	_Num_Disp
              120A  158A         
  6062                           	line	405
  6063                           	
  6064  0975                     l9610:	
  6065                           ;Beverage_services.c: 405: Lcd_Cmd(0xCD);
  6066  0975  30CD               	movlw	(0CDh)
  6067  0976  160A  158A  229B   	fcall	_Lcd_Cmd
              120A  158A         
  6068                           	line	406
  6069                           ;Beverage_services.c: 406: Lcd_String("SEC",0,0);
  6070  097B  309C               	movlw	low(STR_20|8000h)
  6071  097C  1283               	bcf	status, 5	;RP0=0, select bank0
  6072  097D  1303               	bcf	status, 6	;RP1=0, select bank0
  6073  097E  00CE               	movwf	(?_Lcd_String)
  6074  097F  3091               	movlw	high(STR_20|8000h)
  6075  0980  00CF               	movwf	((?_Lcd_String))+1
  6076  0981  01D0               	clrf	0+(?_Lcd_String)+02h
  6077  0982  01D1               	clrf	0+(?_Lcd_String)+03h
  6078  0983  120A  158A  2000   	fcall	_Lcd_String
              120A  158A         
  6079                           	line	407
  6080                           	
  6081  0988                     l9612:	
  6082                           ;Beverage_services.c: 407: eeprom_write(((12*(Selection_Next+1))-2)+Next,time);
  6083  0988  1283               	bcf	status, 5	;RP0=0, select bank0
  6084  0989  1303               	bcf	status, 6	;RP1=0, select bank0
  6085  098A  0833               	movf	(_time),w
  6086  098B  00DC               	movwf	(??_enable_valves+0)+0
  6087  098C  085C               	movf	(??_enable_valves+0)+0,w
  6088  098D  00F6               	movwf	(?_eeprom_write)
  6089  098E  300C               	movlw	(0Ch)
  6090  098F  00DD               	movwf	(??_enable_valves+1)+0
  6091  0990  085D               	movf	(??_enable_valves+1)+0,w
  6092  0991  00F0               	movwf	(?___bmul)
  6093  0992  0847               	movf	(_Selection_Next),w
  6094  0993  3E01               	addlw	01h
  6095  0994  160A  158A  20EE   	fcall	___bmul
              120A  158A         
  6096  0999  1283               	bcf	status, 5	;RP0=0, select bank0
  6097  099A  1303               	bcf	status, 6	;RP1=0, select bank0
  6098  099B  00DE               	movwf	(??_enable_valves+2)+0
  6099  099C  0835               	movf	(_Next),w
  6100  099D  075E               	addwf	0+(??_enable_valves+2)+0,w
  6101  099E  3EFE               	addlw	0FEh
  6102  099F  160A  158A  21FD   	fcall	_eeprom_write
              120A  158A         
  6103  09A4  29A6               	goto	l9614
  6104                           	line	408
  6105                           	
  6106  09A5                     l3213:	
  6107  09A5  29A6               	goto	l9614
  6108                           	line	410
  6109                           	
  6110  09A6                     l3192:	
  6111                           	line	411
  6112                           	
  6113  09A6                     l9614:	
  6114                           ;Beverage_services.c: 408: }
  6115                           ;Beverage_services.c: 410: }
  6116                           ;Beverage_services.c: 411: if(Enable_Coffee_Dication_Time)
  6117  09A6  1283               	bcf	status, 5	;RP0=0, select bank0
  6118  09A7  1303               	bcf	status, 6	;RP1=0, select bank0
  6119  09A8  1C6B               	btfss	(_Enable_Coffee_Dication_Time/8),(_Enable_Coffee_Dication_Time)&7
  6120  09A9  29AB               	goto	u6401
  6121  09AA  29AC               	goto	u6400
  6122  09AB                     u6401:
  6123  09AB  2A2F               	goto	l9652
  6124  09AC                     u6400:
  6125  09AC  29EE               	goto	l9638
  6126                           	line	413
  6127                           	
  6128  09AD                     l9616:	
  6129                           ;Beverage_services.c: 412: {
  6130                           ;Beverage_services.c: 413: switch(_PRESSED)
  6131  09AD  29EE               	goto	l9638
  6132                           	line	415
  6133                           ;Beverage_services.c: 414: {
  6134                           ;Beverage_services.c: 415: case _MILK_BUTTON: if(time>0)
  6135                           	
  6136  09AE                     l3224:	
  6137                           	
  6138  09AE                     l9618:	
  6139  09AE  0834               	movf	(_time+1),w
  6140  09AF  0433               	iorwf	(_time),w
  6141  09B0  1903               	skipnz
  6142  09B1  29B3               	goto	u6411
  6143  09B2  29B4               	goto	u6410
  6144  09B3                     u6411:
  6145  09B3  29FC               	goto	l9640
  6146  09B4                     u6410:
  6147                           	line	417
  6148                           	
  6149  09B4                     l9620:	
  6150                           ;Beverage_services.c: 416: {
  6151                           ;Beverage_services.c: 417: time--;
  6152  09B4  3001               	movlw	low(01h)
  6153  09B5  02B3               	subwf	(_time),f
  6154  09B6  3000               	movlw	high(01h)
  6155  09B7  1C03               	skipc
  6156  09B8  03B4               	decf	(_time+1),f
  6157  09B9  02B4               	subwf	(_time+1),f
  6158  09BA  29FC               	goto	l9640
  6159                           	line	418
  6160                           	
  6161  09BB                     l3225:	
  6162                           	line	419
  6163                           ;Beverage_services.c: 418: }
  6164                           ;Beverage_services.c: 419: break;
  6165  09BB  29FC               	goto	l9640
  6166                           	line	420
  6167                           ;Beverage_services.c: 420: case _HOT_WATER_BUTTON: time++;
  6168                           	
  6169  09BC                     l3227:	
  6170                           	
  6171  09BC                     l9622:	
  6172  09BC  3001               	movlw	low(01h)
  6173  09BD  07B3               	addwf	(_time),f
  6174  09BE  1803               	skipnc
  6175  09BF  0AB4               	incf	(_time+1),f
  6176  09C0  3000               	movlw	high(01h)
  6177  09C1  07B4               	addwf	(_time+1),f
  6178                           	line	421
  6179                           ;Beverage_services.c: 421: break;
  6180  09C2  29FC               	goto	l9640
  6181                           	line	422
  6182                           ;Beverage_services.c: 422: case _EXTRA_BUTTON: eeprom_write(118,time);
  6183                           	
  6184  09C3                     l3228:	
  6185                           	
  6186  09C3                     l9624:	
  6187  09C3  0833               	movf	(_time),w
  6188  09C4  00DC               	movwf	(??_enable_valves+0)+0
  6189  09C5  085C               	movf	(??_enable_valves+0)+0,w
  6190  09C6  00F6               	movwf	(?_eeprom_write)
  6191  09C7  3076               	movlw	(076h)
  6192  09C8  160A  158A  21FD   	fcall	_eeprom_write
              120A  158A         
  6193                           	line	423
  6194                           	
  6195  09CD                     l9626:	
  6196                           ;Beverage_services.c: 423: _DISABLE_MODE=_Coffee_Dication_Time;
  6197  09CD  3006               	movlw	(06h)
  6198  09CE  1283               	bcf	status, 5	;RP0=0, select bank0
  6199  09CF  1303               	bcf	status, 6	;RP1=0, select bank0
  6200  09D0  00DC               	movwf	(??_enable_valves+0)+0
  6201  09D1  085C               	movf	(??_enable_valves+0)+0,w
  6202  09D2  00B7               	movwf	(__DISABLE_MODE)
  6203                           	line	424
  6204                           	
  6205  09D3                     l9628:	
  6206                           ;Beverage_services.c: 424: _ENABLE_MODE=_Selection;
  6207  09D3  3005               	movlw	(05h)
  6208  09D4  00DC               	movwf	(??_enable_valves+0)+0
  6209  09D5  085C               	movf	(??_enable_valves+0)+0,w
  6210  09D6  00B8               	movwf	(__ENABLE_MODE)
  6211                           	line	425
  6212                           ;Beverage_services.c: 425: break;
  6213  09D7  29FC               	goto	l9640
  6214                           	line	426
  6215                           ;Beverage_services.c: 426: case _MENU_BUTTON: eeprom_write(118,time);
  6216                           	
  6217  09D8                     l3229:	
  6218                           	
  6219  09D8                     l9630:	
  6220  09D8  0833               	movf	(_time),w
  6221  09D9  00DC               	movwf	(??_enable_valves+0)+0
  6222  09DA  085C               	movf	(??_enable_valves+0)+0,w
  6223  09DB  00F6               	movwf	(?_eeprom_write)
  6224  09DC  3076               	movlw	(076h)
  6225  09DD  160A  158A  21FD   	fcall	_eeprom_write
              120A  158A         
  6226                           	line	427
  6227                           	
  6228  09E2                     l9632:	
  6229                           ;Beverage_services.c: 427: _DISABLE_MODE=_Coffee_Dication_Time;
  6230  09E2  3006               	movlw	(06h)
  6231  09E3  1283               	bcf	status, 5	;RP0=0, select bank0
  6232  09E4  1303               	bcf	status, 6	;RP1=0, select bank0
  6233  09E5  00DC               	movwf	(??_enable_valves+0)+0
  6234  09E6  085C               	movf	(??_enable_valves+0)+0,w
  6235  09E7  00B7               	movwf	(__DISABLE_MODE)
  6236                           	line	428
  6237                           	
  6238  09E8                     l9634:	
  6239                           ;Beverage_services.c: 428: _ENABLE_MODE=_Tea_Dication_Time;
  6240  09E8  3007               	movlw	(07h)
  6241  09E9  00DC               	movwf	(??_enable_valves+0)+0
  6242  09EA  085C               	movf	(??_enable_valves+0)+0,w
  6243  09EB  00B8               	movwf	(__ENABLE_MODE)
  6244                           	line	429
  6245                           ;Beverage_services.c: 429: break;
  6246  09EC  29FC               	goto	l9640
  6247                           	line	430
  6248                           	
  6249  09ED                     l9636:	
  6250                           ;Beverage_services.c: 430: }
  6251  09ED  29FC               	goto	l9640
  6252                           	line	413
  6253                           	
  6254  09EE                     l3223:	
  6255                           	
  6256  09EE                     l9638:	
  6257  09EE  083B               	movf	(__PRESSED),w
  6258                           	; Switch size 1, requested type "space"
  6259                           ; Number of cases is 4, Range of values is 7 to 10
  6260                           ; switch strategies available:
  6261                           ; Name         Instructions Cycles
  6262                           ; simple_byte           13     7 (average)
  6263                           ; direct_byte           23    11 (fixed)
  6264                           ; jumptable            263     9 (fixed)
  6265                           ;	Chosen strategy is simple_byte
  6266                           
  6267                           	opt asmopt_off
  6268  09EF  3A07               	xorlw	7^0	; case 7
  6269  09F0  1903               	skipnz
  6270  09F1  29AE               	goto	l9618
  6271  09F2  3A0F               	xorlw	8^7	; case 8
  6272  09F3  1903               	skipnz
  6273  09F4  29C3               	goto	l9624
  6274  09F5  3A01               	xorlw	9^8	; case 9
  6275  09F6  1903               	skipnz
  6276  09F7  29BC               	goto	l9622
  6277  09F8  3A03               	xorlw	10^9	; case 10
  6278  09F9  1903               	skipnz
  6279  09FA  29D8               	goto	l9630
  6280  09FB  29FC               	goto	l9640
  6281                           	opt asmopt_on
  6282                           
  6283                           	line	430
  6284                           	
  6285  09FC                     l3226:	
  6286                           	line	431
  6287                           	
  6288  09FC                     l9640:	
  6289                           ;Beverage_services.c: 431: if(_PRESSED && (_PRESSED!=_MENU_BUTTON) && (_PRESSED!=_EXTRA_
                                 BUTTON))
  6290  09FC  083B               	movf	(__PRESSED),w
  6291  09FD  1D03               	skipz
  6292  09FE  2A00               	goto	u6420
  6293  09FF  2A25               	goto	l9650
  6294  0A00                     u6420:
  6295                           	
  6296  0A00                     l9642:	
  6297  0A00  083B               	movf	(__PRESSED),w
  6298  0A01  3A0A               	xorlw	0Ah
  6299  0A02  1903               	skipnz
  6300  0A03  2A05               	goto	u6431
  6301  0A04  2A06               	goto	u6430
  6302  0A05                     u6431:
  6303  0A05  2A25               	goto	l9650
  6304  0A06                     u6430:
  6305                           	
  6306  0A06                     l9644:	
  6307  0A06  083B               	movf	(__PRESSED),w
  6308  0A07  3A08               	xorlw	08h
  6309  0A08  1903               	skipnz
  6310  0A09  2A0B               	goto	u6441
  6311  0A0A  2A0C               	goto	u6440
  6312  0A0B                     u6441:
  6313  0A0B  2A25               	goto	l9650
  6314  0A0C                     u6440:
  6315                           	line	433
  6316                           	
  6317  0A0C                     l9646:	
  6318                           ;Beverage_services.c: 432: {
  6319                           ;Beverage_services.c: 433: Lcd_Cmd(0xC8);
  6320  0A0C  30C8               	movlw	(0C8h)
  6321  0A0D  160A  158A  229B   	fcall	_Lcd_Cmd
              120A  158A         
  6322                           	line	434
  6323                           	
  6324  0A12                     l9648:	
  6325                           ;Beverage_services.c: 434: Num_Disp(time,3,0);
  6326  0A12  1283               	bcf	status, 5	;RP0=0, select bank0
  6327  0A13  1303               	bcf	status, 6	;RP1=0, select bank0
  6328  0A14  0834               	movf	(_time+1),w
  6329  0A15  01D1               	clrf	(?_Num_Disp+1)
  6330  0A16  07D1               	addwf	(?_Num_Disp+1)
  6331  0A17  0833               	movf	(_time),w
  6332  0A18  01D0               	clrf	(?_Num_Disp)
  6333  0A19  07D0               	addwf	(?_Num_Disp)
  6334                           
  6335  0A1A  3003               	movlw	(03h)
  6336  0A1B  00DC               	movwf	(??_enable_valves+0)+0
  6337  0A1C  085C               	movf	(??_enable_valves+0)+0,w
  6338  0A1D  00D2               	movwf	0+(?_Num_Disp)+02h
  6339  0A1E  01D3               	clrf	0+(?_Num_Disp)+03h
  6340  0A1F  160A  158A  26F5   	fcall	_Num_Disp
              120A  158A         
  6341  0A24  2A25               	goto	l9650
  6342                           	line	435
  6343                           	
  6344  0A25                     l3230:	
  6345                           	line	436
  6346                           	
  6347  0A25                     l9650:	
  6348                           ;Beverage_services.c: 435: }
  6349                           ;Beverage_services.c: 436: DelayMs(20);
  6350  0A25  3014               	movlw	low(014h)
  6351  0A26  00FC               	movwf	(?_DelayMs)
  6352  0A27  3000               	movlw	high(014h)
  6353  0A28  00FD               	movwf	((?_DelayMs))+1
  6354  0A29  160A  158A  217A   	fcall	_DelayMs
              120A  158A         
  6355  0A2E  2A2F               	goto	l9652
  6356                           	line	437
  6357                           	
  6358  0A2F                     l3222:	
  6359                           	line	438
  6360                           	
  6361  0A2F                     l9652:	
  6362                           ;Beverage_services.c: 437: }
  6363                           ;Beverage_services.c: 438: if(Enable_Tea_Dication_Time)
  6364  0A2F  1283               	bcf	status, 5	;RP0=0, select bank0
  6365  0A30  1303               	bcf	status, 6	;RP1=0, select bank0
  6366  0A31  1DED               	btfss	(_Enable_Tea_Dication_Time/8),(_Enable_Tea_Dication_Time)&7
  6367  0A32  2A34               	goto	u6451
  6368  0A33  2A35               	goto	u6450
  6369  0A34                     u6451:
  6370  0A34  2AB8               	goto	l9690
  6371  0A35                     u6450:
  6372  0A35  2A77               	goto	l9676
  6373                           	line	440
  6374                           	
  6375  0A36                     l9654:	
  6376                           ;Beverage_services.c: 439: {
  6377                           ;Beverage_services.c: 440: switch(_PRESSED)
  6378  0A36  2A77               	goto	l9676
  6379                           	line	442
  6380                           ;Beverage_services.c: 441: {
  6381                           ;Beverage_services.c: 442: case _MILK_BUTTON: if(time>0)
  6382                           	
  6383  0A37                     l3233:	
  6384                           	
  6385  0A37                     l9656:	
  6386  0A37  0834               	movf	(_time+1),w
  6387  0A38  0433               	iorwf	(_time),w
  6388  0A39  1903               	skipnz
  6389  0A3A  2A3C               	goto	u6461
  6390  0A3B  2A3D               	goto	u6460
  6391  0A3C                     u6461:
  6392  0A3C  2A85               	goto	l9678
  6393  0A3D                     u6460:
  6394                           	line	444
  6395                           	
  6396  0A3D                     l9658:	
  6397                           ;Beverage_services.c: 443: {
  6398                           ;Beverage_services.c: 444: time--;
  6399  0A3D  3001               	movlw	low(01h)
  6400  0A3E  02B3               	subwf	(_time),f
  6401  0A3F  3000               	movlw	high(01h)
  6402  0A40  1C03               	skipc
  6403  0A41  03B4               	decf	(_time+1),f
  6404  0A42  02B4               	subwf	(_time+1),f
  6405  0A43  2A85               	goto	l9678
  6406                           	line	445
  6407                           	
  6408  0A44                     l3234:	
  6409                           	line	446
  6410                           ;Beverage_services.c: 445: }
  6411                           ;Beverage_services.c: 446: break;
  6412  0A44  2A85               	goto	l9678
  6413                           	line	447
  6414                           ;Beverage_services.c: 447: case _HOT_WATER_BUTTON: time++;
  6415                           	
  6416  0A45                     l3236:	
  6417                           	
  6418  0A45                     l9660:	
  6419  0A45  3001               	movlw	low(01h)
  6420  0A46  07B3               	addwf	(_time),f
  6421  0A47  1803               	skipnc
  6422  0A48  0AB4               	incf	(_time+1),f
  6423  0A49  3000               	movlw	high(01h)
  6424  0A4A  07B4               	addwf	(_time+1),f
  6425                           	line	448
  6426                           ;Beverage_services.c: 448: break;
  6427  0A4B  2A85               	goto	l9678
  6428                           	line	449
  6429                           ;Beverage_services.c: 449: case _EXTRA_BUTTON: eeprom_write(119,time);
  6430                           	
  6431  0A4C                     l3237:	
  6432                           	
  6433  0A4C                     l9662:	
  6434  0A4C  0833               	movf	(_time),w
  6435  0A4D  00DC               	movwf	(??_enable_valves+0)+0
  6436  0A4E  085C               	movf	(??_enable_valves+0)+0,w
  6437  0A4F  00F6               	movwf	(?_eeprom_write)
  6438  0A50  3077               	movlw	(077h)
  6439  0A51  160A  158A  21FD   	fcall	_eeprom_write
              120A  158A         
  6440                           	line	450
  6441                           	
  6442  0A56                     l9664:	
  6443                           ;Beverage_services.c: 450: _DISABLE_MODE=_Tea_Dication_Time;
  6444  0A56  3007               	movlw	(07h)
  6445  0A57  1283               	bcf	status, 5	;RP0=0, select bank0
  6446  0A58  1303               	bcf	status, 6	;RP1=0, select bank0
  6447  0A59  00DC               	movwf	(??_enable_valves+0)+0
  6448  0A5A  085C               	movf	(??_enable_valves+0)+0,w
  6449  0A5B  00B7               	movwf	(__DISABLE_MODE)
  6450                           	line	451
  6451                           	
  6452  0A5C                     l9666:	
  6453                           ;Beverage_services.c: 451: _ENABLE_MODE=_Coffee_Dication_Time;
  6454  0A5C  3006               	movlw	(06h)
  6455  0A5D  00DC               	movwf	(??_enable_valves+0)+0
  6456  0A5E  085C               	movf	(??_enable_valves+0)+0,w
  6457  0A5F  00B8               	movwf	(__ENABLE_MODE)
  6458                           	line	452
  6459                           ;Beverage_services.c: 452: break;
  6460  0A60  2A85               	goto	l9678
  6461                           	line	453
  6462                           ;Beverage_services.c: 453: case _MENU_BUTTON: eeprom_write(119,time);
  6463                           	
  6464  0A61                     l3238:	
  6465                           	
  6466  0A61                     l9668:	
  6467  0A61  0833               	movf	(_time),w
  6468  0A62  00DC               	movwf	(??_enable_valves+0)+0
  6469  0A63  085C               	movf	(??_enable_valves+0)+0,w
  6470  0A64  00F6               	movwf	(?_eeprom_write)
  6471  0A65  3077               	movlw	(077h)
  6472  0A66  160A  158A  21FD   	fcall	_eeprom_write
              120A  158A         
  6473                           	line	454
  6474                           	
  6475  0A6B                     l9670:	
  6476                           ;Beverage_services.c: 454: _DISABLE_MODE=_Tea_Dication_Time;
  6477  0A6B  3007               	movlw	(07h)
  6478  0A6C  1283               	bcf	status, 5	;RP0=0, select bank0
  6479  0A6D  1303               	bcf	status, 6	;RP1=0, select bank0
  6480  0A6E  00DC               	movwf	(??_enable_valves+0)+0
  6481  0A6F  085C               	movf	(??_enable_valves+0)+0,w
  6482  0A70  00B7               	movwf	(__DISABLE_MODE)
  6483                           	line	455
  6484                           	
  6485  0A71                     l9672:	
  6486                           ;Beverage_services.c: 455: _ENABLE_MODE=_Dication_Delay;
  6487  0A71  3008               	movlw	(08h)
  6488  0A72  00DC               	movwf	(??_enable_valves+0)+0
  6489  0A73  085C               	movf	(??_enable_valves+0)+0,w
  6490  0A74  00B8               	movwf	(__ENABLE_MODE)
  6491                           	line	456
  6492                           ;Beverage_services.c: 456: break;
  6493  0A75  2A85               	goto	l9678
  6494                           	line	457
  6495                           	
  6496  0A76                     l9674:	
  6497                           ;Beverage_services.c: 457: }
  6498  0A76  2A85               	goto	l9678
  6499                           	line	440
  6500                           	
  6501  0A77                     l3232:	
  6502                           	
  6503  0A77                     l9676:	
  6504  0A77  083B               	movf	(__PRESSED),w
  6505                           	; Switch size 1, requested type "space"
  6506                           ; Number of cases is 4, Range of values is 7 to 10
  6507                           ; switch strategies available:
  6508                           ; Name         Instructions Cycles
  6509                           ; simple_byte           13     7 (average)
  6510                           ; direct_byte           23    11 (fixed)
  6511                           ; jumptable            263     9 (fixed)
  6512                           ;	Chosen strategy is simple_byte
  6513                           
  6514                           	opt asmopt_off
  6515  0A78  3A07               	xorlw	7^0	; case 7
  6516  0A79  1903               	skipnz
  6517  0A7A  2A37               	goto	l9656
  6518  0A7B  3A0F               	xorlw	8^7	; case 8
  6519  0A7C  1903               	skipnz
  6520  0A7D  2A4C               	goto	l9662
  6521  0A7E  3A01               	xorlw	9^8	; case 9
  6522  0A7F  1903               	skipnz
  6523  0A80  2A45               	goto	l9660
  6524  0A81  3A03               	xorlw	10^9	; case 10
  6525  0A82  1903               	skipnz
  6526  0A83  2A61               	goto	l9668
  6527  0A84  2A85               	goto	l9678
  6528                           	opt asmopt_on
  6529                           
  6530                           	line	457
  6531                           	
  6532  0A85                     l3235:	
  6533                           	line	458
  6534                           	
  6535  0A85                     l9678:	
  6536                           ;Beverage_services.c: 458: if(_PRESSED && (_PRESSED!=_MENU_BUTTON) && (_PRESSED!=_EXTRA_
                                 BUTTON))
  6537  0A85  083B               	movf	(__PRESSED),w
  6538  0A86  1D03               	skipz
  6539  0A87  2A89               	goto	u6470
  6540  0A88  2AAE               	goto	l9688
  6541  0A89                     u6470:
  6542                           	
  6543  0A89                     l9680:	
  6544  0A89  083B               	movf	(__PRESSED),w
  6545  0A8A  3A0A               	xorlw	0Ah
  6546  0A8B  1903               	skipnz
  6547  0A8C  2A8E               	goto	u6481
  6548  0A8D  2A8F               	goto	u6480
  6549  0A8E                     u6481:
  6550  0A8E  2AAE               	goto	l9688
  6551  0A8F                     u6480:
  6552                           	
  6553  0A8F                     l9682:	
  6554  0A8F  083B               	movf	(__PRESSED),w
  6555  0A90  3A08               	xorlw	08h
  6556  0A91  1903               	skipnz
  6557  0A92  2A94               	goto	u6491
  6558  0A93  2A95               	goto	u6490
  6559  0A94                     u6491:
  6560  0A94  2AAE               	goto	l9688
  6561  0A95                     u6490:
  6562                           	line	460
  6563                           	
  6564  0A95                     l9684:	
  6565                           ;Beverage_services.c: 459: {
  6566                           ;Beverage_services.c: 460: Lcd_Cmd(0xC8);
  6567  0A95  30C8               	movlw	(0C8h)
  6568  0A96  160A  158A  229B   	fcall	_Lcd_Cmd
              120A  158A         
  6569                           	line	461
  6570                           	
  6571  0A9B                     l9686:	
  6572                           ;Beverage_services.c: 461: Num_Disp(time,3,0);
  6573  0A9B  1283               	bcf	status, 5	;RP0=0, select bank0
  6574  0A9C  1303               	bcf	status, 6	;RP1=0, select bank0
  6575  0A9D  0834               	movf	(_time+1),w
  6576  0A9E  01D1               	clrf	(?_Num_Disp+1)
  6577  0A9F  07D1               	addwf	(?_Num_Disp+1)
  6578  0AA0  0833               	movf	(_time),w
  6579  0AA1  01D0               	clrf	(?_Num_Disp)
  6580  0AA2  07D0               	addwf	(?_Num_Disp)
  6581                           
  6582  0AA3  3003               	movlw	(03h)
  6583  0AA4  00DC               	movwf	(??_enable_valves+0)+0
  6584  0AA5  085C               	movf	(??_enable_valves+0)+0,w
  6585  0AA6  00D2               	movwf	0+(?_Num_Disp)+02h
  6586  0AA7  01D3               	clrf	0+(?_Num_Disp)+03h
  6587  0AA8  160A  158A  26F5   	fcall	_Num_Disp
              120A  158A         
  6588  0AAD  2AAE               	goto	l9688
  6589                           	line	462
  6590                           	
  6591  0AAE                     l3239:	
  6592                           	line	463
  6593                           	
  6594  0AAE                     l9688:	
  6595                           ;Beverage_services.c: 462: }
  6596                           ;Beverage_services.c: 463: DelayMs(20);
  6597  0AAE  3014               	movlw	low(014h)
  6598  0AAF  00FC               	movwf	(?_DelayMs)
  6599  0AB0  3000               	movlw	high(014h)
  6600  0AB1  00FD               	movwf	((?_DelayMs))+1
  6601  0AB2  160A  158A  217A   	fcall	_DelayMs
              120A  158A         
  6602  0AB7  2AB8               	goto	l9690
  6603                           	line	464
  6604                           	
  6605  0AB8                     l3231:	
  6606                           	line	465
  6607                           	
  6608  0AB8                     l9690:	
  6609                           ;Beverage_services.c: 464: }
  6610                           ;Beverage_services.c: 465: if(Enable_Dication_Delay)
  6611  0AB8  1283               	bcf	status, 5	;RP0=0, select bank0
  6612  0AB9  1303               	bcf	status, 6	;RP1=0, select bank0
  6613  0ABA  1F6B               	btfss	(_Enable_Dication_Delay/8),(_Enable_Dication_Delay)&7
  6614  0ABB  2ABD               	goto	u6501
  6615  0ABC  2ABE               	goto	u6500
  6616  0ABD                     u6501:
  6617  0ABD  2B4E               	goto	l9728
  6618  0ABE                     u6500:
  6619  0ABE  2B0B               	goto	l9714
  6620                           	line	467
  6621                           	
  6622  0ABF                     l9692:	
  6623                           ;Beverage_services.c: 466: {
  6624                           ;Beverage_services.c: 467: switch(_PRESSED)
  6625  0ABF  2B0B               	goto	l9714
  6626                           	line	469
  6627                           ;Beverage_services.c: 468: {
  6628                           ;Beverage_services.c: 469: case _MILK_BUTTON: if(time>0)
  6629                           	
  6630  0AC0                     l3242:	
  6631                           	
  6632  0AC0                     l9694:	
  6633  0AC0  0834               	movf	(_time+1),w
  6634  0AC1  0433               	iorwf	(_time),w
  6635  0AC2  1903               	skipnz
  6636  0AC3  2AC5               	goto	u6511
  6637  0AC4  2AC6               	goto	u6510
  6638  0AC5                     u6511:
  6639  0AC5  2B19               	goto	l9716
  6640  0AC6                     u6510:
  6641                           	line	471
  6642                           	
  6643  0AC6                     l9696:	
  6644                           ;Beverage_services.c: 470: {
  6645                           ;Beverage_services.c: 471: time--;
  6646  0AC6  3001               	movlw	low(01h)
  6647  0AC7  02B3               	subwf	(_time),f
  6648  0AC8  3000               	movlw	high(01h)
  6649  0AC9  1C03               	skipc
  6650  0ACA  03B4               	decf	(_time+1),f
  6651  0ACB  02B4               	subwf	(_time+1),f
  6652  0ACC  2B19               	goto	l9716
  6653                           	line	472
  6654                           	
  6655  0ACD                     l3243:	
  6656                           	line	473
  6657                           ;Beverage_services.c: 472: }
  6658                           ;Beverage_services.c: 473: break;
  6659  0ACD  2B19               	goto	l9716
  6660                           	line	474
  6661                           ;Beverage_services.c: 474: case _HOT_WATER_BUTTON: time++;
  6662                           	
  6663  0ACE                     l3245:	
  6664                           	
  6665  0ACE                     l9698:	
  6666  0ACE  3001               	movlw	low(01h)
  6667  0ACF  07B3               	addwf	(_time),f
  6668  0AD0  1803               	skipnc
  6669  0AD1  0AB4               	incf	(_time+1),f
  6670  0AD2  3000               	movlw	high(01h)
  6671  0AD3  07B4               	addwf	(_time+1),f
  6672                           	line	475
  6673                           ;Beverage_services.c: 475: break;
  6674  0AD4  2B19               	goto	l9716
  6675                           	line	476
  6676                           ;Beverage_services.c: 476: case _EXTRA_BUTTON: eeprom_write(121,time);
  6677                           	
  6678  0AD5                     l3246:	
  6679                           	
  6680  0AD5                     l9700:	
  6681  0AD5  0833               	movf	(_time),w
  6682  0AD6  00DC               	movwf	(??_enable_valves+0)+0
  6683  0AD7  085C               	movf	(??_enable_valves+0)+0,w
  6684  0AD8  00F6               	movwf	(?_eeprom_write)
  6685  0AD9  3079               	movlw	(079h)
  6686  0ADA  160A  158A  21FD   	fcall	_eeprom_write
              120A  158A         
  6687                           	line	477
  6688                           	
  6689  0ADF                     l9702:	
  6690                           ;Beverage_services.c: 477: _DISABLE_MODE=_Dication_Delay;
  6691  0ADF  3008               	movlw	(08h)
  6692  0AE0  1283               	bcf	status, 5	;RP0=0, select bank0
  6693  0AE1  1303               	bcf	status, 6	;RP1=0, select bank0
  6694  0AE2  00DC               	movwf	(??_enable_valves+0)+0
  6695  0AE3  085C               	movf	(??_enable_valves+0)+0,w
  6696  0AE4  00B7               	movwf	(__DISABLE_MODE)
  6697                           	line	478
  6698                           	
  6699  0AE5                     l9704:	
  6700                           ;Beverage_services.c: 478: _ENABLE_MODE=_Tea_Dication_Time;
  6701  0AE5  3007               	movlw	(07h)
  6702  0AE6  00DC               	movwf	(??_enable_valves+0)+0
  6703  0AE7  085C               	movf	(??_enable_valves+0)+0,w
  6704  0AE8  00B8               	movwf	(__ENABLE_MODE)
  6705                           	line	479
  6706                           ;Beverage_services.c: 479: DelayMs(100);
  6707  0AE9  3064               	movlw	low(064h)
  6708  0AEA  00FC               	movwf	(?_DelayMs)
  6709  0AEB  3000               	movlw	high(064h)
  6710  0AEC  00FD               	movwf	((?_DelayMs))+1
  6711  0AED  160A  158A  217A   	fcall	_DelayMs
              120A  158A         
  6712                           	line	480
  6713                           ;Beverage_services.c: 480: break;
  6714  0AF2  2B19               	goto	l9716
  6715                           	line	481
  6716                           ;Beverage_services.c: 481: case _MENU_BUTTON: eeprom_write(121,time);
  6717                           	
  6718  0AF3                     l3247:	
  6719                           	
  6720  0AF3                     l9706:	
  6721  0AF3  1283               	bcf	status, 5	;RP0=0, select bank0
  6722  0AF4  1303               	bcf	status, 6	;RP1=0, select bank0
  6723  0AF5  0833               	movf	(_time),w
  6724  0AF6  00DC               	movwf	(??_enable_valves+0)+0
  6725  0AF7  085C               	movf	(??_enable_valves+0)+0,w
  6726  0AF8  00F6               	movwf	(?_eeprom_write)
  6727  0AF9  3079               	movlw	(079h)
  6728  0AFA  160A  158A  21FD   	fcall	_eeprom_write
              120A  158A         
  6729                           	line	482
  6730                           	
  6731  0AFF                     l9708:	
  6732                           ;Beverage_services.c: 482: _DISABLE_MODE=_Dication_Delay;
  6733  0AFF  3008               	movlw	(08h)
  6734  0B00  1283               	bcf	status, 5	;RP0=0, select bank0
  6735  0B01  1303               	bcf	status, 6	;RP1=0, select bank0
  6736  0B02  00DC               	movwf	(??_enable_valves+0)+0
  6737  0B03  085C               	movf	(??_enable_valves+0)+0,w
  6738  0B04  00B7               	movwf	(__DISABLE_MODE)
  6739                           	line	483
  6740                           	
  6741  0B05                     l9710:	
  6742                           ;Beverage_services.c: 483: _ENABLE_MODE=_Hot_Water_Time;
  6743  0B05  3009               	movlw	(09h)
  6744  0B06  00DC               	movwf	(??_enable_valves+0)+0
  6745  0B07  085C               	movf	(??_enable_valves+0)+0,w
  6746  0B08  00B8               	movwf	(__ENABLE_MODE)
  6747                           	line	484
  6748                           ;Beverage_services.c: 484: break;
  6749  0B09  2B19               	goto	l9716
  6750                           	line	485
  6751                           	
  6752  0B0A                     l9712:	
  6753                           ;Beverage_services.c: 485: }
  6754  0B0A  2B19               	goto	l9716
  6755                           	line	467
  6756                           	
  6757  0B0B                     l3241:	
  6758                           	
  6759  0B0B                     l9714:	
  6760  0B0B  083B               	movf	(__PRESSED),w
  6761                           	; Switch size 1, requested type "space"
  6762                           ; Number of cases is 4, Range of values is 7 to 10
  6763                           ; switch strategies available:
  6764                           ; Name         Instructions Cycles
  6765                           ; simple_byte           13     7 (average)
  6766                           ; direct_byte           23    11 (fixed)
  6767                           ; jumptable            263     9 (fixed)
  6768                           ;	Chosen strategy is simple_byte
  6769                           
  6770                           	opt asmopt_off
  6771  0B0C  3A07               	xorlw	7^0	; case 7
  6772  0B0D  1903               	skipnz
  6773  0B0E  2AC0               	goto	l9694
  6774  0B0F  3A0F               	xorlw	8^7	; case 8
  6775  0B10  1903               	skipnz
  6776  0B11  2AD5               	goto	l9700
  6777  0B12  3A01               	xorlw	9^8	; case 9
  6778  0B13  1903               	skipnz
  6779  0B14  2ACE               	goto	l9698
  6780  0B15  3A03               	xorlw	10^9	; case 10
  6781  0B16  1903               	skipnz
  6782  0B17  2AF3               	goto	l9706
  6783  0B18  2B19               	goto	l9716
  6784                           	opt asmopt_on
  6785                           
  6786                           	line	485
  6787                           	
  6788  0B19                     l3244:	
  6789                           	line	486
  6790                           	
  6791  0B19                     l9716:	
  6792                           ;Beverage_services.c: 486: if(_PRESSED && (_PRESSED!=_MENU_BUTTON) && (_PRESSED!=_EXTRA_
                                 BUTTON))
  6793  0B19  1283               	bcf	status, 5	;RP0=0, select bank0
  6794  0B1A  1303               	bcf	status, 6	;RP1=0, select bank0
  6795  0B1B  083B               	movf	(__PRESSED),w
  6796  0B1C  1D03               	skipz
  6797  0B1D  2B1F               	goto	u6520
  6798  0B1E  2B44               	goto	l9726
  6799  0B1F                     u6520:
  6800                           	
  6801  0B1F                     l9718:	
  6802  0B1F  083B               	movf	(__PRESSED),w
  6803  0B20  3A0A               	xorlw	0Ah
  6804  0B21  1903               	skipnz
  6805  0B22  2B24               	goto	u6531
  6806  0B23  2B25               	goto	u6530
  6807  0B24                     u6531:
  6808  0B24  2B44               	goto	l9726
  6809  0B25                     u6530:
  6810                           	
  6811  0B25                     l9720:	
  6812  0B25  083B               	movf	(__PRESSED),w
  6813  0B26  3A08               	xorlw	08h
  6814  0B27  1903               	skipnz
  6815  0B28  2B2A               	goto	u6541
  6816  0B29  2B2B               	goto	u6540
  6817  0B2A                     u6541:
  6818  0B2A  2B44               	goto	l9726
  6819  0B2B                     u6540:
  6820                           	line	488
  6821                           	
  6822  0B2B                     l9722:	
  6823                           ;Beverage_services.c: 487: {
  6824                           ;Beverage_services.c: 488: Lcd_Cmd(0xC8);
  6825  0B2B  30C8               	movlw	(0C8h)
  6826  0B2C  160A  158A  229B   	fcall	_Lcd_Cmd
              120A  158A         
  6827                           	line	489
  6828                           	
  6829  0B31                     l9724:	
  6830                           ;Beverage_services.c: 489: Num_Disp(time,3,0);
  6831  0B31  1283               	bcf	status, 5	;RP0=0, select bank0
  6832  0B32  1303               	bcf	status, 6	;RP1=0, select bank0
  6833  0B33  0834               	movf	(_time+1),w
  6834  0B34  01D1               	clrf	(?_Num_Disp+1)
  6835  0B35  07D1               	addwf	(?_Num_Disp+1)
  6836  0B36  0833               	movf	(_time),w
  6837  0B37  01D0               	clrf	(?_Num_Disp)
  6838  0B38  07D0               	addwf	(?_Num_Disp)
  6839                           
  6840  0B39  3003               	movlw	(03h)
  6841  0B3A  00DC               	movwf	(??_enable_valves+0)+0
  6842  0B3B  085C               	movf	(??_enable_valves+0)+0,w
  6843  0B3C  00D2               	movwf	0+(?_Num_Disp)+02h
  6844  0B3D  01D3               	clrf	0+(?_Num_Disp)+03h
  6845  0B3E  160A  158A  26F5   	fcall	_Num_Disp
              120A  158A         
  6846  0B43  2B44               	goto	l9726
  6847                           	line	490
  6848                           	
  6849  0B44                     l3248:	
  6850                           	line	491
  6851                           	
  6852  0B44                     l9726:	
  6853                           ;Beverage_services.c: 490: }
  6854                           ;Beverage_services.c: 491: DelayMs(10);
  6855  0B44  300A               	movlw	low(0Ah)
  6856  0B45  00FC               	movwf	(?_DelayMs)
  6857  0B46  3000               	movlw	high(0Ah)
  6858  0B47  00FD               	movwf	((?_DelayMs))+1
  6859  0B48  160A  158A  217A   	fcall	_DelayMs
              120A  158A         
  6860  0B4D  2B4E               	goto	l9728
  6861                           	line	492
  6862                           	
  6863  0B4E                     l3240:	
  6864                           	line	493
  6865                           	
  6866  0B4E                     l9728:	
  6867                           ;Beverage_services.c: 492: }
  6868                           ;Beverage_services.c: 493: if(Enable_Hot_Water_Time)
  6869  0B4E  1283               	bcf	status, 5	;RP0=0, select bank0
  6870  0B4F  1303               	bcf	status, 6	;RP1=0, select bank0
  6871  0B50  1CEC               	btfss	(_Enable_Hot_Water_Time/8),(_Enable_Hot_Water_Time)&7
  6872  0B51  2B53               	goto	u6551
  6873  0B52  2B54               	goto	u6550
  6874  0B53                     u6551:
  6875  0B53  2BE4               	goto	l9766
  6876  0B54                     u6550:
  6877  0B54  2BA1               	goto	l9752
  6878                           	line	495
  6879                           	
  6880  0B55                     l9730:	
  6881                           ;Beverage_services.c: 494: {
  6882                           ;Beverage_services.c: 495: switch(_PRESSED)
  6883  0B55  2BA1               	goto	l9752
  6884                           	line	497
  6885                           ;Beverage_services.c: 496: {
  6886                           ;Beverage_services.c: 497: case _MILK_BUTTON: if(time>0)
  6887                           	
  6888  0B56                     l3251:	
  6889                           	
  6890  0B56                     l9732:	
  6891  0B56  0834               	movf	(_time+1),w
  6892  0B57  0433               	iorwf	(_time),w
  6893  0B58  1903               	skipnz
  6894  0B59  2B5B               	goto	u6561
  6895  0B5A  2B5C               	goto	u6560
  6896  0B5B                     u6561:
  6897  0B5B  2BAF               	goto	l9754
  6898  0B5C                     u6560:
  6899                           	line	499
  6900                           	
  6901  0B5C                     l9734:	
  6902                           ;Beverage_services.c: 498: {
  6903                           ;Beverage_services.c: 499: time--;
  6904  0B5C  3001               	movlw	low(01h)
  6905  0B5D  02B3               	subwf	(_time),f
  6906  0B5E  3000               	movlw	high(01h)
  6907  0B5F  1C03               	skipc
  6908  0B60  03B4               	decf	(_time+1),f
  6909  0B61  02B4               	subwf	(_time+1),f
  6910  0B62  2BAF               	goto	l9754
  6911                           	line	500
  6912                           	
  6913  0B63                     l3252:	
  6914                           	line	501
  6915                           ;Beverage_services.c: 500: }
  6916                           ;Beverage_services.c: 501: break;
  6917  0B63  2BAF               	goto	l9754
  6918                           	line	502
  6919                           ;Beverage_services.c: 502: case _HOT_WATER_BUTTON: time++;
  6920                           	
  6921  0B64                     l3254:	
  6922                           	
  6923  0B64                     l9736:	
  6924  0B64  3001               	movlw	low(01h)
  6925  0B65  07B3               	addwf	(_time),f
  6926  0B66  1803               	skipnc
  6927  0B67  0AB4               	incf	(_time+1),f
  6928  0B68  3000               	movlw	high(01h)
  6929  0B69  07B4               	addwf	(_time+1),f
  6930                           	line	503
  6931                           ;Beverage_services.c: 503: break;
  6932  0B6A  2BAF               	goto	l9754
  6933                           	line	504
  6934                           ;Beverage_services.c: 504: case _EXTRA_BUTTON: eeprom_write(147,time);
  6935                           	
  6936  0B6B                     l3255:	
  6937                           	
  6938  0B6B                     l9738:	
  6939  0B6B  0833               	movf	(_time),w
  6940  0B6C  00DC               	movwf	(??_enable_valves+0)+0
  6941  0B6D  085C               	movf	(??_enable_valves+0)+0,w
  6942  0B6E  00F6               	movwf	(?_eeprom_write)
  6943  0B6F  3093               	movlw	(093h)
  6944  0B70  160A  158A  21FD   	fcall	_eeprom_write
              120A  158A         
  6945                           	line	505
  6946                           	
  6947  0B75                     l9740:	
  6948                           ;Beverage_services.c: 505: _DISABLE_MODE=_Hot_Water_Time;
  6949  0B75  3009               	movlw	(09h)
  6950  0B76  1283               	bcf	status, 5	;RP0=0, select bank0
  6951  0B77  1303               	bcf	status, 6	;RP1=0, select bank0
  6952  0B78  00DC               	movwf	(??_enable_valves+0)+0
  6953  0B79  085C               	movf	(??_enable_valves+0)+0,w
  6954  0B7A  00B7               	movwf	(__DISABLE_MODE)
  6955                           	line	506
  6956                           	
  6957  0B7B                     l9742:	
  6958                           ;Beverage_services.c: 506: _ENABLE_MODE=_Dication_Delay;
  6959  0B7B  3008               	movlw	(08h)
  6960  0B7C  00DC               	movwf	(??_enable_valves+0)+0
  6961  0B7D  085C               	movf	(??_enable_valves+0)+0,w
  6962  0B7E  00B8               	movwf	(__ENABLE_MODE)
  6963                           	line	507
  6964                           ;Beverage_services.c: 507: DelayMs(100);
  6965  0B7F  3064               	movlw	low(064h)
  6966  0B80  00FC               	movwf	(?_DelayMs)
  6967  0B81  3000               	movlw	high(064h)
  6968  0B82  00FD               	movwf	((?_DelayMs))+1
  6969  0B83  160A  158A  217A   	fcall	_DelayMs
              120A  158A         
  6970                           	line	508
  6971                           ;Beverage_services.c: 508: break;
  6972  0B88  2BAF               	goto	l9754
  6973                           	line	509
  6974                           ;Beverage_services.c: 509: case _MENU_BUTTON: eeprom_write(147,time);
  6975                           	
  6976  0B89                     l3256:	
  6977                           	
  6978  0B89                     l9744:	
  6979  0B89  1283               	bcf	status, 5	;RP0=0, select bank0
  6980  0B8A  1303               	bcf	status, 6	;RP1=0, select bank0
  6981  0B8B  0833               	movf	(_time),w
  6982  0B8C  00DC               	movwf	(??_enable_valves+0)+0
  6983  0B8D  085C               	movf	(??_enable_valves+0)+0,w
  6984  0B8E  00F6               	movwf	(?_eeprom_write)
  6985  0B8F  3093               	movlw	(093h)
  6986  0B90  160A  158A  21FD   	fcall	_eeprom_write
              120A  158A         
  6987                           	line	510
  6988                           	
  6989  0B95                     l9746:	
  6990                           ;Beverage_services.c: 510: _DISABLE_MODE=_Hot_Water_Time;
  6991  0B95  3009               	movlw	(09h)
  6992  0B96  1283               	bcf	status, 5	;RP0=0, select bank0
  6993  0B97  1303               	bcf	status, 6	;RP1=0, select bank0
  6994  0B98  00DC               	movwf	(??_enable_valves+0)+0
  6995  0B99  085C               	movf	(??_enable_valves+0)+0,w
  6996  0B9A  00B7               	movwf	(__DISABLE_MODE)
  6997                           	line	511
  6998                           	
  6999  0B9B                     l9748:	
  7000                           ;Beverage_services.c: 511: _ENABLE_MODE=_Temperature;
  7001  0B9B  300B               	movlw	(0Bh)
  7002  0B9C  00DC               	movwf	(??_enable_valves+0)+0
  7003  0B9D  085C               	movf	(??_enable_valves+0)+0,w
  7004  0B9E  00B8               	movwf	(__ENABLE_MODE)
  7005                           	line	512
  7006                           ;Beverage_services.c: 512: break;
  7007  0B9F  2BAF               	goto	l9754
  7008                           	line	513
  7009                           	
  7010  0BA0                     l9750:	
  7011                           ;Beverage_services.c: 513: }
  7012  0BA0  2BAF               	goto	l9754
  7013                           	line	495
  7014                           	
  7015  0BA1                     l3250:	
  7016                           	
  7017  0BA1                     l9752:	
  7018  0BA1  083B               	movf	(__PRESSED),w
  7019                           	; Switch size 1, requested type "space"
  7020                           ; Number of cases is 4, Range of values is 7 to 10
  7021                           ; switch strategies available:
  7022                           ; Name         Instructions Cycles
  7023                           ; simple_byte           13     7 (average)
  7024                           ; direct_byte           23    11 (fixed)
  7025                           ; jumptable            263     9 (fixed)
  7026                           ;	Chosen strategy is simple_byte
  7027                           
  7028                           	opt asmopt_off
  7029  0BA2  3A07               	xorlw	7^0	; case 7
  7030  0BA3  1903               	skipnz
  7031  0BA4  2B56               	goto	l9732
  7032  0BA5  3A0F               	xorlw	8^7	; case 8
  7033  0BA6  1903               	skipnz
  7034  0BA7  2B6B               	goto	l9738
  7035  0BA8  3A01               	xorlw	9^8	; case 9
  7036  0BA9  1903               	skipnz
  7037  0BAA  2B64               	goto	l9736
  7038  0BAB  3A03               	xorlw	10^9	; case 10
  7039  0BAC  1903               	skipnz
  7040  0BAD  2B89               	goto	l9744
  7041  0BAE  2BAF               	goto	l9754
  7042                           	opt asmopt_on
  7043                           
  7044                           	line	513
  7045                           	
  7046  0BAF                     l3253:	
  7047                           	line	514
  7048                           	
  7049  0BAF                     l9754:	
  7050                           ;Beverage_services.c: 514: if(_PRESSED && (_PRESSED!=_MENU_BUTTON) && (_PRESSED!=_EXTRA_
                                 BUTTON))
  7051  0BAF  1283               	bcf	status, 5	;RP0=0, select bank0
  7052  0BB0  1303               	bcf	status, 6	;RP1=0, select bank0
  7053  0BB1  083B               	movf	(__PRESSED),w
  7054  0BB2  1D03               	skipz
  7055  0BB3  2BB5               	goto	u6570
  7056  0BB4  2BDA               	goto	l9764
  7057  0BB5                     u6570:
  7058                           	
  7059  0BB5                     l9756:	
  7060  0BB5  083B               	movf	(__PRESSED),w
  7061  0BB6  3A0A               	xorlw	0Ah
  7062  0BB7  1903               	skipnz
  7063  0BB8  2BBA               	goto	u6581
  7064  0BB9  2BBB               	goto	u6580
  7065  0BBA                     u6581:
  7066  0BBA  2BDA               	goto	l9764
  7067  0BBB                     u6580:
  7068                           	
  7069  0BBB                     l9758:	
  7070  0BBB  083B               	movf	(__PRESSED),w
  7071  0BBC  3A08               	xorlw	08h
  7072  0BBD  1903               	skipnz
  7073  0BBE  2BC0               	goto	u6591
  7074  0BBF  2BC1               	goto	u6590
  7075  0BC0                     u6591:
  7076  0BC0  2BDA               	goto	l9764
  7077  0BC1                     u6590:
  7078                           	line	516
  7079                           	
  7080  0BC1                     l9760:	
  7081                           ;Beverage_services.c: 515: {
  7082                           ;Beverage_services.c: 516: Lcd_Cmd(0xC8);
  7083  0BC1  30C8               	movlw	(0C8h)
  7084  0BC2  160A  158A  229B   	fcall	_Lcd_Cmd
              120A  158A         
  7085                           	line	517
  7086                           	
  7087  0BC7                     l9762:	
  7088                           ;Beverage_services.c: 517: Num_Disp(time,3,0);
  7089  0BC7  1283               	bcf	status, 5	;RP0=0, select bank0
  7090  0BC8  1303               	bcf	status, 6	;RP1=0, select bank0
  7091  0BC9  0834               	movf	(_time+1),w
  7092  0BCA  01D1               	clrf	(?_Num_Disp+1)
  7093  0BCB  07D1               	addwf	(?_Num_Disp+1)
  7094  0BCC  0833               	movf	(_time),w
  7095  0BCD  01D0               	clrf	(?_Num_Disp)
  7096  0BCE  07D0               	addwf	(?_Num_Disp)
  7097                           
  7098  0BCF  3003               	movlw	(03h)
  7099  0BD0  00DC               	movwf	(??_enable_valves+0)+0
  7100  0BD1  085C               	movf	(??_enable_valves+0)+0,w
  7101  0BD2  00D2               	movwf	0+(?_Num_Disp)+02h
  7102  0BD3  01D3               	clrf	0+(?_Num_Disp)+03h
  7103  0BD4  160A  158A  26F5   	fcall	_Num_Disp
              120A  158A         
  7104  0BD9  2BDA               	goto	l9764
  7105                           	line	518
  7106                           	
  7107  0BDA                     l3257:	
  7108                           	line	519
  7109                           	
  7110  0BDA                     l9764:	
  7111                           ;Beverage_services.c: 518: }
  7112                           ;Beverage_services.c: 519: DelayMs(10);
  7113  0BDA  300A               	movlw	low(0Ah)
  7114  0BDB  00FC               	movwf	(?_DelayMs)
  7115  0BDC  3000               	movlw	high(0Ah)
  7116  0BDD  00FD               	movwf	((?_DelayMs))+1
  7117  0BDE  160A  158A  217A   	fcall	_DelayMs
              120A  158A         
  7118  0BE3  2BE4               	goto	l9766
  7119                           	line	520
  7120                           	
  7121  0BE4                     l3249:	
  7122                           	line	521
  7123                           	
  7124  0BE4                     l9766:	
  7125                           ;Beverage_services.c: 520: }
  7126                           ;Beverage_services.c: 521: if(Enable_Temperature)
  7127  0BE4  1283               	bcf	status, 5	;RP0=0, select bank0
  7128  0BE5  1303               	bcf	status, 6	;RP1=0, select bank0
  7129  0BE6  1F6D               	btfss	(_Enable_Temperature/8),(_Enable_Temperature)&7
  7130  0BE7  2BE9               	goto	u6601
  7131  0BE8  2BEA               	goto	u6600
  7132  0BE9                     u6601:
  7133  0BE9  2C70               	goto	l9804
  7134  0BEA                     u6600:
  7135  0BEA  2C2F               	goto	l9790
  7136                           	line	523
  7137                           	
  7138  0BEB                     l9768:	
  7139                           ;Beverage_services.c: 522: {
  7140                           ;Beverage_services.c: 523: switch(_PRESSED)
  7141  0BEB  2C2F               	goto	l9790
  7142                           	line	525
  7143                           ;Beverage_services.c: 524: {
  7144                           ;Beverage_services.c: 525: case _MILK_BUTTON: if(time>20)
  7145                           	
  7146  0BEC                     l3260:	
  7147                           	
  7148  0BEC                     l9770:	
  7149  0BEC  3000               	movlw	high(015h)
  7150  0BED  0234               	subwf	(_time+1),w
  7151  0BEE  3015               	movlw	low(015h)
  7152  0BEF  1903               	skipnz
  7153  0BF0  0233               	subwf	(_time),w
  7154  0BF1  1C03               	skipc
  7155  0BF2  2BF4               	goto	u6611
  7156  0BF3  2BF5               	goto	u6610
  7157  0BF4                     u6611:
  7158  0BF4  2C3D               	goto	l9792
  7159  0BF5                     u6610:
  7160                           	line	527
  7161                           	
  7162  0BF5                     l9772:	
  7163                           ;Beverage_services.c: 526: {
  7164                           ;Beverage_services.c: 527: time--;
  7165  0BF5  3001               	movlw	low(01h)
  7166  0BF6  02B3               	subwf	(_time),f
  7167  0BF7  3000               	movlw	high(01h)
  7168  0BF8  1C03               	skipc
  7169  0BF9  03B4               	decf	(_time+1),f
  7170  0BFA  02B4               	subwf	(_time+1),f
  7171  0BFB  2C3D               	goto	l9792
  7172                           	line	528
  7173                           	
  7174  0BFC                     l3261:	
  7175                           	line	529
  7176                           ;Beverage_services.c: 528: }
  7177                           ;Beverage_services.c: 529: break;
  7178  0BFC  2C3D               	goto	l9792
  7179                           	line	530
  7180                           ;Beverage_services.c: 530: case _HOT_WATER_BUTTON: time++;
  7181                           	
  7182  0BFD                     l3263:	
  7183                           	
  7184  0BFD                     l9774:	
  7185  0BFD  3001               	movlw	low(01h)
  7186  0BFE  07B3               	addwf	(_time),f
  7187  0BFF  1803               	skipnc
  7188  0C00  0AB4               	incf	(_time+1),f
  7189  0C01  3000               	movlw	high(01h)
  7190  0C02  07B4               	addwf	(_time+1),f
  7191                           	line	531
  7192                           ;Beverage_services.c: 531: break;
  7193  0C03  2C3D               	goto	l9792
  7194                           	line	532
  7195                           ;Beverage_services.c: 532: case _EXTRA_BUTTON: eeprom_write(120,time);
  7196                           	
  7197  0C04                     l3264:	
  7198                           	
  7199  0C04                     l9776:	
  7200  0C04  0833               	movf	(_time),w
  7201  0C05  00DC               	movwf	(??_enable_valves+0)+0
  7202  0C06  085C               	movf	(??_enable_valves+0)+0,w
  7203  0C07  00F6               	movwf	(?_eeprom_write)
  7204  0C08  3078               	movlw	(078h)
  7205  0C09  160A  158A  21FD   	fcall	_eeprom_write
              120A  158A         
  7206                           	line	533
  7207                           	
  7208  0C0E                     l9778:	
  7209                           ;Beverage_services.c: 533: _DISABLE_MODE=_Temperature;
  7210  0C0E  300B               	movlw	(0Bh)
  7211  0C0F  1283               	bcf	status, 5	;RP0=0, select bank0
  7212  0C10  1303               	bcf	status, 6	;RP1=0, select bank0
  7213  0C11  00DC               	movwf	(??_enable_valves+0)+0
  7214  0C12  085C               	movf	(??_enable_valves+0)+0,w
  7215  0C13  00B7               	movwf	(__DISABLE_MODE)
  7216                           	line	534
  7217                           	
  7218  0C14                     l9780:	
  7219                           ;Beverage_services.c: 534: _ENABLE_MODE=_Hot_Water_Time;
  7220  0C14  3009               	movlw	(09h)
  7221  0C15  00DC               	movwf	(??_enable_valves+0)+0
  7222  0C16  085C               	movf	(??_enable_valves+0)+0,w
  7223  0C17  00B8               	movwf	(__ENABLE_MODE)
  7224                           	line	535
  7225                           ;Beverage_services.c: 535: break;
  7226  0C18  2C3D               	goto	l9792
  7227                           	line	536
  7228                           ;Beverage_services.c: 536: case _MENU_BUTTON: eeprom_write(120,time);
  7229                           	
  7230  0C19                     l3265:	
  7231                           	
  7232  0C19                     l9782:	
  7233  0C19  0833               	movf	(_time),w
  7234  0C1A  00DC               	movwf	(??_enable_valves+0)+0
  7235  0C1B  085C               	movf	(??_enable_valves+0)+0,w
  7236  0C1C  00F6               	movwf	(?_eeprom_write)
  7237  0C1D  3078               	movlw	(078h)
  7238  0C1E  160A  158A  21FD   	fcall	_eeprom_write
              120A  158A         
  7239                           	line	537
  7240                           	
  7241  0C23                     l9784:	
  7242                           ;Beverage_services.c: 537: _DISABLE_MODE=_Temperature;
  7243  0C23  300B               	movlw	(0Bh)
  7244  0C24  1283               	bcf	status, 5	;RP0=0, select bank0
  7245  0C25  1303               	bcf	status, 6	;RP1=0, select bank0
  7246  0C26  00DC               	movwf	(??_enable_valves+0)+0
  7247  0C27  085C               	movf	(??_enable_valves+0)+0,w
  7248  0C28  00B7               	movwf	(__DISABLE_MODE)
  7249                           	line	538
  7250                           	
  7251  0C29                     l9786:	
  7252                           ;Beverage_services.c: 538: _ENABLE_MODE=_Cup_Count;
  7253  0C29  300C               	movlw	(0Ch)
  7254  0C2A  00DC               	movwf	(??_enable_valves+0)+0
  7255  0C2B  085C               	movf	(??_enable_valves+0)+0,w
  7256  0C2C  00B8               	movwf	(__ENABLE_MODE)
  7257                           	line	539
  7258                           ;Beverage_services.c: 539: break;
  7259  0C2D  2C3D               	goto	l9792
  7260                           	line	540
  7261                           	
  7262  0C2E                     l9788:	
  7263                           ;Beverage_services.c: 540: }
  7264  0C2E  2C3D               	goto	l9792
  7265                           	line	523
  7266                           	
  7267  0C2F                     l3259:	
  7268                           	
  7269  0C2F                     l9790:	
  7270  0C2F  083B               	movf	(__PRESSED),w
  7271                           	; Switch size 1, requested type "space"
  7272                           ; Number of cases is 4, Range of values is 7 to 10
  7273                           ; switch strategies available:
  7274                           ; Name         Instructions Cycles
  7275                           ; simple_byte           13     7 (average)
  7276                           ; direct_byte           23    11 (fixed)
  7277                           ; jumptable            263     9 (fixed)
  7278                           ;	Chosen strategy is simple_byte
  7279                           
  7280                           	opt asmopt_off
  7281  0C30  3A07               	xorlw	7^0	; case 7
  7282  0C31  1903               	skipnz
  7283  0C32  2BEC               	goto	l9770
  7284  0C33  3A0F               	xorlw	8^7	; case 8
  7285  0C34  1903               	skipnz
  7286  0C35  2C04               	goto	l9776
  7287  0C36  3A01               	xorlw	9^8	; case 9
  7288  0C37  1903               	skipnz
  7289  0C38  2BFD               	goto	l9774
  7290  0C39  3A03               	xorlw	10^9	; case 10
  7291  0C3A  1903               	skipnz
  7292  0C3B  2C19               	goto	l9782
  7293  0C3C  2C3D               	goto	l9792
  7294                           	opt asmopt_on
  7295                           
  7296                           	line	540
  7297                           	
  7298  0C3D                     l3262:	
  7299                           	line	541
  7300                           	
  7301  0C3D                     l9792:	
  7302                           ;Beverage_services.c: 541: if(_PRESSED && (_PRESSED!=_MENU_BUTTON) && (_PRESSED!=_EXTRA_
                                 BUTTON))
  7303  0C3D  083B               	movf	(__PRESSED),w
  7304  0C3E  1D03               	skipz
  7305  0C3F  2C41               	goto	u6620
  7306  0C40  2C66               	goto	l9802
  7307  0C41                     u6620:
  7308                           	
  7309  0C41                     l9794:	
  7310  0C41  083B               	movf	(__PRESSED),w
  7311  0C42  3A0A               	xorlw	0Ah
  7312  0C43  1903               	skipnz
  7313  0C44  2C46               	goto	u6631
  7314  0C45  2C47               	goto	u6630
  7315  0C46                     u6631:
  7316  0C46  2C66               	goto	l9802
  7317  0C47                     u6630:
  7318                           	
  7319  0C47                     l9796:	
  7320  0C47  083B               	movf	(__PRESSED),w
  7321  0C48  3A08               	xorlw	08h
  7322  0C49  1903               	skipnz
  7323  0C4A  2C4C               	goto	u6641
  7324  0C4B  2C4D               	goto	u6640
  7325  0C4C                     u6641:
  7326  0C4C  2C66               	goto	l9802
  7327  0C4D                     u6640:
  7328                           	line	543
  7329                           	
  7330  0C4D                     l9798:	
  7331                           ;Beverage_services.c: 542: {
  7332                           ;Beverage_services.c: 543: Lcd_Cmd(0xC8);
  7333  0C4D  30C8               	movlw	(0C8h)
  7334  0C4E  160A  158A  229B   	fcall	_Lcd_Cmd
              120A  158A         
  7335                           	line	544
  7336                           	
  7337  0C53                     l9800:	
  7338                           ;Beverage_services.c: 544: Num_Disp(time,3,0);
  7339  0C53  1283               	bcf	status, 5	;RP0=0, select bank0
  7340  0C54  1303               	bcf	status, 6	;RP1=0, select bank0
  7341  0C55  0834               	movf	(_time+1),w
  7342  0C56  01D1               	clrf	(?_Num_Disp+1)
  7343  0C57  07D1               	addwf	(?_Num_Disp+1)
  7344  0C58  0833               	movf	(_time),w
  7345  0C59  01D0               	clrf	(?_Num_Disp)
  7346  0C5A  07D0               	addwf	(?_Num_Disp)
  7347                           
  7348  0C5B  3003               	movlw	(03h)
  7349  0C5C  00DC               	movwf	(??_enable_valves+0)+0
  7350  0C5D  085C               	movf	(??_enable_valves+0)+0,w
  7351  0C5E  00D2               	movwf	0+(?_Num_Disp)+02h
  7352  0C5F  01D3               	clrf	0+(?_Num_Disp)+03h
  7353  0C60  160A  158A  26F5   	fcall	_Num_Disp
              120A  158A         
  7354  0C65  2C66               	goto	l9802
  7355                           	line	545
  7356                           	
  7357  0C66                     l3266:	
  7358                           	line	546
  7359                           	
  7360  0C66                     l9802:	
  7361                           ;Beverage_services.c: 545: }
  7362                           ;Beverage_services.c: 546: DelayMs(10);
  7363  0C66  300A               	movlw	low(0Ah)
  7364  0C67  00FC               	movwf	(?_DelayMs)
  7365  0C68  3000               	movlw	high(0Ah)
  7366  0C69  00FD               	movwf	((?_DelayMs))+1
  7367  0C6A  160A  158A  217A   	fcall	_DelayMs
              120A  158A         
  7368  0C6F  2C70               	goto	l9804
  7369                           	line	547
  7370                           	
  7371  0C70                     l3258:	
  7372                           	line	548
  7373                           	
  7374  0C70                     l9804:	
  7375                           ;Beverage_services.c: 547: }
  7376                           ;Beverage_services.c: 548: if(Enable_Cup_Count)
  7377  0C70  1283               	bcf	status, 5	;RP0=0, select bank0
  7378  0C71  1303               	bcf	status, 6	;RP1=0, select bank0
  7379  0C72  1EEB               	btfss	(_Enable_Cup_Count/8),(_Enable_Cup_Count)&7
  7380  0C73  2C75               	goto	u6651
  7381  0C74  2C76               	goto	u6650
  7382  0C75                     u6651:
  7383  0C75  2C9D               	goto	l9818
  7384  0C76                     u6650:
  7385  0C76  2C8B               	goto	l9814
  7386                           	line	550
  7387                           	
  7388  0C77                     l9806:	
  7389                           ;Beverage_services.c: 549: {
  7390                           ;Beverage_services.c: 550: switch(_PRESSED)
  7391  0C77  2C8B               	goto	l9814
  7392                           	line	552
  7393                           ;Beverage_services.c: 551: {
  7394                           ;Beverage_services.c: 552: case _EXTRA_BUTTON: _DISABLE_MODE=_Cup_Count;
  7395                           	
  7396  0C78                     l3269:	
  7397                           	
  7398  0C78                     l9808:	
  7399  0C78  300C               	movlw	(0Ch)
  7400  0C79  00DC               	movwf	(??_enable_valves+0)+0
  7401  0C7A  085C               	movf	(??_enable_valves+0)+0,w
  7402  0C7B  00B7               	movwf	(__DISABLE_MODE)
  7403                           	line	553
  7404                           ;Beverage_services.c: 553: _ENABLE_MODE=_Temperature;
  7405  0C7C  300B               	movlw	(0Bh)
  7406  0C7D  00DC               	movwf	(??_enable_valves+0)+0
  7407  0C7E  085C               	movf	(??_enable_valves+0)+0,w
  7408  0C7F  00B8               	movwf	(__ENABLE_MODE)
  7409                           	line	554
  7410                           ;Beverage_services.c: 554: break;
  7411  0C80  2C93               	goto	l9816
  7412                           	line	555
  7413                           ;Beverage_services.c: 555: case _MENU_BUTTON: _DISABLE_MODE=_Cup_Count;
  7414                           	
  7415  0C81                     l3271:	
  7416                           	
  7417  0C81                     l9810:	
  7418  0C81  300C               	movlw	(0Ch)
  7419  0C82  00DC               	movwf	(??_enable_valves+0)+0
  7420  0C83  085C               	movf	(??_enable_valves+0)+0,w
  7421  0C84  00B7               	movwf	(__DISABLE_MODE)
  7422                           	line	556
  7423                           ;Beverage_services.c: 556: _ENABLE_MODE=_Count_Reset;
  7424  0C85  300D               	movlw	(0Dh)
  7425  0C86  00DC               	movwf	(??_enable_valves+0)+0
  7426  0C87  085C               	movf	(??_enable_valves+0)+0,w
  7427  0C88  00B8               	movwf	(__ENABLE_MODE)
  7428                           	line	557
  7429                           ;Beverage_services.c: 557: break;
  7430  0C89  2C93               	goto	l9816
  7431                           	line	558
  7432                           	
  7433  0C8A                     l9812:	
  7434                           ;Beverage_services.c: 558: }
  7435  0C8A  2C93               	goto	l9816
  7436                           	line	550
  7437                           	
  7438  0C8B                     l3268:	
  7439                           	
  7440  0C8B                     l9814:	
  7441  0C8B  083B               	movf	(__PRESSED),w
  7442                           	; Switch size 1, requested type "space"
  7443                           ; Number of cases is 2, Range of values is 8 to 10
  7444                           ; switch strategies available:
  7445                           ; Name         Instructions Cycles
  7446                           ; simple_byte            7     4 (average)
  7447                           ; direct_byte           20    11 (fixed)
  7448                           ; jumptable            263     9 (fixed)
  7449                           ;	Chosen strategy is simple_byte
  7450                           
  7451                           	opt asmopt_off
  7452  0C8C  3A08               	xorlw	8^0	; case 8
  7453  0C8D  1903               	skipnz
  7454  0C8E  2C78               	goto	l9808
  7455  0C8F  3A02               	xorlw	10^8	; case 10
  7456  0C90  1903               	skipnz
  7457  0C91  2C81               	goto	l9810
  7458  0C92  2C93               	goto	l9816
  7459                           	opt asmopt_on
  7460                           
  7461                           	line	558
  7462                           	
  7463  0C93                     l3270:	
  7464                           	line	559
  7465                           	
  7466  0C93                     l9816:	
  7467                           ;Beverage_services.c: 559: DelayMs(10);
  7468  0C93  300A               	movlw	low(0Ah)
  7469  0C94  00FC               	movwf	(?_DelayMs)
  7470  0C95  3000               	movlw	high(0Ah)
  7471  0C96  00FD               	movwf	((?_DelayMs))+1
  7472  0C97  160A  158A  217A   	fcall	_DelayMs
              120A  158A         
  7473  0C9C  2C9D               	goto	l9818
  7474                           	line	560
  7475                           	
  7476  0C9D                     l3267:	
  7477                           	line	561
  7478                           	
  7479  0C9D                     l9818:	
  7480                           ;Beverage_services.c: 560: }
  7481                           ;Beverage_services.c: 561: if(Enable_Count_Reset)
  7482  0C9D  1283               	bcf	status, 5	;RP0=0, select bank0
  7483  0C9E  1303               	bcf	status, 6	;RP1=0, select bank0
  7484  0C9F  1E6B               	btfss	(_Enable_Count_Reset/8),(_Enable_Count_Reset)&7
  7485  0CA0  2CA2               	goto	u6661
  7486  0CA1  2CA3               	goto	u6660
  7487  0CA2                     u6661:
  7488  0CA2  2D45               	goto	l9872
  7489  0CA3                     u6660:
  7490  0CA3  2CF6               	goto	l9848
  7491                           	line	563
  7492                           	
  7493  0CA4                     l9820:	
  7494                           ;Beverage_services.c: 562: {
  7495                           ;Beverage_services.c: 563: switch(_PRESSED)
  7496  0CA4  2CF6               	goto	l9848
  7497                           	line	565
  7498                           ;Beverage_services.c: 564: {
  7499                           ;Beverage_services.c: 565: case _EXTRA_BUTTON: eeprom_write(124,time);
  7500                           	
  7501  0CA5                     l3274:	
  7502                           	
  7503  0CA5                     l9822:	
  7504  0CA5  0833               	movf	(_time),w
  7505  0CA6  00DC               	movwf	(??_enable_valves+0)+0
  7506  0CA7  085C               	movf	(??_enable_valves+0)+0,w
  7507  0CA8  00F6               	movwf	(?_eeprom_write)
  7508  0CA9  307C               	movlw	(07Ch)
  7509  0CAA  160A  158A  21FD   	fcall	_eeprom_write
              120A  158A         
  7510                           	line	566
  7511                           	
  7512  0CAF                     l9824:	
  7513                           ;Beverage_services.c: 566: _DISABLE_MODE=_Count_Reset;
  7514  0CAF  300D               	movlw	(0Dh)
  7515  0CB0  1283               	bcf	status, 5	;RP0=0, select bank0
  7516  0CB1  1303               	bcf	status, 6	;RP1=0, select bank0
  7517  0CB2  00DC               	movwf	(??_enable_valves+0)+0
  7518  0CB3  085C               	movf	(??_enable_valves+0)+0,w
  7519  0CB4  00B7               	movwf	(__DISABLE_MODE)
  7520                           	line	567
  7521                           	
  7522  0CB5                     l9826:	
  7523                           ;Beverage_services.c: 567: _ENABLE_MODE=_Cup_Count;
  7524  0CB5  300C               	movlw	(0Ch)
  7525  0CB6  00DC               	movwf	(??_enable_valves+0)+0
  7526  0CB7  085C               	movf	(??_enable_valves+0)+0,w
  7527  0CB8  00B8               	movwf	(__ENABLE_MODE)
  7528                           	line	569
  7529                           ;Beverage_services.c: 569: break;
  7530  0CB9  2CFE               	goto	l9850
  7531                           	line	570
  7532                           ;Beverage_services.c: 570: case _MENU_BUTTON: eeprom_write(124,time);
  7533                           	
  7534  0CBA                     l3276:	
  7535                           	
  7536  0CBA                     l9828:	
  7537  0CBA  0833               	movf	(_time),w
  7538  0CBB  00DC               	movwf	(??_enable_valves+0)+0
  7539  0CBC  085C               	movf	(??_enable_valves+0)+0,w
  7540  0CBD  00F6               	movwf	(?_eeprom_write)
  7541  0CBE  307C               	movlw	(07Ch)
  7542  0CBF  160A  158A  21FD   	fcall	_eeprom_write
              120A  158A         
  7543                           	line	571
  7544                           	
  7545  0CC4                     l9830:	
  7546                           ;Beverage_services.c: 571: if(time)
  7547  0CC4  1283               	bcf	status, 5	;RP0=0, select bank0
  7548  0CC5  1303               	bcf	status, 6	;RP1=0, select bank0
  7549  0CC6  0834               	movf	(_time+1),w
  7550  0CC7  0433               	iorwf	(_time),w
  7551  0CC8  1903               	skipnz
  7552  0CC9  2CCB               	goto	u6671
  7553  0CCA  2CCC               	goto	u6670
  7554  0CCB                     u6671:
  7555  0CCB  2CED               	goto	l9842
  7556  0CCC                     u6670:
  7557                           	line	573
  7558                           	
  7559  0CCC                     l9832:	
  7560                           ;Beverage_services.c: 572: {
  7561                           ;Beverage_services.c: 573: for(unsigned char index=126;index<=143;index++)
  7562  0CCC  307E               	movlw	(07Eh)
  7563  0CCD  00DC               	movwf	(??_enable_valves+0)+0
  7564  0CCE  085C               	movf	(??_enable_valves+0)+0,w
  7565  0CCF  00E5               	movwf	(enable_valves@index)
  7566  0CD0  3090               	movlw	(090h)
  7567  0CD1  0265               	subwf	(enable_valves@index),w
  7568  0CD2  1C03               	skipc
  7569  0CD3  2CD5               	goto	u6681
  7570  0CD4  2CD6               	goto	u6680
  7571  0CD5                     u6681:
  7572  0CD5  2CD8               	goto	l9836
  7573  0CD6                     u6680:
  7574  0CD6  2CED               	goto	l9842
  7575                           	
  7576  0CD7                     l9834:	
  7577  0CD7  2CED               	goto	l9842
  7578                           	line	574
  7579                           	
  7580  0CD8                     l3278:	
  7581                           	line	575
  7582                           	
  7583  0CD8                     l9836:	
  7584                           ;Beverage_services.c: 574: {
  7585                           ;Beverage_services.c: 575: eeprom_write(index,0x00);
  7586  0CD8  01F6               	clrf	(?_eeprom_write)
  7587  0CD9  0865               	movf	(enable_valves@index),w
  7588  0CDA  160A  158A  21FD   	fcall	_eeprom_write
              120A  158A         
  7589                           	line	573
  7590                           	
  7591  0CDF                     l9838:	
  7592  0CDF  3001               	movlw	(01h)
  7593  0CE0  1283               	bcf	status, 5	;RP0=0, select bank0
  7594  0CE1  1303               	bcf	status, 6	;RP1=0, select bank0
  7595  0CE2  00DC               	movwf	(??_enable_valves+0)+0
  7596  0CE3  085C               	movf	(??_enable_valves+0)+0,w
  7597  0CE4  07E5               	addwf	(enable_valves@index),f
  7598                           	
  7599  0CE5                     l9840:	
  7600  0CE5  3090               	movlw	(090h)
  7601  0CE6  0265               	subwf	(enable_valves@index),w
  7602  0CE7  1C03               	skipc
  7603  0CE8  2CEA               	goto	u6691
  7604  0CE9  2CEB               	goto	u6690
  7605  0CEA                     u6691:
  7606  0CEA  2CD8               	goto	l9836
  7607  0CEB                     u6690:
  7608  0CEB  2CED               	goto	l9842
  7609                           	
  7610  0CEC                     l3279:	
  7611  0CEC  2CED               	goto	l9842
  7612                           	line	577
  7613                           	
  7614  0CED                     l3277:	
  7615                           	line	578
  7616                           	
  7617  0CED                     l9842:	
  7618                           ;Beverage_services.c: 576: }
  7619                           ;Beverage_services.c: 577: }
  7620                           ;Beverage_services.c: 578: _DISABLE_MODE=_Count_Reset;
  7621  0CED  300D               	movlw	(0Dh)
  7622  0CEE  00DC               	movwf	(??_enable_valves+0)+0
  7623  0CEF  085C               	movf	(??_enable_valves+0)+0,w
  7624  0CF0  00B7               	movwf	(__DISABLE_MODE)
  7625                           	line	579
  7626                           	
  7627  0CF1                     l9844:	
  7628                           ;Beverage_services.c: 579: _ENABLE_MODE=_Normal_Mode;
  7629  0CF1  01B8               	clrf	(__ENABLE_MODE)
  7630  0CF2  1403               	bsf	status,0
  7631  0CF3  0DB8               	rlf	(__ENABLE_MODE),f
  7632                           	line	580
  7633                           ;Beverage_services.c: 580: break;
  7634  0CF4  2CFE               	goto	l9850
  7635                           	line	581
  7636                           	
  7637  0CF5                     l9846:	
  7638                           ;Beverage_services.c: 581: }
  7639  0CF5  2CFE               	goto	l9850
  7640                           	line	563
  7641                           	
  7642  0CF6                     l3273:	
  7643                           	
  7644  0CF6                     l9848:	
  7645  0CF6  083B               	movf	(__PRESSED),w
  7646                           	; Switch size 1, requested type "space"
  7647                           ; Number of cases is 2, Range of values is 8 to 10
  7648                           ; switch strategies available:
  7649                           ; Name         Instructions Cycles
  7650                           ; simple_byte            7     4 (average)
  7651                           ; direct_byte           20    11 (fixed)
  7652                           ; jumptable            263     9 (fixed)
  7653                           ;	Chosen strategy is simple_byte
  7654                           
  7655                           	opt asmopt_off
  7656  0CF7  3A08               	xorlw	8^0	; case 8
  7657  0CF8  1903               	skipnz
  7658  0CF9  2CA5               	goto	l9822
  7659  0CFA  3A02               	xorlw	10^8	; case 10
  7660  0CFB  1903               	skipnz
  7661  0CFC  2CBA               	goto	l9828
  7662  0CFD  2CFE               	goto	l9850
  7663                           	opt asmopt_on
  7664                           
  7665                           	line	581
  7666                           	
  7667  0CFE                     l3275:	
  7668                           	line	582
  7669                           	
  7670  0CFE                     l9850:	
  7671                           ;Beverage_services.c: 582: if(_PRESSED && (_PRESSED!=_MENU_BUTTON) && (_PRESSED!=_EXTRA_
                                 BUTTON))
  7672  0CFE  083B               	movf	(__PRESSED),w
  7673  0CFF  1D03               	skipz
  7674  0D00  2D02               	goto	u6700
  7675  0D01  2D3B               	goto	l9870
  7676  0D02                     u6700:
  7677                           	
  7678  0D02                     l9852:	
  7679  0D02  083B               	movf	(__PRESSED),w
  7680  0D03  3A0A               	xorlw	0Ah
  7681  0D04  1903               	skipnz
  7682  0D05  2D07               	goto	u6711
  7683  0D06  2D08               	goto	u6710
  7684  0D07                     u6711:
  7685  0D07  2D3B               	goto	l9870
  7686  0D08                     u6710:
  7687                           	
  7688  0D08                     l9854:	
  7689  0D08  083B               	movf	(__PRESSED),w
  7690  0D09  3A08               	xorlw	08h
  7691  0D0A  1903               	skipnz
  7692  0D0B  2D0D               	goto	u6721
  7693  0D0C  2D0E               	goto	u6720
  7694  0D0D                     u6721:
  7695  0D0D  2D3B               	goto	l9870
  7696  0D0E                     u6720:
  7697                           	line	584
  7698                           	
  7699  0D0E                     l9856:	
  7700                           ;Beverage_services.c: 583: {
  7701                           ;Beverage_services.c: 584: Lcd_Cmd(0xC6);
  7702  0D0E  30C6               	movlw	(0C6h)
  7703  0D0F  160A  158A  229B   	fcall	_Lcd_Cmd
              120A  158A         
  7704                           	line	585
  7705                           	
  7706  0D14                     l9858:	
  7707                           ;Beverage_services.c: 585: if(_PRESSED==_HOT_WATER_BUTTON)
  7708  0D14  1283               	bcf	status, 5	;RP0=0, select bank0
  7709  0D15  1303               	bcf	status, 6	;RP1=0, select bank0
  7710  0D16  083B               	movf	(__PRESSED),w
  7711  0D17  3A09               	xorlw	09h
  7712  0D18  1D03               	skipz
  7713  0D19  2D1B               	goto	u6731
  7714  0D1A  2D1C               	goto	u6730
  7715  0D1B                     u6731:
  7716  0D1B  2D29               	goto	l9864
  7717  0D1C                     u6730:
  7718                           	line	587
  7719                           	
  7720  0D1C                     l9860:	
  7721                           ;Beverage_services.c: 586: {
  7722                           ;Beverage_services.c: 587: Lcd_Data('Y');;
  7723  0D1C  3059               	movlw	(059h)
  7724  0D1D  160A  158A  22D4   	fcall	_Lcd_Data
              120A  158A         
  7725                           	line	588
  7726                           	
  7727  0D22                     l9862:	
  7728                           ;Beverage_services.c: 588: time=1;
  7729  0D22  3001               	movlw	low(01h)
  7730  0D23  1283               	bcf	status, 5	;RP0=0, select bank0
  7731  0D24  1303               	bcf	status, 6	;RP1=0, select bank0
  7732  0D25  00B3               	movwf	(_time)
  7733  0D26  3000               	movlw	high(01h)
  7734  0D27  00B4               	movwf	((_time))+1
  7735  0D28  2D29               	goto	l9864
  7736                           	line	589
  7737                           	
  7738  0D29                     l3281:	
  7739                           	line	590
  7740                           	
  7741  0D29                     l9864:	
  7742                           ;Beverage_services.c: 589: }
  7743                           ;Beverage_services.c: 590: if(_PRESSED==_MILK_BUTTON)
  7744  0D29  083B               	movf	(__PRESSED),w
  7745  0D2A  3A07               	xorlw	07h
  7746  0D2B  1D03               	skipz
  7747  0D2C  2D2E               	goto	u6741
  7748  0D2D  2D2F               	goto	u6740
  7749  0D2E                     u6741:
  7750  0D2E  2D3B               	goto	l9870
  7751  0D2F                     u6740:
  7752                           	line	592
  7753                           	
  7754  0D2F                     l9866:	
  7755                           ;Beverage_services.c: 591: {
  7756                           ;Beverage_services.c: 592: Lcd_Data('N');;
  7757  0D2F  304E               	movlw	(04Eh)
  7758  0D30  160A  158A  22D4   	fcall	_Lcd_Data
              120A  158A         
  7759                           	line	593
  7760                           	
  7761  0D35                     l9868:	
  7762                           ;Beverage_services.c: 593: time=0;
  7763  0D35  1283               	bcf	status, 5	;RP0=0, select bank0
  7764  0D36  1303               	bcf	status, 6	;RP1=0, select bank0
  7765  0D37  01B3               	clrf	(_time)
  7766  0D38  01B4               	clrf	(_time+1)
  7767  0D39  2D3B               	goto	l9870
  7768                           	line	594
  7769                           	
  7770  0D3A                     l3282:	
  7771  0D3A  2D3B               	goto	l9870
  7772                           	line	595
  7773                           	
  7774  0D3B                     l3280:	
  7775                           	line	596
  7776                           	
  7777  0D3B                     l9870:	
  7778                           ;Beverage_services.c: 594: }
  7779                           ;Beverage_services.c: 595: }
  7780                           ;Beverage_services.c: 596: DelayMs(10);
  7781  0D3B  300A               	movlw	low(0Ah)
  7782  0D3C  00FC               	movwf	(?_DelayMs)
  7783  0D3D  3000               	movlw	high(0Ah)
  7784  0D3E  00FD               	movwf	((?_DelayMs))+1
  7785  0D3F  160A  158A  217A   	fcall	_DelayMs
              120A  158A         
  7786  0D44  2D45               	goto	l9872
  7787                           	line	597
  7788                           	
  7789  0D45                     l3272:	
  7790                           	line	598
  7791                           	
  7792  0D45                     l9872:	
  7793                           ;Beverage_services.c: 597: }
  7794                           ;Beverage_services.c: 598: if(Enable_Shortcut_Mode)
  7795  0D45  1283               	bcf	status, 5	;RP0=0, select bank0
  7796  0D46  1303               	bcf	status, 6	;RP1=0, select bank0
  7797  0D47  1D6D               	btfss	(_Enable_Shortcut_Mode/8),(_Enable_Shortcut_Mode)&7
  7798  0D48  2D4A               	goto	u6751
  7799  0D49  2D4B               	goto	u6750
  7800  0D4A                     u6751:
  7801  0D4A  2FEF               	goto	l10038
  7802  0D4B                     u6750:
  7803  0D4B  2F06               	goto	l9990
  7804                           	line	600
  7805                           	
  7806  0D4C                     l9874:	
  7807                           ;Beverage_services.c: 599: {
  7808                           ;Beverage_services.c: 600: switch(_PRESSED)
  7809  0D4C  2F06               	goto	l9990
  7810                           	line	602
  7811                           ;Beverage_services.c: 601: {
  7812                           ;Beverage_services.c: 602: case _NORMAL_COFFEE_BUTTON: if(_PROCESS==_Preparation)
  7813                           	
  7814  0D4D                     l3285:	
  7815                           	
  7816  0D4D                     l9876:	
  7817  0D4D  083E               	movf	(__PROCESS),w
  7818  0D4E  3A02               	xorlw	02h
  7819  0D4F  1D03               	skipz
  7820  0D50  2D52               	goto	u6761
  7821  0D51  2D53               	goto	u6760
  7822  0D52                     u6761:
  7823  0D52  2D6E               	goto	l9884
  7824  0D53                     u6760:
  7825                           	line	604
  7826                           	
  7827  0D53                     l9878:	
  7828                           ;Beverage_services.c: 603: {
  7829                           ;Beverage_services.c: 604: eeprom_write(145,5);
  7830  0D53  3005               	movlw	(05h)
  7831  0D54  00DC               	movwf	(??_enable_valves+0)+0
  7832  0D55  085C               	movf	(??_enable_valves+0)+0,w
  7833  0D56  00F6               	movwf	(?_eeprom_write)
  7834  0D57  3091               	movlw	(091h)
  7835  0D58  160A  158A  21FD   	fcall	_eeprom_write
              120A  158A         
  7836                           	line	605
  7837                           	
  7838  0D5D                     l9880:	
  7839                           ;Beverage_services.c: 605: Enable_Coffee_Hot_Water_Valve = 1;
  7840  0D5D  1283               	bcf	status, 5	;RP0=0, select bank0
  7841  0D5E  1303               	bcf	status, 6	;RP1=0, select bank0
  7842  0D5F  14EB               	bsf	(_Enable_Coffee_Hot_Water_Valve/8),(_Enable_Coffee_Hot_Water_Valve)&7
  7843                           	line	606
  7844                           	
  7845  0D60                     l9882:	
  7846                           ;Beverage_services.c: 606: Lcd_String("PREPARING COFFEE",1,0);
  7847  0D60  3000               	movlw	low(STR_21|8000h)
  7848  0D61  00CE               	movwf	(?_Lcd_String)
  7849  0D62  3090               	movlw	high(STR_21|8000h)
  7850  0D63  00CF               	movwf	((?_Lcd_String))+1
  7851  0D64  01D0               	clrf	0+(?_Lcd_String)+02h
  7852  0D65  1403               	bsf	status,0
  7853  0D66  0DD0               	rlf	0+(?_Lcd_String)+02h,f
  7854  0D67  01D1               	clrf	0+(?_Lcd_String)+03h
  7855  0D68  120A  158A  2000   	fcall	_Lcd_String
              120A  158A         
  7856  0D6D  2D6E               	goto	l9884
  7857                           	line	607
  7858                           	
  7859  0D6E                     l3286:	
  7860                           	line	608
  7861                           	
  7862  0D6E                     l9884:	
  7863                           ;Beverage_services.c: 607: }
  7864                           ;Beverage_services.c: 608: if(_PROCESS==_Cleaning)
  7865  0D6E  1283               	bcf	status, 5	;RP0=0, select bank0
  7866  0D6F  1303               	bcf	status, 6	;RP1=0, select bank0
  7867  0D70  083E               	movf	(__PROCESS),w
  7868  0D71  3A03               	xorlw	03h
  7869  0D72  1D03               	skipz
  7870  0D73  2D75               	goto	u6771
  7871  0D74  2D76               	goto	u6770
  7872  0D75                     u6771:
  7873  0D75  2DC0               	goto	l9904
  7874  0D76                     u6770:
  7875                           	line	610
  7876                           	
  7877  0D76                     l9886:	
  7878                           ;Beverage_services.c: 609: {
  7879                           ;Beverage_services.c: 610: Lcd_String("COFFEE CLEANING",1,0);
  7880  0D76  3022               	movlw	low(STR_22|8000h)
  7881  0D77  00CE               	movwf	(?_Lcd_String)
  7882  0D78  3090               	movlw	high(STR_22|8000h)
  7883  0D79  00CF               	movwf	((?_Lcd_String))+1
  7884  0D7A  01D0               	clrf	0+(?_Lcd_String)+02h
  7885  0D7B  1403               	bsf	status,0
  7886  0D7C  0DD0               	rlf	0+(?_Lcd_String)+02h,f
  7887  0D7D  01D1               	clrf	0+(?_Lcd_String)+03h
  7888  0D7E  120A  158A  2000   	fcall	_Lcd_String
              120A  158A         
  7889                           	line	611
  7890                           	
  7891  0D83                     l9888:	
  7892                           ;Beverage_services.c: 611: _ON=_Coffee_Valve;
  7893  0D83  3006               	movlw	(06h)
  7894  0D84  1283               	bcf	status, 5	;RP0=0, select bank0
  7895  0D85  1303               	bcf	status, 6	;RP1=0, select bank0
  7896  0D86  00DC               	movwf	(??_enable_valves+0)+0
  7897  0D87  085C               	movf	(??_enable_valves+0)+0,w
  7898  0D88  00BA               	movwf	(__ON)
  7899                           	line	612
  7900                           	
  7901  0D89                     l9890:	
  7902                           ;Beverage_services.c: 612: onthevalve();
  7903  0D89  160A  158A  2347   	fcall	_onthevalve
              120A  158A         
  7904                           	line	613
  7905                           ;Beverage_services.c: 613: while(RC5!=0)
  7906  0D8E  2DB8               	goto	l9902
  7907                           	
  7908  0D8F                     l3289:	
  7909                           	line	615
  7910                           	
  7911  0D8F                     l9892:	
  7912                           ;Beverage_services.c: 614: {
  7913                           ;Beverage_services.c: 615: _ON=_Coffee_Valve;
  7914  0D8F  3006               	movlw	(06h)
  7915  0D90  1283               	bcf	status, 5	;RP0=0, select bank0
  7916  0D91  1303               	bcf	status, 6	;RP1=0, select bank0
  7917  0D92  00DC               	movwf	(??_enable_valves+0)+0
  7918  0D93  085C               	movf	(??_enable_valves+0)+0,w
  7919  0D94  00BA               	movwf	(__ON)
  7920                           	line	616
  7921                           	
  7922  0D95                     l9894:	
  7923                           ;Beverage_services.c: 616: onthevalve();
  7924  0D95  160A  158A  2347   	fcall	_onthevalve
              120A  158A         
  7925                           	line	617
  7926                           	
  7927  0D9A                     l9896:	
  7928                           ;Beverage_services.c: 617: DelayMs(750);
  7929  0D9A  30EE               	movlw	low(02EEh)
  7930  0D9B  00FC               	movwf	(?_DelayMs)
  7931  0D9C  3002               	movlw	high(02EEh)
  7932  0D9D  00FD               	movwf	((?_DelayMs))+1
  7933  0D9E  160A  158A  217A   	fcall	_DelayMs
              120A  158A         
  7934                           	line	618
  7935                           	
  7936  0DA3                     l9898:	
  7937                           ;Beverage_services.c: 618: _OFF=_Coffee_Valve;
  7938  0DA3  3006               	movlw	(06h)
  7939  0DA4  1283               	bcf	status, 5	;RP0=0, select bank0
  7940  0DA5  1303               	bcf	status, 6	;RP1=0, select bank0
  7941  0DA6  00DC               	movwf	(??_enable_valves+0)+0
  7942  0DA7  085C               	movf	(??_enable_valves+0)+0,w
  7943  0DA8  00B9               	movwf	(__OFF)
  7944                           	line	619
  7945                           	
  7946  0DA9                     l9900:	
  7947                           ;Beverage_services.c: 619: offthevalve();
  7948  0DA9  160A  158A  230D   	fcall	_offthevalve
              120A  158A         
  7949                           	line	620
  7950                           ;Beverage_services.c: 620: DelayMs(250);
  7951  0DAE  30FA               	movlw	low(0FAh)
  7952  0DAF  00FC               	movwf	(?_DelayMs)
  7953  0DB0  3000               	movlw	high(0FAh)
  7954  0DB1  00FD               	movwf	((?_DelayMs))+1
  7955  0DB2  160A  158A  217A   	fcall	_DelayMs
              120A  158A         
  7956  0DB7  2DB8               	goto	l9902
  7957                           	line	621
  7958                           	
  7959  0DB8                     l3288:	
  7960                           	line	613
  7961                           	
  7962  0DB8                     l9902:	
  7963  0DB8  1283               	bcf	status, 5	;RP0=0, select bank0
  7964  0DB9  1303               	bcf	status, 6	;RP1=0, select bank0
  7965  0DBA  1A87               	btfsc	(61/8),(61)&7
  7966  0DBB  2DBD               	goto	u6781
  7967  0DBC  2DBE               	goto	u6780
  7968  0DBD                     u6781:
  7969  0DBD  2D8F               	goto	l9892
  7970  0DBE                     u6780:
  7971  0DBE  2DC0               	goto	l9904
  7972                           	
  7973  0DBF                     l3290:	
  7974  0DBF  2DC0               	goto	l9904
  7975                           	line	622
  7976                           	
  7977  0DC0                     l3287:	
  7978                           	line	623
  7979                           	
  7980  0DC0                     l9904:	
  7981                           ;Beverage_services.c: 621: }
  7982                           ;Beverage_services.c: 622: }
  7983                           ;Beverage_services.c: 623: mem_index1=128; mem_index2=129;
  7984  0DC0  3080               	movlw	(080h)
  7985  0DC1  00DC               	movwf	(??_enable_valves+0)+0
  7986  0DC2  085C               	movf	(??_enable_valves+0)+0,w
  7987  0DC3  00C1               	movwf	(_mem_index1)
  7988  0DC4  3081               	movlw	(081h)
  7989  0DC5  00DC               	movwf	(??_enable_valves+0)+0
  7990  0DC6  085C               	movf	(??_enable_valves+0)+0,w
  7991  0DC7  00C2               	movwf	(_mem_index2)
  7992                           	line	624
  7993                           ;Beverage_services.c: 624: break;
  7994  0DC8  2F23               	goto	l9992
  7995                           	line	625
  7996                           ;Beverage_services.c: 625: case _NORMAL_TEA_BUTTON: if(_PROCESS==_Preparation)
  7997                           	
  7998  0DC9                     l3292:	
  7999                           	
  8000  0DC9                     l9906:	
  8001  0DC9  083E               	movf	(__PROCESS),w
  8002  0DCA  3A02               	xorlw	02h
  8003  0DCB  1D03               	skipz
  8004  0DCC  2DCE               	goto	u6791
  8005  0DCD  2DCF               	goto	u6790
  8006  0DCE                     u6791:
  8007  0DCE  2DEA               	goto	l9914
  8008  0DCF                     u6790:
  8009                           	line	627
  8010                           	
  8011  0DCF                     l9908:	
  8012                           ;Beverage_services.c: 626: {
  8013                           ;Beverage_services.c: 627: eeprom_write(146,5);
  8014  0DCF  3005               	movlw	(05h)
  8015  0DD0  00DC               	movwf	(??_enable_valves+0)+0
  8016  0DD1  085C               	movf	(??_enable_valves+0)+0,w
  8017  0DD2  00F6               	movwf	(?_eeprom_write)
  8018  0DD3  3092               	movlw	(092h)
  8019  0DD4  160A  158A  21FD   	fcall	_eeprom_write
              120A  158A         
  8020                           	line	628
  8021                           	
  8022  0DD9                     l9910:	
  8023                           ;Beverage_services.c: 628: Enable_Tea_Hot_Water_Valve = 1;
  8024  0DD9  1283               	bcf	status, 5	;RP0=0, select bank0
  8025  0DDA  1303               	bcf	status, 6	;RP1=0, select bank0
  8026  0DDB  166D               	bsf	(_Enable_Tea_Hot_Water_Valve/8),(_Enable_Tea_Hot_Water_Valve)&7
  8027                           	line	629
  8028                           	
  8029  0DDC                     l9912:	
  8030                           ;Beverage_services.c: 629: Lcd_String(" PREPARING TEA",1,0);
  8031  0DDC  3052               	movlw	low(STR_23|8000h)
  8032  0DDD  00CE               	movwf	(?_Lcd_String)
  8033  0DDE  3090               	movlw	high(STR_23|8000h)
  8034  0DDF  00CF               	movwf	((?_Lcd_String))+1
  8035  0DE0  01D0               	clrf	0+(?_Lcd_String)+02h
  8036  0DE1  1403               	bsf	status,0
  8037  0DE2  0DD0               	rlf	0+(?_Lcd_String)+02h,f
  8038  0DE3  01D1               	clrf	0+(?_Lcd_String)+03h
  8039  0DE4  120A  158A  2000   	fcall	_Lcd_String
              120A  158A         
  8040  0DE9  2DEA               	goto	l9914
  8041                           	line	630
  8042                           	
  8043  0DEA                     l3293:	
  8044                           	line	631
  8045                           	
  8046  0DEA                     l9914:	
  8047                           ;Beverage_services.c: 630: }
  8048                           ;Beverage_services.c: 631: if(_PROCESS==_Cleaning)
  8049  0DEA  1283               	bcf	status, 5	;RP0=0, select bank0
  8050  0DEB  1303               	bcf	status, 6	;RP1=0, select bank0
  8051  0DEC  083E               	movf	(__PROCESS),w
  8052  0DED  3A03               	xorlw	03h
  8053  0DEE  1D03               	skipz
  8054  0DEF  2DF1               	goto	u6801
  8055  0DF0  2DF2               	goto	u6800
  8056  0DF1                     u6801:
  8057  0DF1  2E3C               	goto	l9934
  8058  0DF2                     u6800:
  8059                           	line	633
  8060                           	
  8061  0DF2                     l9916:	
  8062                           ;Beverage_services.c: 632: {
  8063                           ;Beverage_services.c: 633: Lcd_String("TEA CLEANING",1,0);
  8064  0DF2  30FE               	movlw	low(STR_24|8000h)
  8065  0DF3  00CE               	movwf	(?_Lcd_String)
  8066  0DF4  3090               	movlw	high(STR_24|8000h)
  8067  0DF5  00CF               	movwf	((?_Lcd_String))+1
  8068  0DF6  01D0               	clrf	0+(?_Lcd_String)+02h
  8069  0DF7  1403               	bsf	status,0
  8070  0DF8  0DD0               	rlf	0+(?_Lcd_String)+02h,f
  8071  0DF9  01D1               	clrf	0+(?_Lcd_String)+03h
  8072  0DFA  120A  158A  2000   	fcall	_Lcd_String
              120A  158A         
  8073                           	line	634
  8074                           	
  8075  0DFF                     l9918:	
  8076                           ;Beverage_services.c: 634: _ON=_Tea_Valve;
  8077  0DFF  3008               	movlw	(08h)
  8078  0E00  1283               	bcf	status, 5	;RP0=0, select bank0
  8079  0E01  1303               	bcf	status, 6	;RP1=0, select bank0
  8080  0E02  00DC               	movwf	(??_enable_valves+0)+0
  8081  0E03  085C               	movf	(??_enable_valves+0)+0,w
  8082  0E04  00BA               	movwf	(__ON)
  8083                           	line	635
  8084                           	
  8085  0E05                     l9920:	
  8086                           ;Beverage_services.c: 635: onthevalve();
  8087  0E05  160A  158A  2347   	fcall	_onthevalve
              120A  158A         
  8088                           	line	636
  8089                           ;Beverage_services.c: 636: while(RC4!=0)
  8090  0E0A  2E34               	goto	l9932
  8091                           	
  8092  0E0B                     l3296:	
  8093                           	line	638
  8094                           	
  8095  0E0B                     l9922:	
  8096                           ;Beverage_services.c: 637: {
  8097                           ;Beverage_services.c: 638: _ON=_Tea_Valve;
  8098  0E0B  3008               	movlw	(08h)
  8099  0E0C  1283               	bcf	status, 5	;RP0=0, select bank0
  8100  0E0D  1303               	bcf	status, 6	;RP1=0, select bank0
  8101  0E0E  00DC               	movwf	(??_enable_valves+0)+0
  8102  0E0F  085C               	movf	(??_enable_valves+0)+0,w
  8103  0E10  00BA               	movwf	(__ON)
  8104                           	line	639
  8105                           	
  8106  0E11                     l9924:	
  8107                           ;Beverage_services.c: 639: onthevalve();
  8108  0E11  160A  158A  2347   	fcall	_onthevalve
              120A  158A         
  8109                           	line	640
  8110                           	
  8111  0E16                     l9926:	
  8112                           ;Beverage_services.c: 640: DelayMs(750);
  8113  0E16  30EE               	movlw	low(02EEh)
  8114  0E17  00FC               	movwf	(?_DelayMs)
  8115  0E18  3002               	movlw	high(02EEh)
  8116  0E19  00FD               	movwf	((?_DelayMs))+1
  8117  0E1A  160A  158A  217A   	fcall	_DelayMs
              120A  158A         
  8118                           	line	641
  8119                           	
  8120  0E1F                     l9928:	
  8121                           ;Beverage_services.c: 641: _OFF=_Tea_Valve;
  8122  0E1F  3008               	movlw	(08h)
  8123  0E20  1283               	bcf	status, 5	;RP0=0, select bank0
  8124  0E21  1303               	bcf	status, 6	;RP1=0, select bank0
  8125  0E22  00DC               	movwf	(??_enable_valves+0)+0
  8126  0E23  085C               	movf	(??_enable_valves+0)+0,w
  8127  0E24  00B9               	movwf	(__OFF)
  8128                           	line	642
  8129                           	
  8130  0E25                     l9930:	
  8131                           ;Beverage_services.c: 642: offthevalve();
  8132  0E25  160A  158A  230D   	fcall	_offthevalve
              120A  158A         
  8133                           	line	643
  8134                           ;Beverage_services.c: 643: DelayMs(250);
  8135  0E2A  30FA               	movlw	low(0FAh)
  8136  0E2B  00FC               	movwf	(?_DelayMs)
  8137  0E2C  3000               	movlw	high(0FAh)
  8138  0E2D  00FD               	movwf	((?_DelayMs))+1
  8139  0E2E  160A  158A  217A   	fcall	_DelayMs
              120A  158A         
  8140  0E33  2E34               	goto	l9932
  8141                           	line	644
  8142                           	
  8143  0E34                     l3295:	
  8144                           	line	636
  8145                           	
  8146  0E34                     l9932:	
  8147  0E34  1283               	bcf	status, 5	;RP0=0, select bank0
  8148  0E35  1303               	bcf	status, 6	;RP1=0, select bank0
  8149  0E36  1A07               	btfsc	(60/8),(60)&7
  8150  0E37  2E39               	goto	u6811
  8151  0E38  2E3A               	goto	u6810
  8152  0E39                     u6811:
  8153  0E39  2E0B               	goto	l9922
  8154  0E3A                     u6810:
  8155  0E3A  2E3C               	goto	l9934
  8156                           	
  8157  0E3B                     l3297:	
  8158  0E3B  2E3C               	goto	l9934
  8159                           	line	645
  8160                           	
  8161  0E3C                     l3294:	
  8162                           	line	646
  8163                           	
  8164  0E3C                     l9934:	
  8165                           ;Beverage_services.c: 644: }
  8166                           ;Beverage_services.c: 645: }
  8167                           ;Beverage_services.c: 646: mem_index1=130; mem_index2=131;
  8168  0E3C  3082               	movlw	(082h)
  8169  0E3D  00DC               	movwf	(??_enable_valves+0)+0
  8170  0E3E  085C               	movf	(??_enable_valves+0)+0,w
  8171  0E3F  00C1               	movwf	(_mem_index1)
  8172  0E40  3083               	movlw	(083h)
  8173  0E41  00DC               	movwf	(??_enable_valves+0)+0
  8174  0E42  085C               	movf	(??_enable_valves+0)+0,w
  8175  0E43  00C2               	movwf	(_mem_index2)
  8176                           	line	647
  8177                           ;Beverage_services.c: 647: break;
  8178  0E44  2F23               	goto	l9992
  8179                           	line	648
  8180                           ;Beverage_services.c: 648: case _LIGHT_COFFEE_BUTTON: mem_index1=132; mem_index2=133;
  8181                           	
  8182  0E45                     l3298:	
  8183                           	
  8184  0E45                     l9936:	
  8185  0E45  3084               	movlw	(084h)
  8186  0E46  00DC               	movwf	(??_enable_valves+0)+0
  8187  0E47  085C               	movf	(??_enable_valves+0)+0,w
  8188  0E48  00C1               	movwf	(_mem_index1)
  8189  0E49  3085               	movlw	(085h)
  8190  0E4A  00DC               	movwf	(??_enable_valves+0)+0
  8191  0E4B  085C               	movf	(??_enable_valves+0)+0,w
  8192  0E4C  00C2               	movwf	(_mem_index2)
  8193                           	line	649
  8194                           ;Beverage_services.c: 649: break;
  8195  0E4D  2F23               	goto	l9992
  8196                           	line	650
  8197                           ;Beverage_services.c: 650: case _LIGHT_TEA_BUTTON: mem_index1=134; mem_index2=135;
  8198                           	
  8199  0E4E                     l3299:	
  8200                           	
  8201  0E4E                     l9938:	
  8202  0E4E  3086               	movlw	(086h)
  8203  0E4F  00DC               	movwf	(??_enable_valves+0)+0
  8204  0E50  085C               	movf	(??_enable_valves+0)+0,w
  8205  0E51  00C1               	movwf	(_mem_index1)
  8206  0E52  3087               	movlw	(087h)
  8207  0E53  00DC               	movwf	(??_enable_valves+0)+0
  8208  0E54  085C               	movf	(??_enable_valves+0)+0,w
  8209  0E55  00C2               	movwf	(_mem_index2)
  8210                           	line	651
  8211                           ;Beverage_services.c: 651: break;
  8212  0E56  2F23               	goto	l9992
  8213                           	line	652
  8214                           ;Beverage_services.c: 652: case _BLACK_COFFEE_BUTTON: mem_index1=136; mem_index2=137;
  8215                           	
  8216  0E57                     l3300:	
  8217                           	
  8218  0E57                     l9940:	
  8219  0E57  3088               	movlw	(088h)
  8220  0E58  00DC               	movwf	(??_enable_valves+0)+0
  8221  0E59  085C               	movf	(??_enable_valves+0)+0,w
  8222  0E5A  00C1               	movwf	(_mem_index1)
  8223  0E5B  3089               	movlw	(089h)
  8224  0E5C  00DC               	movwf	(??_enable_valves+0)+0
  8225  0E5D  085C               	movf	(??_enable_valves+0)+0,w
  8226  0E5E  00C2               	movwf	(_mem_index2)
  8227                           	line	653
  8228                           ;Beverage_services.c: 653: break;
  8229  0E5F  2F23               	goto	l9992
  8230                           	line	654
  8231                           ;Beverage_services.c: 654: case _BLACK_TEA_BUTTON: mem_index1=138; mem_index2=139;
  8232                           	
  8233  0E60                     l3301:	
  8234                           	
  8235  0E60                     l9942:	
  8236  0E60  308A               	movlw	(08Ah)
  8237  0E61  00DC               	movwf	(??_enable_valves+0)+0
  8238  0E62  085C               	movf	(??_enable_valves+0)+0,w
  8239  0E63  00C1               	movwf	(_mem_index1)
  8240  0E64  308B               	movlw	(08Bh)
  8241  0E65  00DC               	movwf	(??_enable_valves+0)+0
  8242  0E66  085C               	movf	(??_enable_valves+0)+0,w
  8243  0E67  00C2               	movwf	(_mem_index2)
  8244                           	line	655
  8245                           ;Beverage_services.c: 655: break;
  8246  0E68  2F23               	goto	l9992
  8247                           	line	656
  8248                           ;Beverage_services.c: 656: case _MILK_BUTTON: if(_PROCESS==_Cleaning)
  8249                           	
  8250  0E69                     l3302:	
  8251                           	
  8252  0E69                     l9944:	
  8253  0E69  083E               	movf	(__PROCESS),w
  8254  0E6A  3A03               	xorlw	03h
  8255  0E6B  1D03               	skipz
  8256  0E6C  2E6E               	goto	u6821
  8257  0E6D  2E6F               	goto	u6820
  8258  0E6E                     u6821:
  8259  0E6E  2EC0               	goto	l9968
  8260  0E6F                     u6820:
  8261                           	line	658
  8262                           	
  8263  0E6F                     l9946:	
  8264                           ;Beverage_services.c: 657: {
  8265                           ;Beverage_services.c: 658: Lcd_String("MILK CLEANING",1,0);
  8266  0E6F  30C8               	movlw	low(STR_25|8000h)
  8267  0E70  00CE               	movwf	(?_Lcd_String)
  8268  0E71  3090               	movlw	high(STR_25|8000h)
  8269  0E72  00CF               	movwf	((?_Lcd_String))+1
  8270  0E73  01D0               	clrf	0+(?_Lcd_String)+02h
  8271  0E74  1403               	bsf	status,0
  8272  0E75  0DD0               	rlf	0+(?_Lcd_String)+02h,f
  8273  0E76  01D1               	clrf	0+(?_Lcd_String)+03h
  8274  0E77  120A  158A  2000   	fcall	_Lcd_String
              120A  158A         
  8275                           	line	659
  8276                           	
  8277  0E7C                     l9948:	
  8278                           ;Beverage_services.c: 659: _ON=_Viber_Motor;
  8279  0E7C  3009               	movlw	(09h)
  8280  0E7D  1283               	bcf	status, 5	;RP0=0, select bank0
  8281  0E7E  1303               	bcf	status, 6	;RP1=0, select bank0
  8282  0E7F  00DC               	movwf	(??_enable_valves+0)+0
  8283  0E80  085C               	movf	(??_enable_valves+0)+0,w
  8284  0E81  00BA               	movwf	(__ON)
  8285                           	line	660
  8286                           	
  8287  0E82                     l9950:	
  8288                           ;Beverage_services.c: 660: onthevalve();
  8289  0E82  160A  158A  2347   	fcall	_onthevalve
              120A  158A         
  8290                           	line	661
  8291                           ;Beverage_services.c: 661: while(RB4!=0)
  8292  0E87  2EAF               	goto	l9962
  8293                           	
  8294  0E88                     l3305:	
  8295                           	line	663
  8296                           	
  8297  0E88                     l9952:	
  8298                           ;Beverage_services.c: 662: {
  8299                           ;Beverage_services.c: 663: _ON=_Milk_Valve_Forward;
  8300  0E88  1283               	bcf	status, 5	;RP0=0, select bank0
  8301  0E89  1303               	bcf	status, 6	;RP1=0, select bank0
  8302  0E8A  01BA               	clrf	(__ON)
  8303  0E8B  1403               	bsf	status,0
  8304  0E8C  0DBA               	rlf	(__ON),f
  8305                           	line	664
  8306                           	
  8307  0E8D                     l9954:	
  8308                           ;Beverage_services.c: 664: onthevalve();
  8309  0E8D  160A  158A  2347   	fcall	_onthevalve
              120A  158A         
  8310                           	line	665
  8311                           	
  8312  0E92                     l9956:	
  8313                           ;Beverage_services.c: 665: DelayMs(750);
  8314  0E92  30EE               	movlw	low(02EEh)
  8315  0E93  00FC               	movwf	(?_DelayMs)
  8316  0E94  3002               	movlw	high(02EEh)
  8317  0E95  00FD               	movwf	((?_DelayMs))+1
  8318  0E96  160A  158A  217A   	fcall	_DelayMs
              120A  158A         
  8319                           	line	666
  8320                           	
  8321  0E9B                     l9958:	
  8322                           ;Beverage_services.c: 666: _OFF=_Milk_Valve_Forward;
  8323  0E9B  1283               	bcf	status, 5	;RP0=0, select bank0
  8324  0E9C  1303               	bcf	status, 6	;RP1=0, select bank0
  8325  0E9D  01B9               	clrf	(__OFF)
  8326  0E9E  1403               	bsf	status,0
  8327  0E9F  0DB9               	rlf	(__OFF),f
  8328                           	line	667
  8329                           	
  8330  0EA0                     l9960:	
  8331                           ;Beverage_services.c: 667: offthevalve();
  8332  0EA0  160A  158A  230D   	fcall	_offthevalve
              120A  158A         
  8333                           	line	668
  8334                           ;Beverage_services.c: 668: DelayMs(250);
  8335  0EA5  30FA               	movlw	low(0FAh)
  8336  0EA6  00FC               	movwf	(?_DelayMs)
  8337  0EA7  3000               	movlw	high(0FAh)
  8338  0EA8  00FD               	movwf	((?_DelayMs))+1
  8339  0EA9  160A  158A  217A   	fcall	_DelayMs
              120A  158A         
  8340  0EAE  2EAF               	goto	l9962
  8341                           	line	669
  8342                           	
  8343  0EAF                     l3304:	
  8344                           	line	661
  8345                           	
  8346  0EAF                     l9962:	
  8347  0EAF  1283               	bcf	status, 5	;RP0=0, select bank0
  8348  0EB0  1303               	bcf	status, 6	;RP1=0, select bank0
  8349  0EB1  1A06               	btfsc	(52/8),(52)&7
  8350  0EB2  2EB4               	goto	u6831
  8351  0EB3  2EB5               	goto	u6830
  8352  0EB4                     u6831:
  8353  0EB4  2E88               	goto	l9952
  8354  0EB5                     u6830:
  8355  0EB5  2EB6               	goto	l9964
  8356                           	
  8357  0EB6                     l3306:	
  8358                           	line	670
  8359                           	
  8360  0EB6                     l9964:	
  8361                           ;Beverage_services.c: 669: }
  8362                           ;Beverage_services.c: 670: _OFF=_Viber_Motor;
  8363  0EB6  3009               	movlw	(09h)
  8364  0EB7  00DC               	movwf	(??_enable_valves+0)+0
  8365  0EB8  085C               	movf	(??_enable_valves+0)+0,w
  8366  0EB9  00B9               	movwf	(__OFF)
  8367                           	line	671
  8368                           	
  8369  0EBA                     l9966:	
  8370                           ;Beverage_services.c: 671: offthevalve();
  8371  0EBA  160A  158A  230D   	fcall	_offthevalve
              120A  158A         
  8372  0EBF  2EC0               	goto	l9968
  8373                           	line	672
  8374                           	
  8375  0EC0                     l3303:	
  8376                           	line	673
  8377                           	
  8378  0EC0                     l9968:	
  8379                           ;Beverage_services.c: 672: }
  8380                           ;Beverage_services.c: 673: mem_index1=140; mem_index2=141;
  8381  0EC0  308C               	movlw	(08Ch)
  8382  0EC1  1283               	bcf	status, 5	;RP0=0, select bank0
  8383  0EC2  1303               	bcf	status, 6	;RP1=0, select bank0
  8384  0EC3  00DC               	movwf	(??_enable_valves+0)+0
  8385  0EC4  085C               	movf	(??_enable_valves+0)+0,w
  8386  0EC5  00C1               	movwf	(_mem_index1)
  8387                           	
  8388  0EC6                     l9970:	
  8389  0EC6  308D               	movlw	(08Dh)
  8390  0EC7  00DC               	movwf	(??_enable_valves+0)+0
  8391  0EC8  085C               	movf	(??_enable_valves+0)+0,w
  8392  0EC9  00C2               	movwf	(_mem_index2)
  8393                           	line	674
  8394                           ;Beverage_services.c: 674: break;
  8395  0ECA  2F23               	goto	l9992
  8396                           	line	675
  8397                           ;Beverage_services.c: 675: case _HOT_WATER_BUTTON: mem_index1=142; mem_index2=143;
  8398                           	
  8399  0ECB                     l3307:	
  8400                           	
  8401  0ECB                     l9972:	
  8402  0ECB  308E               	movlw	(08Eh)
  8403  0ECC  00DC               	movwf	(??_enable_valves+0)+0
  8404  0ECD  085C               	movf	(??_enable_valves+0)+0,w
  8405  0ECE  00C1               	movwf	(_mem_index1)
  8406  0ECF  308F               	movlw	(08Fh)
  8407  0ED0  00DC               	movwf	(??_enable_valves+0)+0
  8408  0ED1  085C               	movf	(??_enable_valves+0)+0,w
  8409  0ED2  00C2               	movwf	(_mem_index2)
  8410                           	line	676
  8411                           ;Beverage_services.c: 676: break;
  8412  0ED3  2F23               	goto	l9992
  8413                           	line	677
  8414                           ;Beverage_services.c: 677: case _EXTRA_BUTTON: if(_PROCESS==_Countdisplay && _PREVIOUS_P
                                 ROCESS==_Countdisplay)
  8415                           	
  8416  0ED4                     l3308:	
  8417                           	
  8418  0ED4                     l9974:	
  8419  0ED4  083E               	movf	(__PROCESS),w
  8420  0ED5  3A01               	xorlw	01h
  8421  0ED6  1D03               	skipz
  8422  0ED7  2ED9               	goto	u6841
  8423  0ED8  2EDA               	goto	u6840
  8424  0ED9                     u6841:
  8425  0ED9  2EE4               	goto	l3309
  8426  0EDA                     u6840:
  8427                           	
  8428  0EDA                     l9976:	
  8429  0EDA  083D               	movf	(__PREVIOUS_PROCESS),w
  8430  0EDB  3A01               	xorlw	01h
  8431  0EDC  1D03               	skipz
  8432  0EDD  2EDF               	goto	u6851
  8433  0EDE  2EE0               	goto	u6850
  8434  0EDF                     u6851:
  8435  0EDF  2EE4               	goto	l3309
  8436  0EE0                     u6850:
  8437                           	line	679
  8438                           	
  8439  0EE0                     l9978:	
  8440                           ;Beverage_services.c: 678: {
  8441                           ;Beverage_services.c: 679: _PROCESS=_Preparation;
  8442  0EE0  3002               	movlw	(02h)
  8443  0EE1  00DC               	movwf	(??_enable_valves+0)+0
  8444  0EE2  085C               	movf	(??_enable_valves+0)+0,w
  8445  0EE3  00BE               	movwf	(__PROCESS)
  8446                           	line	680
  8447                           	
  8448  0EE4                     l3309:	
  8449                           	line	681
  8450                           ;Beverage_services.c: 680: }
  8451                           ;Beverage_services.c: 681: if(_PROCESS==_Preparation && _PREVIOUS_PROCESS==_Preparation)
  8452  0EE4  083E               	movf	(__PROCESS),w
  8453  0EE5  3A02               	xorlw	02h
  8454  0EE6  1D03               	skipz
  8455  0EE7  2EE9               	goto	u6861
  8456  0EE8  2EEA               	goto	u6860
  8457  0EE9                     u6861:
  8458  0EE9  2EF4               	goto	l3310
  8459  0EEA                     u6860:
  8460                           	
  8461  0EEA                     l9980:	
  8462  0EEA  083D               	movf	(__PREVIOUS_PROCESS),w
  8463  0EEB  3A02               	xorlw	02h
  8464  0EEC  1D03               	skipz
  8465  0EED  2EEF               	goto	u6871
  8466  0EEE  2EF0               	goto	u6870
  8467  0EEF                     u6871:
  8468  0EEF  2EF4               	goto	l3310
  8469  0EF0                     u6870:
  8470                           	line	683
  8471                           	
  8472  0EF0                     l9982:	
  8473                           ;Beverage_services.c: 682: {
  8474                           ;Beverage_services.c: 683: _PROCESS=_Cleaning;
  8475  0EF0  3003               	movlw	(03h)
  8476  0EF1  00DC               	movwf	(??_enable_valves+0)+0
  8477  0EF2  085C               	movf	(??_enable_valves+0)+0,w
  8478  0EF3  00BE               	movwf	(__PROCESS)
  8479                           	line	684
  8480                           	
  8481  0EF4                     l3310:	
  8482                           	line	685
  8483                           ;Beverage_services.c: 684: }
  8484                           ;Beverage_services.c: 685: if(_PROCESS==_Cleaning&& _PREVIOUS_PROCESS==_Cleaning)
  8485  0EF4  083E               	movf	(__PROCESS),w
  8486  0EF5  3A03               	xorlw	03h
  8487  0EF6  1D03               	skipz
  8488  0EF7  2EF9               	goto	u6881
  8489  0EF8  2EFA               	goto	u6880
  8490  0EF9                     u6881:
  8491  0EF9  2F23               	goto	l9992
  8492  0EFA                     u6880:
  8493                           	
  8494  0EFA                     l9984:	
  8495  0EFA  083D               	movf	(__PREVIOUS_PROCESS),w
  8496  0EFB  3A03               	xorlw	03h
  8497  0EFC  1D03               	skipz
  8498  0EFD  2EFF               	goto	u6891
  8499  0EFE  2F00               	goto	u6890
  8500  0EFF                     u6891:
  8501  0EFF  2F23               	goto	l9992
  8502  0F00                     u6890:
  8503                           	line	687
  8504                           	
  8505  0F00                     l9986:	
  8506                           ;Beverage_services.c: 686: {
  8507                           ;Beverage_services.c: 687: _PROCESS=_Countdisplay;
  8508  0F00  01BE               	clrf	(__PROCESS)
  8509  0F01  1403               	bsf	status,0
  8510  0F02  0DBE               	rlf	(__PROCESS),f
  8511  0F03  2F23               	goto	l9992
  8512                           	line	688
  8513                           	
  8514  0F04                     l3311:	
  8515                           	line	689
  8516                           ;Beverage_services.c: 688: }
  8517                           ;Beverage_services.c: 689: break;
  8518  0F04  2F23               	goto	l9992
  8519                           	line	690
  8520                           	
  8521  0F05                     l9988:	
  8522                           ;Beverage_services.c: 690: }
  8523  0F05  2F23               	goto	l9992
  8524                           	line	600
  8525                           	
  8526  0F06                     l3284:	
  8527                           	
  8528  0F06                     l9990:	
  8529  0F06  083B               	movf	(__PRESSED),w
  8530                           	; Switch size 1, requested type "space"
  8531                           ; Number of cases is 9, Range of values is 1 to 9
  8532                           ; switch strategies available:
  8533                           ; Name         Instructions Cycles
  8534                           ; simple_byte           28    15 (average)
  8535                           ; direct_byte           38    11 (fixed)
  8536                           ; jumptable            263     9 (fixed)
  8537                           ;	Chosen strategy is simple_byte
  8538                           
  8539                           	opt asmopt_off
  8540  0F07  3A01               	xorlw	1^0	; case 1
  8541  0F08  1903               	skipnz
  8542  0F09  2D4D               	goto	l9876
  8543  0F0A  3A03               	xorlw	2^1	; case 2
  8544  0F0B  1903               	skipnz
  8545  0F0C  2DC9               	goto	l9906
  8546  0F0D  3A01               	xorlw	3^2	; case 3
  8547  0F0E  1903               	skipnz
  8548  0F0F  2E45               	goto	l9936
  8549  0F10  3A07               	xorlw	4^3	; case 4
  8550  0F11  1903               	skipnz
  8551  0F12  2E4E               	goto	l9938
  8552  0F13  3A01               	xorlw	5^4	; case 5
  8553  0F14  1903               	skipnz
  8554  0F15  2E57               	goto	l9940
  8555  0F16  3A03               	xorlw	6^5	; case 6
  8556  0F17  1903               	skipnz
  8557  0F18  2E60               	goto	l9942
  8558  0F19  3A01               	xorlw	7^6	; case 7
  8559  0F1A  1903               	skipnz
  8560  0F1B  2E69               	goto	l9944
  8561  0F1C  3A0F               	xorlw	8^7	; case 8
  8562  0F1D  1903               	skipnz
  8563  0F1E  2ED4               	goto	l9974
  8564  0F1F  3A01               	xorlw	9^8	; case 9
  8565  0F20  1903               	skipnz
  8566  0F21  2ECB               	goto	l9972
  8567  0F22  2F23               	goto	l9992
  8568                           	opt asmopt_on
  8569                           
  8570                           	line	690
  8571                           	
  8572  0F23                     l3291:	
  8573                           	line	691
  8574                           	
  8575  0F23                     l9992:	
  8576                           ;Beverage_services.c: 691: if(_PREVIOUS_PROCESS!=_PROCESS)
  8577  0F23  083D               	movf	(__PREVIOUS_PROCESS),w
  8578  0F24  063E               	xorwf	(__PROCESS),w
  8579  0F25  1903               	skipnz
  8580  0F26  2F28               	goto	u6901
  8581  0F27  2F29               	goto	u6900
  8582  0F28                     u6901:
  8583  0F28  2F88               	goto	l10010
  8584  0F29                     u6900:
  8585                           	line	693
  8586                           	
  8587  0F29                     l9994:	
  8588                           ;Beverage_services.c: 692: {
  8589                           ;Beverage_services.c: 693: if(_PROCESS==_Countdisplay)
  8590  0F29  083E               	movf	(__PROCESS),w
  8591  0F2A  3A01               	xorlw	01h
  8592  0F2B  1D03               	skipz
  8593  0F2C  2F2E               	goto	u6911
  8594  0F2D  2F2F               	goto	u6910
  8595  0F2E                     u6911:
  8596  0F2E  2F3D               	goto	l9998
  8597  0F2F                     u6910:
  8598                           	line	695
  8599                           	
  8600  0F2F                     l9996:	
  8601                           ;Beverage_services.c: 694: {
  8602                           ;Beverage_services.c: 695: Lcd_String("COUNT DISPLAY",1,0);
  8603  0F2F  30D6               	movlw	low(STR_26|8000h)
  8604  0F30  00CE               	movwf	(?_Lcd_String)
  8605  0F31  3090               	movlw	high(STR_26|8000h)
  8606  0F32  00CF               	movwf	((?_Lcd_String))+1
  8607  0F33  01D0               	clrf	0+(?_Lcd_String)+02h
  8608  0F34  1403               	bsf	status,0
  8609  0F35  0DD0               	rlf	0+(?_Lcd_String)+02h,f
  8610  0F36  01D1               	clrf	0+(?_Lcd_String)+03h
  8611  0F37  120A  158A  2000   	fcall	_Lcd_String
              120A  158A         
  8612  0F3C  2F3D               	goto	l9998
  8613                           	line	696
  8614                           	
  8615  0F3D                     l3313:	
  8616                           	line	697
  8617                           	
  8618  0F3D                     l9998:	
  8619                           ;Beverage_services.c: 696: }
  8620                           ;Beverage_services.c: 697: if(_PROCESS==_Preparation)
  8621  0F3D  1283               	bcf	status, 5	;RP0=0, select bank0
  8622  0F3E  1303               	bcf	status, 6	;RP1=0, select bank0
  8623  0F3F  083E               	movf	(__PROCESS),w
  8624  0F40  3A02               	xorlw	02h
  8625  0F41  1D03               	skipz
  8626  0F42  2F44               	goto	u6921
  8627  0F43  2F45               	goto	u6920
  8628  0F44                     u6921:
  8629  0F44  2F62               	goto	l10002
  8630  0F45                     u6920:
  8631                           	line	699
  8632                           	
  8633  0F45                     l10000:	
  8634                           ;Beverage_services.c: 698: {
  8635                           ;Beverage_services.c: 699: Lcd_String("DICATION",1,0);
  8636  0F45  300F               	movlw	low(STR_27|8000h)
  8637  0F46  00CE               	movwf	(?_Lcd_String)
  8638  0F47  3091               	movlw	high(STR_27|8000h)
  8639  0F48  00CF               	movwf	((?_Lcd_String))+1
  8640  0F49  01D0               	clrf	0+(?_Lcd_String)+02h
  8641  0F4A  1403               	bsf	status,0
  8642  0F4B  0DD0               	rlf	0+(?_Lcd_String)+02h,f
  8643  0F4C  01D1               	clrf	0+(?_Lcd_String)+03h
  8644  0F4D  120A  158A  2000   	fcall	_Lcd_String
              120A  158A         
  8645                           	line	700
  8646                           ;Beverage_services.c: 700: Lcd_String("PREPARATION",0,1);
  8647  0F52  303E               	movlw	low(STR_28|8000h)
  8648  0F53  1283               	bcf	status, 5	;RP0=0, select bank0
  8649  0F54  1303               	bcf	status, 6	;RP1=0, select bank0
  8650  0F55  00CE               	movwf	(?_Lcd_String)
  8651  0F56  3091               	movlw	high(STR_28|8000h)
  8652  0F57  00CF               	movwf	((?_Lcd_String))+1
  8653  0F58  01D0               	clrf	0+(?_Lcd_String)+02h
  8654  0F59  01D1               	clrf	0+(?_Lcd_String)+03h
  8655  0F5A  1403               	bsf	status,0
  8656  0F5B  0DD1               	rlf	0+(?_Lcd_String)+03h,f
  8657  0F5C  120A  158A  2000   	fcall	_Lcd_String
              120A  158A         
  8658  0F61  2F62               	goto	l10002
  8659                           	line	701
  8660                           	
  8661  0F62                     l3314:	
  8662                           	line	702
  8663                           	
  8664  0F62                     l10002:	
  8665                           ;Beverage_services.c: 701: }
  8666                           ;Beverage_services.c: 702: if(_PROCESS==_Cleaning)
  8667  0F62  1283               	bcf	status, 5	;RP0=0, select bank0
  8668  0F63  1303               	bcf	status, 6	;RP1=0, select bank0
  8669  0F64  083E               	movf	(__PROCESS),w
  8670  0F65  3A03               	xorlw	03h
  8671  0F66  1D03               	skipz
  8672  0F67  2F69               	goto	u6931
  8673  0F68  2F6A               	goto	u6930
  8674  0F69                     u6931:
  8675  0F69  2F78               	goto	l10006
  8676  0F6A                     u6930:
  8677                           	line	704
  8678                           	
  8679  0F6A                     l10004:	
  8680                           ;Beverage_services.c: 703: {
  8681                           ;Beverage_services.c: 704: Lcd_String("CLEANING",1,0);
  8682  0F6A  3002               	movlw	low(STR_29|8000h)
  8683  0F6B  00CE               	movwf	(?_Lcd_String)
  8684  0F6C  3091               	movlw	high(STR_29|8000h)
  8685  0F6D  00CF               	movwf	((?_Lcd_String))+1
  8686  0F6E  01D0               	clrf	0+(?_Lcd_String)+02h
  8687  0F6F  1403               	bsf	status,0
  8688  0F70  0DD0               	rlf	0+(?_Lcd_String)+02h,f
  8689  0F71  01D1               	clrf	0+(?_Lcd_String)+03h
  8690  0F72  120A  158A  2000   	fcall	_Lcd_String
              120A  158A         
  8691  0F77  2F78               	goto	l10006
  8692                           	line	705
  8693                           	
  8694  0F78                     l3315:	
  8695                           	line	706
  8696                           	
  8697  0F78                     l10006:	
  8698                           ;Beverage_services.c: 705: }
  8699                           ;Beverage_services.c: 706: DelayMs(10);
  8700  0F78  300A               	movlw	low(0Ah)
  8701  0F79  00FC               	movwf	(?_DelayMs)
  8702  0F7A  3000               	movlw	high(0Ah)
  8703  0F7B  00FD               	movwf	((?_DelayMs))+1
  8704  0F7C  160A  158A  217A   	fcall	_DelayMs
              120A  158A         
  8705                           	line	707
  8706                           	
  8707  0F81                     l10008:	
  8708                           ;Beverage_services.c: 707: _PREVIOUS_PROCESS=_PROCESS;
  8709  0F81  1283               	bcf	status, 5	;RP0=0, select bank0
  8710  0F82  1303               	bcf	status, 6	;RP1=0, select bank0
  8711  0F83  083E               	movf	(__PROCESS),w
  8712  0F84  00DC               	movwf	(??_enable_valves+0)+0
  8713  0F85  085C               	movf	(??_enable_valves+0)+0,w
  8714  0F86  00BD               	movwf	(__PREVIOUS_PROCESS)
  8715  0F87  2F88               	goto	l10010
  8716                           	line	708
  8717                           	
  8718  0F88                     l3312:	
  8719                           	line	709
  8720                           	
  8721  0F88                     l10010:	
  8722                           ;Beverage_services.c: 708: }
  8723                           ;Beverage_services.c: 709: if(_PRESSED && (_PRESSED!=_EXTRA_BUTTON))
  8724  0F88  083B               	movf	(__PRESSED),w
  8725  0F89  1D03               	skipz
  8726  0F8A  2F8C               	goto	u6940
  8727  0F8B  2FEF               	goto	l10038
  8728  0F8C                     u6940:
  8729                           	
  8730  0F8C                     l10012:	
  8731  0F8C  083B               	movf	(__PRESSED),w
  8732  0F8D  3A08               	xorlw	08h
  8733  0F8E  1903               	skipnz
  8734  0F8F  2F91               	goto	u6951
  8735  0F90  2F92               	goto	u6950
  8736  0F91                     u6951:
  8737  0F91  2FEF               	goto	l10038
  8738  0F92                     u6950:
  8739                           	line	711
  8740                           	
  8741  0F92                     l10014:	
  8742                           ;Beverage_services.c: 710: {
  8743                           ;Beverage_services.c: 711: Inidcate_Buzzer();
  8744  0F92  160A  158A  20CB   	fcall	_Inidcate_Buzzer
              120A  158A         
  8745                           	line	712
  8746                           	
  8747  0F97                     l10016:	
  8748                           ;Beverage_services.c: 712: if(_PROCESS!=_Countdisplay)
  8749  0F97  1283               	bcf	status, 5	;RP0=0, select bank0
  8750  0F98  1303               	bcf	status, 6	;RP1=0, select bank0
  8751  0F99  083E               	movf	(__PROCESS),w
  8752  0F9A  3A01               	xorlw	01h
  8753  0F9B  1903               	skipnz
  8754  0F9C  2F9E               	goto	u6961
  8755  0F9D  2F9F               	goto	u6960
  8756  0F9E                     u6961:
  8757  0F9E  2FAE               	goto	l10024
  8758  0F9F                     u6960:
  8759                           	line	714
  8760                           	
  8761  0F9F                     l10018:	
  8762                           ;Beverage_services.c: 713: {
  8763                           ;Beverage_services.c: 714: call_control_valve();
  8764  0F9F  120A  118A  23DB   	fcall	_call_control_valve
              120A  158A         
  8765                           	line	716
  8766                           	
  8767  0FA4                     l10020:	
  8768                           ;Beverage_services.c: 716: _DISABLE_MODE=_Shortcut_Mode;
  8769  0FA4  300E               	movlw	(0Eh)
  8770  0FA5  1283               	bcf	status, 5	;RP0=0, select bank0
  8771  0FA6  1303               	bcf	status, 6	;RP1=0, select bank0
  8772  0FA7  00DC               	movwf	(??_enable_valves+0)+0
  8773  0FA8  085C               	movf	(??_enable_valves+0)+0,w
  8774  0FA9  00B7               	movwf	(__DISABLE_MODE)
  8775                           	line	717
  8776                           	
  8777  0FAA                     l10022:	
  8778                           ;Beverage_services.c: 717: _ENABLE_MODE=_Normal_Mode;
  8779  0FAA  01B8               	clrf	(__ENABLE_MODE)
  8780  0FAB  1403               	bsf	status,0
  8781  0FAC  0DB8               	rlf	(__ENABLE_MODE),f
  8782  0FAD  2FAE               	goto	l10024
  8783                           	line	718
  8784                           	
  8785  0FAE                     l3317:	
  8786                           	line	719
  8787                           	
  8788  0FAE                     l10024:	
  8789                           ;Beverage_services.c: 718: }
  8790                           ;Beverage_services.c: 719: if(_PROCESS!=_Cleaning && _PROCESS!=_Countdisplay)
  8791  0FAE  083E               	movf	(__PROCESS),w
  8792  0FAF  3A03               	xorlw	03h
  8793  0FB0  1903               	skipnz
  8794  0FB1  2FB3               	goto	u6971
  8795  0FB2  2FB4               	goto	u6970
  8796  0FB3                     u6971:
  8797  0FB3  2FBD               	goto	l10030
  8798  0FB4                     u6970:
  8799                           	
  8800  0FB4                     l10026:	
  8801  0FB4  083E               	movf	(__PROCESS),w
  8802  0FB5  3A01               	xorlw	01h
  8803  0FB6  1903               	skipnz
  8804  0FB7  2FB9               	goto	u6981
  8805  0FB8  2FBA               	goto	u6980
  8806  0FB9                     u6981:
  8807  0FB9  2FBD               	goto	l10030
  8808  0FBA                     u6980:
  8809                           	line	721
  8810                           	
  8811  0FBA                     l10028:	
  8812                           ;Beverage_services.c: 720: {
  8813                           ;Beverage_services.c: 721: Enable_Shortcut_Mode=0;
  8814  0FBA  116D               	bcf	(_Enable_Shortcut_Mode/8),(_Enable_Shortcut_Mode)&7
  8815                           	line	722
  8816                           ;Beverage_services.c: 722: Enable_Normal_Mode=1;
  8817  0FBB  17EC               	bsf	(_Enable_Normal_Mode/8),(_Enable_Normal_Mode)&7
  8818  0FBC  2FBD               	goto	l10030
  8819                           	line	723
  8820                           	
  8821  0FBD                     l3318:	
  8822                           	line	724
  8823                           	
  8824  0FBD                     l10030:	
  8825                           ;Beverage_services.c: 723: }
  8826                           ;Beverage_services.c: 724: if(_PROCESS==_Countdisplay)
  8827  0FBD  083E               	movf	(__PROCESS),w
  8828  0FBE  3A01               	xorlw	01h
  8829  0FBF  1D03               	skipz
  8830  0FC0  2FC2               	goto	u6991
  8831  0FC1  2FC3               	goto	u6990
  8832  0FC2                     u6991:
  8833  0FC2  2FEF               	goto	l10038
  8834  0FC3                     u6990:
  8835                           	line	726
  8836                           	
  8837  0FC3                     l10032:	
  8838                           ;Beverage_services.c: 725: {
  8839                           ;Beverage_services.c: 726: Print_Menu();
  8840  0FC3  120A  118A  2709   	fcall	_Print_Menu
              120A  158A         
  8841                           	line	727
  8842                           	
  8843  0FC8                     l10034:	
  8844                           ;Beverage_services.c: 727: Lcd_Cmd(0xC5); Num_Disp(count_read(mem_index1,mem_index2),5,0
                                 );
  8845  0FC8  30C5               	movlw	(0C5h)
  8846  0FC9  160A  158A  229B   	fcall	_Lcd_Cmd
              120A  158A         
  8847                           	
  8848  0FCE                     l10036:	
  8849  0FCE  1283               	bcf	status, 5	;RP0=0, select bank0
  8850  0FCF  1303               	bcf	status, 6	;RP1=0, select bank0
  8851  0FD0  0842               	movf	(_mem_index2),w
  8852  0FD1  00DC               	movwf	(??_enable_valves+0)+0
  8853  0FD2  085C               	movf	(??_enable_valves+0)+0,w
  8854  0FD3  00FC               	movwf	(?_count_read)
  8855  0FD4  0841               	movf	(_mem_index1),w
  8856  0FD5  160A  158A  222E   	fcall	_count_read
              120A  158A         
  8857  0FDA  087D               	movf	(1+(?_count_read)),w
  8858  0FDB  1283               	bcf	status, 5	;RP0=0, select bank0
  8859  0FDC  1303               	bcf	status, 6	;RP1=0, select bank0
  8860  0FDD  01D1               	clrf	(?_Num_Disp+1)
  8861  0FDE  07D1               	addwf	(?_Num_Disp+1)
  8862  0FDF  087C               	movf	(0+(?_count_read)),w
  8863  0FE0  01D0               	clrf	(?_Num_Disp)
  8864  0FE1  07D0               	addwf	(?_Num_Disp)
  8865                           
  8866  0FE2  3005               	movlw	(05h)
  8867  0FE3  00DD               	movwf	(??_enable_valves+1)+0
  8868  0FE4  085D               	movf	(??_enable_valves+1)+0,w
  8869  0FE5  00D2               	movwf	0+(?_Num_Disp)+02h
  8870  0FE6  01D3               	clrf	0+(?_Num_Disp)+03h
  8871  0FE7  160A  158A  26F5   	fcall	_Num_Disp
              120A  158A         
  8872  0FEC  2FEF               	goto	l10038
  8873                           	line	728
  8874                           	
  8875  0FED                     l3319:	
  8876  0FED  2FEF               	goto	l10038
  8877                           	line	729
  8878                           	
  8879  0FEE                     l3316:	
  8880  0FEE  2FEF               	goto	l10038
  8881                           	line	730
  8882                           	
  8883  0FEF                     l3283:	
  8884                           	line	732
  8885                           	
  8886  0FEF                     l10038:	
  8887                           ;Beverage_services.c: 728: }
  8888                           ;Beverage_services.c: 729: }
  8889                           ;Beverage_services.c: 730: }
  8890                           ;Beverage_services.c: 732: if(_PRESSED!=0)
  8891  0FEF  1283               	bcf	status, 5	;RP0=0, select bank0
  8892  0FF0  1303               	bcf	status, 6	;RP1=0, select bank0
  8893  0FF1  083B               	movf	(__PRESSED),w
  8894  0FF2  1D03               	skipz
  8895  0FF3  2FF5               	goto	u7000
  8896  0FF4  2FFC               	goto	l3321
  8897  0FF5                     u7000:
  8898                           	line	734
  8899                           	
  8900  0FF5                     l10040:	
  8901                           ;Beverage_services.c: 733: {
  8902                           ;Beverage_services.c: 734: _PRESSED=0;
  8903  0FF5  01BB               	clrf	(__PRESSED)
  8904                           	line	735
  8905                           ;Beverage_services.c: 735: _SHORTCUT_PRESSED=0;
  8906  0FF6  01BF               	clrf	(__SHORTCUT_PRESSED)
  8907                           	line	736
  8908                           	
  8909  0FF7                     l10042:	
  8910                           ;Beverage_services.c: 736: i=0;j=0;
  8911  0FF7  01AB               	clrf	(_i)
  8912  0FF8  01AC               	clrf	(_i+1)
  8913  0FF9  01AD               	clrf	(_j)
  8914  0FFA  01AE               	clrf	(_j+1)
  8915  0FFB  2FFC               	goto	l3321
  8916                           	line	737
  8917                           	
  8918  0FFC                     l3320:	
  8919                           	line	738
  8920                           	
  8921  0FFC                     l3321:	
  8922  0FFC  0008               	return
      + 0FFD                     L1:	
  8923                           	opt stack 0
  8924                           GLOBAL	__end_of_enable_valves
  8925  20C3                     	__end_of_enable_valves:
  8926 ;; =============== function _enable_valves ends ============
  8927                           
  8928                           	signat	_enable_valves,88
  8929                           	global	_Mode_Init
  8930                           psect	text781,local,class=CODE,delta=2
  8931                           global __ptext781
  8932  1425                     __ptext781:
  8933                           
  8934 ;; *************** function _Mode_Init *****************
  8935 ;; Defined at:
  8936 ;;		line 46 in file "F:\BEVERAGES_ENHANCEMENT\SOFTWARE_DESIGN\MASTER_PIC_16F877A\2015_09_03\Beverage_services.c"
  8937 ;; Parameters:    Size  Location     Type
  8938 ;;		None
  8939 ;; Auto vars:     Size  Location     Type
  8940 ;;  option          1   21[BANK0 ] unsigned char 
  8941 ;; Return value:  Size  Location     Type
  8942 ;;		None               void
  8943 ;; Registers used:
  8944 ;;		wreg, fsr0l, fsr0h, status,2, status,0, btemp+1, pclath, cstack
  8945 ;; Tracked objects:
  8946 ;;		On entry : 0/0
  8947 ;;		On exit  : 0/0
  8948 ;;		Unchanged: 0/0
  8949 ;; Data sizes:     COMMON   BANK0   BANK1   BANK3   BANK2
  8950 ;;      Params:         0       0       0       0       0
  8951 ;;      Locals:         0       1       0       0       0
  8952 ;;      Temps:          0       2       0       0       0
  8953 ;;      Totals:         0       3       0       0       0
  8954 ;;Total ram usage:        3 bytes
  8955 ;; Hardware stack levels used:    1
  8956 ;; Hardware stack levels required when called:    4
  8957 ;; This function calls:
  8958 ;;		_Read_ValveFrom_Memory
  8959 ;;		_eeprom_read
  8960 ;;		_Lcd_String
  8961 ;;		_eeprom_write
  8962 ;;		_Lcd_Cmd
  8963 ;;		_call_control_valve
  8964 ;; This function is called by:
  8965 ;;		_main
  8966 ;; This function uses a non-reentrant model
  8967 ;;
  8968                           psect	text781
  8969                           	file	"F:\BEVERAGES_ENHANCEMENT\SOFTWARE_DESIGN\MASTER_PIC_16F877A\2015_09_03\Beverage_s
                                 ervices.c"
  8970                           	line	46
  8971                           	global	__size_of_Mode_Init
  8972  0135                     	__size_of_Mode_Init	equ	__end_of_Mode_Init-_Mode_Init
  8973                           	
  8974  1425                     _Mode_Init:	
  8975                           	opt	stack 3
  8976                           ; Regs used in _Mode_Init: [wreg-fsr0h+status,2+status,0+btemp+1+pclath+cstack]
  8977                           	line	47
  8978                           	
  8979  1425                     l9250:	
  8980                           ;Beverage_services.c: 47: Enable_Normal_Mode=0;
  8981  1425  1283               	bcf	status, 5	;RP0=0, select bank0
  8982  1426  1303               	bcf	status, 6	;RP1=0, select bank0
  8983  1427  13EC               	bcf	(_Enable_Normal_Mode/8),(_Enable_Normal_Mode)&7
  8984                           	line	48
  8985                           ;Beverage_services.c: 48: Enable_Config_Mode=0;
  8986  1428  11EB               	bcf	(_Enable_Config_Mode/8),(_Enable_Config_Mode)&7
  8987                           	line	49
  8988                           ;Beverage_services.c: 49: Enable_Password=0;
  8989  1429  106D               	bcf	(_Enable_Password/8),(_Enable_Password)&7
  8990                           	line	50
  8991                           ;Beverage_services.c: 50: Enable_Valves=0;
  8992  142A  13ED               	bcf	(_Enable_Valves/8),(_Enable_Valves)&7
  8993                           	line	51
  8994                           ;Beverage_services.c: 51: Enable_Selection=0;
  8995  142B  10ED               	bcf	(_Enable_Selection/8),(_Enable_Selection)&7
  8996                           	line	52
  8997                           ;Beverage_services.c: 52: Enable_Coffee_Dication_Time=0;
  8998  142C  106B               	bcf	(_Enable_Coffee_Dication_Time/8),(_Enable_Coffee_Dication_Time)&7
  8999                           	line	53
  9000                           ;Beverage_services.c: 53: Enable_Tea_Dication_Time=0;
  9001  142D  11ED               	bcf	(_Enable_Tea_Dication_Time/8),(_Enable_Tea_Dication_Time)&7
  9002                           	line	54
  9003                           ;Beverage_services.c: 54: Enable_Dication_Delay=0;
  9004  142E  136B               	bcf	(_Enable_Dication_Delay/8),(_Enable_Dication_Delay)&7
  9005                           	line	55
  9006                           ;Beverage_services.c: 55: Enable_Hot_Water_Time=0;
  9007  142F  10EC               	bcf	(_Enable_Hot_Water_Time/8),(_Enable_Hot_Water_Time)&7
  9008                           	line	56
  9009                           ;Beverage_services.c: 56: Enable_Temperature=0;
  9010  1430  136D               	bcf	(_Enable_Temperature/8),(_Enable_Temperature)&7
  9011                           	line	57
  9012                           ;Beverage_services.c: 57: Enable_Cup_Count=0;
  9013  1431  12EB               	bcf	(_Enable_Cup_Count/8),(_Enable_Cup_Count)&7
  9014                           	line	58
  9015                           ;Beverage_services.c: 58: Enable_Count_Reset=0;
  9016  1432  126B               	bcf	(_Enable_Count_Reset/8),(_Enable_Count_Reset)&7
  9017                           	line	59
  9018                           ;Beverage_services.c: 59: Enable_Shortcut_Mode=0;
  9019  1433  116D               	bcf	(_Enable_Shortcut_Mode/8),(_Enable_Shortcut_Mode)&7
  9020                           	line	61
  9021                           ;Beverage_services.c: 61: for(unsigned char option=0;option<9;option++)
  9022  1434  01DE               	clrf	(Mode_Init@option)
  9023                           	
  9024  1435                     l9252:	
  9025  1435  3009               	movlw	(09h)
  9026  1436  025E               	subwf	(Mode_Init@option),w
  9027  1437  1C03               	skipc
  9028  1438  2C3A               	goto	u5631
  9029  1439  2C3B               	goto	u5630
  9030  143A                     u5631:
  9031  143A  2C3D               	goto	l9256
  9032  143B                     u5630:
  9033  143B  2C57               	goto	l9262
  9034                           	
  9035  143C                     l9254:	
  9036  143C  2C57               	goto	l9262
  9037                           	line	62
  9038                           	
  9039  143D                     l3101:	
  9040                           	line	63
  9041                           	
  9042  143D                     l9256:	
  9043                           ;Beverage_services.c: 62: {
  9044                           ;Beverage_services.c: 63: MENU[option]=Read_ValveFrom_Memory(option);
  9045  143D  085E               	movf	(Mode_Init@option),w
  9046  143E  160A  158A  2572   	fcall	_Read_ValveFrom_Memory
              160A  118A         
  9047  1443  1283               	bcf	status, 5	;RP0=0, select bank0
  9048  1444  1303               	bcf	status, 6	;RP1=0, select bank0
  9049  1445  00DC               	movwf	(??_Mode_Init+0)+0
  9050  1446  085E               	movf	(Mode_Init@option),w
  9051  1447  3E20               	addlw	_MENU&0ffh
  9052  1448  0084               	movwf	fsr0
  9053  1449  085C               	movf	(??_Mode_Init+0)+0,w
  9054  144A  1383               	bcf	status, 7	;select IRP bank0
  9055  144B  0080               	movwf	indf
  9056                           	line	61
  9057                           	
  9058  144C                     l9258:	
  9059  144C  3001               	movlw	(01h)
  9060  144D  00DC               	movwf	(??_Mode_Init+0)+0
  9061  144E  085C               	movf	(??_Mode_Init+0)+0,w
  9062  144F  07DE               	addwf	(Mode_Init@option),f
  9063                           	
  9064  1450                     l9260:	
  9065  1450  3009               	movlw	(09h)
  9066  1451  025E               	subwf	(Mode_Init@option),w
  9067  1452  1C03               	skipc
  9068  1453  2C55               	goto	u5641
  9069  1454  2C56               	goto	u5640
  9070  1455                     u5641:
  9071  1455  2C3D               	goto	l9256
  9072  1456                     u5640:
  9073  1456  2C57               	goto	l9262
  9074                           	
  9075  1457                     l3102:	
  9076                           	line	65
  9077                           	
  9078  1457                     l9262:	
  9079                           ;Beverage_services.c: 64: }
  9080                           ;Beverage_services.c: 65: if(eeprom_read(145)>1 || eeprom_read(146)>1)
  9081  1457  3091               	movlw	(091h)
  9082  1458  00DC               	movwf	(??_Mode_Init+0)+0
  9083  1459  085C               	movf	(??_Mode_Init+0)+0,w
  9084  145A  00F4               	movwf	(?_eeprom_read)
  9085  145B  160A  158A  211F   	fcall	_eeprom_read
              160A  118A         
  9086  1460  1283               	bcf	status, 5	;RP0=0, select bank0
  9087  1461  1303               	bcf	status, 6	;RP1=0, select bank0
  9088  1462  00DD               	movwf	(??_Mode_Init+1)+0
  9089  1463  3002               	movlw	(02h)
  9090  1464  025D               	subwf	0+(??_Mode_Init+1)+0,w
  9091  1465  1803               	skipnc
  9092  1466  2C68               	goto	u5651
  9093  1467  2C69               	goto	u5650
  9094  1468                     u5651:
  9095  1468  2C7C               	goto	l9266
  9096  1469                     u5650:
  9097                           	
  9098  1469                     l9264:	
  9099  1469  3092               	movlw	(092h)
  9100  146A  00DC               	movwf	(??_Mode_Init+0)+0
  9101  146B  085C               	movf	(??_Mode_Init+0)+0,w
  9102  146C  00F4               	movwf	(?_eeprom_read)
  9103  146D  160A  158A  211F   	fcall	_eeprom_read
              160A  118A         
  9104  1472  1283               	bcf	status, 5	;RP0=0, select bank0
  9105  1473  1303               	bcf	status, 6	;RP1=0, select bank0
  9106  1474  00DD               	movwf	(??_Mode_Init+1)+0
  9107  1475  3002               	movlw	(02h)
  9108  1476  025D               	subwf	0+(??_Mode_Init+1)+0,w
  9109  1477  1C03               	skipc
  9110  1478  2C7A               	goto	u5661
  9111  1479  2C7B               	goto	u5660
  9112  147A                     u5661:
  9113  147A  2D59               	goto	l3115
  9114  147B                     u5660:
  9115  147B  2C7C               	goto	l9266
  9116                           	
  9117  147C                     l3105:	
  9118                           	line	67
  9119                           	
  9120  147C                     l9266:	
  9121                           ;Beverage_services.c: 66: {
  9122                           ;Beverage_services.c: 67: Lcd_String("CONTINUE",1,0);
  9123  147C  3080               	movlw	low(STR_14|8000h)
  9124  147D  00CE               	movwf	(?_Lcd_String)
  9125  147E  3091               	movlw	high(STR_14|8000h)
  9126  147F  00CF               	movwf	((?_Lcd_String))+1
  9127  1480  01D0               	clrf	0+(?_Lcd_String)+02h
  9128  1481  1403               	bsf	status,0
  9129  1482  0DD0               	rlf	0+(?_Lcd_String)+02h,f
  9130  1483  01D1               	clrf	0+(?_Lcd_String)+03h
  9131  1484  120A  158A  2000   	fcall	_Lcd_String
              160A  118A         
  9132                           	line	68
  9133                           ;Beverage_services.c: 68: Lcd_String("PREPARATION",0,1);
  9134  1489  303E               	movlw	low(STR_15|8000h)
  9135  148A  1283               	bcf	status, 5	;RP0=0, select bank0
  9136  148B  1303               	bcf	status, 6	;RP1=0, select bank0
  9137  148C  00CE               	movwf	(?_Lcd_String)
  9138  148D  3091               	movlw	high(STR_15|8000h)
  9139  148E  00CF               	movwf	((?_Lcd_String))+1
  9140  148F  01D0               	clrf	0+(?_Lcd_String)+02h
  9141  1490  01D1               	clrf	0+(?_Lcd_String)+03h
  9142  1491  1403               	bsf	status,0
  9143  1492  0DD1               	rlf	0+(?_Lcd_String)+03h,f
  9144  1493  120A  158A  2000   	fcall	_Lcd_String
              160A  118A         
  9145  1498  2C99               	goto	l9268
  9146                           	line	69
  9147                           ;Beverage_services.c: 69: while(1)
  9148                           	
  9149  1499                     l3106:	
  9150                           	line	71
  9151                           	
  9152  1499                     l9268:	
  9153                           ;Beverage_services.c: 70: {
  9154                           ;Beverage_services.c: 71: if(RB7==0)
  9155  1499  1283               	bcf	status, 5	;RP0=0, select bank0
  9156  149A  1303               	bcf	status, 6	;RP1=0, select bank0
  9157  149B  1B86               	btfsc	(55/8),(55)&7
  9158  149C  2C9E               	goto	u5671
  9159  149D  2C9F               	goto	u5670
  9160  149E                     u5671:
  9161  149E  2D35               	goto	l9290
  9162  149F                     u5670:
  9163                           	line	73
  9164                           	
  9165  149F                     l9270:	
  9166                           ;Beverage_services.c: 72: {
  9167                           ;Beverage_services.c: 73: eeprom_write(145,eeprom_read(145)-1);
  9168  149F  3091               	movlw	(091h)
  9169  14A0  00DC               	movwf	(??_Mode_Init+0)+0
  9170  14A1  085C               	movf	(??_Mode_Init+0)+0,w
  9171  14A2  00F4               	movwf	(?_eeprom_read)
  9172  14A3  160A  158A  211F   	fcall	_eeprom_read
              160A  118A         
  9173  14A8  3EFF               	addlw	0FFh
  9174  14A9  1283               	bcf	status, 5	;RP0=0, select bank0
  9175  14AA  1303               	bcf	status, 6	;RP1=0, select bank0
  9176  14AB  00DD               	movwf	(??_Mode_Init+1)+0
  9177  14AC  085D               	movf	(??_Mode_Init+1)+0,w
  9178  14AD  00F6               	movwf	(?_eeprom_write)
  9179  14AE  3091               	movlw	(091h)
  9180  14AF  160A  158A  21FD   	fcall	_eeprom_write
              160A  118A         
  9181                           	line	74
  9182                           ;Beverage_services.c: 74: eeprom_write(146,eeprom_read(146)-1);
  9183  14B4  3092               	movlw	(092h)
  9184  14B5  1283               	bcf	status, 5	;RP0=0, select bank0
  9185  14B6  1303               	bcf	status, 6	;RP1=0, select bank0
  9186  14B7  00DC               	movwf	(??_Mode_Init+0)+0
  9187  14B8  085C               	movf	(??_Mode_Init+0)+0,w
  9188  14B9  00F4               	movwf	(?_eeprom_read)
  9189  14BA  160A  158A  211F   	fcall	_eeprom_read
              160A  118A         
  9190  14BF  3EFF               	addlw	0FFh
  9191  14C0  1283               	bcf	status, 5	;RP0=0, select bank0
  9192  14C1  1303               	bcf	status, 6	;RP1=0, select bank0
  9193  14C2  00DD               	movwf	(??_Mode_Init+1)+0
  9194  14C3  085D               	movf	(??_Mode_Init+1)+0,w
  9195  14C4  00F6               	movwf	(?_eeprom_write)
  9196  14C5  3092               	movlw	(092h)
  9197  14C6  160A  158A  21FD   	fcall	_eeprom_write
              160A  118A         
  9198                           	line	75
  9199                           ;Beverage_services.c: 75: Lcd_Cmd(0x80);
  9200  14CB  3080               	movlw	(080h)
  9201  14CC  160A  158A  229B   	fcall	_Lcd_Cmd
              160A  118A         
  9202                           	line	76
  9203                           	
  9204  14D1                     l9272:	
  9205                           ;Beverage_services.c: 76: Lcd_String("DICATION",0,0);
  9206  14D1  300F               	movlw	low(STR_16|8000h)
  9207  14D2  1283               	bcf	status, 5	;RP0=0, select bank0
  9208  14D3  1303               	bcf	status, 6	;RP1=0, select bank0
  9209  14D4  00CE               	movwf	(?_Lcd_String)
  9210  14D5  3091               	movlw	high(STR_16|8000h)
  9211  14D6  00CF               	movwf	((?_Lcd_String))+1
  9212  14D7  01D0               	clrf	0+(?_Lcd_String)+02h
  9213  14D8  01D1               	clrf	0+(?_Lcd_String)+03h
  9214  14D9  120A  158A  2000   	fcall	_Lcd_String
              160A  118A         
  9215                           	line	77
  9216                           	
  9217  14DE                     l9274:	
  9218                           ;Beverage_services.c: 77: if(eeprom_read(145)>1 && eeprom_read(145)<10)
  9219  14DE  3091               	movlw	(091h)
  9220  14DF  1283               	bcf	status, 5	;RP0=0, select bank0
  9221  14E0  1303               	bcf	status, 6	;RP1=0, select bank0
  9222  14E1  00DC               	movwf	(??_Mode_Init+0)+0
  9223  14E2  085C               	movf	(??_Mode_Init+0)+0,w
  9224  14E3  00F4               	movwf	(?_eeprom_read)
  9225  14E4  160A  158A  211F   	fcall	_eeprom_read
              160A  118A         
  9226  14E9  1283               	bcf	status, 5	;RP0=0, select bank0
  9227  14EA  1303               	bcf	status, 6	;RP1=0, select bank0
  9228  14EB  00DD               	movwf	(??_Mode_Init+1)+0
  9229  14EC  3002               	movlw	(02h)
  9230  14ED  025D               	subwf	0+(??_Mode_Init+1)+0,w
  9231  14EE  1C03               	skipc
  9232  14EF  2CF1               	goto	u5681
  9233  14F0  2CF2               	goto	u5680
  9234  14F1                     u5681:
  9235  14F1  2D06               	goto	l9280
  9236  14F2                     u5680:
  9237                           	
  9238  14F2                     l9276:	
  9239  14F2  3091               	movlw	(091h)
  9240  14F3  00DC               	movwf	(??_Mode_Init+0)+0
  9241  14F4  085C               	movf	(??_Mode_Init+0)+0,w
  9242  14F5  00F4               	movwf	(?_eeprom_read)
  9243  14F6  160A  158A  211F   	fcall	_eeprom_read
              160A  118A         
  9244  14FB  1283               	bcf	status, 5	;RP0=0, select bank0
  9245  14FC  1303               	bcf	status, 6	;RP1=0, select bank0
  9246  14FD  00DD               	movwf	(??_Mode_Init+1)+0
  9247  14FE  300A               	movlw	(0Ah)
  9248  14FF  025D               	subwf	0+(??_Mode_Init+1)+0,w
  9249  1500  1803               	skipnc
  9250  1501  2D03               	goto	u5691
  9251  1502  2D04               	goto	u5690
  9252  1503                     u5691:
  9253  1503  2D06               	goto	l9280
  9254  1504                     u5690:
  9255                           	line	78
  9256                           	
  9257  1504                     l9278:	
  9258                           ;Beverage_services.c: 78: Enable_Coffee_Hot_Water_Valve = 1;
  9259  1504  14EB               	bsf	(_Enable_Coffee_Hot_Water_Valve/8),(_Enable_Coffee_Hot_Water_Valve)&7
  9260  1505  2D06               	goto	l9280
  9261                           	
  9262  1506                     l3108:	
  9263                           	line	79
  9264                           	
  9265  1506                     l9280:	
  9266                           ;Beverage_services.c: 79: if(eeprom_read(146)>1 && eeprom_read(146)<10)
  9267  1506  3092               	movlw	(092h)
  9268  1507  00DC               	movwf	(??_Mode_Init+0)+0
  9269  1508  085C               	movf	(??_Mode_Init+0)+0,w
  9270  1509  00F4               	movwf	(?_eeprom_read)
  9271  150A  160A  158A  211F   	fcall	_eeprom_read
              160A  118A         
  9272  150F  1283               	bcf	status, 5	;RP0=0, select bank0
  9273  1510  1303               	bcf	status, 6	;RP1=0, select bank0
  9274  1511  00DD               	movwf	(??_Mode_Init+1)+0
  9275  1512  3002               	movlw	(02h)
  9276  1513  025D               	subwf	0+(??_Mode_Init+1)+0,w
  9277  1514  1C03               	skipc
  9278  1515  2D17               	goto	u5701
  9279  1516  2D18               	goto	u5700
  9280  1517                     u5701:
  9281  1517  2D2C               	goto	l9286
  9282  1518                     u5700:
  9283                           	
  9284  1518                     l9282:	
  9285  1518  3092               	movlw	(092h)
  9286  1519  00DC               	movwf	(??_Mode_Init+0)+0
  9287  151A  085C               	movf	(??_Mode_Init+0)+0,w
  9288  151B  00F4               	movwf	(?_eeprom_read)
  9289  151C  160A  158A  211F   	fcall	_eeprom_read
              160A  118A         
  9290  1521  1283               	bcf	status, 5	;RP0=0, select bank0
  9291  1522  1303               	bcf	status, 6	;RP1=0, select bank0
  9292  1523  00DD               	movwf	(??_Mode_Init+1)+0
  9293  1524  300A               	movlw	(0Ah)
  9294  1525  025D               	subwf	0+(??_Mode_Init+1)+0,w
  9295  1526  1803               	skipnc
  9296  1527  2D29               	goto	u5711
  9297  1528  2D2A               	goto	u5710
  9298  1529                     u5711:
  9299  1529  2D2C               	goto	l9286
  9300  152A                     u5710:
  9301                           	line	80
  9302                           	
  9303  152A                     l9284:	
  9304                           ;Beverage_services.c: 80: Enable_Tea_Hot_Water_Valve = 1;
  9305  152A  166D               	bsf	(_Enable_Tea_Hot_Water_Valve/8),(_Enable_Tea_Hot_Water_Valve)&7
  9306  152B  2D2C               	goto	l9286
  9307                           	
  9308  152C                     l3109:	
  9309                           	line	81
  9310                           	
  9311  152C                     l9286:	
  9312                           ;Beverage_services.c: 81: call_control_valve();
  9313  152C  120A  118A  23DB   	fcall	_call_control_valve
              160A  118A         
  9314                           	line	82
  9315                           	
  9316  1531                     l9288:	
  9317                           ;Beverage_services.c: 82: _clear=1;
  9318  1531  1283               	bcf	status, 5	;RP0=0, select bank0
  9319  1532  1303               	bcf	status, 6	;RP1=0, select bank0
  9320  1533  15EE               	bsf	(__clear/8),(__clear)&7
  9321  1534  2D35               	goto	l9290
  9322                           	line	83
  9323                           	
  9324  1535                     l3107:	
  9325                           	line	84
  9326                           	
  9327  1535                     l9290:	
  9328                           ;Beverage_services.c: 83: }
  9329                           ;Beverage_services.c: 84: if(RB6==0 || _clear==1)
  9330  1535  1F06               	btfss	(54/8),(54)&7
  9331  1536  2D38               	goto	u5721
  9332  1537  2D39               	goto	u5720
  9333  1538                     u5721:
  9334  1538  2D3D               	goto	l3112
  9335  1539                     u5720:
  9336                           	
  9337  1539                     l9292:	
  9338  1539  1DEE               	btfss	(__clear/8),(__clear)&7
  9339  153A  2D3C               	goto	u5731
  9340  153B  2D3D               	goto	u5730
  9341  153C                     u5731:
  9342  153C  2C99               	goto	l9268
  9343  153D                     u5730:
  9344                           	
  9345  153D                     l3112:	
  9346                           	line	86
  9347                           ;Beverage_services.c: 85: {
  9348                           ;Beverage_services.c: 86: _clear=0;
  9349  153D  11EE               	bcf	(__clear/8),(__clear)&7
  9350                           	line	87
  9351                           	
  9352  153E                     l9294:	
  9353                           ;Beverage_services.c: 87: eeprom_write(145,0);
  9354  153E  01F6               	clrf	(?_eeprom_write)
  9355  153F  3091               	movlw	(091h)
  9356  1540  160A  158A  21FD   	fcall	_eeprom_write
              160A  118A         
  9357                           	line	88
  9358                           ;Beverage_services.c: 88: eeprom_write(146,0);
  9359  1545  01F6               	clrf	(?_eeprom_write)
  9360  1546  3092               	movlw	(092h)
  9361  1547  160A  158A  21FD   	fcall	_eeprom_write
              160A  118A         
  9362                           	line	89
  9363                           	
  9364  154C                     l9296:	
  9365                           ;Beverage_services.c: 89: _DISABLE_MODE=_Shortcut_Mode;
  9366  154C  300E               	movlw	(0Eh)
  9367  154D  1283               	bcf	status, 5	;RP0=0, select bank0
  9368  154E  1303               	bcf	status, 6	;RP1=0, select bank0
  9369  154F  00DC               	movwf	(??_Mode_Init+0)+0
  9370  1550  085C               	movf	(??_Mode_Init+0)+0,w
  9371  1551  00B7               	movwf	(__DISABLE_MODE)
  9372                           	line	90
  9373                           	
  9374  1552                     l9298:	
  9375                           ;Beverage_services.c: 90: _ENABLE_MODE=_Normal_Mode;
  9376  1552  01B8               	clrf	(__ENABLE_MODE)
  9377  1553  1403               	bsf	status,0
  9378  1554  0DB8               	rlf	(__ENABLE_MODE),f
  9379                           	line	91
  9380                           ;Beverage_services.c: 91: break;
  9381  1555  2D59               	goto	l3115
  9382                           	line	92
  9383                           	
  9384  1556                     l3110:	
  9385  1556  2C99               	goto	l9268
  9386                           	line	93
  9387                           	
  9388  1557                     l3114:	
  9389                           	line	69
  9390  1557  2C99               	goto	l9268
  9391                           	
  9392  1558                     l3113:	
  9393  1558  2D59               	goto	l3115
  9394                           	line	94
  9395                           	
  9396  1559                     l3103:	
  9397                           	line	96
  9398                           	
  9399  1559                     l3115:	
  9400  1559  0008               	return
  9401                           	opt stack 0
  9402                           GLOBAL	__end_of_Mode_Init
  9403  155A                     	__end_of_Mode_Init:
  9404 ;; =============== function _Mode_Init ends ============
  9405                           
  9406                           	signat	_Mode_Init,88
  9407                           	global	_call_control_valve
  9408                           psect	text782,local,class=CODE,delta=2
  9409                           global __ptext782
  9410  03DB                     __ptext782:
  9411                           
  9412 ;; *************** function _call_control_valve *****************
  9413 ;; Defined at:
  9414 ;;		line 955 in file "F:\BEVERAGES_ENHANCEMENT\SOFTWARE_DESIGN\MASTER_PIC_16F877A\2015_09_03\Beverage_services.c"
  9415 ;; Parameters:    Size  Location     Type
  9416 ;;		None
  9417 ;; Auto vars:     Size  Location     Type
  9418 ;;		None
  9419 ;; Return value:  Size  Location     Type
  9420 ;;		None               void
  9421 ;; Registers used:
  9422 ;;		wreg, fsr0l, fsr0h, status,2, status,0, btemp+1, pclath, cstack
  9423 ;; Tracked objects:
  9424 ;;		On entry : 0/0
  9425 ;;		On exit  : 0/0
  9426 ;;		Unchanged: 0/0
  9427 ;; Data sizes:     COMMON   BANK0   BANK1   BANK3   BANK2
  9428 ;;      Params:         0       0       0       0       0
  9429 ;;      Locals:         0       2       0       0       0
  9430 ;;      Temps:          0       8       0       0       0
  9431 ;;      Totals:         0      10       0       0       0
  9432 ;;Total ram usage:       10 bytes
  9433 ;; Hardware stack levels used:    1
  9434 ;; Hardware stack levels required when called:    3
  9435 ;; This function calls:
  9436 ;;		___bmul
  9437 ;;		_eeprom_read
  9438 ;;		_control_valve
  9439 ;;		_Lcd_Cmd
  9440 ;;		_myitoa
  9441 ;;		_Lcd_String
  9442 ;;		_eeprom_write
  9443 ;;		___wmul
  9444 ;; This function is called by:
  9445 ;;		_Mode_Init
  9446 ;;		_enable_valves
  9447 ;; This function uses a non-reentrant model
  9448 ;;
  9449                           psect	text782
  9450                           	file	"F:\BEVERAGES_ENHANCEMENT\SOFTWARE_DESIGN\MASTER_PIC_16F877A\2015_09_03\Beverage_s
                                 ervices.c"
  9451                           	line	955
  9452                           	global	__size_of_call_control_valve
  9453  0325                     	__size_of_call_control_valve	equ	__end_of_call_control_valve-_call_control_valve
  9454                           	
  9455  03DB                     _call_control_valve:	
  9456                           	opt	stack 3
  9457                           ; Regs used in _call_control_valve: [wreg-fsr0h+status,2+status,0+btemp+1+pclath+cstack]
  9458                           	line	956
  9459                           	
  9460  03DB                     l9154:	
  9461                           ;Beverage_services.c: 956: if(Enable_Coffee_Valve)
  9462  03DB  1283               	bcf	status, 5	;RP0=0, select bank0
  9463  03DC  1303               	bcf	status, 6	;RP1=0, select bank0
  9464  03DD  1D6B               	btfss	(_Enable_Coffee_Valve/8),(_Enable_Coffee_Valve)&7
  9465  03DE  2BE0               	goto	u5511
  9466  03DF  2BE1               	goto	u5510
  9467  03E0                     u5511:
  9468  03E0  2C29               	goto	l9162
  9469  03E1                     u5510:
  9470                           	line	958
  9471                           	
  9472  03E1                     l9156:	
  9473                           ;Beverage_services.c: 957: {
  9474                           ;Beverage_services.c: 958: _ON=_OFF=_Coffee_Valve;
  9475  03E1  3006               	movlw	(06h)
  9476  03E2  00B9               	movwf	(__OFF)
  9477  03E3  00D2               	movwf	(??_call_control_valve+0)+0
  9478  03E4  0852               	movf	(??_call_control_valve+0)+0,w
  9479  03E5  00BA               	movwf	(__ON)
  9480                           	line	959
  9481                           	
  9482  03E6                     l9158:	
  9483                           ;Beverage_services.c: 959: control_valve(eeprom_read((12*_CHOICE_SELECTED)-2),eeprom_rea
                                 d((12*_CHOICE_SELECTED)-2+1));
  9484  03E6  300C               	movlw	(0Ch)
  9485  03E7  00D2               	movwf	(??_call_control_valve+0)+0
  9486  03E8  0852               	movf	(??_call_control_valve+0)+0,w
  9487  03E9  00F0               	movwf	(?___bmul)
  9488  03EA  0848               	movf	(__CHOICE_SELECTED),w
  9489  03EB  160A  158A  20EE   	fcall	___bmul
              120A  118A         
  9490  03F0  3EFE               	addlw	0FEh
  9491  03F1  1283               	bcf	status, 5	;RP0=0, select bank0
  9492  03F2  1303               	bcf	status, 6	;RP1=0, select bank0
  9493  03F3  00D3               	movwf	(??_call_control_valve+1)+0
  9494  03F4  0853               	movf	(??_call_control_valve+1)+0,w
  9495  03F5  00F4               	movwf	(?_eeprom_read)
  9496  03F6  160A  158A  211F   	fcall	_eeprom_read
              120A  118A         
  9497  03FB  1283               	bcf	status, 5	;RP0=0, select bank0
  9498  03FC  1303               	bcf	status, 6	;RP1=0, select bank0
  9499  03FD  00D4               	movwf	(??_call_control_valve+2)+0
  9500  03FE  01D5               	clrf	(??_call_control_valve+2)+0+1
  9501  03FF  0854               	movf	0+(??_call_control_valve+2)+0,w
  9502  0400  00CC               	movwf	(?_control_valve)
  9503  0401  0855               	movf	1+(??_call_control_valve+2)+0,w
  9504  0402  00CD               	movwf	(?_control_valve+1)
  9505  0403  300C               	movlw	(0Ch)
  9506  0404  00D6               	movwf	(??_call_control_valve+4)+0
  9507  0405  0856               	movf	(??_call_control_valve+4)+0,w
  9508  0406  00F0               	movwf	(?___bmul)
  9509  0407  0848               	movf	(__CHOICE_SELECTED),w
  9510  0408  160A  158A  20EE   	fcall	___bmul
              120A  118A         
  9511  040D  3EFF               	addlw	0FFh
  9512  040E  1283               	bcf	status, 5	;RP0=0, select bank0
  9513  040F  1303               	bcf	status, 6	;RP1=0, select bank0
  9514  0410  00D7               	movwf	(??_call_control_valve+5)+0
  9515  0411  0857               	movf	(??_call_control_valve+5)+0,w
  9516  0412  00F4               	movwf	(?_eeprom_read)
  9517  0413  160A  158A  211F   	fcall	_eeprom_read
              120A  118A         
  9518  0418  1283               	bcf	status, 5	;RP0=0, select bank0
  9519  0419  1303               	bcf	status, 6	;RP1=0, select bank0
  9520  041A  00D8               	movwf	(??_call_control_valve+6)+0
  9521  041B  01D9               	clrf	(??_call_control_valve+6)+0+1
  9522  041C  0858               	movf	0+(??_call_control_valve+6)+0,w
  9523  041D  00CE               	movwf	0+(?_control_valve)+02h
  9524  041E  0859               	movf	1+(??_call_control_valve+6)+0,w
  9525  041F  00CF               	movwf	1+(?_control_valve)+02h
  9526  0420  160A  158A  23C2   	fcall	_control_valve
              120A  118A         
  9527                           	line	960
  9528                           	
  9529  0425                     l9160:	
  9530                           ;Beverage_services.c: 960: Enable_Coffee_Valve=0;
  9531  0425  1283               	bcf	status, 5	;RP0=0, select bank0
  9532  0426  1303               	bcf	status, 6	;RP1=0, select bank0
  9533  0427  116B               	bcf	(_Enable_Coffee_Valve/8),(_Enable_Coffee_Valve)&7
  9534  0428  2C29               	goto	l9162
  9535                           	line	961
  9536                           	
  9537  0429                     l3368:	
  9538                           	line	962
  9539                           	
  9540  0429                     l9162:	
  9541                           ;Beverage_services.c: 961: }
  9542                           ;Beverage_services.c: 962: if(Enable_Tea_Valve)
  9543  0429  1EED               	btfss	(_Enable_Tea_Valve/8),(_Enable_Tea_Valve)&7
  9544  042A  2C2C               	goto	u5521
  9545  042B  2C2D               	goto	u5520
  9546  042C                     u5521:
  9547  042C  2C74               	goto	l9170
  9548  042D                     u5520:
  9549                           	line	964
  9550                           	
  9551  042D                     l9164:	
  9552                           ;Beverage_services.c: 963: {
  9553                           ;Beverage_services.c: 964: _ON=_OFF=_Tea_Valve;
  9554  042D  3008               	movlw	(08h)
  9555  042E  00B9               	movwf	(__OFF)
  9556  042F  00D2               	movwf	(??_call_control_valve+0)+0
  9557  0430  0852               	movf	(??_call_control_valve+0)+0,w
  9558  0431  00BA               	movwf	(__ON)
  9559                           	line	965
  9560                           	
  9561  0432                     l9166:	
  9562                           ;Beverage_services.c: 965: control_valve(eeprom_read((12*_CHOICE_SELECTED)-2+2),eeprom_r
                                 ead((12*_CHOICE_SELECTED)-2+3));
  9563  0432  300C               	movlw	(0Ch)
  9564  0433  00D2               	movwf	(??_call_control_valve+0)+0
  9565  0434  0852               	movf	(??_call_control_valve+0)+0,w
  9566  0435  00F0               	movwf	(?___bmul)
  9567  0436  0848               	movf	(__CHOICE_SELECTED),w
  9568  0437  160A  158A  20EE   	fcall	___bmul
              120A  118A         
  9569  043C  1283               	bcf	status, 5	;RP0=0, select bank0
  9570  043D  1303               	bcf	status, 6	;RP1=0, select bank0
  9571  043E  00D3               	movwf	(??_call_control_valve+1)+0
  9572  043F  0853               	movf	(??_call_control_valve+1)+0,w
  9573  0440  00F4               	movwf	(?_eeprom_read)
  9574  0441  160A  158A  211F   	fcall	_eeprom_read
              120A  118A         
  9575  0446  1283               	bcf	status, 5	;RP0=0, select bank0
  9576  0447  1303               	bcf	status, 6	;RP1=0, select bank0
  9577  0448  00D4               	movwf	(??_call_control_valve+2)+0
  9578  0449  01D5               	clrf	(??_call_control_valve+2)+0+1
  9579  044A  0854               	movf	0+(??_call_control_valve+2)+0,w
  9580  044B  00CC               	movwf	(?_control_valve)
  9581  044C  0855               	movf	1+(??_call_control_valve+2)+0,w
  9582  044D  00CD               	movwf	(?_control_valve+1)
  9583  044E  300C               	movlw	(0Ch)
  9584  044F  00D6               	movwf	(??_call_control_valve+4)+0
  9585  0450  0856               	movf	(??_call_control_valve+4)+0,w
  9586  0451  00F0               	movwf	(?___bmul)
  9587  0452  0848               	movf	(__CHOICE_SELECTED),w
  9588  0453  160A  158A  20EE   	fcall	___bmul
              120A  118A         
  9589  0458  3E01               	addlw	01h
  9590  0459  1283               	bcf	status, 5	;RP0=0, select bank0
  9591  045A  1303               	bcf	status, 6	;RP1=0, select bank0
  9592  045B  00D7               	movwf	(??_call_control_valve+5)+0
  9593  045C  0857               	movf	(??_call_control_valve+5)+0,w
  9594  045D  00F4               	movwf	(?_eeprom_read)
  9595  045E  160A  158A  211F   	fcall	_eeprom_read
              120A  118A         
  9596  0463  1283               	bcf	status, 5	;RP0=0, select bank0
  9597  0464  1303               	bcf	status, 6	;RP1=0, select bank0
  9598  0465  00D8               	movwf	(??_call_control_valve+6)+0
  9599  0466  01D9               	clrf	(??_call_control_valve+6)+0+1
  9600  0467  0858               	movf	0+(??_call_control_valve+6)+0,w
  9601  0468  00CE               	movwf	0+(?_control_valve)+02h
  9602  0469  0859               	movf	1+(??_call_control_valve+6)+0,w
  9603  046A  00CF               	movwf	1+(?_control_valve)+02h
  9604  046B  160A  158A  23C2   	fcall	_control_valve
              120A  118A         
  9605                           	line	966
  9606                           	
  9607  0470                     l9168:	
  9608                           ;Beverage_services.c: 966: Enable_Tea_Valve=0;
  9609  0470  1283               	bcf	status, 5	;RP0=0, select bank0
  9610  0471  1303               	bcf	status, 6	;RP1=0, select bank0
  9611  0472  12ED               	bcf	(_Enable_Tea_Valve/8),(_Enable_Tea_Valve)&7
  9612  0473  2C74               	goto	l9170
  9613                           	line	967
  9614                           	
  9615  0474                     l3369:	
  9616                           	line	968
  9617                           	
  9618  0474                     l9170:	
  9619                           ;Beverage_services.c: 967: }
  9620                           ;Beverage_services.c: 968: if(Enable_Mixing_Hot_Water_Valve)
  9621  0474  1F6C               	btfss	(_Enable_Mixing_Hot_Water_Valve/8),(_Enable_Mixing_Hot_Water_Valve)&7
  9622  0475  2C77               	goto	u5531
  9623  0476  2C78               	goto	u5530
  9624  0477                     u5531:
  9625  0477  2CC0               	goto	l9178
  9626  0478                     u5530:
  9627                           	line	970
  9628                           	
  9629  0478                     l9172:	
  9630                           ;Beverage_services.c: 969: {
  9631                           ;Beverage_services.c: 970: _ON=_OFF=_Mixing_Hot_Water_Valve;
  9632  0478  3003               	movlw	(03h)
  9633  0479  00B9               	movwf	(__OFF)
  9634  047A  00D2               	movwf	(??_call_control_valve+0)+0
  9635  047B  0852               	movf	(??_call_control_valve+0)+0,w
  9636  047C  00BA               	movwf	(__ON)
  9637                           	line	971
  9638                           	
  9639  047D                     l9174:	
  9640                           ;Beverage_services.c: 971: control_valve(eeprom_read((12*_CHOICE_SELECTED)-2+4),eeprom_r
                                 ead((12*_CHOICE_SELECTED)-2+5));
  9641  047D  300C               	movlw	(0Ch)
  9642  047E  00D2               	movwf	(??_call_control_valve+0)+0
  9643  047F  0852               	movf	(??_call_control_valve+0)+0,w
  9644  0480  00F0               	movwf	(?___bmul)
  9645  0481  0848               	movf	(__CHOICE_SELECTED),w
  9646  0482  160A  158A  20EE   	fcall	___bmul
              120A  118A         
  9647  0487  3E02               	addlw	02h
  9648  0488  1283               	bcf	status, 5	;RP0=0, select bank0
  9649  0489  1303               	bcf	status, 6	;RP1=0, select bank0
  9650  048A  00D3               	movwf	(??_call_control_valve+1)+0
  9651  048B  0853               	movf	(??_call_control_valve+1)+0,w
  9652  048C  00F4               	movwf	(?_eeprom_read)
  9653  048D  160A  158A  211F   	fcall	_eeprom_read
              120A  118A         
  9654  0492  1283               	bcf	status, 5	;RP0=0, select bank0
  9655  0493  1303               	bcf	status, 6	;RP1=0, select bank0
  9656  0494  00D4               	movwf	(??_call_control_valve+2)+0
  9657  0495  01D5               	clrf	(??_call_control_valve+2)+0+1
  9658  0496  0854               	movf	0+(??_call_control_valve+2)+0,w
  9659  0497  00CC               	movwf	(?_control_valve)
  9660  0498  0855               	movf	1+(??_call_control_valve+2)+0,w
  9661  0499  00CD               	movwf	(?_control_valve+1)
  9662  049A  300C               	movlw	(0Ch)
  9663  049B  00D6               	movwf	(??_call_control_valve+4)+0
  9664  049C  0856               	movf	(??_call_control_valve+4)+0,w
  9665  049D  00F0               	movwf	(?___bmul)
  9666  049E  0848               	movf	(__CHOICE_SELECTED),w
  9667  049F  160A  158A  20EE   	fcall	___bmul
              120A  118A         
  9668  04A4  3E03               	addlw	03h
  9669  04A5  1283               	bcf	status, 5	;RP0=0, select bank0
  9670  04A6  1303               	bcf	status, 6	;RP1=0, select bank0
  9671  04A7  00D7               	movwf	(??_call_control_valve+5)+0
  9672  04A8  0857               	movf	(??_call_control_valve+5)+0,w
  9673  04A9  00F4               	movwf	(?_eeprom_read)
  9674  04AA  160A  158A  211F   	fcall	_eeprom_read
              120A  118A         
  9675  04AF  1283               	bcf	status, 5	;RP0=0, select bank0
  9676  04B0  1303               	bcf	status, 6	;RP1=0, select bank0
  9677  04B1  00D8               	movwf	(??_call_control_valve+6)+0
  9678  04B2  01D9               	clrf	(??_call_control_valve+6)+0+1
  9679  04B3  0858               	movf	0+(??_call_control_valve+6)+0,w
  9680  04B4  00CE               	movwf	0+(?_control_valve)+02h
  9681  04B5  0859               	movf	1+(??_call_control_valve+6)+0,w
  9682  04B6  00CF               	movwf	1+(?_control_valve)+02h
  9683  04B7  160A  158A  23C2   	fcall	_control_valve
              120A  118A         
  9684                           	line	972
  9685                           	
  9686  04BC                     l9176:	
  9687                           ;Beverage_services.c: 972: Enable_Mixing_Hot_Water_Valve=0;
  9688  04BC  1283               	bcf	status, 5	;RP0=0, select bank0
  9689  04BD  1303               	bcf	status, 6	;RP1=0, select bank0
  9690  04BE  136C               	bcf	(_Enable_Mixing_Hot_Water_Valve/8),(_Enable_Mixing_Hot_Water_Valve)&7
  9691  04BF  2CC0               	goto	l9178
  9692                           	line	973
  9693                           	
  9694  04C0                     l3370:	
  9695                           	line	974
  9696                           	
  9697  04C0                     l9178:	
  9698                           ;Beverage_services.c: 973: }
  9699                           ;Beverage_services.c: 974: if(Enable_Milk_Forward)
  9700  04C0  1DEC               	btfss	(_Enable_Milk_Forward/8),(_Enable_Milk_Forward)&7
  9701  04C1  2CC3               	goto	u5541
  9702  04C2  2CC4               	goto	u5540
  9703  04C3                     u5541:
  9704  04C3  2D0C               	goto	l9186
  9705  04C4                     u5540:
  9706                           	line	976
  9707                           	
  9708  04C4                     l9180:	
  9709                           ;Beverage_services.c: 975: {
  9710                           ;Beverage_services.c: 976: _ON=_OFF=_Milk_Valve_Forward;
  9711  04C4  3001               	movlw	(01h)
  9712  04C5  00B9               	movwf	(__OFF)
  9713  04C6  00D2               	movwf	(??_call_control_valve+0)+0
  9714  04C7  0852               	movf	(??_call_control_valve+0)+0,w
  9715  04C8  00BA               	movwf	(__ON)
  9716                           	line	977
  9717                           	
  9718  04C9                     l9182:	
  9719                           ;Beverage_services.c: 977: control_valve(eeprom_read((12*_CHOICE_SELECTED)-2+6),eeprom_r
                                 ead((12*_CHOICE_SELECTED)-2+7));
  9720  04C9  300C               	movlw	(0Ch)
  9721  04CA  00D2               	movwf	(??_call_control_valve+0)+0
  9722  04CB  0852               	movf	(??_call_control_valve+0)+0,w
  9723  04CC  00F0               	movwf	(?___bmul)
  9724  04CD  0848               	movf	(__CHOICE_SELECTED),w
  9725  04CE  160A  158A  20EE   	fcall	___bmul
              120A  118A         
  9726  04D3  3E04               	addlw	04h
  9727  04D4  1283               	bcf	status, 5	;RP0=0, select bank0
  9728  04D5  1303               	bcf	status, 6	;RP1=0, select bank0
  9729  04D6  00D3               	movwf	(??_call_control_valve+1)+0
  9730  04D7  0853               	movf	(??_call_control_valve+1)+0,w
  9731  04D8  00F4               	movwf	(?_eeprom_read)
  9732  04D9  160A  158A  211F   	fcall	_eeprom_read
              120A  118A         
  9733  04DE  1283               	bcf	status, 5	;RP0=0, select bank0
  9734  04DF  1303               	bcf	status, 6	;RP1=0, select bank0
  9735  04E0  00D4               	movwf	(??_call_control_valve+2)+0
  9736  04E1  01D5               	clrf	(??_call_control_valve+2)+0+1
  9737  04E2  0854               	movf	0+(??_call_control_valve+2)+0,w
  9738  04E3  00CC               	movwf	(?_control_valve)
  9739  04E4  0855               	movf	1+(??_call_control_valve+2)+0,w
  9740  04E5  00CD               	movwf	(?_control_valve+1)
  9741  04E6  300C               	movlw	(0Ch)
  9742  04E7  00D6               	movwf	(??_call_control_valve+4)+0
  9743  04E8  0856               	movf	(??_call_control_valve+4)+0,w
  9744  04E9  00F0               	movwf	(?___bmul)
  9745  04EA  0848               	movf	(__CHOICE_SELECTED),w
  9746  04EB  160A  158A  20EE   	fcall	___bmul
              120A  118A         
  9747  04F0  3E05               	addlw	05h
  9748  04F1  1283               	bcf	status, 5	;RP0=0, select bank0
  9749  04F2  1303               	bcf	status, 6	;RP1=0, select bank0
  9750  04F3  00D7               	movwf	(??_call_control_valve+5)+0
  9751  04F4  0857               	movf	(??_call_control_valve+5)+0,w
  9752  04F5  00F4               	movwf	(?_eeprom_read)
  9753  04F6  160A  158A  211F   	fcall	_eeprom_read
              120A  118A         
  9754  04FB  1283               	bcf	status, 5	;RP0=0, select bank0
  9755  04FC  1303               	bcf	status, 6	;RP1=0, select bank0
  9756  04FD  00D8               	movwf	(??_call_control_valve+6)+0
  9757  04FE  01D9               	clrf	(??_call_control_valve+6)+0+1
  9758  04FF  0858               	movf	0+(??_call_control_valve+6)+0,w
  9759  0500  00CE               	movwf	0+(?_control_valve)+02h
  9760  0501  0859               	movf	1+(??_call_control_valve+6)+0,w
  9761  0502  00CF               	movwf	1+(?_control_valve)+02h
  9762  0503  160A  158A  23C2   	fcall	_control_valve
              120A  118A         
  9763                           	line	978
  9764                           	
  9765  0508                     l9184:	
  9766                           ;Beverage_services.c: 978: Enable_Milk_Forward=0;
  9767  0508  1283               	bcf	status, 5	;RP0=0, select bank0
  9768  0509  1303               	bcf	status, 6	;RP1=0, select bank0
  9769  050A  11EC               	bcf	(_Enable_Milk_Forward/8),(_Enable_Milk_Forward)&7
  9770  050B  2D0C               	goto	l9186
  9771                           	line	979
  9772                           	
  9773  050C                     l3371:	
  9774                           	line	980
  9775                           	
  9776  050C                     l9186:	
  9777                           ;Beverage_services.c: 979: }
  9778                           ;Beverage_services.c: 980: if(Enable_Viber_Motor)
  9779  050C  1C6E               	btfss	(_Enable_Viber_Motor/8),(_Enable_Viber_Motor)&7
  9780  050D  2D0F               	goto	u5551
  9781  050E  2D10               	goto	u5550
  9782  050F                     u5551:
  9783  050F  2D58               	goto	l9194
  9784  0510                     u5550:
  9785                           	line	982
  9786                           	
  9787  0510                     l9188:	
  9788                           ;Beverage_services.c: 981: {
  9789                           ;Beverage_services.c: 982: _ON=_OFF=_Viber_Motor;
  9790  0510  3009               	movlw	(09h)
  9791  0511  00B9               	movwf	(__OFF)
  9792  0512  00D2               	movwf	(??_call_control_valve+0)+0
  9793  0513  0852               	movf	(??_call_control_valve+0)+0,w
  9794  0514  00BA               	movwf	(__ON)
  9795                           	line	983
  9796                           	
  9797  0515                     l9190:	
  9798                           ;Beverage_services.c: 983: control_valve(eeprom_read((12*_CHOICE_SELECTED)-2+8),eeprom_r
                                 ead((12*_CHOICE_SELECTED)-2+9));
  9799  0515  300C               	movlw	(0Ch)
  9800  0516  00D2               	movwf	(??_call_control_valve+0)+0
  9801  0517  0852               	movf	(??_call_control_valve+0)+0,w
  9802  0518  00F0               	movwf	(?___bmul)
  9803  0519  0848               	movf	(__CHOICE_SELECTED),w
  9804  051A  160A  158A  20EE   	fcall	___bmul
              120A  118A         
  9805  051F  3E06               	addlw	06h
  9806  0520  1283               	bcf	status, 5	;RP0=0, select bank0
  9807  0521  1303               	bcf	status, 6	;RP1=0, select bank0
  9808  0522  00D3               	movwf	(??_call_control_valve+1)+0
  9809  0523  0853               	movf	(??_call_control_valve+1)+0,w
  9810  0524  00F4               	movwf	(?_eeprom_read)
  9811  0525  160A  158A  211F   	fcall	_eeprom_read
              120A  118A         
  9812  052A  1283               	bcf	status, 5	;RP0=0, select bank0
  9813  052B  1303               	bcf	status, 6	;RP1=0, select bank0
  9814  052C  00D4               	movwf	(??_call_control_valve+2)+0
  9815  052D  01D5               	clrf	(??_call_control_valve+2)+0+1
  9816  052E  0854               	movf	0+(??_call_control_valve+2)+0,w
  9817  052F  00CC               	movwf	(?_control_valve)
  9818  0530  0855               	movf	1+(??_call_control_valve+2)+0,w
  9819  0531  00CD               	movwf	(?_control_valve+1)
  9820  0532  300C               	movlw	(0Ch)
  9821  0533  00D6               	movwf	(??_call_control_valve+4)+0
  9822  0534  0856               	movf	(??_call_control_valve+4)+0,w
  9823  0535  00F0               	movwf	(?___bmul)
  9824  0536  0848               	movf	(__CHOICE_SELECTED),w
  9825  0537  160A  158A  20EE   	fcall	___bmul
              120A  118A         
  9826  053C  3E07               	addlw	07h
  9827  053D  1283               	bcf	status, 5	;RP0=0, select bank0
  9828  053E  1303               	bcf	status, 6	;RP1=0, select bank0
  9829  053F  00D7               	movwf	(??_call_control_valve+5)+0
  9830  0540  0857               	movf	(??_call_control_valve+5)+0,w
  9831  0541  00F4               	movwf	(?_eeprom_read)
  9832  0542  160A  158A  211F   	fcall	_eeprom_read
              120A  118A         
  9833  0547  1283               	bcf	status, 5	;RP0=0, select bank0
  9834  0548  1303               	bcf	status, 6	;RP1=0, select bank0
  9835  0549  00D8               	movwf	(??_call_control_valve+6)+0
  9836  054A  01D9               	clrf	(??_call_control_valve+6)+0+1
  9837  054B  0858               	movf	0+(??_call_control_valve+6)+0,w
  9838  054C  00CE               	movwf	0+(?_control_valve)+02h
  9839  054D  0859               	movf	1+(??_call_control_valve+6)+0,w
  9840  054E  00CF               	movwf	1+(?_control_valve)+02h
  9841  054F  160A  158A  23C2   	fcall	_control_valve
              120A  118A         
  9842                           	line	984
  9843                           	
  9844  0554                     l9192:	
  9845                           ;Beverage_services.c: 984: Enable_Viber_Motor=0;
  9846  0554  1283               	bcf	status, 5	;RP0=0, select bank0
  9847  0555  1303               	bcf	status, 6	;RP1=0, select bank0
  9848  0556  106E               	bcf	(_Enable_Viber_Motor/8),(_Enable_Viber_Motor)&7
  9849  0557  2D58               	goto	l9194
  9850                           	line	985
  9851                           	
  9852  0558                     l3372:	
  9853                           	line	986
  9854                           	
  9855  0558                     l9194:	
  9856                           ;Beverage_services.c: 985: }
  9857                           ;Beverage_services.c: 986: if(Enable_Hot_Water_Valve)
  9858  0558  1D6C               	btfss	(_Enable_Hot_Water_Valve/8),(_Enable_Hot_Water_Valve)&7
  9859  0559  2D5B               	goto	u5561
  9860  055A  2D5C               	goto	u5560
  9861  055B                     u5561:
  9862  055B  2D7F               	goto	l9202
  9863  055C                     u5560:
  9864                           	line	988
  9865                           	
  9866  055C                     l9196:	
  9867                           ;Beverage_services.c: 987: {
  9868                           ;Beverage_services.c: 988: _ON=_OFF=_Hot_Water_Valve;
  9869  055C  3004               	movlw	(04h)
  9870  055D  00B9               	movwf	(__OFF)
  9871  055E  00D2               	movwf	(??_call_control_valve+0)+0
  9872  055F  0852               	movf	(??_call_control_valve+0)+0,w
  9873  0560  00BA               	movwf	(__ON)
  9874                           	line	990
  9875                           	
  9876  0561                     l9198:	
  9877                           ;Beverage_services.c: 990: control_valve(eeprom_read(147),2);
  9878  0561  3093               	movlw	(093h)
  9879  0562  00D2               	movwf	(??_call_control_valve+0)+0
  9880  0563  0852               	movf	(??_call_control_valve+0)+0,w
  9881  0564  00F4               	movwf	(?_eeprom_read)
  9882  0565  160A  158A  211F   	fcall	_eeprom_read
              120A  118A         
  9883  056A  1283               	bcf	status, 5	;RP0=0, select bank0
  9884  056B  1303               	bcf	status, 6	;RP1=0, select bank0
  9885  056C  00D3               	movwf	(??_call_control_valve+1)+0
  9886  056D  01D4               	clrf	(??_call_control_valve+1)+0+1
  9887  056E  0853               	movf	0+(??_call_control_valve+1)+0,w
  9888  056F  00CC               	movwf	(?_control_valve)
  9889  0570  0854               	movf	1+(??_call_control_valve+1)+0,w
  9890  0571  00CD               	movwf	(?_control_valve+1)
  9891  0572  3002               	movlw	low(02h)
  9892  0573  00CE               	movwf	0+(?_control_valve)+02h
  9893  0574  3000               	movlw	high(02h)
  9894  0575  00CF               	movwf	(0+(?_control_valve)+02h)+1
  9895  0576  160A  158A  23C2   	fcall	_control_valve
              120A  118A         
  9896                           	line	991
  9897                           	
  9898  057B                     l9200:	
  9899                           ;Beverage_services.c: 991: Enable_Hot_Water_Valve=0;
  9900  057B  1283               	bcf	status, 5	;RP0=0, select bank0
  9901  057C  1303               	bcf	status, 6	;RP1=0, select bank0
  9902  057D  116C               	bcf	(_Enable_Hot_Water_Valve/8),(_Enable_Hot_Water_Valve)&7
  9903  057E  2D7F               	goto	l9202
  9904                           	line	992
  9905                           	
  9906  057F                     l3373:	
  9907                           	line	993
  9908                           	
  9909  057F                     l9202:	
  9910                           ;Beverage_services.c: 992: }
  9911                           ;Beverage_services.c: 993: if(Enable_Coffee_Hot_Water_Valve)
  9912  057F  1CEB               	btfss	(_Enable_Coffee_Hot_Water_Valve/8),(_Enable_Coffee_Hot_Water_Valve)&7
  9913  0580  2D82               	goto	u5571
  9914  0581  2D83               	goto	u5570
  9915  0582                     u5571:
  9916  0582  2E2B               	goto	l3374
  9917  0583                     u5570:
  9918                           	line	995
  9919                           	
  9920  0583                     l9204:	
  9921                           ;Beverage_services.c: 994: {
  9922                           ;Beverage_services.c: 995: _ON=_OFF=_Coffee_Hot_Water_Valve;
  9923  0583  3005               	movlw	(05h)
  9924  0584  00B9               	movwf	(__OFF)
  9925  0585  00D2               	movwf	(??_call_control_valve+0)+0
  9926  0586  0852               	movf	(??_call_control_valve+0)+0,w
  9927  0587  00BA               	movwf	(__ON)
  9928                           	line	996
  9929                           	
  9930  0588                     l9206:	
  9931                           ;Beverage_services.c: 996: for(i=eeprom_read(145);i>0;i--)
  9932  0588  3091               	movlw	(091h)
  9933  0589  00D2               	movwf	(??_call_control_valve+0)+0
  9934  058A  0852               	movf	(??_call_control_valve+0)+0,w
  9935  058B  00F4               	movwf	(?_eeprom_read)
  9936  058C  160A  158A  211F   	fcall	_eeprom_read
              120A  118A         
  9937  0591  1283               	bcf	status, 5	;RP0=0, select bank0
  9938  0592  1303               	bcf	status, 6	;RP1=0, select bank0
  9939  0593  00D3               	movwf	(??_call_control_valve+1)+0
  9940  0594  01D4               	clrf	(??_call_control_valve+1)+0+1
  9941  0595  0853               	movf	0+(??_call_control_valve+1)+0,w
  9942  0596  00AB               	movwf	(_i)
  9943  0597  0854               	movf	1+(??_call_control_valve+1)+0,w
  9944  0598  00AC               	movwf	(_i+1)
  9945  0599  2E24               	goto	l9222
  9946                           	line	997
  9947                           	
  9948  059A                     l3376:	
  9949                           	line	998
  9950                           	
  9951  059A                     l9208:	
  9952                           ;Beverage_services.c: 997: {
  9953                           ;Beverage_services.c: 998: Lcd_Cmd(0xC6);
  9954  059A  30C6               	movlw	(0C6h)
  9955  059B  160A  158A  229B   	fcall	_Lcd_Cmd
              120A  118A         
  9956                           	line	999
  9957                           	
  9958  05A0                     l9210:	
  9959                           ;Beverage_services.c: 999: myitoa(i,buff);
  9960  05A0  1283               	bcf	status, 5	;RP0=0, select bank0
  9961  05A1  1303               	bcf	status, 6	;RP1=0, select bank0
  9962  05A2  082C               	movf	(_i+1),w
  9963  05A3  01FC               	clrf	(?_myitoa+1)
  9964  05A4  07FC               	addwf	(?_myitoa+1)
  9965  05A5  082B               	movf	(_i),w
  9966  05A6  01FB               	clrf	(?_myitoa)
  9967  05A7  07FB               	addwf	(?_myitoa)
  9968                           
  9969  05A8  3043               	movlw	(_buff)&0ffh
  9970  05A9  00D2               	movwf	(??_call_control_valve+0)+0
  9971  05AA  0852               	movf	(??_call_control_valve+0)+0,w
  9972  05AB  00FD               	movwf	0+(?_myitoa)+02h
  9973  05AC  120A  118A  200B   	fcall	_myitoa
              120A  118A         
  9974                           	line	1000
  9975                           	
  9976  05B1                     l9212:	
  9977                           ;Beverage_services.c: 1000: Lcd_String(buff,0,0);
  9978  05B1  3043               	movlw	(_buff&0ffh)
  9979  05B2  1283               	bcf	status, 5	;RP0=0, select bank0
  9980  05B3  1303               	bcf	status, 6	;RP1=0, select bank0
  9981  05B4  00CE               	movwf	(?_Lcd_String)
  9982  05B5  3000               	movlw	(0x0/2)
  9983  05B6  00CF               	movwf	(?_Lcd_String+1)
  9984  05B7  01D0               	clrf	0+(?_Lcd_String)+02h
  9985  05B8  01D1               	clrf	0+(?_Lcd_String)+03h
  9986  05B9  120A  158A  2000   	fcall	_Lcd_String
              120A  118A         
  9987                           	line	1001
  9988                           	
  9989  05BE                     l9214:	
  9990                           ;Beverage_services.c: 1001: eeprom_write(145,i);
  9991  05BE  1283               	bcf	status, 5	;RP0=0, select bank0
  9992  05BF  1303               	bcf	status, 6	;RP1=0, select bank0
  9993  05C0  082B               	movf	(_i),w
  9994  05C1  00D2               	movwf	(??_call_control_valve+0)+0
  9995  05C2  0852               	movf	(??_call_control_valve+0)+0,w
  9996  05C3  00F6               	movwf	(?_eeprom_write)
  9997  05C4  3091               	movlw	(091h)
  9998  05C5  160A  158A  21FD   	fcall	_eeprom_write
              120A  118A         
  9999                           	line	1002
 10000                           	
 10001  05CA                     l9216:	
 10002                           ;Beverage_services.c: 1002: control_valve(eeprom_read(118)*10,eeprom_read(121)*10);
 10003  05CA  3079               	movlw	(079h)
 10004  05CB  1283               	bcf	status, 5	;RP0=0, select bank0
 10005  05CC  1303               	bcf	status, 6	;RP1=0, select bank0
 10006  05CD  00D2               	movwf	(??_call_control_valve+0)+0
 10007  05CE  0852               	movf	(??_call_control_valve+0)+0,w
 10008  05CF  00F4               	movwf	(?_eeprom_read)
 10009  05D0  160A  158A  211F   	fcall	_eeprom_read
              120A  118A         
 10010  05D5  1283               	bcf	status, 5	;RP0=0, select bank0
 10011  05D6  1303               	bcf	status, 6	;RP1=0, select bank0
 10012  05D7  00D3               	movwf	(??_call_control_valve+1)+0
 10013  05D8  01D4               	clrf	(??_call_control_valve+1)+0+1
 10014  05D9  0853               	movf	0+(??_call_control_valve+1)+0,w
 10015  05DA  00F6               	movwf	(?___wmul)
 10016  05DB  0854               	movf	1+(??_call_control_valve+1)+0,w
 10017  05DC  00F7               	movwf	(?___wmul+1)
 10018  05DD  300A               	movlw	low(0Ah)
 10019  05DE  00F8               	movwf	0+(?___wmul)+02h
 10020  05DF  3000               	movlw	high(0Ah)
 10021  05E0  00F9               	movwf	(0+(?___wmul)+02h)+1
 10022  05E1  160A  158A  21A2   	fcall	___wmul
              120A  118A         
 10023  05E6  0877               	movf	(1+(?___wmul)),w
 10024  05E7  1283               	bcf	status, 5	;RP0=0, select bank0
 10025  05E8  1303               	bcf	status, 6	;RP1=0, select bank0
 10026  05E9  01DB               	clrf	(_call_control_valve$5508+1)
 10027  05EA  07DB               	addwf	(_call_control_valve$5508+1)
 10028  05EB  0876               	movf	(0+(?___wmul)),w
 10029  05EC  01DA               	clrf	(_call_control_valve$5508)
 10030  05ED  07DA               	addwf	(_call_control_valve$5508)
 10031                           
 10032                           	
 10033  05EE                     l9218:	
 10034                           ;Beverage_services.c: 1002: control_valve(eeprom_read(118)*10,eeprom_read(121)*10);
 10035  05EE  3076               	movlw	(076h)
 10036  05EF  00D2               	movwf	(??_call_control_valve+0)+0
 10037  05F0  0852               	movf	(??_call_control_valve+0)+0,w
 10038  05F1  00F4               	movwf	(?_eeprom_read)
 10039  05F2  160A  158A  211F   	fcall	_eeprom_read
              120A  118A         
 10040  05F7  1283               	bcf	status, 5	;RP0=0, select bank0
 10041  05F8  1303               	bcf	status, 6	;RP1=0, select bank0
 10042  05F9  00D3               	movwf	(??_call_control_valve+1)+0
 10043  05FA  01D4               	clrf	(??_call_control_valve+1)+0+1
 10044  05FB  0853               	movf	0+(??_call_control_valve+1)+0,w
 10045  05FC  00F6               	movwf	(?___wmul)
 10046  05FD  0854               	movf	1+(??_call_control_valve+1)+0,w
 10047  05FE  00F7               	movwf	(?___wmul+1)
 10048  05FF  300A               	movlw	low(0Ah)
 10049  0600  00F8               	movwf	0+(?___wmul)+02h
 10050  0601  3000               	movlw	high(0Ah)
 10051  0602  00F9               	movwf	(0+(?___wmul)+02h)+1
 10052  0603  160A  158A  21A2   	fcall	___wmul
              120A  118A         
 10053  0608  0877               	movf	(1+(?___wmul)),w
 10054  0609  1283               	bcf	status, 5	;RP0=0, select bank0
 10055  060A  1303               	bcf	status, 6	;RP1=0, select bank0
 10056  060B  01CD               	clrf	(?_control_valve+1)
 10057  060C  07CD               	addwf	(?_control_valve+1)
 10058  060D  0876               	movf	(0+(?___wmul)),w
 10059  060E  01CC               	clrf	(?_control_valve)
 10060  060F  07CC               	addwf	(?_control_valve)
 10061                           
 10062  0610  085B               	movf	(_call_control_valve$5508+1),w
 10063  0611  01CF               	clrf	1+(?_control_valve)+02h
 10064  0612  07CF               	addwf	1+(?_control_valve)+02h
 10065  0613  085A               	movf	(_call_control_valve$5508),w
 10066  0614  01CE               	clrf	0+(?_control_valve)+02h
 10067  0615  07CE               	addwf	0+(?_control_valve)+02h
 10068                           
 10069  0616  160A  158A  23C2   	fcall	_control_valve
              120A  118A         
 10070                           	line	996
 10071                           	
 10072  061B                     l9220:	
 10073  061B  3001               	movlw	low(01h)
 10074  061C  1283               	bcf	status, 5	;RP0=0, select bank0
 10075  061D  1303               	bcf	status, 6	;RP1=0, select bank0
 10076  061E  02AB               	subwf	(_i),f
 10077  061F  3000               	movlw	high(01h)
 10078  0620  1C03               	skipc
 10079  0621  03AC               	decf	(_i+1),f
 10080  0622  02AC               	subwf	(_i+1),f
 10081  0623  2E24               	goto	l9222
 10082                           	
 10083  0624                     l3375:	
 10084                           	
 10085  0624                     l9222:	
 10086  0624  082C               	movf	((_i+1)),w
 10087  0625  042B               	iorwf	((_i)),w
 10088  0626  1D03               	skipz
 10089  0627  2E29               	goto	u5581
 10090  0628  2E2A               	goto	u5580
 10091  0629                     u5581:
 10092  0629  2D9A               	goto	l9208
 10093  062A                     u5580:
 10094                           	
 10095  062A                     l3377:	
 10096                           	line	1004
 10097                           ;Beverage_services.c: 1003: }
 10098                           ;Beverage_services.c: 1004: Enable_Coffee_Hot_Water_Valve=0;
 10099  062A  10EB               	bcf	(_Enable_Coffee_Hot_Water_Valve/8),(_Enable_Coffee_Hot_Water_Valve)&7
 10100                           	line	1005
 10101                           	
 10102  062B                     l3374:	
 10103                           	line	1006
 10104                           ;Beverage_services.c: 1005: }
 10105                           ;Beverage_services.c: 1006: if(Enable_Tea_Hot_Water_Valve)
 10106  062B  1E6D               	btfss	(_Enable_Tea_Hot_Water_Valve/8),(_Enable_Tea_Hot_Water_Valve)&7
 10107  062C  2E2E               	goto	u5591
 10108  062D  2E2F               	goto	u5590
 10109  062E                     u5591:
 10110  062E  2EB1               	goto	l3378
 10111  062F                     u5590:
 10112                           	line	1008
 10113                           	
 10114  062F                     l9224:	
 10115                           ;Beverage_services.c: 1007: {
 10116                           ;Beverage_services.c: 1008: _ON=_OFF=_Tea_Hot_Water_Valve;
 10117  062F  3007               	movlw	(07h)
 10118  0630  00B9               	movwf	(__OFF)
 10119  0631  00D2               	movwf	(??_call_control_valve+0)+0
 10120  0632  0852               	movf	(??_call_control_valve+0)+0,w
 10121  0633  00BA               	movwf	(__ON)
 10122                           	line	1009
 10123                           	
 10124  0634                     l9226:	
 10125                           ;Beverage_services.c: 1009: for(i=eeprom_read(146);i>0;i--)
 10126  0634  3092               	movlw	(092h)
 10127  0635  00D2               	movwf	(??_call_control_valve+0)+0
 10128  0636  0852               	movf	(??_call_control_valve+0)+0,w
 10129  0637  00F4               	movwf	(?_eeprom_read)
 10130  0638  160A  158A  211F   	fcall	_eeprom_read
              120A  118A         
 10131  063D  1283               	bcf	status, 5	;RP0=0, select bank0
 10132  063E  1303               	bcf	status, 6	;RP1=0, select bank0
 10133  063F  00D3               	movwf	(??_call_control_valve+1)+0
 10134  0640  01D4               	clrf	(??_call_control_valve+1)+0+1
 10135  0641  0853               	movf	0+(??_call_control_valve+1)+0,w
 10136  0642  00AB               	movwf	(_i)
 10137  0643  0854               	movf	1+(??_call_control_valve+1)+0,w
 10138  0644  00AC               	movwf	(_i+1)
 10139  0645  2EAA               	goto	l9234
 10140                           	line	1010
 10141                           	
 10142  0646                     l3380:	
 10143                           	line	1011
 10144                           	
 10145  0646                     l9228:	
 10146                           ;Beverage_services.c: 1010: {
 10147                           ;Beverage_services.c: 1011: eeprom_write(146,i);
 10148  0646  082B               	movf	(_i),w
 10149  0647  00D2               	movwf	(??_call_control_valve+0)+0
 10150  0648  0852               	movf	(??_call_control_valve+0)+0,w
 10151  0649  00F6               	movwf	(?_eeprom_write)
 10152  064A  3092               	movlw	(092h)
 10153  064B  160A  158A  21FD   	fcall	_eeprom_write
              120A  118A         
 10154                           	line	1012
 10155                           ;Beverage_services.c: 1012: control_valve(eeprom_read(119)*10,eeprom_read(121)*10);
 10156  0650  3079               	movlw	(079h)
 10157  0651  1283               	bcf	status, 5	;RP0=0, select bank0
 10158  0652  1303               	bcf	status, 6	;RP1=0, select bank0
 10159  0653  00D2               	movwf	(??_call_control_valve+0)+0
 10160  0654  0852               	movf	(??_call_control_valve+0)+0,w
 10161  0655  00F4               	movwf	(?_eeprom_read)
 10162  0656  160A  158A  211F   	fcall	_eeprom_read
              120A  118A         
 10163  065B  1283               	bcf	status, 5	;RP0=0, select bank0
 10164  065C  1303               	bcf	status, 6	;RP1=0, select bank0
 10165  065D  00D3               	movwf	(??_call_control_valve+1)+0
 10166  065E  01D4               	clrf	(??_call_control_valve+1)+0+1
 10167  065F  0853               	movf	0+(??_call_control_valve+1)+0,w
 10168  0660  00F6               	movwf	(?___wmul)
 10169  0661  0854               	movf	1+(??_call_control_valve+1)+0,w
 10170  0662  00F7               	movwf	(?___wmul+1)
 10171  0663  300A               	movlw	low(0Ah)
 10172  0664  00F8               	movwf	0+(?___wmul)+02h
 10173  0665  3000               	movlw	high(0Ah)
 10174  0666  00F9               	movwf	(0+(?___wmul)+02h)+1
 10175  0667  160A  158A  21A2   	fcall	___wmul
              120A  118A         
 10176  066C  0877               	movf	(1+(?___wmul)),w
 10177  066D  1283               	bcf	status, 5	;RP0=0, select bank0
 10178  066E  1303               	bcf	status, 6	;RP1=0, select bank0
 10179  066F  01DB               	clrf	(_call_control_valve$5508+1)
 10180  0670  07DB               	addwf	(_call_control_valve$5508+1)
 10181  0671  0876               	movf	(0+(?___wmul)),w
 10182  0672  01DA               	clrf	(_call_control_valve$5508)
 10183  0673  07DA               	addwf	(_call_control_valve$5508)
 10184                           
 10185                           	
 10186  0674                     l9230:	
 10187                           ;Beverage_services.c: 1012: control_valve(eeprom_read(119)*10,eeprom_read(121)*10);
 10188  0674  3077               	movlw	(077h)
 10189  0675  00D2               	movwf	(??_call_control_valve+0)+0
 10190  0676  0852               	movf	(??_call_control_valve+0)+0,w
 10191  0677  00F4               	movwf	(?_eeprom_read)
 10192  0678  160A  158A  211F   	fcall	_eeprom_read
              120A  118A         
 10193  067D  1283               	bcf	status, 5	;RP0=0, select bank0
 10194  067E  1303               	bcf	status, 6	;RP1=0, select bank0
 10195  067F  00D3               	movwf	(??_call_control_valve+1)+0
 10196  0680  01D4               	clrf	(??_call_control_valve+1)+0+1
 10197  0681  0853               	movf	0+(??_call_control_valve+1)+0,w
 10198  0682  00F6               	movwf	(?___wmul)
 10199  0683  0854               	movf	1+(??_call_control_valve+1)+0,w
 10200  0684  00F7               	movwf	(?___wmul+1)
 10201  0685  300A               	movlw	low(0Ah)
 10202  0686  00F8               	movwf	0+(?___wmul)+02h
 10203  0687  3000               	movlw	high(0Ah)
 10204  0688  00F9               	movwf	(0+(?___wmul)+02h)+1
 10205  0689  160A  158A  21A2   	fcall	___wmul
              120A  118A         
 10206  068E  0877               	movf	(1+(?___wmul)),w
 10207  068F  1283               	bcf	status, 5	;RP0=0, select bank0
 10208  0690  1303               	bcf	status, 6	;RP1=0, select bank0
 10209  0691  01CD               	clrf	(?_control_valve+1)
 10210  0692  07CD               	addwf	(?_control_valve+1)
 10211  0693  0876               	movf	(0+(?___wmul)),w
 10212  0694  01CC               	clrf	(?_control_valve)
 10213  0695  07CC               	addwf	(?_control_valve)
 10214                           
 10215  0696  085B               	movf	(_call_control_valve$5508+1),w
 10216  0697  01CF               	clrf	1+(?_control_valve)+02h
 10217  0698  07CF               	addwf	1+(?_control_valve)+02h
 10218  0699  085A               	movf	(_call_control_valve$5508),w
 10219  069A  01CE               	clrf	0+(?_control_valve)+02h
 10220  069B  07CE               	addwf	0+(?_control_valve)+02h
 10221                           
 10222  069C  160A  158A  23C2   	fcall	_control_valve
              120A  118A         
 10223                           	line	1009
 10224                           	
 10225  06A1                     l9232:	
 10226  06A1  3001               	movlw	low(01h)
 10227  06A2  1283               	bcf	status, 5	;RP0=0, select bank0
 10228  06A3  1303               	bcf	status, 6	;RP1=0, select bank0
 10229  06A4  02AB               	subwf	(_i),f
 10230  06A5  3000               	movlw	high(01h)
 10231  06A6  1C03               	skipc
 10232  06A7  03AC               	decf	(_i+1),f
 10233  06A8  02AC               	subwf	(_i+1),f
 10234  06A9  2EAA               	goto	l9234
 10235                           	
 10236  06AA                     l3379:	
 10237                           	
 10238  06AA                     l9234:	
 10239  06AA  082C               	movf	((_i+1)),w
 10240  06AB  042B               	iorwf	((_i)),w
 10241  06AC  1D03               	skipz
 10242  06AD  2EAF               	goto	u5601
 10243  06AE  2EB0               	goto	u5600
 10244  06AF                     u5601:
 10245  06AF  2E46               	goto	l9228
 10246  06B0                     u5600:
 10247                           	
 10248  06B0                     l3381:	
 10249                           	line	1014
 10250                           ;Beverage_services.c: 1013: }
 10251                           ;Beverage_services.c: 1014: Enable_Tea_Hot_Water_Valve=0;
 10252  06B0  126D               	bcf	(_Enable_Tea_Hot_Water_Valve/8),(_Enable_Tea_Hot_Water_Valve)&7
 10253                           	line	1015
 10254                           	
 10255  06B1                     l3378:	
 10256                           	line	1016
 10257                           ;Beverage_services.c: 1015: }
 10258                           ;Beverage_services.c: 1016: if(Enable_Milk_Reverse)
 10259  06B1  1E6C               	btfss	(_Enable_Milk_Reverse/8),(_Enable_Milk_Reverse)&7
 10260  06B2  2EB4               	goto	u5611
 10261  06B3  2EB5               	goto	u5610
 10262  06B4                     u5611:
 10263  06B4  2ECB               	goto	l9242
 10264  06B5                     u5610:
 10265                           	line	1018
 10266                           	
 10267  06B5                     l9236:	
 10268                           ;Beverage_services.c: 1017: {
 10269                           ;Beverage_services.c: 1018: _ON=_OFF=_Milk_Valve_Reverse;
 10270  06B5  3002               	movlw	(02h)
 10271  06B6  00B9               	movwf	(__OFF)
 10272  06B7  00D2               	movwf	(??_call_control_valve+0)+0
 10273  06B8  0852               	movf	(??_call_control_valve+0)+0,w
 10274  06B9  00BA               	movwf	(__ON)
 10275                           	line	1019
 10276                           	
 10277  06BA                     l9238:	
 10278                           ;Beverage_services.c: 1019: control_valve(35,2);
 10279  06BA  3023               	movlw	low(023h)
 10280  06BB  00CC               	movwf	(?_control_valve)
 10281  06BC  3000               	movlw	high(023h)
 10282  06BD  00CD               	movwf	((?_control_valve))+1
 10283  06BE  3002               	movlw	low(02h)
 10284  06BF  00CE               	movwf	0+(?_control_valve)+02h
 10285  06C0  3000               	movlw	high(02h)
 10286  06C1  00CF               	movwf	(0+(?_control_valve)+02h)+1
 10287  06C2  160A  158A  23C2   	fcall	_control_valve
              120A  118A         
 10288                           	line	1020
 10289                           	
 10290  06C7                     l9240:	
 10291                           ;Beverage_services.c: 1020: Enable_Milk_Reverse=0;
 10292  06C7  1283               	bcf	status, 5	;RP0=0, select bank0
 10293  06C8  1303               	bcf	status, 6	;RP1=0, select bank0
 10294  06C9  126C               	bcf	(_Enable_Milk_Reverse/8),(_Enable_Milk_Reverse)&7
 10295  06CA  2ECB               	goto	l9242
 10296                           	line	1021
 10297                           	
 10298  06CB                     l3382:	
 10299                           	line	1022
 10300                           	
 10301  06CB                     l9242:	
 10302                           ;Beverage_services.c: 1021: }
 10303                           ;Beverage_services.c: 1022: if(Enable_Heater1)
 10304  06CB  1FEB               	btfss	(_Enable_Heater1/8),(_Enable_Heater1)&7
 10305  06CC  2ECE               	goto	u5621
 10306  06CD  2ECF               	goto	u5620
 10307  06CE                     u5621:
 10308  06CE  2EFF               	goto	l3384
 10309  06CF                     u5620:
 10310                           	line	1024
 10311                           	
 10312  06CF                     l9244:	
 10313                           ;Beverage_services.c: 1023: {
 10314                           ;Beverage_services.c: 1024: _ON=_OFF=_Heater1;
 10315  06CF  300A               	movlw	(0Ah)
 10316  06D0  00B9               	movwf	(__OFF)
 10317  06D1  00D2               	movwf	(??_call_control_valve+0)+0
 10318  06D2  0852               	movf	(??_call_control_valve+0)+0,w
 10319  06D3  00BA               	movwf	(__ON)
 10320                           	line	1025
 10321                           	
 10322  06D4                     l9246:	
 10323                           ;Beverage_services.c: 1025: control_valve(eeprom_read(255),eeprom_read(255));
 10324  06D4  30FF               	movlw	(0FFh)
 10325  06D5  00D2               	movwf	(??_call_control_valve+0)+0
 10326  06D6  0852               	movf	(??_call_control_valve+0)+0,w
 10327  06D7  00F4               	movwf	(?_eeprom_read)
 10328  06D8  160A  158A  211F   	fcall	_eeprom_read
              120A  118A         
 10329  06DD  1283               	bcf	status, 5	;RP0=0, select bank0
 10330  06DE  1303               	bcf	status, 6	;RP1=0, select bank0
 10331  06DF  00D3               	movwf	(??_call_control_valve+1)+0
 10332  06E0  01D4               	clrf	(??_call_control_valve+1)+0+1
 10333  06E1  0853               	movf	0+(??_call_control_valve+1)+0,w
 10334  06E2  00CC               	movwf	(?_control_valve)
 10335  06E3  0854               	movf	1+(??_call_control_valve+1)+0,w
 10336  06E4  00CD               	movwf	(?_control_valve+1)
 10337  06E5  30FF               	movlw	(0FFh)
 10338  06E6  00D5               	movwf	(??_call_control_valve+3)+0
 10339  06E7  0855               	movf	(??_call_control_valve+3)+0,w
 10340  06E8  00F4               	movwf	(?_eeprom_read)
 10341  06E9  160A  158A  211F   	fcall	_eeprom_read
              120A  118A         
 10342  06EE  1283               	bcf	status, 5	;RP0=0, select bank0
 10343  06EF  1303               	bcf	status, 6	;RP1=0, select bank0
 10344  06F0  00D6               	movwf	(??_call_control_valve+4)+0
 10345  06F1  01D7               	clrf	(??_call_control_valve+4)+0+1
 10346  06F2  0856               	movf	0+(??_call_control_valve+4)+0,w
 10347  06F3  00CE               	movwf	0+(?_control_valve)+02h
 10348  06F4  0857               	movf	1+(??_call_control_valve+4)+0,w
 10349  06F5  00CF               	movwf	1+(?_control_valve)+02h
 10350  06F6  160A  158A  23C2   	fcall	_control_valve
              120A  118A         
 10351                           	line	1026
 10352                           	
 10353  06FB                     l9248:	
 10354                           ;Beverage_services.c: 1026: Enable_Heater1=0;
 10355  06FB  1283               	bcf	status, 5	;RP0=0, select bank0
 10356  06FC  1303               	bcf	status, 6	;RP1=0, select bank0
 10357  06FD  13EB               	bcf	(_Enable_Heater1/8),(_Enable_Heater1)&7
 10358  06FE  2EFF               	goto	l3384
 10359                           	line	1027
 10360                           	
 10361  06FF                     l3383:	
 10362                           	line	1028
 10363                           	
 10364  06FF                     l3384:	
 10365  06FF  0008               	return
 10366                           	opt stack 0
 10367                           GLOBAL	__end_of_call_control_valve
 10368  0700                     	__end_of_call_control_valve:
 10369 ;; =============== function _call_control_valve ends ============
 10370                           
 10371                           	signat	_call_control_valve,88
 10372                           	global	_Print_Menu
 10373                           psect	text783,local,class=CODE,delta=2
 10374                           global __ptext783
 10375  0709                     __ptext783:
 10376                           
 10377 ;; *************** function _Print_Menu *****************
 10378 ;; Defined at:
 10379 ;;		line 14 in file "F:\BEVERAGES_ENHANCEMENT\SOFTWARE_DESIGN\MASTER_PIC_16F877A\2015_09_03\Beverage_services.c"
 10380 ;; Parameters:    Size  Location     Type
 10381 ;;		None
 10382 ;; Auto vars:     Size  Location     Type
 10383 ;;		None
 10384 ;; Return value:  Size  Location     Type
 10385 ;;		None               void
 10386 ;; Registers used:
 10387 ;;		wreg, fsr0l, fsr0h, status,2, status,0, btemp+1, pclath, cstack
 10388 ;; Tracked objects:
 10389 ;;		On entry : 0/0
 10390 ;;		On exit  : 0/0
 10391 ;;		Unchanged: 0/0
 10392 ;; Data sizes:     COMMON   BANK0   BANK1   BANK3   BANK2
 10393 ;;      Params:         0       0       0       0       0
 10394 ;;      Locals:         0       0       0       0       0
 10395 ;;      Temps:          0       0       0       0       0
 10396 ;;      Totals:         0       0       0       0       0
 10397 ;;Total ram usage:        0 bytes
 10398 ;; Hardware stack levels used:    1
 10399 ;; Hardware stack levels required when called:    3
 10400 ;; This function calls:
 10401 ;;		_Lcd_String
 10402 ;; This function is called by:
 10403 ;;		_enable_valves
 10404 ;; This function uses a non-reentrant model
 10405 ;;
 10406                           psect	text783
 10407                           	file	"F:\BEVERAGES_ENHANCEMENT\SOFTWARE_DESIGN\MASTER_PIC_16F877A\2015_09_03\Beverage_s
                                 ervices.c"
 10408                           	line	14
 10409                           	global	__size_of_Print_Menu
 10410  00B2                     	__size_of_Print_Menu	equ	__end_of_Print_Menu-_Print_Menu
 10411                           	
 10412  0709                     _Print_Menu:	
 10413                           	opt	stack 3
 10414                           ; Regs used in _Print_Menu: [wreg-fsr0h+status,2+status,0+btemp+1+pclath+cstack]
 10415                           	line	15
 10416                           	
 10417  0709                     l9130:	
 10418                           ;Beverage_services.c: 15: switch(_PRESSED)
 10419  0709  2F9B               	goto	l9152
 10420                           	line	17
 10421                           ;Beverage_services.c: 16: {
 10422                           ;Beverage_services.c: 17: case _NORMAL_COFFEE_BUTTON: Lcd_String(" NORMAL COFFEE",1,0);
 10423                           	
 10424  070A                     l3085:	
 10425                           	
 10426  070A                     l9132:	
 10427  070A  307F               	movlw	low(STR_5|8000h)
 10428  070B  1283               	bcf	status, 5	;RP0=0, select bank0
 10429  070C  1303               	bcf	status, 6	;RP1=0, select bank0
 10430  070D  00CE               	movwf	(?_Lcd_String)
 10431  070E  3090               	movlw	high(STR_5|8000h)
 10432  070F  00CF               	movwf	((?_Lcd_String))+1
 10433  0710  01D0               	clrf	0+(?_Lcd_String)+02h
 10434  0711  1403               	bsf	status,0
 10435  0712  0DD0               	rlf	0+(?_Lcd_String)+02h,f
 10436  0713  01D1               	clrf	0+(?_Lcd_String)+03h
 10437  0714  120A  158A  2000   	fcall	_Lcd_String
              120A  118A         
 10438                           	line	18
 10439                           ;Beverage_services.c: 18: break;
 10440  0719  2FBA               	goto	l3095
 10441                           	line	19
 10442                           ;Beverage_services.c: 19: case _NORMAL_TEA_BUTTON: Lcd_String("   NORMAL TEA",1,0);
 10443                           	
 10444  071A                     l3087:	
 10445                           	
 10446  071A                     l9134:	
 10447  071A  30AC               	movlw	low(STR_6|8000h)
 10448  071B  1283               	bcf	status, 5	;RP0=0, select bank0
 10449  071C  1303               	bcf	status, 6	;RP1=0, select bank0
 10450  071D  00CE               	movwf	(?_Lcd_String)
 10451  071E  3090               	movlw	high(STR_6|8000h)
 10452  071F  00CF               	movwf	((?_Lcd_String))+1
 10453  0720  01D0               	clrf	0+(?_Lcd_String)+02h
 10454  0721  1403               	bsf	status,0
 10455  0722  0DD0               	rlf	0+(?_Lcd_String)+02h,f
 10456  0723  01D1               	clrf	0+(?_Lcd_String)+03h
 10457  0724  120A  158A  2000   	fcall	_Lcd_String
              120A  118A         
 10458                           	line	20
 10459                           ;Beverage_services.c: 20: break;
 10460  0729  2FBA               	goto	l3095
 10461                           	line	21
 10462                           ;Beverage_services.c: 21: case _LIGHT_COFFEE_BUTTON: Lcd_String("  LIGHT COFFEE",1,0);
 10463                           	
 10464  072A                     l3088:	
 10465                           	
 10466  072A                     l9136:	
 10467  072A  308E               	movlw	low(STR_7|8000h)
 10468  072B  1283               	bcf	status, 5	;RP0=0, select bank0
 10469  072C  1303               	bcf	status, 6	;RP1=0, select bank0
 10470  072D  00CE               	movwf	(?_Lcd_String)
 10471  072E  3090               	movlw	high(STR_7|8000h)
 10472  072F  00CF               	movwf	((?_Lcd_String))+1
 10473  0730  01D0               	clrf	0+(?_Lcd_String)+02h
 10474  0731  1403               	bsf	status,0
 10475  0732  0DD0               	rlf	0+(?_Lcd_String)+02h,f
 10476  0733  01D1               	clrf	0+(?_Lcd_String)+03h
 10477  0734  120A  158A  2000   	fcall	_Lcd_String
              120A  118A         
 10478                           	line	22
 10479                           ;Beverage_services.c: 22: break;
 10480  0739  2FBA               	goto	l3095
 10481                           	line	23
 10482                           ;Beverage_services.c: 23: case _LIGHT_TEA_BUTTON: Lcd_String("   LIGHT TEA",1,0);
 10483                           	
 10484  073A                     l3089:	
 10485                           	
 10486  073A                     l9138:	
 10487  073A  30F1               	movlw	low(STR_8|8000h)
 10488  073B  1283               	bcf	status, 5	;RP0=0, select bank0
 10489  073C  1303               	bcf	status, 6	;RP1=0, select bank0
 10490  073D  00CE               	movwf	(?_Lcd_String)
 10491  073E  3090               	movlw	high(STR_8|8000h)
 10492  073F  00CF               	movwf	((?_Lcd_String))+1
 10493  0740  01D0               	clrf	0+(?_Lcd_String)+02h
 10494  0741  1403               	bsf	status,0
 10495  0742  0DD0               	rlf	0+(?_Lcd_String)+02h,f
 10496  0743  01D1               	clrf	0+(?_Lcd_String)+03h
 10497  0744  120A  158A  2000   	fcall	_Lcd_String
              120A  118A         
 10498                           	line	24
 10499                           ;Beverage_services.c: 24: break;
 10500  0749  2FBA               	goto	l3095
 10501                           	line	25
 10502                           ;Beverage_services.c: 25: case _BLACK_COFFEE_BUTTON: Lcd_String("  BLACK COFFEE",1,0);
 10503                           	
 10504  074A                     l3090:	
 10505                           	
 10506  074A                     l9140:	
 10507  074A  3070               	movlw	low(STR_9|8000h)
 10508  074B  1283               	bcf	status, 5	;RP0=0, select bank0
 10509  074C  1303               	bcf	status, 6	;RP1=0, select bank0
 10510  074D  00CE               	movwf	(?_Lcd_String)
 10511  074E  3090               	movlw	high(STR_9|8000h)
 10512  074F  00CF               	movwf	((?_Lcd_String))+1
 10513  0750  01D0               	clrf	0+(?_Lcd_String)+02h
 10514  0751  1403               	bsf	status,0
 10515  0752  0DD0               	rlf	0+(?_Lcd_String)+02h,f
 10516  0753  01D1               	clrf	0+(?_Lcd_String)+03h
 10517  0754  120A  158A  2000   	fcall	_Lcd_String
              120A  118A         
 10518                           	line	26
 10519                           ;Beverage_services.c: 26: break;
 10520  0759  2FBA               	goto	l3095
 10521                           	line	27
 10522                           ;Beverage_services.c: 27: case _BLACK_TEA_BUTTON: Lcd_String("   BLACK TEA",1,0);
 10523                           	
 10524  075A                     l3091:	
 10525                           	
 10526  075A                     l9142:	
 10527  075A  30E4               	movlw	low(STR_10|8000h)
 10528  075B  1283               	bcf	status, 5	;RP0=0, select bank0
 10529  075C  1303               	bcf	status, 6	;RP1=0, select bank0
 10530  075D  00CE               	movwf	(?_Lcd_String)
 10531  075E  3090               	movlw	high(STR_10|8000h)
 10532  075F  00CF               	movwf	((?_Lcd_String))+1
 10533  0760  01D0               	clrf	0+(?_Lcd_String)+02h
 10534  0761  1403               	bsf	status,0
 10535  0762  0DD0               	rlf	0+(?_Lcd_String)+02h,f
 10536  0763  01D1               	clrf	0+(?_Lcd_String)+03h
 10537  0764  120A  158A  2000   	fcall	_Lcd_String
              120A  118A         
 10538                           	line	28
 10539                           ;Beverage_services.c: 28: break;
 10540  0769  2FBA               	goto	l3095
 10541                           	line	29
 10542                           ;Beverage_services.c: 29: case _MILK_BUTTON: Lcd_String("      MILK",1,0);
 10543                           	
 10544  076A                     l3092:	
 10545                           	
 10546  076A                     l9144:	
 10547  076A  3061               	movlw	low(STR_11|8000h)
 10548  076B  1283               	bcf	status, 5	;RP0=0, select bank0
 10549  076C  1303               	bcf	status, 6	;RP1=0, select bank0
 10550  076D  00CE               	movwf	(?_Lcd_String)
 10551  076E  3091               	movlw	high(STR_11|8000h)
 10552  076F  00CF               	movwf	((?_Lcd_String))+1
 10553  0770  01D0               	clrf	0+(?_Lcd_String)+02h
 10554  0771  1403               	bsf	status,0
 10555  0772  0DD0               	rlf	0+(?_Lcd_String)+02h,f
 10556  0773  01D1               	clrf	0+(?_Lcd_String)+03h
 10557  0774  120A  158A  2000   	fcall	_Lcd_String
              120A  118A         
 10558                           	line	30
 10559                           ;Beverage_services.c: 30: break;
 10560  0779  2FBA               	goto	l3095
 10561                           	line	31
 10562                           ;Beverage_services.c: 31: case _HOT_WATER_BUTTON: Lcd_String("   HOT WATER",1,0);
 10563                           	
 10564  077A                     l3093:	
 10565                           	
 10566  077A                     l9146:	
 10567  077A  3018               	movlw	low(STR_12|8000h)
 10568  077B  1283               	bcf	status, 5	;RP0=0, select bank0
 10569  077C  1303               	bcf	status, 6	;RP1=0, select bank0
 10570  077D  00CE               	movwf	(?_Lcd_String)
 10571  077E  3091               	movlw	high(STR_12|8000h)
 10572  077F  00CF               	movwf	((?_Lcd_String))+1
 10573  0780  01D0               	clrf	0+(?_Lcd_String)+02h
 10574  0781  1403               	bsf	status,0
 10575  0782  0DD0               	rlf	0+(?_Lcd_String)+02h,f
 10576  0783  01D1               	clrf	0+(?_Lcd_String)+03h
 10577  0784  120A  158A  2000   	fcall	_Lcd_String
              120A  118A         
 10578                           	line	32
 10579                           ;Beverage_services.c: 32: break;
 10580  0789  2FBA               	goto	l3095
 10581                           	line	33
 10582                           ;Beverage_services.c: 33: case _EXTRA_BUTTON: Lcd_String("      EXTRA",1,0);
 10583                           	
 10584  078A                     l3094:	
 10585                           	
 10586  078A                     l9148:	
 10587  078A  3032               	movlw	low(STR_13|8000h)
 10588  078B  1283               	bcf	status, 5	;RP0=0, select bank0
 10589  078C  1303               	bcf	status, 6	;RP1=0, select bank0
 10590  078D  00CE               	movwf	(?_Lcd_String)
 10591  078E  3091               	movlw	high(STR_13|8000h)
 10592  078F  00CF               	movwf	((?_Lcd_String))+1
 10593  0790  01D0               	clrf	0+(?_Lcd_String)+02h
 10594  0791  1403               	bsf	status,0
 10595  0792  0DD0               	rlf	0+(?_Lcd_String)+02h,f
 10596  0793  01D1               	clrf	0+(?_Lcd_String)+03h
 10597  0794  120A  158A  2000   	fcall	_Lcd_String
              120A  118A         
 10598                           	line	34
 10599                           ;Beverage_services.c: 34: break;
 10600  0799  2FBA               	goto	l3095
 10601                           	line	35
 10602                           	
 10603  079A                     l9150:	
 10604                           ;Beverage_services.c: 35: }
 10605  079A  2FBA               	goto	l3095
 10606                           	line	15
 10607                           	
 10608  079B                     l3084:	
 10609                           	
 10610  079B                     l9152:	
 10611  079B  1283               	bcf	status, 5	;RP0=0, select bank0
 10612  079C  1303               	bcf	status, 6	;RP1=0, select bank0
 10613  079D  083B               	movf	(__PRESSED),w
 10614                           	; Switch size 1, requested type "space"
 10615                           ; Number of cases is 9, Range of values is 1 to 9
 10616                           ; switch strategies available:
 10617                           ; Name         Instructions Cycles
 10618                           ; simple_byte           28    15 (average)
 10619                           ; direct_byte           38    11 (fixed)
 10620                           ; jumptable            263     9 (fixed)
 10621                           ;	Chosen strategy is simple_byte
 10622                           
 10623                           	opt asmopt_off
 10624  079E  3A01               	xorlw	1^0	; case 1
 10625  079F  1903               	skipnz
 10626  07A0  2F0A               	goto	l9132
 10627  07A1  3A03               	xorlw	2^1	; case 2
 10628  07A2  1903               	skipnz
 10629  07A3  2F1A               	goto	l9134
 10630  07A4  3A01               	xorlw	3^2	; case 3
 10631  07A5  1903               	skipnz
 10632  07A6  2F2A               	goto	l9136
 10633  07A7  3A07               	xorlw	4^3	; case 4
 10634  07A8  1903               	skipnz
 10635  07A9  2F3A               	goto	l9138
 10636  07AA  3A01               	xorlw	5^4	; case 5
 10637  07AB  1903               	skipnz
 10638  07AC  2F4A               	goto	l9140
 10639  07AD  3A03               	xorlw	6^5	; case 6
 10640  07AE  1903               	skipnz
 10641  07AF  2F5A               	goto	l9142
 10642  07B0  3A01               	xorlw	7^6	; case 7
 10643  07B1  1903               	skipnz
 10644  07B2  2F6A               	goto	l9144
 10645  07B3  3A0F               	xorlw	8^7	; case 8
 10646  07B4  1903               	skipnz
 10647  07B5  2F8A               	goto	l9148
 10648  07B6  3A01               	xorlw	9^8	; case 9
 10649  07B7  1903               	skipnz
 10650  07B8  2F7A               	goto	l9146
 10651  07B9  2FBA               	goto	l3095
 10652                           	opt asmopt_on
 10653                           
 10654                           	line	35
 10655                           	
 10656  07BA                     l3086:	
 10657                           	line	36
 10658                           	
 10659  07BA                     l3095:	
 10660  07BA  0008               	return
 10661                           	opt stack 0
 10662                           GLOBAL	__end_of_Print_Menu
 10663  07BB                     	__end_of_Print_Menu:
 10664 ;; =============== function _Print_Menu ends ============
 10665                           
 10666                           	signat	_Print_Menu,88
 10667                           	global	_Print_Name
 10668                           psect	text784,local,class=CODE,delta=2
 10669                           global __ptext784
 10670  195B                     __ptext784:
 10671                           
 10672 ;; *************** function _Print_Name *****************
 10673 ;; Defined at:
 10674 ;;		line 8 in file "F:\BEVERAGES_ENHANCEMENT\SOFTWARE_DESIGN\MASTER_PIC_16F877A\2015_09_03\Beverage_services.c"
 10675 ;; Parameters:    Size  Location     Type
 10676 ;;		None
 10677 ;; Auto vars:     Size  Location     Type
 10678 ;;		None
 10679 ;; Return value:  Size  Location     Type
 10680 ;;		None               void
 10681 ;; Registers used:
 10682 ;;		wreg, fsr0l, fsr0h, status,2, status,0, btemp+1, pclath, cstack
 10683 ;; Tracked objects:
 10684 ;;		On entry : 0/0
 10685 ;;		On exit  : 0/0
 10686 ;;		Unchanged: 0/0
 10687 ;; Data sizes:     COMMON   BANK0   BANK1   BANK3   BANK2
 10688 ;;      Params:         0       0       0       0       0
 10689 ;;      Locals:         0       0       0       0       0
 10690 ;;      Temps:          0       0       0       0       0
 10691 ;;      Totals:         0       0       0       0       0
 10692 ;;Total ram usage:        0 bytes
 10693 ;; Hardware stack levels used:    1
 10694 ;; Hardware stack levels required when called:    3
 10695 ;; This function calls:
 10696 ;;		_Lcd_String
 10697 ;; This function is called by:
 10698 ;;		_main
 10699 ;;		_enable_valves
 10700 ;;		_change_modes
 10701 ;; This function uses a non-reentrant model
 10702 ;;
 10703                           psect	text784
 10704                           	file	"F:\BEVERAGES_ENHANCEMENT\SOFTWARE_DESIGN\MASTER_PIC_16F877A\2015_09_03\Beverage_s
                                 ervices.c"
 10705                           	line	8
 10706                           	global	__size_of_Print_Name
 10707  001F                     	__size_of_Print_Name	equ	__end_of_Print_Name-_Print_Name
 10708                           	
 10709  195B                     _Print_Name:	
 10710                           	opt	stack 3
 10711                           ; Regs used in _Print_Name: [wreg-fsr0h+status,2+status,0+btemp+1+pclath+cstack]
 10712                           	line	9
 10713                           	
 10714  195B                     l9128:	
 10715                           ;Beverage_services.c: 9: Lcd_String("  CAFE DE VIE",1,0);
 10716  195B  30BA               	movlw	low(STR_3|8000h)
 10717  195C  1283               	bcf	status, 5	;RP0=0, select bank0
 10718  195D  1303               	bcf	status, 6	;RP1=0, select bank0
 10719  195E  00CE               	movwf	(?_Lcd_String)
 10720  195F  3090               	movlw	high(STR_3|8000h)
 10721  1960  00CF               	movwf	((?_Lcd_String))+1
 10722  1961  01D0               	clrf	0+(?_Lcd_String)+02h
 10723  1962  1403               	bsf	status,0
 10724  1963  0DD0               	rlf	0+(?_Lcd_String)+02h,f
 10725  1964  01D1               	clrf	0+(?_Lcd_String)+03h
 10726  1965  120A  158A  2000   	fcall	_Lcd_String
              160A  158A         
 10727                           	line	10
 10728                           ;Beverage_services.c: 10: Lcd_String("   BEVERAGES",0,1);
 10729  196A  3025               	movlw	low(STR_4|8000h)
 10730  196B  1283               	bcf	status, 5	;RP0=0, select bank0
 10731  196C  1303               	bcf	status, 6	;RP1=0, select bank0
 10732  196D  00CE               	movwf	(?_Lcd_String)
 10733  196E  3091               	movlw	high(STR_4|8000h)
 10734  196F  00CF               	movwf	((?_Lcd_String))+1
 10735  1970  01D0               	clrf	0+(?_Lcd_String)+02h
 10736  1971  01D1               	clrf	0+(?_Lcd_String)+03h
 10737  1972  1403               	bsf	status,0
 10738  1973  0DD1               	rlf	0+(?_Lcd_String)+03h,f
 10739  1974  120A  158A  2000   	fcall	_Lcd_String
              160A  158A         
 10740                           	line	11
 10741                           	
 10742  1979                     l3081:	
 10743  1979  0008               	return
 10744                           	opt stack 0
 10745                           GLOBAL	__end_of_Print_Name
 10746  197A                     	__end_of_Print_Name:
 10747 ;; =============== function _Print_Name ends ============
 10748                           
 10749                           	signat	_Print_Name,88
 10750                           	global	_print_yes_no
 10751                           psect	text785,local,class=CODE,delta=2
 10752                           global __ptext785
 10753  1E63                     __ptext785:
 10754                           
 10755 ;; *************** function _print_yes_no *****************
 10756 ;; Defined at:
 10757 ;;		line 1162 in file "F:\BEVERAGES_ENHANCEMENT\SOFTWARE_DESIGN\MASTER_PIC_16F877A\2015_09_03\Beverage_services.c"
 10758 ;; Parameters:    Size  Location     Type
 10759 ;;  MEM             1    wreg     unsigned char 
 10760 ;; Auto vars:     Size  Location     Type
 10761 ;;  MEM             1    6[BANK0 ] unsigned char 
 10762 ;; Return value:  Size  Location     Type
 10763 ;;		None               void
 10764 ;; Registers used:
 10765 ;;		wreg, status,2, status,0, pclath, cstack
 10766 ;; Tracked objects:
 10767 ;;		On entry : 0/0
 10768 ;;		On exit  : 0/0
 10769 ;;		Unchanged: 0/0
 10770 ;; Data sizes:     COMMON   BANK0   BANK1   BANK3   BANK2
 10771 ;;      Params:         0       0       0       0       0
 10772 ;;      Locals:         0       1       0       0       0
 10773 ;;      Temps:          0       1       0       0       0
 10774 ;;      Totals:         0       2       0       0       0
 10775 ;;Total ram usage:        2 bytes
 10776 ;; Hardware stack levels used:    1
 10777 ;; Hardware stack levels required when called:    2
 10778 ;; This function calls:
 10779 ;;		_Read_ValveFrom_Memory
 10780 ;;		_Lcd_Cmd
 10781 ;;		_Lcd_Data
 10782 ;; This function is called by:
 10783 ;;		_enable_valves
 10784 ;;		_change_modes
 10785 ;; This function uses a non-reentrant model
 10786 ;;
 10787                           psect	text785
 10788                           	file	"F:\BEVERAGES_ENHANCEMENT\SOFTWARE_DESIGN\MASTER_PIC_16F877A\2015_09_03\Beverage_s
                                 ervices.c"
 10789                           	line	1162
 10790                           	global	__size_of_print_yes_no
 10791  0092                     	__size_of_print_yes_no	equ	__end_of_print_yes_no-_print_yes_no
 10792                           	
 10793  1E63                     _print_yes_no:	
 10794                           	opt	stack 4
 10795                           ; Regs used in _print_yes_no: [wreg+status,2+status,0+pclath+cstack]
 10796                           ;print_yes_no@MEM stored from wreg
 10797  1E63  1283               	bcf	status, 5	;RP0=0, select bank0
 10798  1E64  1303               	bcf	status, 6	;RP1=0, select bank0
 10799  1E65  00CF               	movwf	(print_yes_no@MEM)
 10800                           	line	1163
 10801                           	
 10802  1E66                     l9096:	
 10803                           ;Beverage_services.c: 1163: VALVE=Read_ValveFrom_Memory(MEM);
 10804  1E66  084F               	movf	(print_yes_no@MEM),w
 10805  1E67  160A  158A  2572   	fcall	_Read_ValveFrom_Memory
              160A  158A         
 10806  1E6C  1283               	bcf	status, 5	;RP0=0, select bank0
 10807  1E6D  1303               	bcf	status, 6	;RP1=0, select bank0
 10808  1E6E  00CE               	movwf	(??_print_yes_no+0)+0
 10809  1E6F  084E               	movf	(??_print_yes_no+0)+0,w
 10810  1E70  00B6               	movwf	(_VALVE)
 10811                           	line	1164
 10812                           ;Beverage_services.c: 1164: Lcd_Cmd(0xC3);
 10813  1E71  30C3               	movlw	(0C3h)
 10814  1E72  160A  158A  229B   	fcall	_Lcd_Cmd
              160A  158A         
 10815                           	line	1165
 10816                           	
 10817  1E77                     l9098:	
 10818                           ;Beverage_services.c: 1165: if( VALVE.COFFEE_DICATION )
 10819  1E77  1283               	bcf	status, 5	;RP0=0, select bank0
 10820  1E78  1303               	bcf	status, 6	;RP1=0, select bank0
 10821  1E79  1C36               	btfss	(_VALVE),0
 10822  1E7A  2E7C               	goto	u5461
 10823  1E7B  2E7D               	goto	u5460
 10824  1E7C                     u5461:
 10825  1E7C  2E84               	goto	l9102
 10826  1E7D                     u5460:
 10827                           	line	1167
 10828                           	
 10829  1E7D                     l9100:	
 10830                           ;Beverage_services.c: 1166: {
 10831                           ;Beverage_services.c: 1167: Lcd_Data('Y');;
 10832  1E7D  3059               	movlw	(059h)
 10833  1E7E  160A  158A  22D4   	fcall	_Lcd_Data
              160A  158A         
 10834                           	line	1168
 10835                           ;Beverage_services.c: 1168: }
 10836  1E83  2E8A               	goto	l3455
 10837                           	line	1169
 10838                           	
 10839  1E84                     l3454:	
 10840                           	line	1170
 10841                           	
 10842  1E84                     l9102:	
 10843                           ;Beverage_services.c: 1169: else
 10844                           ;Beverage_services.c: 1170: Lcd_Data('N');;
 10845  1E84  304E               	movlw	(04Eh)
 10846  1E85  160A  158A  22D4   	fcall	_Lcd_Data
              160A  158A         
 10847                           	
 10848  1E8A                     l3455:	
 10849                           	line	1171
 10850                           ;Beverage_services.c: 1171: Lcd_Cmd(0xC5);
 10851  1E8A  30C5               	movlw	(0C5h)
 10852  1E8B  160A  158A  229B   	fcall	_Lcd_Cmd
              160A  158A         
 10853                           	line	1172
 10854                           	
 10855  1E90                     l9104:	
 10856                           ;Beverage_services.c: 1172: if( VALVE.TEA_DICATION )
 10857  1E90  1283               	bcf	status, 5	;RP0=0, select bank0
 10858  1E91  1303               	bcf	status, 6	;RP1=0, select bank0
 10859  1E92  1CB6               	btfss	(_VALVE),1
 10860  1E93  2E95               	goto	u5471
 10861  1E94  2E96               	goto	u5470
 10862  1E95                     u5471:
 10863  1E95  2E9D               	goto	l9108
 10864  1E96                     u5470:
 10865                           	line	1174
 10866                           	
 10867  1E96                     l9106:	
 10868                           ;Beverage_services.c: 1173: {
 10869                           ;Beverage_services.c: 1174: Lcd_Data('Y');;
 10870  1E96  3059               	movlw	(059h)
 10871  1E97  160A  158A  22D4   	fcall	_Lcd_Data
              160A  158A         
 10872                           	line	1175
 10873                           ;Beverage_services.c: 1175: }
 10874  1E9C  2EA3               	goto	l3457
 10875                           	line	1176
 10876                           	
 10877  1E9D                     l3456:	
 10878                           	line	1177
 10879                           	
 10880  1E9D                     l9108:	
 10881                           ;Beverage_services.c: 1176: else
 10882                           ;Beverage_services.c: 1177: Lcd_Data('N');;
 10883  1E9D  304E               	movlw	(04Eh)
 10884  1E9E  160A  158A  22D4   	fcall	_Lcd_Data
              160A  158A         
 10885                           	
 10886  1EA3                     l3457:	
 10887                           	line	1178
 10888                           ;Beverage_services.c: 1178: Lcd_Cmd(0xC7);
 10889  1EA3  30C7               	movlw	(0C7h)
 10890  1EA4  160A  158A  229B   	fcall	_Lcd_Cmd
              160A  158A         
 10891                           	line	1179
 10892                           	
 10893  1EA9                     l9110:	
 10894                           ;Beverage_services.c: 1179: if( VALVE.MIXING_HOT_WATER )
 10895  1EA9  1283               	bcf	status, 5	;RP0=0, select bank0
 10896  1EAA  1303               	bcf	status, 6	;RP1=0, select bank0
 10897  1EAB  1D36               	btfss	(_VALVE),2
 10898  1EAC  2EAE               	goto	u5481
 10899  1EAD  2EAF               	goto	u5480
 10900  1EAE                     u5481:
 10901  1EAE  2EB6               	goto	l9114
 10902  1EAF                     u5480:
 10903                           	line	1181
 10904                           	
 10905  1EAF                     l9112:	
 10906                           ;Beverage_services.c: 1180: {
 10907                           ;Beverage_services.c: 1181: Lcd_Data('Y');;
 10908  1EAF  3059               	movlw	(059h)
 10909  1EB0  160A  158A  22D4   	fcall	_Lcd_Data
              160A  158A         
 10910                           	line	1182
 10911                           ;Beverage_services.c: 1182: }
 10912  1EB5  2EBC               	goto	l3459
 10913                           	line	1183
 10914                           	
 10915  1EB6                     l3458:	
 10916                           	line	1184
 10917                           	
 10918  1EB6                     l9114:	
 10919                           ;Beverage_services.c: 1183: else
 10920                           ;Beverage_services.c: 1184: Lcd_Data('N');;
 10921  1EB6  304E               	movlw	(04Eh)
 10922  1EB7  160A  158A  22D4   	fcall	_Lcd_Data
              160A  158A         
 10923                           	
 10924  1EBC                     l3459:	
 10925                           	line	1185
 10926                           ;Beverage_services.c: 1185: Lcd_Cmd(0xC9);
 10927  1EBC  30C9               	movlw	(0C9h)
 10928  1EBD  160A  158A  229B   	fcall	_Lcd_Cmd
              160A  158A         
 10929                           	line	1186
 10930                           	
 10931  1EC2                     l9116:	
 10932                           ;Beverage_services.c: 1186: if( VALVE.MILK )
 10933  1EC2  1283               	bcf	status, 5	;RP0=0, select bank0
 10934  1EC3  1303               	bcf	status, 6	;RP1=0, select bank0
 10935  1EC4  1DB6               	btfss	(_VALVE),3
 10936  1EC5  2EC7               	goto	u5491
 10937  1EC6  2EC8               	goto	u5490
 10938  1EC7                     u5491:
 10939  1EC7  2ECF               	goto	l9120
 10940  1EC8                     u5490:
 10941                           	line	1188
 10942                           	
 10943  1EC8                     l9118:	
 10944                           ;Beverage_services.c: 1187: {
 10945                           ;Beverage_services.c: 1188: Lcd_Data('Y');;
 10946  1EC8  3059               	movlw	(059h)
 10947  1EC9  160A  158A  22D4   	fcall	_Lcd_Data
              160A  158A         
 10948                           	line	1189
 10949                           ;Beverage_services.c: 1189: }
 10950  1ECE  2ED5               	goto	l3461
 10951                           	line	1190
 10952                           	
 10953  1ECF                     l3460:	
 10954                           	line	1191
 10955                           	
 10956  1ECF                     l9120:	
 10957                           ;Beverage_services.c: 1190: else
 10958                           ;Beverage_services.c: 1191: Lcd_Data('N');;
 10959  1ECF  304E               	movlw	(04Eh)
 10960  1ED0  160A  158A  22D4   	fcall	_Lcd_Data
              160A  158A         
 10961                           	
 10962  1ED5                     l3461:	
 10963                           	line	1192
 10964                           ;Beverage_services.c: 1192: Lcd_Cmd(0xCB);
 10965  1ED5  30CB               	movlw	(0CBh)
 10966  1ED6  160A  158A  229B   	fcall	_Lcd_Cmd
              160A  158A         
 10967                           	line	1193
 10968                           	
 10969  1EDB                     l9122:	
 10970                           ;Beverage_services.c: 1193: if( VALVE.VIBR_MOTOR)
 10971  1EDB  1283               	bcf	status, 5	;RP0=0, select bank0
 10972  1EDC  1303               	bcf	status, 6	;RP1=0, select bank0
 10973  1EDD  1E36               	btfss	(_VALVE),4
 10974  1EDE  2EE0               	goto	u5501
 10975  1EDF  2EE1               	goto	u5500
 10976  1EE0                     u5501:
 10977  1EE0  2EE8               	goto	l9126
 10978  1EE1                     u5500:
 10979                           	line	1195
 10980                           	
 10981  1EE1                     l9124:	
 10982                           ;Beverage_services.c: 1194: {
 10983                           ;Beverage_services.c: 1195: Lcd_Data('Y');;
 10984  1EE1  3059               	movlw	(059h)
 10985  1EE2  160A  158A  22D4   	fcall	_Lcd_Data
              160A  158A         
 10986                           	line	1196
 10987                           ;Beverage_services.c: 1196: }
 10988  1EE7  2EEE               	goto	l3463
 10989                           	line	1197
 10990                           	
 10991  1EE8                     l3462:	
 10992                           	line	1198
 10993                           	
 10994  1EE8                     l9126:	
 10995                           ;Beverage_services.c: 1197: else
 10996                           ;Beverage_services.c: 1198: Lcd_Data('N');;
 10997  1EE8  304E               	movlw	(04Eh)
 10998  1EE9  160A  158A  22D4   	fcall	_Lcd_Data
              160A  158A         
 10999                           	
 11000  1EEE                     l3463:	
 11001                           	line	1199
 11002                           ;Beverage_services.c: 1199: Lcd_Cmd(0xCD);
 11003  1EEE  30CD               	movlw	(0CDh)
 11004  1EEF  160A  158A  229B   	fcall	_Lcd_Cmd
              160A  158A         
 11005                           	line	1200
 11006                           	
 11007  1EF4                     l3464:	
 11008  1EF4  0008               	return
 11009                           	opt stack 0
 11010                           GLOBAL	__end_of_print_yes_no
 11011  1EF5                     	__end_of_print_yes_no:
 11012 ;; =============== function _print_yes_no ends ============
 11013                           
 11014                           	signat	_print_yes_no,4216
 11015                           	global	_myitoa
 11016                           psect	text786,local,class=CODE,delta=2
 11017                           global __ptext786
 11018  000B                     __ptext786:
 11019                           
 11020 ;; *************** function _myitoa *****************
 11021 ;; Defined at:
 11022 ;;		line 20 in file "F:\BEVERAGES_ENHANCEMENT\SOFTWARE_DESIGN\MASTER_PIC_16F877A\2015_09_03\myitoa.c"
 11023 ;; Parameters:    Size  Location     Type
 11024 ;;  val             2   11[COMMON] int 
 11025 ;;  p               1   13[COMMON] PTR unsigned char 
 11026 ;;		 -> buff(4), 
 11027 ;; Auto vars:     Size  Location     Type
 11028 ;;		None
 11029 ;; Return value:  Size  Location     Type
 11030 ;;		None               void
 11031 ;; Registers used:
 11032 ;;		wreg, fsr0l, fsr0h, status,2, status,0, pclath, cstack
 11033 ;; Tracked objects:
 11034 ;;		On entry : 0/0
 11035 ;;		On exit  : 0/0
 11036 ;;		Unchanged: 0/0
 11037 ;; Data sizes:     COMMON   BANK0   BANK1   BANK3   BANK2
 11038 ;;      Params:         3       0       0       0       0
 11039 ;;      Locals:         0       0       0       0       0
 11040 ;;      Temps:          0       2       0       0       0
 11041 ;;      Totals:         3       2       0       0       0
 11042 ;;Total ram usage:        5 bytes
 11043 ;; Hardware stack levels used:    1
 11044 ;; Hardware stack levels required when called:    2
 11045 ;; This function calls:
 11046 ;;		___awmod
 11047 ;;		___awdiv
 11048 ;;		_rev
 11049 ;; This function is called by:
 11050 ;;		_main
 11051 ;;		_enable_valves
 11052 ;;		_call_control_valve
 11053 ;; This function uses a non-reentrant model
 11054 ;;
 11055                           psect	text786
 11056                           	file	"F:\BEVERAGES_ENHANCEMENT\SOFTWARE_DESIGN\MASTER_PIC_16F877A\2015_09_03\myitoa.c"
 11057                           	line	20
 11058                           	global	__size_of_myitoa
 11059  0051                     	__size_of_myitoa	equ	__end_of_myitoa-_myitoa
 11060                           	
 11061  000B                     _myitoa:	
 11062                           	opt	stack 4
 11063                           ; Regs used in _myitoa: [wreg-fsr0h+status,2+status,0+pclath+cstack]
 11064                           	line	21
 11065                           	
 11066  000B                     l9082:	
 11067                           ;myitoa.c: 21: itoai=0;
 11068  000B  1283               	bcf	status, 5	;RP0=0, select bank0
 11069  000C  1303               	bcf	status, 6	;RP1=0, select bank0
 11070  000D  01C0               	clrf	(_itoai)
 11071                           	line	22
 11072                           ;myitoa.c: 22: while(val)
 11073  000E  2847               	goto	l9090
 11074                           	
 11075  000F                     l1422:	
 11076                           	line	24
 11077                           	
 11078  000F                     l9084:	
 11079                           ;myitoa.c: 23: {
 11080                           ;myitoa.c: 24: *(p+itoai)=(val%10)+0x30;
 11081  000F  300A               	movlw	low(0Ah)
 11082  0010  00F0               	movwf	(?___awmod)
 11083  0011  3000               	movlw	high(0Ah)
 11084  0012  00F1               	movwf	((?___awmod))+1
 11085  0013  087C               	movf	(myitoa@val+1),w
 11086  0014  01F3               	clrf	1+(?___awmod)+02h
 11087  0015  07F3               	addwf	1+(?___awmod)+02h
 11088  0016  087B               	movf	(myitoa@val),w
 11089  0017  01F2               	clrf	0+(?___awmod)+02h
 11090  0018  07F2               	addwf	0+(?___awmod)+02h
 11091                           
 11092  0019  160A  158A  2498   	fcall	___awmod
              120A  118A         
 11093  001E  0870               	movf	(0+(?___awmod)),w
 11094  001F  3E30               	addlw	030h
 11095  0020  1283               	bcf	status, 5	;RP0=0, select bank0
 11096  0021  1303               	bcf	status, 6	;RP1=0, select bank0
 11097  0022  00CD               	movwf	(??_myitoa+0)+0
 11098  0023  0840               	movf	(_itoai),w
 11099  0024  077D               	addwf	(myitoa@p),w
 11100  0025  00CE               	movwf	(??_myitoa+1)+0
 11101  0026  084E               	movf	0+(??_myitoa+1)+0,w
 11102  0027  0084               	movwf	fsr0
 11103  0028  084D               	movf	(??_myitoa+0)+0,w
 11104  0029  1383               	bcf	status, 7	;select IRP bank0
 11105  002A  0080               	movwf	indf
 11106                           	line	25
 11107                           	
 11108  002B                     l9086:	
 11109                           ;myitoa.c: 25: val=val/10;
 11110  002B  300A               	movlw	low(0Ah)
 11111  002C  00F0               	movwf	(?___awdiv)
 11112  002D  3000               	movlw	high(0Ah)
 11113  002E  00F1               	movwf	((?___awdiv))+1
 11114  002F  087C               	movf	(myitoa@val+1),w
 11115  0030  01F3               	clrf	1+(?___awdiv)+02h
 11116  0031  07F3               	addwf	1+(?___awdiv)+02h
 11117  0032  087B               	movf	(myitoa@val),w
 11118  0033  01F2               	clrf	0+(?___awdiv)+02h
 11119  0034  07F2               	addwf	0+(?___awdiv)+02h
 11120                           
 11121  0035  160A  158A  24FE   	fcall	___awdiv
              120A  118A         
 11122  003A  0871               	movf	(1+(?___awdiv)),w
 11123  003B  01FC               	clrf	(myitoa@val+1)
 11124  003C  07FC               	addwf	(myitoa@val+1)
 11125  003D  0870               	movf	(0+(?___awdiv)),w
 11126  003E  01FB               	clrf	(myitoa@val)
 11127  003F  07FB               	addwf	(myitoa@val)
 11128                           
 11129                           	line	26
 11130                           	
 11131  0040                     l9088:	
 11132                           ;myitoa.c: 26: itoai++;
 11133  0040  3001               	movlw	(01h)
 11134  0041  1283               	bcf	status, 5	;RP0=0, select bank0
 11135  0042  1303               	bcf	status, 6	;RP1=0, select bank0
 11136  0043  00CD               	movwf	(??_myitoa+0)+0
 11137  0044  084D               	movf	(??_myitoa+0)+0,w
 11138  0045  07C0               	addwf	(_itoai),f
 11139  0046  2847               	goto	l9090
 11140                           	line	27
 11141                           	
 11142  0047                     l1421:	
 11143                           	line	22
 11144                           	
 11145  0047                     l9090:	
 11146  0047  087C               	movf	((myitoa@val+1)),w
 11147  0048  047B               	iorwf	((myitoa@val)),w
 11148  0049  1D03               	skipz
 11149  004A  284C               	goto	u5451
 11150  004B  284D               	goto	u5450
 11151  004C                     u5451:
 11152  004C  280F               	goto	l9084
 11153  004D                     u5450:
 11154  004D  284E               	goto	l9092
 11155                           	
 11156  004E                     l1423:	
 11157                           	line	28
 11158                           	
 11159  004E                     l9092:	
 11160                           ;myitoa.c: 27: }
 11161                           ;myitoa.c: 28: *(p+itoai)='\0';
 11162  004E  0840               	movf	(_itoai),w
 11163  004F  077D               	addwf	(myitoa@p),w
 11164  0050  00CD               	movwf	(??_myitoa+0)+0
 11165  0051  084D               	movf	0+(??_myitoa+0)+0,w
 11166  0052  0084               	movwf	fsr0
 11167  0053  1383               	bcf	status, 7	;select IRP bank0
 11168  0054  0180               	clrf	indf
 11169                           	line	29
 11170                           	
 11171  0055                     l9094:	
 11172                           ;myitoa.c: 29: rev(p);
 11173  0055  087D               	movf	(myitoa@p),w
 11174  0056  160A  158A  2405   	fcall	_rev
              120A  118A         
 11175                           	line	30
 11176                           	
 11177  005B                     l1424:	
 11178  005B  0008               	return
 11179                           	opt stack 0
 11180                           GLOBAL	__end_of_myitoa
 11181  005C                     	__end_of_myitoa:
 11182 ;; =============== function _myitoa ends ============
 11183                           
 11184                           	signat	_myitoa,8312
 11185                           	global	_Num_Disp
 11186                           psect	text787,local,class=CODE,delta=2
 11187                           global __ptext787
 11188  1EF5                     __ptext787:
 11189                           
 11190 ;; *************** function _Num_Disp *****************
 11191 ;; Defined at:
 11192 ;;		line 148 in file "F:\BEVERAGES_ENHANCEMENT\SOFTWARE_DESIGN\MASTER_PIC_16F877A\2015_09_03\lcd.c"
 11193 ;; Parameters:    Size  Location     Type
 11194 ;;  dat             2    7[BANK0 ] unsigned int 
 11195 ;;  digit           1    9[BANK0 ] unsigned char 
 11196 ;;  dot             1   10[BANK0 ] unsigned char 
 11197 ;; Auto vars:     Size  Location     Type
 11198 ;;  temp            2   15[BANK0 ] unsigned int 
 11199 ;;  i               2   13[BANK0 ] unsigned int 
 11200 ;; Return value:  Size  Location     Type
 11201 ;;		None               void
 11202 ;; Registers used:
 11203 ;;		wreg, fsr0l, fsr0h, status,2, status,0, pclath, cstack
 11204 ;; Tracked objects:
 11205 ;;		On entry : 0/0
 11206 ;;		On exit  : 0/0
 11207 ;;		Unchanged: 0/0
 11208 ;; Data sizes:     COMMON   BANK0   BANK1   BANK3   BANK2
 11209 ;;      Params:         0       4       0       0       0
 11210 ;;      Locals:         0       4       0       0       0
 11211 ;;      Temps:          0       2       0       0       0
 11212 ;;      Totals:         0      10       0       0       0
 11213 ;;Total ram usage:       10 bytes
 11214 ;; Hardware stack levels used:    1
 11215 ;; Hardware stack levels required when called:    2
 11216 ;; This function calls:
 11217 ;;		___wmul
 11218 ;;		___lwdiv
 11219 ;;		_Lcd_Data
 11220 ;;		___lwmod
 11221 ;; This function is called by:
 11222 ;;		_enable_valves
 11223 ;;		_change_modes
 11224 ;; This function uses a non-reentrant model
 11225 ;;
 11226                           psect	text787
 11227                           	file	"F:\BEVERAGES_ENHANCEMENT\SOFTWARE_DESIGN\MASTER_PIC_16F877A\2015_09_03\lcd.c"
 11228                           	line	148
 11229                           	global	__size_of_Num_Disp
 11230  010B                     	__size_of_Num_Disp	equ	__end_of_Num_Disp-_Num_Disp
 11231                           	
 11232  1EF5                     _Num_Disp:	
 11233                           	opt	stack 4
 11234                           ; Regs used in _Num_Disp: [wreg-fsr0h+status,2+status,0+pclath+cstack]
 11235                           	line	149
 11236                           	
 11237  1EF5                     l9044:	
 11238                           ;lcd.c: 149: unsigned int temp=10,i;
 11239  1EF5  300A               	movlw	low(0Ah)
 11240  1EF6  1283               	bcf	status, 5	;RP0=0, select bank0
 11241  1EF7  1303               	bcf	status, 6	;RP1=0, select bank0
 11242  1EF8  00D8               	movwf	(Num_Disp@temp)
 11243  1EF9  3000               	movlw	high(0Ah)
 11244  1EFA  00D9               	movwf	((Num_Disp@temp))+1
 11245                           	line	150
 11246                           ;lcd.c: 150: for(i=digit;i>2;i--)
 11247  1EFB  0852               	movf	(Num_Disp@digit),w
 11248  1EFC  00D4               	movwf	(??_Num_Disp+0)+0
 11249  1EFD  01D5               	clrf	(??_Num_Disp+0)+0+1
 11250  1EFE  0854               	movf	0+(??_Num_Disp+0)+0,w
 11251  1EFF  00D6               	movwf	(Num_Disp@i)
 11252  1F00  0855               	movf	1+(??_Num_Disp+0)+0,w
 11253  1F01  00D7               	movwf	(Num_Disp@i+1)
 11254  1F02  3000               	movlw	high(03h)
 11255  1F03  0257               	subwf	(Num_Disp@i+1),w
 11256  1F04  3003               	movlw	low(03h)
 11257  1F05  1903               	skipnz
 11258  1F06  0256               	subwf	(Num_Disp@i),w
 11259  1F07  1803               	skipnc
 11260  1F08  2F0A               	goto	u5391
 11261  1F09  2F0B               	goto	u5390
 11262  1F0A                     u5391:
 11263  1F0A  2F0D               	goto	l9048
 11264  1F0B                     u5390:
 11265  1F0B  2F34               	goto	l9054
 11266                           	
 11267  1F0C                     l9046:	
 11268  1F0C  2F34               	goto	l9054
 11269                           	line	151
 11270                           	
 11271  1F0D                     l1401:	
 11272                           	line	152
 11273                           	
 11274  1F0D                     l9048:	
 11275                           ;lcd.c: 151: {
 11276                           ;lcd.c: 152: temp=temp*10;
 11277  1F0D  0859               	movf	(Num_Disp@temp+1),w
 11278  1F0E  01F7               	clrf	(?___wmul+1)
 11279  1F0F  07F7               	addwf	(?___wmul+1)
 11280  1F10  0858               	movf	(Num_Disp@temp),w
 11281  1F11  01F6               	clrf	(?___wmul)
 11282  1F12  07F6               	addwf	(?___wmul)
 11283                           
 11284  1F13  300A               	movlw	low(0Ah)
 11285  1F14  00F8               	movwf	0+(?___wmul)+02h
 11286  1F15  3000               	movlw	high(0Ah)
 11287  1F16  00F9               	movwf	(0+(?___wmul)+02h)+1
 11288  1F17  160A  158A  21A2   	fcall	___wmul
              160A  158A         
 11289  1F1C  0877               	movf	(1+(?___wmul)),w
 11290  1F1D  1283               	bcf	status, 5	;RP0=0, select bank0
 11291  1F1E  1303               	bcf	status, 6	;RP1=0, select bank0
 11292  1F1F  01D9               	clrf	(Num_Disp@temp+1)
 11293  1F20  07D9               	addwf	(Num_Disp@temp+1)
 11294  1F21  0876               	movf	(0+(?___wmul)),w
 11295  1F22  01D8               	clrf	(Num_Disp@temp)
 11296  1F23  07D8               	addwf	(Num_Disp@temp)
 11297                           
 11298                           	line	150
 11299                           	
 11300  1F24                     l9050:	
 11301  1F24  3001               	movlw	low(01h)
 11302  1F25  02D6               	subwf	(Num_Disp@i),f
 11303  1F26  3000               	movlw	high(01h)
 11304  1F27  1C03               	skipc
 11305  1F28  03D7               	decf	(Num_Disp@i+1),f
 11306  1F29  02D7               	subwf	(Num_Disp@i+1),f
 11307                           	
 11308  1F2A                     l9052:	
 11309  1F2A  3000               	movlw	high(03h)
 11310  1F2B  0257               	subwf	(Num_Disp@i+1),w
 11311  1F2C  3003               	movlw	low(03h)
 11312  1F2D  1903               	skipnz
 11313  1F2E  0256               	subwf	(Num_Disp@i),w
 11314  1F2F  1803               	skipnc
 11315  1F30  2F32               	goto	u5401
 11316  1F31  2F33               	goto	u5400
 11317  1F32                     u5401:
 11318  1F32  2F0D               	goto	l9048
 11319  1F33                     u5400:
 11320  1F33  2F34               	goto	l9054
 11321                           	
 11322  1F34                     l1402:	
 11323                           	line	154
 11324                           	
 11325  1F34                     l9054:	
 11326                           ;lcd.c: 153: }
 11327                           ;lcd.c: 154: for(i=digit;i>2;i--,digit--)
 11328  1F34  0852               	movf	(Num_Disp@digit),w
 11329  1F35  00D4               	movwf	(??_Num_Disp+0)+0
 11330  1F36  01D5               	clrf	(??_Num_Disp+0)+0+1
 11331  1F37  0854               	movf	0+(??_Num_Disp+0)+0,w
 11332  1F38  00D6               	movwf	(Num_Disp@i)
 11333  1F39  0855               	movf	1+(??_Num_Disp+0)+0,w
 11334  1F3A  00D7               	movwf	(Num_Disp@i+1)
 11335  1F3B  3000               	movlw	high(03h)
 11336  1F3C  0257               	subwf	(Num_Disp@i+1),w
 11337  1F3D  3003               	movlw	low(03h)
 11338  1F3E  1903               	skipnz
 11339  1F3F  0256               	subwf	(Num_Disp@i),w
 11340  1F40  1803               	skipnc
 11341  1F41  2F43               	goto	u5411
 11342  1F42  2F44               	goto	u5410
 11343  1F43                     u5411:
 11344  1F43  2F46               	goto	l9058
 11345  1F44                     u5410:
 11346  1F44  2FA7               	goto	l9070
 11347                           	
 11348  1F45                     l9056:	
 11349  1F45  2FA7               	goto	l9070
 11350                           	line	155
 11351                           	
 11352  1F46                     l1403:	
 11353                           	line	156
 11354                           	
 11355  1F46                     l9058:	
 11356                           ;lcd.c: 155: {
 11357                           ;lcd.c: 156: Lcd_Data(asciitable[dat/temp]);
 11358  1F46  0859               	movf	(Num_Disp@temp+1),w
 11359  1F47  01CA               	clrf	(?___lwdiv+1)
 11360  1F48  07CA               	addwf	(?___lwdiv+1)
 11361  1F49  0858               	movf	(Num_Disp@temp),w
 11362  1F4A  01C9               	clrf	(?___lwdiv)
 11363  1F4B  07C9               	addwf	(?___lwdiv)
 11364                           
 11365  1F4C  0851               	movf	(Num_Disp@dat+1),w
 11366  1F4D  01CC               	clrf	1+(?___lwdiv)+02h
 11367  1F4E  07CC               	addwf	1+(?___lwdiv)+02h
 11368  1F4F  0850               	movf	(Num_Disp@dat),w
 11369  1F50  01CB               	clrf	0+(?___lwdiv)+02h
 11370  1F51  07CB               	addwf	0+(?___lwdiv)+02h
 11371                           
 11372  1F52  160A  118A  21A9   	fcall	___lwdiv
              160A  158A         
 11373  1F57  1283               	bcf	status, 5	;RP0=0, select bank0
 11374  1F58  1303               	bcf	status, 6	;RP1=0, select bank0
 11375  1F59  0849               	movf	(0+(?___lwdiv)),w
 11376  1F5A  3EA0               	addlw	_asciitable&0ffh
 11377  1F5B  0084               	movwf	fsr0
 11378  1F5C  1383               	bcf	status, 7	;select IRP bank1
 11379  1F5D  0800               	movf	indf,w
 11380  1F5E  160A  158A  22D4   	fcall	_Lcd_Data
              160A  158A         
 11381                           	line	157
 11382                           	
 11383  1F63                     l9060:	
 11384                           ;lcd.c: 157: dat=dat%temp;
 11385  1F63  1283               	bcf	status, 5	;RP0=0, select bank0
 11386  1F64  1303               	bcf	status, 6	;RP1=0, select bank0
 11387  1F65  0859               	movf	(Num_Disp@temp+1),w
 11388  1F66  01F1               	clrf	(?___lwmod+1)
 11389  1F67  07F1               	addwf	(?___lwmod+1)
 11390  1F68  0858               	movf	(Num_Disp@temp),w
 11391  1F69  01F0               	clrf	(?___lwmod)
 11392  1F6A  07F0               	addwf	(?___lwmod)
 11393                           
 11394  1F6B  0851               	movf	(Num_Disp@dat+1),w
 11395  1F6C  01F3               	clrf	1+(?___lwmod)+02h
 11396  1F6D  07F3               	addwf	1+(?___lwmod)+02h
 11397  1F6E  0850               	movf	(Num_Disp@dat),w
 11398  1F6F  01F2               	clrf	0+(?___lwmod)+02h
 11399  1F70  07F2               	addwf	0+(?___lwmod)+02h
 11400                           
 11401  1F71  120A  118A  27BB   	fcall	___lwmod
              160A  158A         
 11402  1F76  0871               	movf	(1+(?___lwmod)),w
 11403  1F77  1283               	bcf	status, 5	;RP0=0, select bank0
 11404  1F78  1303               	bcf	status, 6	;RP1=0, select bank0
 11405  1F79  01D1               	clrf	(Num_Disp@dat+1)
 11406  1F7A  07D1               	addwf	(Num_Disp@dat+1)
 11407  1F7B  0870               	movf	(0+(?___lwmod)),w
 11408  1F7C  01D0               	clrf	(Num_Disp@dat)
 11409  1F7D  07D0               	addwf	(Num_Disp@dat)
 11410                           
 11411                           	line	158
 11412                           	
 11413  1F7E                     l9062:	
 11414                           ;lcd.c: 158: temp=temp/10;
 11415  1F7E  300A               	movlw	low(0Ah)
 11416  1F7F  00C9               	movwf	(?___lwdiv)
 11417  1F80  3000               	movlw	high(0Ah)
 11418  1F81  00CA               	movwf	((?___lwdiv))+1
 11419  1F82  0859               	movf	(Num_Disp@temp+1),w
 11420  1F83  01CC               	clrf	1+(?___lwdiv)+02h
 11421  1F84  07CC               	addwf	1+(?___lwdiv)+02h
 11422  1F85  0858               	movf	(Num_Disp@temp),w
 11423  1F86  01CB               	clrf	0+(?___lwdiv)+02h
 11424  1F87  07CB               	addwf	0+(?___lwdiv)+02h
 11425                           
 11426  1F88  160A  118A  21A9   	fcall	___lwdiv
              160A  158A         
 11427  1F8D  1283               	bcf	status, 5	;RP0=0, select bank0
 11428  1F8E  1303               	bcf	status, 6	;RP1=0, select bank0
 11429  1F8F  084A               	movf	(1+(?___lwdiv)),w
 11430  1F90  01D9               	clrf	(Num_Disp@temp+1)
 11431  1F91  07D9               	addwf	(Num_Disp@temp+1)
 11432  1F92  0849               	movf	(0+(?___lwdiv)),w
 11433  1F93  01D8               	clrf	(Num_Disp@temp)
 11434  1F94  07D8               	addwf	(Num_Disp@temp)
 11435                           
 11436                           	line	154
 11437                           	
 11438  1F95                     l9064:	
 11439  1F95  3001               	movlw	low(01h)
 11440  1F96  02D6               	subwf	(Num_Disp@i),f
 11441  1F97  3000               	movlw	high(01h)
 11442  1F98  1C03               	skipc
 11443  1F99  03D7               	decf	(Num_Disp@i+1),f
 11444  1F9A  02D7               	subwf	(Num_Disp@i+1),f
 11445                           	
 11446  1F9B                     l9066:	
 11447  1F9B  3001               	movlw	low(01h)
 11448  1F9C  02D2               	subwf	(Num_Disp@digit),f
 11449                           	
 11450  1F9D                     l9068:	
 11451  1F9D  3000               	movlw	high(03h)
 11452  1F9E  0257               	subwf	(Num_Disp@i+1),w
 11453  1F9F  3003               	movlw	low(03h)
 11454  1FA0  1903               	skipnz
 11455  1FA1  0256               	subwf	(Num_Disp@i),w
 11456  1FA2  1803               	skipnc
 11457  1FA3  2FA5               	goto	u5421
 11458  1FA4  2FA6               	goto	u5420
 11459  1FA5                     u5421:
 11460  1FA5  2F46               	goto	l9058
 11461  1FA6                     u5420:
 11462  1FA6  2FA7               	goto	l9070
 11463                           	
 11464  1FA7                     l1404:	
 11465                           	line	160
 11466                           	
 11467  1FA7                     l9070:	
 11468                           ;lcd.c: 159: }
 11469                           ;lcd.c: 160: if(digit<3)
 11470  1FA7  3003               	movlw	(03h)
 11471  1FA8  0252               	subwf	(Num_Disp@digit),w
 11472  1FA9  1803               	skipnc
 11473  1FAA  2FAC               	goto	u5431
 11474  1FAB  2FAD               	goto	u5430
 11475  1FAC                     u5431:
 11476  1FAC  2FFF               	goto	l1407
 11477  1FAD                     u5430:
 11478                           	line	162
 11479                           	
 11480  1FAD                     l9072:	
 11481                           ;lcd.c: 161: {
 11482                           ;lcd.c: 162: Lcd_Data(asciitable[dat/temp]);
 11483  1FAD  0859               	movf	(Num_Disp@temp+1),w
 11484  1FAE  01CA               	clrf	(?___lwdiv+1)
 11485  1FAF  07CA               	addwf	(?___lwdiv+1)
 11486  1FB0  0858               	movf	(Num_Disp@temp),w
 11487  1FB1  01C9               	clrf	(?___lwdiv)
 11488  1FB2  07C9               	addwf	(?___lwdiv)
 11489                           
 11490  1FB3  0851               	movf	(Num_Disp@dat+1),w
 11491  1FB4  01CC               	clrf	1+(?___lwdiv)+02h
 11492  1FB5  07CC               	addwf	1+(?___lwdiv)+02h
 11493  1FB6  0850               	movf	(Num_Disp@dat),w
 11494  1FB7  01CB               	clrf	0+(?___lwdiv)+02h
 11495  1FB8  07CB               	addwf	0+(?___lwdiv)+02h
 11496                           
 11497  1FB9  160A  118A  21A9   	fcall	___lwdiv
              160A  158A         
 11498  1FBE  1283               	bcf	status, 5	;RP0=0, select bank0
 11499  1FBF  1303               	bcf	status, 6	;RP1=0, select bank0
 11500  1FC0  0849               	movf	(0+(?___lwdiv)),w
 11501  1FC1  3EA0               	addlw	_asciitable&0ffh
 11502  1FC2  0084               	movwf	fsr0
 11503  1FC3  1383               	bcf	status, 7	;select IRP bank1
 11504  1FC4  0800               	movf	indf,w
 11505  1FC5  160A  158A  22D4   	fcall	_Lcd_Data
              160A  158A         
 11506                           	line	163
 11507                           	
 11508  1FCA                     l9074:	
 11509                           ;lcd.c: 163: dat=dat%temp;
 11510  1FCA  1283               	bcf	status, 5	;RP0=0, select bank0
 11511  1FCB  1303               	bcf	status, 6	;RP1=0, select bank0
 11512  1FCC  0859               	movf	(Num_Disp@temp+1),w
 11513  1FCD  01F1               	clrf	(?___lwmod+1)
 11514  1FCE  07F1               	addwf	(?___lwmod+1)
 11515  1FCF  0858               	movf	(Num_Disp@temp),w
 11516  1FD0  01F0               	clrf	(?___lwmod)
 11517  1FD1  07F0               	addwf	(?___lwmod)
 11518                           
 11519  1FD2  0851               	movf	(Num_Disp@dat+1),w
 11520  1FD3  01F3               	clrf	1+(?___lwmod)+02h
 11521  1FD4  07F3               	addwf	1+(?___lwmod)+02h
 11522  1FD5  0850               	movf	(Num_Disp@dat),w
 11523  1FD6  01F2               	clrf	0+(?___lwmod)+02h
 11524  1FD7  07F2               	addwf	0+(?___lwmod)+02h
 11525                           
 11526  1FD8  120A  118A  27BB   	fcall	___lwmod
              160A  158A         
 11527  1FDD  0871               	movf	(1+(?___lwmod)),w
 11528  1FDE  1283               	bcf	status, 5	;RP0=0, select bank0
 11529  1FDF  1303               	bcf	status, 6	;RP1=0, select bank0
 11530  1FE0  01D1               	clrf	(Num_Disp@dat+1)
 11531  1FE1  07D1               	addwf	(Num_Disp@dat+1)
 11532  1FE2  0870               	movf	(0+(?___lwmod)),w
 11533  1FE3  01D0               	clrf	(Num_Disp@dat)
 11534  1FE4  07D0               	addwf	(Num_Disp@dat)
 11535                           
 11536                           	line	164
 11537                           	
 11538  1FE5                     l9076:	
 11539                           ;lcd.c: 164: if(dot==1)
 11540  1FE5  0853               	movf	(Num_Disp@dot),w
 11541  1FE6  3A01               	xorlw	01h
 11542  1FE7  1D03               	skipz
 11543  1FE8  2FEA               	goto	u5441
 11544  1FE9  2FEB               	goto	u5440
 11545  1FEA                     u5441:
 11546  1FEA  2FF2               	goto	l9080
 11547  1FEB                     u5440:
 11548                           	line	166
 11549                           	
 11550  1FEB                     l9078:	
 11551                           ;lcd.c: 165: {
 11552                           ;lcd.c: 166: Lcd_Data('.');
 11553  1FEB  302E               	movlw	(02Eh)
 11554  1FEC  160A  158A  22D4   	fcall	_Lcd_Data
              160A  158A         
 11555  1FF1  2FF2               	goto	l9080
 11556                           	line	167
 11557                           	
 11558  1FF2                     l1406:	
 11559                           	line	168
 11560                           	
 11561  1FF2                     l9080:	
 11562                           ;lcd.c: 167: }
 11563                           ;lcd.c: 168: Lcd_Data(asciitable[dat]);
 11564  1FF2  1283               	bcf	status, 5	;RP0=0, select bank0
 11565  1FF3  1303               	bcf	status, 6	;RP1=0, select bank0
 11566  1FF4  0850               	movf	(Num_Disp@dat),w
 11567  1FF5  3EA0               	addlw	_asciitable&0ffh
 11568  1FF6  0084               	movwf	fsr0
 11569  1FF7  1383               	bcf	status, 7	;select IRP bank1
 11570  1FF8  0800               	movf	indf,w
 11571  1FF9  160A  158A  22D4   	fcall	_Lcd_Data
              160A  158A         
 11572  1FFE  2FFF               	goto	l1407
 11573                           	line	169
 11574                           	
 11575  1FFF                     l1405:	
 11576                           	line	170
 11577                           	
 11578  1FFF                     l1407:	
 11579  1FFF  0008               	return
 11580                           	opt stack 0
 11581                           GLOBAL	__end_of_Num_Disp
 11582  2000                     	__end_of_Num_Disp:
 11583 ;; =============== function _Num_Disp ends ============
 11584                           
 11585                           	signat	_Num_Disp,12408
 11586                           	global	_Lcd_String
 11587                           psect	text788,local,class=CODE,delta=2
 11588                           global __ptext788
 11589  0800                     __ptext788:
 11590                           
 11591 ;; *************** function _Lcd_String *****************
 11592 ;; Defined at:
 11593 ;;		line 136 in file "F:\BEVERAGES_ENHANCEMENT\SOFTWARE_DESIGN\MASTER_PIC_16F877A\2015_09_03\lcd.c"
 11594 ;; Parameters:    Size  Location     Type
 11595 ;;  st              2    5[BANK0 ] PTR const unsigned char 
 11596 ;;		 -> STR_45(12), STR_44(10), STR_43(6), STR_42(10), 
 11597 ;;		 -> STR_41(6), STR_40(15), STR_39(12), STR_38(6), 
 11598 ;;		 -> STR_37(13), STR_36(6), STR_35(16), STR_34(6), 
 11599 ;;		 -> STR_33(10), STR_32(7), STR_31(15), STR_30(11), 
 11600 ;;		 -> STR_29(9), STR_28(12), STR_27(9), STR_26(14), 
 11601 ;;		 -> STR_25(14), STR_24(13), STR_23(15), STR_22(16), 
 11602 ;;		 -> STR_21(17), STR_20(4), STR_19(6), STR_18(6), 
 11603 ;;		 -> STR_17(10), STR_16(9), STR_15(12), STR_14(9), 
 11604 ;;		 -> STR_13(12), STR_12(13), STR_11(11), STR_10(13), 
 11605 ;;		 -> STR_9(15), STR_8(13), STR_7(15), STR_6(14), 
 11606 ;;		 -> STR_5(15), STR_4(13), STR_3(14), STR_2(17), 
 11607 ;;		 -> STR_1(16), buff(4), 
 11608 ;;  clear           1    7[BANK0 ] unsigned char 
 11609 ;;  second_line     1    8[BANK0 ] unsigned char 
 11610 ;; Auto vars:     Size  Location     Type
 11611 ;;		None
 11612 ;; Return value:  Size  Location     Type
 11613 ;;		None               void
 11614 ;; Registers used:
 11615 ;;		wreg, fsr0l, fsr0h, status,2, status,0, btemp+1, pclath, cstack
 11616 ;; Tracked objects:
 11617 ;;		On entry : 0/0
 11618 ;;		On exit  : 0/0
 11619 ;;		Unchanged: 0/0
 11620 ;; Data sizes:     COMMON   BANK0   BANK1   BANK3   BANK2
 11621 ;;      Params:         0       4       0       0       0
 11622 ;;      Locals:         0       0       0       0       0
 11623 ;;      Temps:          0       0       0       0       0
 11624 ;;      Totals:         0       4       0       0       0
 11625 ;;Total ram usage:        4 bytes
 11626 ;; Hardware stack levels used:    1
 11627 ;; Hardware stack levels required when called:    2
 11628 ;; This function calls:
 11629 ;;		_Lcd_Cmd
 11630 ;;		_Lcd_Data
 11631 ;; This function is called by:
 11632 ;;		_main
 11633 ;;		_Print_Name
 11634 ;;		_Print_Menu
 11635 ;;		_Mode_Init
 11636 ;;		_enable_valves
 11637 ;;		_change_modes
 11638 ;;		_call_control_valve
 11639 ;; This function uses a non-reentrant model
 11640 ;;
 11641                           psect	text788
 11642                           	file	"F:\BEVERAGES_ENHANCEMENT\SOFTWARE_DESIGN\MASTER_PIC_16F877A\2015_09_03\lcd.c"
 11643                           	line	136
 11644                           	global	__size_of_Lcd_String
 11645  004A                     	__size_of_Lcd_String	equ	__end_of_Lcd_String-_Lcd_String
 11646                           	
 11647  0800                     _Lcd_String:	
 11648                           	opt	stack 4
 11649                           ; Regs used in _Lcd_String: [wreg-fsr0h+status,2+status,0+btemp+1+pclath+cstack]
 11650                           	line	137
 11651                           	
 11652  0800                     l9030:	
 11653                           ;lcd.c: 137: if(clear==1)
 11654  0800  1283               	bcf	status, 5	;RP0=0, select bank0
 11655  0801  1303               	bcf	status, 6	;RP1=0, select bank0
 11656  0802  0850               	movf	(Lcd_String@clear),w
 11657  0803  3A01               	xorlw	01h
 11658  0804  1D03               	skipz
 11659  0805  2807               	goto	u5361
 11660  0806  2808               	goto	u5360
 11661  0807                     u5361:
 11662  0807  280F               	goto	l9034
 11663  0808                     u5360:
 11664                           	line	138
 11665                           	
 11666  0808                     l9032:	
 11667                           ;lcd.c: 138: Lcd_Cmd(0x01);
 11668  0808  3001               	movlw	(01h)
 11669  0809  160A  158A  229B   	fcall	_Lcd_Cmd
              120A  158A         
 11670  080E  280F               	goto	l9034
 11671                           	
 11672  080F                     l1393:	
 11673                           	line	139
 11674                           	
 11675  080F                     l9034:	
 11676                           ;lcd.c: 139: if(second_line==1)
 11677  080F  1283               	bcf	status, 5	;RP0=0, select bank0
 11678  0810  1303               	bcf	status, 6	;RP1=0, select bank0
 11679  0811  0851               	movf	(Lcd_String@second_line),w
 11680  0812  3A01               	xorlw	01h
 11681  0813  1D03               	skipz
 11682  0814  2816               	goto	u5371
 11683  0815  2817               	goto	u5370
 11684  0816                     u5371:
 11685  0816  2838               	goto	l9042
 11686  0817                     u5370:
 11687                           	line	140
 11688                           	
 11689  0817                     l9036:	
 11690                           ;lcd.c: 140: Lcd_Cmd(0xC0);
 11691  0817  30C0               	movlw	(0C0h)
 11692  0818  160A  158A  229B   	fcall	_Lcd_Cmd
              120A  158A         
 11693  081D  2838               	goto	l9042
 11694                           	
 11695  081E                     l1394:	
 11696                           	line	141
 11697                           ;lcd.c: 141: while(*st)
 11698  081E  2838               	goto	l9042
 11699                           	
 11700  081F                     l1396:	
 11701                           	line	143
 11702                           	
 11703  081F                     l9038:	
 11704                           ;lcd.c: 142: {
 11705                           ;lcd.c: 143: Lcd_Data(*st++);
 11706  081F  1283               	bcf	status, 5	;RP0=0, select bank0
 11707  0820  1303               	bcf	status, 6	;RP1=0, select bank0
 11708  0821  084F               	movf	(Lcd_String@st+1),w
 11709  0822  00FF               	movwf	btemp+1
 11710  0823  084E               	movf	(Lcd_String@st),w
 11711  0824  0084               	movwf	fsr0
 11712  0825  160A  158A  2000   	fcall	stringtab
              120A  158A         
 11713  082A  160A  158A  22D4   	fcall	_Lcd_Data
              120A  158A         
 11714                           	
 11715  082F                     l9040:	
 11716  082F  3001               	movlw	low(01h)
 11717  0830  1283               	bcf	status, 5	;RP0=0, select bank0
 11718  0831  1303               	bcf	status, 6	;RP1=0, select bank0
 11719  0832  07CE               	addwf	(Lcd_String@st),f
 11720  0833  1803               	skipnc
 11721  0834  0ACF               	incf	(Lcd_String@st+1),f
 11722  0835  3000               	movlw	high(01h)
 11723  0836  07CF               	addwf	(Lcd_String@st+1),f
 11724  0837  2838               	goto	l9042
 11725                           	line	144
 11726                           	
 11727  0838                     l1395:	
 11728                           	line	141
 11729                           	
 11730  0838                     l9042:	
 11731  0838  1283               	bcf	status, 5	;RP0=0, select bank0
 11732  0839  1303               	bcf	status, 6	;RP1=0, select bank0
 11733  083A  084F               	movf	(Lcd_String@st+1),w
 11734  083B  00FF               	movwf	btemp+1
 11735  083C  084E               	movf	(Lcd_String@st),w
 11736  083D  0084               	movwf	fsr0
 11737  083E  160A  158A  2000   	fcall	stringtab
              120A  158A         
 11738  0843  3800               	iorlw	0
 11739  0844  1D03               	skipz
 11740  0845  2847               	goto	u5381
 11741  0846  2848               	goto	u5380
 11742  0847                     u5381:
 11743  0847  281F               	goto	l9038
 11744  0848                     u5380:
 11745  0848  2849               	goto	l1398
 11746                           	
 11747  0849                     l1397:	
 11748                           	line	145
 11749                           	
 11750  0849                     l1398:	
 11751  0849  0008               	return
 11752                           	opt stack 0
 11753                           GLOBAL	__end_of_Lcd_String
 11754  084A                     	__end_of_Lcd_String:
 11755 ;; =============== function _Lcd_String ends ============
 11756                           
 11757                           	signat	_Lcd_String,12408
 11758                           	global	_Lcd_Init
 11759                           psect	text789,local,class=CODE,delta=2
 11760                           global __ptext789
 11761  1C4C                     __ptext789:
 11762                           
 11763 ;; *************** function _Lcd_Init *****************
 11764 ;; Defined at:
 11765 ;;		line 92 in file "F:\BEVERAGES_ENHANCEMENT\SOFTWARE_DESIGN\MASTER_PIC_16F877A\2015_09_03\lcd.c"
 11766 ;; Parameters:    Size  Location     Type
 11767 ;;		None
 11768 ;; Auto vars:     Size  Location     Type
 11769 ;;		None
 11770 ;; Return value:  Size  Location     Type
 11771 ;;		None               void
 11772 ;; Registers used:
 11773 ;;		wreg, status,2, status,0, pclath, cstack
 11774 ;; Tracked objects:
 11775 ;;		On entry : 0/0
 11776 ;;		On exit  : 0/0
 11777 ;;		Unchanged: 0/0
 11778 ;; Data sizes:     COMMON   BANK0   BANK1   BANK3   BANK2
 11779 ;;      Params:         0       0       0       0       0
 11780 ;;      Locals:         0       0       0       0       0
 11781 ;;      Temps:          0       0       0       0       0
 11782 ;;      Totals:         0       0       0       0       0
 11783 ;;Total ram usage:        0 bytes
 11784 ;; Hardware stack levels used:    1
 11785 ;; Hardware stack levels required when called:    2
 11786 ;; This function calls:
 11787 ;;		_Lcd_Cmd
 11788 ;;		_DelayMs
 11789 ;; This function is called by:
 11790 ;;		_main
 11791 ;; This function uses a non-reentrant model
 11792 ;;
 11793                           psect	text789
 11794                           	file	"F:\BEVERAGES_ENHANCEMENT\SOFTWARE_DESIGN\MASTER_PIC_16F877A\2015_09_03\lcd.c"
 11795                           	line	92
 11796                           	global	__size_of_Lcd_Init
 11797  004C                     	__size_of_Lcd_Init	equ	__end_of_Lcd_Init-_Lcd_Init
 11798                           	
 11799  1C4C                     _Lcd_Init:	
 11800                           	opt	stack 5
 11801                           ; Regs used in _Lcd_Init: [wreg+status,2+status,0+pclath+cstack]
 11802                           	line	93
 11803                           	
 11804  1C4C                     l9028:	
 11805                           ;lcd.c: 93: Lcd_Cmd(0x28);
 11806  1C4C  3028               	movlw	(028h)
 11807  1C4D  160A  158A  229B   	fcall	_Lcd_Cmd
              160A  158A         
 11808                           	line	94
 11809                           ;lcd.c: 94: DelayMs(2);
 11810  1C52  3002               	movlw	low(02h)
 11811  1C53  00FC               	movwf	(?_DelayMs)
 11812  1C54  3000               	movlw	high(02h)
 11813  1C55  00FD               	movwf	((?_DelayMs))+1
 11814  1C56  160A  158A  217A   	fcall	_DelayMs
              160A  158A         
 11815                           	line	95
 11816                           ;lcd.c: 95: Lcd_Cmd(0x0E);
 11817  1C5B  300E               	movlw	(0Eh)
 11818  1C5C  160A  158A  229B   	fcall	_Lcd_Cmd
              160A  158A         
 11819                           	line	96
 11820                           ;lcd.c: 96: DelayMs(2);
 11821  1C61  3002               	movlw	low(02h)
 11822  1C62  00FC               	movwf	(?_DelayMs)
 11823  1C63  3000               	movlw	high(02h)
 11824  1C64  00FD               	movwf	((?_DelayMs))+1
 11825  1C65  160A  158A  217A   	fcall	_DelayMs
              160A  158A         
 11826                           	line	97
 11827                           ;lcd.c: 97: Lcd_Cmd(0x06);
 11828  1C6A  3006               	movlw	(06h)
 11829  1C6B  160A  158A  229B   	fcall	_Lcd_Cmd
              160A  158A         
 11830                           	line	98
 11831                           ;lcd.c: 98: DelayMs(2);
 11832  1C70  3002               	movlw	low(02h)
 11833  1C71  00FC               	movwf	(?_DelayMs)
 11834  1C72  3000               	movlw	high(02h)
 11835  1C73  00FD               	movwf	((?_DelayMs))+1
 11836  1C74  160A  158A  217A   	fcall	_DelayMs
              160A  158A         
 11837                           	line	99
 11838                           ;lcd.c: 99: Lcd_Cmd(0x01);
 11839  1C79  3001               	movlw	(01h)
 11840  1C7A  160A  158A  229B   	fcall	_Lcd_Cmd
              160A  158A         
 11841                           	line	100
 11842                           ;lcd.c: 100: DelayMs(2);
 11843  1C7F  3002               	movlw	low(02h)
 11844  1C80  00FC               	movwf	(?_DelayMs)
 11845  1C81  3000               	movlw	high(02h)
 11846  1C82  00FD               	movwf	((?_DelayMs))+1
 11847  1C83  160A  158A  217A   	fcall	_DelayMs
              160A  158A         
 11848                           	line	101
 11849                           ;lcd.c: 101: Lcd_Cmd(0x0C);
 11850  1C88  300C               	movlw	(0Ch)
 11851  1C89  160A  158A  229B   	fcall	_Lcd_Cmd
              160A  158A         
 11852                           	line	102
 11853                           ;lcd.c: 102: DelayMs(2);
 11854  1C8E  3002               	movlw	low(02h)
 11855  1C8F  00FC               	movwf	(?_DelayMs)
 11856  1C90  3000               	movlw	high(02h)
 11857  1C91  00FD               	movwf	((?_DelayMs))+1
 11858  1C92  160A  158A  217A   	fcall	_DelayMs
              160A  158A         
 11859                           	line	103
 11860                           	
 11861  1C97                     l1384:	
 11862  1C97  0008               	return
 11863                           	opt stack 0
 11864                           GLOBAL	__end_of_Lcd_Init
 11865  1C98                     	__end_of_Lcd_Init:
 11866 ;; =============== function _Lcd_Init ends ============
 11867                           
 11868                           	signat	_Lcd_Init,88
 11869                           	global	_control_valve
 11870                           psect	text790,local,class=CODE,delta=2
 11871                           global __ptext790
 11872  1BC2                     __ptext790:
 11873                           
 11874 ;; *************** function _control_valve *****************
 11875 ;; Defined at:
 11876 ;;		line 1031 in file "F:\BEVERAGES_ENHANCEMENT\SOFTWARE_DESIGN\MASTER_PIC_16F877A\2015_09_03\Beverage_services.c"
 11877 ;; Parameters:    Size  Location     Type
 11878 ;;  load_time       2    3[BANK0 ] unsigned int 
 11879 ;;  delay_time      2    5[BANK0 ] unsigned int 
 11880 ;; Auto vars:     Size  Location     Type
 11881 ;;		None
 11882 ;; Return value:  Size  Location     Type
 11883 ;;		None               void
 11884 ;; Registers used:
 11885 ;;		wreg, fsr0l, fsr0h, status,2, status,0, pclath, cstack
 11886 ;; Tracked objects:
 11887 ;;		On entry : 0/0
 11888 ;;		On exit  : 0/0
 11889 ;;		Unchanged: 0/0
 11890 ;; Data sizes:     COMMON   BANK0   BANK1   BANK3   BANK2
 11891 ;;      Params:         0       4       0       0       0
 11892 ;;      Locals:         0       0       0       0       0
 11893 ;;      Temps:          0       0       0       0       0
 11894 ;;      Totals:         0       4       0       0       0
 11895 ;;Total ram usage:        4 bytes
 11896 ;; Hardware stack levels used:    1
 11897 ;; Hardware stack levels required when called:    1
 11898 ;; This function calls:
 11899 ;;		_onthevalve
 11900 ;;		___wmul
 11901 ;;		_DelayMs
 11902 ;;		_offthevalve
 11903 ;; This function is called by:
 11904 ;;		_call_control_valve
 11905 ;; This function uses a non-reentrant model
 11906 ;;
 11907                           psect	text790
 11908                           	file	"F:\BEVERAGES_ENHANCEMENT\SOFTWARE_DESIGN\MASTER_PIC_16F877A\2015_09_03\Beverage_s
                                 ervices.c"
 11909                           	line	1031
 11910                           	global	__size_of_control_valve
 11911  0043                     	__size_of_control_valve	equ	__end_of_control_valve-_control_valve
 11912                           	
 11913  1BC2                     _control_valve:	
 11914                           	opt	stack 4
 11915                           ; Regs used in _control_valve: [wreg-fsr0h+status,2+status,0+pclath+cstack]
 11916                           	line	1032
 11917                           	
 11918  1BC2                     l9022:	
 11919                           ;Beverage_services.c: 1032: onthevalve();
 11920  1BC2  160A  158A  2347   	fcall	_onthevalve
              160A  158A         
 11921                           	line	1036
 11922                           	
 11923  1BC7                     l9024:	
 11924                           ;Beverage_services.c: 1036: DelayMs(load_time*100);
 11925  1BC7  1283               	bcf	status, 5	;RP0=0, select bank0
 11926  1BC8  1303               	bcf	status, 6	;RP1=0, select bank0
 11927  1BC9  084D               	movf	(control_valve@load_time+1),w
 11928  1BCA  01F7               	clrf	(?___wmul+1)
 11929  1BCB  07F7               	addwf	(?___wmul+1)
 11930  1BCC  084C               	movf	(control_valve@load_time),w
 11931  1BCD  01F6               	clrf	(?___wmul)
 11932  1BCE  07F6               	addwf	(?___wmul)
 11933                           
 11934  1BCF  3064               	movlw	low(064h)
 11935  1BD0  00F8               	movwf	0+(?___wmul)+02h
 11936  1BD1  3000               	movlw	high(064h)
 11937  1BD2  00F9               	movwf	(0+(?___wmul)+02h)+1
 11938  1BD3  160A  158A  21A2   	fcall	___wmul
              160A  158A         
 11939  1BD8  0877               	movf	(1+(?___wmul)),w
 11940  1BD9  01FD               	clrf	(?_DelayMs+1)
 11941  1BDA  07FD               	addwf	(?_DelayMs+1)
 11942  1BDB  0876               	movf	(0+(?___wmul)),w
 11943  1BDC  01FC               	clrf	(?_DelayMs)
 11944  1BDD  07FC               	addwf	(?_DelayMs)
 11945                           
 11946  1BDE  160A  158A  217A   	fcall	_DelayMs
              160A  158A         
 11947                           	line	1038
 11948                           	
 11949  1BE3                     l9026:	
 11950                           ;Beverage_services.c: 1038: offthevalve();
 11951  1BE3  160A  158A  230D   	fcall	_offthevalve
              160A  158A         
 11952                           	line	1042
 11953                           ;Beverage_services.c: 1042: DelayMs(delay_time*100);
 11954  1BE8  1283               	bcf	status, 5	;RP0=0, select bank0
 11955  1BE9  1303               	bcf	status, 6	;RP1=0, select bank0
 11956  1BEA  084F               	movf	(control_valve@delay_time+1),w
 11957  1BEB  01F7               	clrf	(?___wmul+1)
 11958  1BEC  07F7               	addwf	(?___wmul+1)
 11959  1BED  084E               	movf	(control_valve@delay_time),w
 11960  1BEE  01F6               	clrf	(?___wmul)
 11961  1BEF  07F6               	addwf	(?___wmul)
 11962                           
 11963  1BF0  3064               	movlw	low(064h)
 11964  1BF1  00F8               	movwf	0+(?___wmul)+02h
 11965  1BF2  3000               	movlw	high(064h)
 11966  1BF3  00F9               	movwf	(0+(?___wmul)+02h)+1
 11967  1BF4  160A  158A  21A2   	fcall	___wmul
              160A  158A         
 11968  1BF9  0877               	movf	(1+(?___wmul)),w
 11969  1BFA  01FD               	clrf	(?_DelayMs+1)
 11970  1BFB  07FD               	addwf	(?_DelayMs+1)
 11971  1BFC  0876               	movf	(0+(?___wmul)),w
 11972  1BFD  01FC               	clrf	(?_DelayMs)
 11973  1BFE  07FC               	addwf	(?_DelayMs)
 11974                           
 11975  1BFF  160A  158A  217A   	fcall	_DelayMs
              160A  158A         
 11976                           	line	1043
 11977                           	
 11978  1C04                     l3387:	
 11979  1C04  0008               	return
 11980                           	opt stack 0
 11981                           GLOBAL	__end_of_control_valve
 11982  1C05                     	__end_of_control_valve:
 11983 ;; =============== function _control_valve ends ============
 11984                           
 11985                           	signat	_control_valve,8312
 11986                           	global	_count_read
 11987                           psect	text791,local,class=CODE,delta=2
 11988                           global __ptext791
 11989  1A2E                     __ptext791:
 11990                           
 11991 ;; *************** function _count_read *****************
 11992 ;; Defined at:
 11993 ;;		line 1136 in file "F:\BEVERAGES_ENHANCEMENT\SOFTWARE_DESIGN\MASTER_PIC_16F877A\2015_09_03\Beverage_services.c"
 11994 ;; Parameters:    Size  Location     Type
 11995 ;;  addr1           1    wreg     unsigned char 
 11996 ;;  addr2           1   12[COMMON] unsigned char 
 11997 ;; Auto vars:     Size  Location     Type
 11998 ;;  addr1           1    5[BANK0 ] unsigned char 
 11999 ;; Return value:  Size  Location     Type
 12000 ;;                  2   12[COMMON] int 
 12001 ;; Registers used:
 12002 ;;		wreg, status,2, status,0, pclath, cstack
 12003 ;; Tracked objects:
 12004 ;;		On entry : 0/0
 12005 ;;		On exit  : 0/0
 12006 ;;		Unchanged: 0/0
 12007 ;; Data sizes:     COMMON   BANK0   BANK1   BANK3   BANK2
 12008 ;;      Params:         2       0       0       0       0
 12009 ;;      Locals:         0       1       0       0       0
 12010 ;;      Temps:          0       5       0       0       0
 12011 ;;      Totals:         2       6       0       0       0
 12012 ;;Total ram usage:        8 bytes
 12013 ;; Hardware stack levels used:    1
 12014 ;; Hardware stack levels required when called:    1
 12015 ;; This function calls:
 12016 ;;		_eeprom_read
 12017 ;;		___wmul
 12018 ;; This function is called by:
 12019 ;;		_enable_valves
 12020 ;;		_change_modes
 12021 ;; This function uses a non-reentrant model
 12022 ;;
 12023                           psect	text791
 12024                           	file	"F:\BEVERAGES_ENHANCEMENT\SOFTWARE_DESIGN\MASTER_PIC_16F877A\2015_09_03\Beverage_s
                                 ervices.c"
 12025                           	line	1136
 12026                           	global	__size_of_count_read
 12027  0035                     	__size_of_count_read	equ	__end_of_count_read-_count_read
 12028                           	
 12029  1A2E                     _count_read:	
 12030                           	opt	stack 5
 12031                           ; Regs used in _count_read: [wreg+status,2+status,0+pclath+cstack]
 12032                           ;count_read@addr1 stored from wreg
 12033  1A2E  1283               	bcf	status, 5	;RP0=0, select bank0
 12034  1A2F  1303               	bcf	status, 6	;RP1=0, select bank0
 12035  1A30  00CE               	movwf	(count_read@addr1)
 12036                           	line	1137
 12037                           	
 12038  1A31                     l9018:	
 12039                           ;Beverage_services.c: 1137: return (eeprom_read(addr2)*255)+eeprom_read(addr1);
 12040  1A31  084E               	movf	(count_read@addr1),w
 12041  1A32  00C9               	movwf	(??_count_read+0)+0
 12042  1A33  0849               	movf	(??_count_read+0)+0,w
 12043  1A34  00F4               	movwf	(?_eeprom_read)
 12044  1A35  160A  158A  211F   	fcall	_eeprom_read
              160A  158A         
 12045  1A3A  1283               	bcf	status, 5	;RP0=0, select bank0
 12046  1A3B  1303               	bcf	status, 6	;RP1=0, select bank0
 12047  1A3C  00CA               	movwf	(??_count_read+1)+0
 12048  1A3D  087C               	movf	(count_read@addr2),w
 12049  1A3E  00CB               	movwf	(??_count_read+2)+0
 12050  1A3F  084B               	movf	(??_count_read+2)+0,w
 12051  1A40  00F4               	movwf	(?_eeprom_read)
 12052  1A41  160A  158A  211F   	fcall	_eeprom_read
              160A  158A         
 12053  1A46  1283               	bcf	status, 5	;RP0=0, select bank0
 12054  1A47  1303               	bcf	status, 6	;RP1=0, select bank0
 12055  1A48  00CC               	movwf	(??_count_read+3)+0
 12056  1A49  01CD               	clrf	(??_count_read+3)+0+1
 12057  1A4A  084C               	movf	0+(??_count_read+3)+0,w
 12058  1A4B  00F6               	movwf	(?___wmul)
 12059  1A4C  084D               	movf	1+(??_count_read+3)+0,w
 12060  1A4D  00F7               	movwf	(?___wmul+1)
 12061  1A4E  30FF               	movlw	low(0FFh)
 12062  1A4F  00F8               	movwf	0+(?___wmul)+02h
 12063  1A50  3000               	movlw	high(0FFh)
 12064  1A51  00F9               	movwf	(0+(?___wmul)+02h)+1
 12065  1A52  160A  158A  21A2   	fcall	___wmul
              160A  158A         
 12066  1A57  1283               	bcf	status, 5	;RP0=0, select bank0
 12067  1A58  1303               	bcf	status, 6	;RP1=0, select bank0
 12068  1A59  084A               	movf	0+(??_count_read+1)+0,w
 12069  1A5A  0776               	addwf	(0+(?___wmul)),w
 12070  1A5B  00FC               	movwf	(?_count_read)
 12071  1A5C  3000               	movlw	0
 12072  1A5D  1803               	skipnc
 12073  1A5E  3001               	movlw	1
 12074  1A5F  0777               	addwf	(1+(?___wmul)),w
 12075  1A60  00FD               	movwf	1+(?_count_read)
 12076  1A61  2A62               	goto	l3425
 12077                           	
 12078  1A62                     l9020:	
 12079                           	line	1138
 12080                           	
 12081  1A62                     l3425:	
 12082  1A62  0008               	return
 12083                           	opt stack 0
 12084                           GLOBAL	__end_of_count_read
 12085  1A63                     	__end_of_count_read:
 12086 ;; =============== function _count_read ends ============
 12087                           
 12088                           	signat	_count_read,8314
 12089                           	global	_Write_ValveIn_Memory
 12090                           psect	text792,local,class=CODE,delta=2
 12091                           global __ptext792
 12092  1DE6                     __ptext792:
 12093                           
 12094 ;; *************** function _Write_ValveIn_Memory *****************
 12095 ;; Defined at:
 12096 ;;		line 1141 in file "F:\BEVERAGES_ENHANCEMENT\SOFTWARE_DESIGN\MASTER_PIC_16F877A\2015_09_03\Beverage_services.c"
 12097 ;; Parameters:    Size  Location     Type
 12098 ;;  VALVE           1    wreg     struct item
 12099 ;;  loc             1    9[COMMON] unsigned char 
 12100 ;; Auto vars:     Size  Location     Type
 12101 ;;  VALVE           1   10[BANK0 ] struct item
 12102 ;;  chr             1   11[BANK0 ] unsigned char 
 12103 ;; Return value:  Size  Location     Type
 12104 ;;		None               void
 12105 ;; Registers used:
 12106 ;;		wreg, status,2, status,0, pclath, cstack
 12107 ;; Tracked objects:
 12108 ;;		On entry : 0/0
 12109 ;;		On exit  : 0/0
 12110 ;;		Unchanged: 0/0
 12111 ;; Data sizes:     COMMON   BANK0   BANK1   BANK3   BANK2
 12112 ;;      Params:         1       0       0       0       0
 12113 ;;      Locals:         0      12       0       0       0
 12114 ;;      Temps:          2       0       0       0       0
 12115 ;;      Totals:         3      12       0       0       0
 12116 ;;Total ram usage:       15 bytes
 12117 ;; Hardware stack levels used:    1
 12118 ;; Hardware stack levels required when called:    1
 12119 ;; This function calls:
 12120 ;;		_eeprom_write
 12121 ;; This function is called by:
 12122 ;;		_enable_valves
 12123 ;; This function uses a non-reentrant model
 12124 ;;
 12125                           psect	text792
 12126                           	file	"F:\BEVERAGES_ENHANCEMENT\SOFTWARE_DESIGN\MASTER_PIC_16F877A\2015_09_03\Beverage_s
                                 ervices.c"
 12127                           	line	1141
 12128                           	global	__size_of_Write_ValveIn_Memory
 12129  007D                     	__size_of_Write_ValveIn_Memory	equ	__end_of_Write_ValveIn_Memory-_Write_ValveIn_Memory
 12130                           	
 12131  1DE6                     _Write_ValveIn_Memory:	
 12132                           	opt	stack 5
 12133                           ; Regs used in _Write_ValveIn_Memory: [wreg+status,2+status,0+pclath+cstack]
 12134                           ;Write_ValveIn_Memory@VALVE stored from wreg
 12135  1DE6  1283               	bcf	status, 5	;RP0=0, select bank0
 12136  1DE7  1303               	bcf	status, 6	;RP1=0, select bank0
 12137  1DE8  00D3               	movwf	(Write_ValveIn_Memory@VALVE)
 12138                           	line	1142
 12139                           	
 12140  1DE9                     l8986:	
 12141                           ;Beverage_services.c: 1142: unsigned char chr=0x00;
 12142  1DE9  01D4               	clrf	(Write_ValveIn_Memory@chr)
 12143                           	line	1143
 12144                           ;Beverage_services.c: 1143: chr=(VALVE.MIXING_HOT_WATER==1)?(chr | 0x01):(chr & 0xFE);
 12145  1DEA  1953               	btfsc	(Write_ValveIn_Memory@VALVE),2
 12146  1DEB  2DED               	goto	u5311
 12147  1DEC  2DEE               	goto	u5310
 12148  1DED                     u5311:
 12149  1DED  2DF7               	goto	l8990
 12150  1DEE                     u5310:
 12151                           	
 12152  1DEE                     l8988:	
 12153  1DEE  0854               	movf	(Write_ValveIn_Memory@chr),w
 12154  1DEF  39FE               	andlw	0FEh
 12155  1DF0  00FA               	movwf	(??_Write_ValveIn_Memory+0)+0
 12156  1DF1  01FB               	clrf	(??_Write_ValveIn_Memory+0)+0+1
 12157  1DF2  087A               	movf	0+(??_Write_ValveIn_Memory+0)+0,w
 12158  1DF3  00C9               	movwf	(_Write_ValveIn_Memory$4135)
 12159  1DF4  087B               	movf	1+(??_Write_ValveIn_Memory+0)+0,w
 12160  1DF5  00CA               	movwf	(_Write_ValveIn_Memory$4135+1)
 12161  1DF6  2DFC               	goto	l3431
 12162                           	
 12163  1DF7                     l3429:	
 12164                           	
 12165  1DF7                     l8990:	
 12166  1DF7  3001               	movlw	low(01h)
 12167  1DF8  0454               	iorwf	(Write_ValveIn_Memory@chr),w
 12168  1DF9  00C9               	movwf	(_Write_ValveIn_Memory$4135)
 12169  1DFA  3000               	movlw	high(01h)
 12170  1DFB  00CA               	movwf	1+(_Write_ValveIn_Memory$4135)
 12171                           	
 12172  1DFC                     l3431:	
 12173  1DFC  0849               	movf	(_Write_ValveIn_Memory$4135),w
 12174  1DFD  00FA               	movwf	(??_Write_ValveIn_Memory+0)+0
 12175  1DFE  087A               	movf	(??_Write_ValveIn_Memory+0)+0,w
 12176  1DFF  00D4               	movwf	(Write_ValveIn_Memory@chr)
 12177                           	line	1144
 12178                           	
 12179  1E00                     l8992:	
 12180                           ;Beverage_services.c: 1144: chr=(VALVE.MILK==1)?(chr | 0x02):(chr & 0xFD);
 12181  1E00  19D3               	btfsc	(Write_ValveIn_Memory@VALVE),3
 12182  1E01  2E03               	goto	u5321
 12183  1E02  2E04               	goto	u5320
 12184  1E03                     u5321:
 12185  1E03  2E0D               	goto	l8996
 12186  1E04                     u5320:
 12187                           	
 12188  1E04                     l8994:	
 12189  1E04  0854               	movf	(Write_ValveIn_Memory@chr),w
 12190  1E05  39FD               	andlw	0FDh
 12191  1E06  00FA               	movwf	(??_Write_ValveIn_Memory+0)+0
 12192  1E07  01FB               	clrf	(??_Write_ValveIn_Memory+0)+0+1
 12193  1E08  087A               	movf	0+(??_Write_ValveIn_Memory+0)+0,w
 12194  1E09  00CB               	movwf	(_Write_ValveIn_Memory$4136)
 12195  1E0A  087B               	movf	1+(??_Write_ValveIn_Memory+0)+0,w
 12196  1E0B  00CC               	movwf	(_Write_ValveIn_Memory$4136+1)
 12197  1E0C  2E12               	goto	l3435
 12198                           	
 12199  1E0D                     l3433:	
 12200                           	
 12201  1E0D                     l8996:	
 12202  1E0D  3002               	movlw	low(02h)
 12203  1E0E  0454               	iorwf	(Write_ValveIn_Memory@chr),w
 12204  1E0F  00CB               	movwf	(_Write_ValveIn_Memory$4136)
 12205  1E10  3000               	movlw	high(02h)
 12206  1E11  00CC               	movwf	1+(_Write_ValveIn_Memory$4136)
 12207                           	
 12208  1E12                     l3435:	
 12209  1E12  084B               	movf	(_Write_ValveIn_Memory$4136),w
 12210  1E13  00FA               	movwf	(??_Write_ValveIn_Memory+0)+0
 12211  1E14  087A               	movf	(??_Write_ValveIn_Memory+0)+0,w
 12212  1E15  00D4               	movwf	(Write_ValveIn_Memory@chr)
 12213                           	line	1145
 12214                           	
 12215  1E16                     l8998:	
 12216                           ;Beverage_services.c: 1145: chr=(VALVE.COFFEE_DICATION==1)? (chr | 0x04):(chr & 0xFB);
 12217  1E16  1853               	btfsc	(Write_ValveIn_Memory@VALVE),0
 12218  1E17  2E19               	goto	u5331
 12219  1E18  2E1A               	goto	u5330
 12220  1E19                     u5331:
 12221  1E19  2E23               	goto	l9002
 12222  1E1A                     u5330:
 12223                           	
 12224  1E1A                     l9000:	
 12225  1E1A  0854               	movf	(Write_ValveIn_Memory@chr),w
 12226  1E1B  39FB               	andlw	0FBh
 12227  1E1C  00FA               	movwf	(??_Write_ValveIn_Memory+0)+0
 12228  1E1D  01FB               	clrf	(??_Write_ValveIn_Memory+0)+0+1
 12229  1E1E  087A               	movf	0+(??_Write_ValveIn_Memory+0)+0,w
 12230  1E1F  00CD               	movwf	(_Write_ValveIn_Memory$4137)
 12231  1E20  087B               	movf	1+(??_Write_ValveIn_Memory+0)+0,w
 12232  1E21  00CE               	movwf	(_Write_ValveIn_Memory$4137+1)
 12233  1E22  2E28               	goto	l3439
 12234                           	
 12235  1E23                     l3437:	
 12236                           	
 12237  1E23                     l9002:	
 12238  1E23  3004               	movlw	low(04h)
 12239  1E24  0454               	iorwf	(Write_ValveIn_Memory@chr),w
 12240  1E25  00CD               	movwf	(_Write_ValveIn_Memory$4137)
 12241  1E26  3000               	movlw	high(04h)
 12242  1E27  00CE               	movwf	1+(_Write_ValveIn_Memory$4137)
 12243                           	
 12244  1E28                     l3439:	
 12245  1E28  084D               	movf	(_Write_ValveIn_Memory$4137),w
 12246  1E29  00FA               	movwf	(??_Write_ValveIn_Memory+0)+0
 12247  1E2A  087A               	movf	(??_Write_ValveIn_Memory+0)+0,w
 12248  1E2B  00D4               	movwf	(Write_ValveIn_Memory@chr)
 12249                           	line	1146
 12250                           	
 12251  1E2C                     l9004:	
 12252                           ;Beverage_services.c: 1146: chr=(VALVE.TEA_DICATION==1)? (chr | 0x08):(chr & 0xF7);
 12253  1E2C  18D3               	btfsc	(Write_ValveIn_Memory@VALVE),1
 12254  1E2D  2E2F               	goto	u5341
 12255  1E2E  2E30               	goto	u5340
 12256  1E2F                     u5341:
 12257  1E2F  2E39               	goto	l9008
 12258  1E30                     u5340:
 12259                           	
 12260  1E30                     l9006:	
 12261  1E30  0854               	movf	(Write_ValveIn_Memory@chr),w
 12262  1E31  39F7               	andlw	0F7h
 12263  1E32  00FA               	movwf	(??_Write_ValveIn_Memory+0)+0
 12264  1E33  01FB               	clrf	(??_Write_ValveIn_Memory+0)+0+1
 12265  1E34  087A               	movf	0+(??_Write_ValveIn_Memory+0)+0,w
 12266  1E35  00CF               	movwf	(_Write_ValveIn_Memory$4138)
 12267  1E36  087B               	movf	1+(??_Write_ValveIn_Memory+0)+0,w
 12268  1E37  00D0               	movwf	(_Write_ValveIn_Memory$4138+1)
 12269  1E38  2E3E               	goto	l3443
 12270                           	
 12271  1E39                     l3441:	
 12272                           	
 12273  1E39                     l9008:	
 12274  1E39  3008               	movlw	low(08h)
 12275  1E3A  0454               	iorwf	(Write_ValveIn_Memory@chr),w
 12276  1E3B  00CF               	movwf	(_Write_ValveIn_Memory$4138)
 12277  1E3C  3000               	movlw	high(08h)
 12278  1E3D  00D0               	movwf	1+(_Write_ValveIn_Memory$4138)
 12279                           	
 12280  1E3E                     l3443:	
 12281  1E3E  084F               	movf	(_Write_ValveIn_Memory$4138),w
 12282  1E3F  00FA               	movwf	(??_Write_ValveIn_Memory+0)+0
 12283  1E40  087A               	movf	(??_Write_ValveIn_Memory+0)+0,w
 12284  1E41  00D4               	movwf	(Write_ValveIn_Memory@chr)
 12285                           	line	1147
 12286                           	
 12287  1E42                     l9010:	
 12288                           ;Beverage_services.c: 1147: chr=(VALVE.VIBR_MOTOR==1)? (chr | 0x10):(chr & 0xEF);
 12289  1E42  1A53               	btfsc	(Write_ValveIn_Memory@VALVE),4
 12290  1E43  2E45               	goto	u5351
 12291  1E44  2E46               	goto	u5350
 12292  1E45                     u5351:
 12293  1E45  2E4F               	goto	l9014
 12294  1E46                     u5350:
 12295                           	
 12296  1E46                     l9012:	
 12297  1E46  0854               	movf	(Write_ValveIn_Memory@chr),w
 12298  1E47  39EF               	andlw	0EFh
 12299  1E48  00FA               	movwf	(??_Write_ValveIn_Memory+0)+0
 12300  1E49  01FB               	clrf	(??_Write_ValveIn_Memory+0)+0+1
 12301  1E4A  087A               	movf	0+(??_Write_ValveIn_Memory+0)+0,w
 12302  1E4B  00D1               	movwf	(_Write_ValveIn_Memory$4139)
 12303  1E4C  087B               	movf	1+(??_Write_ValveIn_Memory+0)+0,w
 12304  1E4D  00D2               	movwf	(_Write_ValveIn_Memory$4139+1)
 12305  1E4E  2E54               	goto	l3447
 12306                           	
 12307  1E4F                     l3445:	
 12308                           	
 12309  1E4F                     l9014:	
 12310  1E4F  3010               	movlw	low(010h)
 12311  1E50  0454               	iorwf	(Write_ValveIn_Memory@chr),w
 12312  1E51  00D1               	movwf	(_Write_ValveIn_Memory$4139)
 12313  1E52  3000               	movlw	high(010h)
 12314  1E53  00D2               	movwf	1+(_Write_ValveIn_Memory$4139)
 12315                           	
 12316  1E54                     l3447:	
 12317  1E54  0851               	movf	(_Write_ValveIn_Memory$4139),w
 12318  1E55  00FA               	movwf	(??_Write_ValveIn_Memory+0)+0
 12319  1E56  087A               	movf	(??_Write_ValveIn_Memory+0)+0,w
 12320  1E57  00D4               	movwf	(Write_ValveIn_Memory@chr)
 12321                           	line	1148
 12322                           	
 12323  1E58                     l9016:	
 12324                           ;Beverage_services.c: 1148: eeprom_write(loc,chr);
 12325  1E58  0854               	movf	(Write_ValveIn_Memory@chr),w
 12326  1E59  00FA               	movwf	(??_Write_ValveIn_Memory+0)+0
 12327  1E5A  087A               	movf	(??_Write_ValveIn_Memory+0)+0,w
 12328  1E5B  00F6               	movwf	(?_eeprom_write)
 12329  1E5C  0879               	movf	(Write_ValveIn_Memory@loc),w
 12330  1E5D  160A  158A  21FD   	fcall	_eeprom_write
              160A  158A         
 12331                           	line	1149
 12332                           	
 12333  1E62                     l3448:	
 12334  1E62  0008               	return
 12335                           	opt stack 0
 12336                           GLOBAL	__end_of_Write_ValveIn_Memory
 12337  1E63                     	__end_of_Write_ValveIn_Memory:
 12338 ;; =============== function _Write_ValveIn_Memory ends ============
 12339                           
 12340                           	signat	_Write_ValveIn_Memory,8312
 12341                           	global	_count_write
 12342                           psect	text793,local,class=CODE,delta=2
 12343                           global __ptext793
 12344  1B82                     __ptext793:
 12345                           
 12346 ;; *************** function _count_write *****************
 12347 ;; Defined at:
 12348 ;;		line 1123 in file "F:\BEVERAGES_ENHANCEMENT\SOFTWARE_DESIGN\MASTER_PIC_16F877A\2015_09_03\Beverage_services.c"
 12349 ;; Parameters:    Size  Location     Type
 12350 ;;  addr1           1    wreg     unsigned char 
 12351 ;;  addr2           1    9[COMMON] unsigned char 
 12352 ;;  count           2   10[COMMON] unsigned int 
 12353 ;; Auto vars:     Size  Location     Type
 12354 ;;  addr1           1   12[COMMON] unsigned char 
 12355 ;; Return value:  Size  Location     Type
 12356 ;;		None               void
 12357 ;; Registers used:
 12358 ;;		wreg, status,2, status,0, pclath, cstack
 12359 ;; Tracked objects:
 12360 ;;		On entry : 0/0
 12361 ;;		On exit  : 0/0
 12362 ;;		Unchanged: 0/0
 12363 ;; Data sizes:     COMMON   BANK0   BANK1   BANK3   BANK2
 12364 ;;      Params:         3       0       0       0       0
 12365 ;;      Locals:         1       0       0       0       0
 12366 ;;      Temps:          0       3       0       0       0
 12367 ;;      Totals:         4       3       0       0       0
 12368 ;;Total ram usage:        7 bytes
 12369 ;; Hardware stack levels used:    1
 12370 ;; Hardware stack levels required when called:    1
 12371 ;; This function calls:
 12372 ;;		_eeprom_write
 12373 ;;		_eeprom_read
 12374 ;; This function is called by:
 12375 ;;		_enable_valves
 12376 ;; This function uses a non-reentrant model
 12377 ;;
 12378                           psect	text793
 12379                           	file	"F:\BEVERAGES_ENHANCEMENT\SOFTWARE_DESIGN\MASTER_PIC_16F877A\2015_09_03\Beverage_s
                                 ervices.c"
 12380                           	line	1123
 12381                           	global	__size_of_count_write
 12382  0040                     	__size_of_count_write	equ	__end_of_count_write-_count_write
 12383                           	
 12384  1B82                     _count_write:	
 12385                           	opt	stack 5
 12386                           ; Regs used in _count_write: [wreg+status,2+status,0+pclath+cstack]
 12387                           ;count_write@addr1 stored from wreg
 12388  1B82  00FC               	movwf	(count_write@addr1)
 12389                           	line	1124
 12390                           	
 12391  1B83                     l8980:	
 12392                           ;Beverage_services.c: 1124: if(count<=255)
 12393  1B83  3001               	movlw	high(0100h)
 12394  1B84  027B               	subwf	(count_write@count+1),w
 12395  1B85  3000               	movlw	low(0100h)
 12396  1B86  1903               	skipnz
 12397  1B87  027A               	subwf	(count_write@count),w
 12398  1B88  1803               	skipnc
 12399  1B89  2B8B               	goto	u5301
 12400  1B8A  2B8C               	goto	u5300
 12401  1B8B                     u5301:
 12402  1B8B  2B99               	goto	l8984
 12403  1B8C                     u5300:
 12404                           	line	1126
 12405                           	
 12406  1B8C                     l8982:	
 12407                           ;Beverage_services.c: 1125: {
 12408                           ;Beverage_services.c: 1126: eeprom_write(addr1,count);
 12409  1B8C  087A               	movf	(count_write@count),w
 12410  1B8D  1283               	bcf	status, 5	;RP0=0, select bank0
 12411  1B8E  1303               	bcf	status, 6	;RP1=0, select bank0
 12412  1B8F  00C9               	movwf	(??_count_write+0)+0
 12413  1B90  0849               	movf	(??_count_write+0)+0,w
 12414  1B91  00F6               	movwf	(?_eeprom_write)
 12415  1B92  087C               	movf	(count_write@addr1),w
 12416  1B93  160A  158A  21FD   	fcall	_eeprom_write
              160A  158A         
 12417                           	line	1127
 12418                           ;Beverage_services.c: 1127: }
 12419  1B98  2BC1               	goto	l3422
 12420                           	line	1128
 12421                           	
 12422  1B99                     l3420:	
 12423                           	line	1130
 12424                           	
 12425  1B99                     l8984:	
 12426                           ;Beverage_services.c: 1128: else
 12427                           ;Beverage_services.c: 1129: {
 12428                           ;Beverage_services.c: 1130: eeprom_write(addr1,count-255);
 12429  1B99  087A               	movf	(count_write@count),w
 12430  1B9A  3E01               	addlw	01h
 12431  1B9B  1283               	bcf	status, 5	;RP0=0, select bank0
 12432  1B9C  1303               	bcf	status, 6	;RP1=0, select bank0
 12433  1B9D  00C9               	movwf	(??_count_write+0)+0
 12434  1B9E  0849               	movf	(??_count_write+0)+0,w
 12435  1B9F  00F6               	movwf	(?_eeprom_write)
 12436  1BA0  087C               	movf	(count_write@addr1),w
 12437  1BA1  160A  158A  21FD   	fcall	_eeprom_write
              160A  158A         
 12438                           	line	1131
 12439                           ;Beverage_services.c: 1131: eeprom_write(addr2,(eeprom_read(addr2)+count-255));
 12440  1BA6  0879               	movf	(count_write@addr2),w
 12441  1BA7  1283               	bcf	status, 5	;RP0=0, select bank0
 12442  1BA8  1303               	bcf	status, 6	;RP1=0, select bank0
 12443  1BA9  00C9               	movwf	(??_count_write+0)+0
 12444  1BAA  0849               	movf	(??_count_write+0)+0,w
 12445  1BAB  00F4               	movwf	(?_eeprom_read)
 12446  1BAC  160A  158A  211F   	fcall	_eeprom_read
              160A  158A         
 12447  1BB1  1283               	bcf	status, 5	;RP0=0, select bank0
 12448  1BB2  1303               	bcf	status, 6	;RP1=0, select bank0
 12449  1BB3  00CA               	movwf	(??_count_write+1)+0
 12450  1BB4  087A               	movf	(count_write@count),w
 12451  1BB5  074A               	addwf	0+(??_count_write+1)+0,w
 12452  1BB6  3E01               	addlw	01h
 12453  1BB7  00CB               	movwf	(??_count_write+2)+0
 12454  1BB8  084B               	movf	(??_count_write+2)+0,w
 12455  1BB9  00F6               	movwf	(?_eeprom_write)
 12456  1BBA  0879               	movf	(count_write@addr2),w
 12457  1BBB  160A  158A  21FD   	fcall	_eeprom_write
              160A  158A         
 12458  1BC0  2BC1               	goto	l3422
 12459                           	line	1132
 12460                           	
 12461  1BC1                     l3421:	
 12462                           	line	1133
 12463                           	
 12464  1BC1                     l3422:	
 12465  1BC1  0008               	return
 12466                           	opt stack 0
 12467                           GLOBAL	__end_of_count_write
 12468  1BC2                     	__end_of_count_write:
 12469 ;; =============== function _count_write ends ============
 12470                           
 12471                           	signat	_count_write,12408
 12472                           	global	_Read_ValveFrom_Memory
 12473                           psect	text794,local,class=CODE,delta=2
 12474                           global __ptext794
 12475  1D72                     __ptext794:
 12476                           
 12477 ;; *************** function _Read_ValveFrom_Memory *****************
 12478 ;; Defined at:
 12479 ;;		line 1152 in file "F:\BEVERAGES_ENHANCEMENT\SOFTWARE_DESIGN\MASTER_PIC_16F877A\2015_09_03\Beverage_services.c"
 12480 ;; Parameters:    Size  Location     Type
 12481 ;;  MEM             1    wreg     unsigned char 
 12482 ;; Auto vars:     Size  Location     Type
 12483 ;;  MEM             1    9[COMMON] unsigned char 
 12484 ;; Return value:  Size  Location     Type
 12485 ;;                  1    wreg      struct item
 12486 ;; Registers used:
 12487 ;;		wreg, status,2, status,0, pclath, cstack
 12488 ;; Tracked objects:
 12489 ;;		On entry : 0/0
 12490 ;;		On exit  : 0/0
 12491 ;;		Unchanged: 0/0
 12492 ;; Data sizes:     COMMON   BANK0   BANK1   BANK3   BANK2
 12493 ;;      Params:         0       0       0       0       0
 12494 ;;      Locals:         1       0       0       0       0
 12495 ;;      Temps:          3       0       0       0       0
 12496 ;;      Totals:         4       0       0       0       0
 12497 ;;Total ram usage:        4 bytes
 12498 ;; Hardware stack levels used:    1
 12499 ;; Hardware stack levels required when called:    1
 12500 ;; This function calls:
 12501 ;;		_eeprom_read
 12502 ;; This function is called by:
 12503 ;;		_Mode_Init
 12504 ;;		_print_yes_no
 12505 ;; This function uses a non-reentrant model
 12506 ;;
 12507                           psect	text794
 12508                           	file	"F:\BEVERAGES_ENHANCEMENT\SOFTWARE_DESIGN\MASTER_PIC_16F877A\2015_09_03\Beverage_s
                                 ervices.c"
 12509                           	line	1152
 12510                           	global	__size_of_Read_ValveFrom_Memory
 12511  0074                     	__size_of_Read_ValveFrom_Memory	equ	__end_of_Read_ValveFrom_Memory-_Read_ValveFrom_Memo
                                 ry
 12512                           	
 12513  1D72                     _Read_ValveFrom_Memory:	
 12514                           	opt	stack 4
 12515                           ; Regs used in _Read_ValveFrom_Memory: [wreg+status,2+status,0+pclath+cstack]
 12516                           ;Read_ValveFrom_Memory@MEM stored from wreg
 12517  1D72  00F9               	movwf	(Read_ValveFrom_Memory@MEM)
 12518                           	line	1153
 12519                           	
 12520  1D73                     l8974:	
 12521                           ;Beverage_services.c: 1153: VALVE.MIXING_HOT_WATER= (eeprom_read(MEM)&0x01)>0?1:0;
 12522  1D73  0879               	movf	(Read_ValveFrom_Memory@MEM),w
 12523  1D74  00F6               	movwf	(??_Read_ValveFrom_Memory+0)+0
 12524  1D75  0876               	movf	(??_Read_ValveFrom_Memory+0)+0,w
 12525  1D76  00F4               	movwf	(?_eeprom_read)
 12526  1D77  160A  158A  211F   	fcall	_eeprom_read
              160A  158A         
 12527  1D7C  00F7               	movwf	(??_Read_ValveFrom_Memory+1)+0
 12528  1D7D  3000               	movlw	0
 12529  1D7E  1877               	btfsc	0+(??_Read_ValveFrom_Memory+1)+0,(0)&7
 12530  1D7F  3001               	movlw	1
 12531  1D80  00F8               	movwf	(??_Read_ValveFrom_Memory+2)+0
 12532  1D81  0DF8               	rlf	(??_Read_ValveFrom_Memory+2)+0,f
 12533  1D82  0DF8               	rlf	(??_Read_ValveFrom_Memory+2)+0,f
 12534  1D83  1283               	bcf	status, 5	;RP0=0, select bank0
 12535  1D84  1303               	bcf	status, 6	;RP1=0, select bank0
 12536  1D85  0836               	movf	(_VALVE),w
 12537  1D86  0678               	xorwf	(??_Read_ValveFrom_Memory+2)+0,w
 12538  1D87  39FB               	andlw	not (((1<<1)-1)<<2)
 12539  1D88  0678               	xorwf	(??_Read_ValveFrom_Memory+2)+0,w
 12540  1D89  00B6               	movwf	(_VALVE)
 12541                           	line	1154
 12542                           ;Beverage_services.c: 1154: VALVE.MILK= (eeprom_read(MEM)&0x02)>0?1:0;
 12543  1D8A  0879               	movf	(Read_ValveFrom_Memory@MEM),w
 12544  1D8B  00F6               	movwf	(??_Read_ValveFrom_Memory+0)+0
 12545  1D8C  0876               	movf	(??_Read_ValveFrom_Memory+0)+0,w
 12546  1D8D  00F4               	movwf	(?_eeprom_read)
 12547  1D8E  160A  158A  211F   	fcall	_eeprom_read
              160A  158A         
 12548  1D93  00F7               	movwf	(??_Read_ValveFrom_Memory+1)+0
 12549  1D94  3000               	movlw	0
 12550  1D95  18F7               	btfsc	0+(??_Read_ValveFrom_Memory+1)+0,(1)&7
 12551  1D96  3001               	movlw	1
 12552  1D97  00F8               	movwf	(??_Read_ValveFrom_Memory+2)+0
 12553  1D98  0DF8               	rlf	(??_Read_ValveFrom_Memory+2)+0,f
 12554  1D99  0DF8               	rlf	(??_Read_ValveFrom_Memory+2)+0,f
 12555  1D9A  0DF8               	rlf	(??_Read_ValveFrom_Memory+2)+0,f
 12556  1D9B  1283               	bcf	status, 5	;RP0=0, select bank0
 12557  1D9C  1303               	bcf	status, 6	;RP1=0, select bank0
 12558  1D9D  0836               	movf	(_VALVE),w
 12559  1D9E  0678               	xorwf	(??_Read_ValveFrom_Memory+2)+0,w
 12560  1D9F  39F7               	andlw	not (((1<<1)-1)<<3)
 12561  1DA0  0678               	xorwf	(??_Read_ValveFrom_Memory+2)+0,w
 12562  1DA1  00B6               	movwf	(_VALVE)
 12563                           	line	1155
 12564                           ;Beverage_services.c: 1155: VALVE.COFFEE_DICATION= (eeprom_read(MEM)&0x04)>0?1:0;
 12565  1DA2  0879               	movf	(Read_ValveFrom_Memory@MEM),w
 12566  1DA3  00F6               	movwf	(??_Read_ValveFrom_Memory+0)+0
 12567  1DA4  0876               	movf	(??_Read_ValveFrom_Memory+0)+0,w
 12568  1DA5  00F4               	movwf	(?_eeprom_read)
 12569  1DA6  160A  158A  211F   	fcall	_eeprom_read
              160A  158A         
 12570  1DAB  00F7               	movwf	(??_Read_ValveFrom_Memory+1)+0
 12571  1DAC  3000               	movlw	0
 12572  1DAD  1977               	btfsc	0+(??_Read_ValveFrom_Memory+1)+0,(2)&7
 12573  1DAE  3001               	movlw	1
 12574  1DAF  00F8               	movwf	(??_Read_ValveFrom_Memory+2)+0
 12575  1DB0  1283               	bcf	status, 5	;RP0=0, select bank0
 12576  1DB1  1303               	bcf	status, 6	;RP1=0, select bank0
 12577  1DB2  0836               	movf	(_VALVE),w
 12578  1DB3  0678               	xorwf	(??_Read_ValveFrom_Memory+2)+0,w
 12579  1DB4  39FE               	andlw	not ((1<<1)-1)
 12580  1DB5  0678               	xorwf	(??_Read_ValveFrom_Memory+2)+0,w
 12581  1DB6  00B6               	movwf	(_VALVE)
 12582                           	line	1156
 12583                           ;Beverage_services.c: 1156: VALVE.TEA_DICATION= (eeprom_read(MEM)&0x08)>0?1:0;
 12584  1DB7  0879               	movf	(Read_ValveFrom_Memory@MEM),w
 12585  1DB8  00F6               	movwf	(??_Read_ValveFrom_Memory+0)+0
 12586  1DB9  0876               	movf	(??_Read_ValveFrom_Memory+0)+0,w
 12587  1DBA  00F4               	movwf	(?_eeprom_read)
 12588  1DBB  160A  158A  211F   	fcall	_eeprom_read
              160A  158A         
 12589  1DC0  00F7               	movwf	(??_Read_ValveFrom_Memory+1)+0
 12590  1DC1  3000               	movlw	0
 12591  1DC2  19F7               	btfsc	0+(??_Read_ValveFrom_Memory+1)+0,(3)&7
 12592  1DC3  3001               	movlw	1
 12593  1DC4  00F8               	movwf	(??_Read_ValveFrom_Memory+2)+0
 12594  1DC5  0DF8               	rlf	(??_Read_ValveFrom_Memory+2)+0,f
 12595  1DC6  1283               	bcf	status, 5	;RP0=0, select bank0
 12596  1DC7  1303               	bcf	status, 6	;RP1=0, select bank0
 12597  1DC8  0836               	movf	(_VALVE),w
 12598  1DC9  0678               	xorwf	(??_Read_ValveFrom_Memory+2)+0,w
 12599  1DCA  39FD               	andlw	not (((1<<1)-1)<<1)
 12600  1DCB  0678               	xorwf	(??_Read_ValveFrom_Memory+2)+0,w
 12601  1DCC  00B6               	movwf	(_VALVE)
 12602                           	line	1157
 12603                           ;Beverage_services.c: 1157: VALVE.VIBR_MOTOR= (eeprom_read(MEM)&0x10)>0?1:0;
 12604  1DCD  0879               	movf	(Read_ValveFrom_Memory@MEM),w
 12605  1DCE  00F6               	movwf	(??_Read_ValveFrom_Memory+0)+0
 12606  1DCF  0876               	movf	(??_Read_ValveFrom_Memory+0)+0,w
 12607  1DD0  00F4               	movwf	(?_eeprom_read)
 12608  1DD1  160A  158A  211F   	fcall	_eeprom_read
              160A  158A         
 12609  1DD6  00F7               	movwf	(??_Read_ValveFrom_Memory+1)+0
 12610  1DD7  3000               	movlw	0
 12611  1DD8  1A77               	btfsc	0+(??_Read_ValveFrom_Memory+1)+0,(4)&7
 12612  1DD9  3001               	movlw	1
 12613  1DDA  00F8               	movwf	(??_Read_ValveFrom_Memory+2)+0
 12614  1DDB  0EF8               	swapf	(??_Read_ValveFrom_Memory+2)+0,f
 12615  1DDC  1283               	bcf	status, 5	;RP0=0, select bank0
 12616  1DDD  1303               	bcf	status, 6	;RP1=0, select bank0
 12617  1DDE  0836               	movf	(_VALVE),w
 12618  1DDF  0678               	xorwf	(??_Read_ValveFrom_Memory+2)+0,w
 12619  1DE0  39EF               	andlw	not (((1<<1)-1)<<4)
 12620  1DE1  0678               	xorwf	(??_Read_ValveFrom_Memory+2)+0,w
 12621  1DE2  00B6               	movwf	(_VALVE)
 12622                           	line	1158
 12623                           	
 12624  1DE3                     l8976:	
 12625                           ;Beverage_services.c: 1158: return VALVE;
 12626  1DE3  0836               	movf	(_VALVE),w
 12627  1DE4  2DE5               	goto	l3451
 12628                           	
 12629  1DE5                     l8978:	
 12630                           	line	1159
 12631                           	
 12632  1DE5                     l3451:	
 12633  1DE5  0008               	return
 12634                           	opt stack 0
 12635                           GLOBAL	__end_of_Read_ValveFrom_Memory
 12636  1DE6                     	__end_of_Read_ValveFrom_Memory:
 12637 ;; =============== function _Read_ValveFrom_Memory ends ============
 12638                           
 12639                           	signat	_Read_ValveFrom_Memory,4217
 12640                           	global	_Inidcate_Buzzer
 12641                           psect	text795,local,class=CODE,delta=2
 12642                           global __ptext795
 12643  18CB                     __ptext795:
 12644                           
 12645 ;; *************** function _Inidcate_Buzzer *****************
 12646 ;; Defined at:
 12647 ;;		line 39 in file "F:\BEVERAGES_ENHANCEMENT\SOFTWARE_DESIGN\MASTER_PIC_16F877A\2015_09_03\Beverage_services.c"
 12648 ;; Parameters:    Size  Location     Type
 12649 ;;		None
 12650 ;; Auto vars:     Size  Location     Type
 12651 ;;		None
 12652 ;; Return value:  Size  Location     Type
 12653 ;;		None               void
 12654 ;; Registers used:
 12655 ;;		wreg, status,2, status,0, pclath, cstack
 12656 ;; Tracked objects:
 12657 ;;		On entry : 0/0
 12658 ;;		On exit  : 0/0
 12659 ;;		Unchanged: 0/0
 12660 ;; Data sizes:     COMMON   BANK0   BANK1   BANK3   BANK2
 12661 ;;      Params:         0       0       0       0       0
 12662 ;;      Locals:         0       0       0       0       0
 12663 ;;      Temps:          0       0       0       0       0
 12664 ;;      Totals:         0       0       0       0       0
 12665 ;;Total ram usage:        0 bytes
 12666 ;; Hardware stack levels used:    1
 12667 ;; Hardware stack levels required when called:    1
 12668 ;; This function calls:
 12669 ;;		_DelayMs
 12670 ;; This function is called by:
 12671 ;;		_main
 12672 ;;		_enable_valves
 12673 ;; This function uses a non-reentrant model
 12674 ;;
 12675                           psect	text795
 12676                           	file	"F:\BEVERAGES_ENHANCEMENT\SOFTWARE_DESIGN\MASTER_PIC_16F877A\2015_09_03\Beverage_s
                                 ervices.c"
 12677                           	line	39
 12678                           	global	__size_of_Inidcate_Buzzer
 12679  0010                     	__size_of_Inidcate_Buzzer	equ	__end_of_Inidcate_Buzzer-_Inidcate_Buzzer
 12680                           	
 12681  18CB                     _Inidcate_Buzzer:	
 12682                           	opt	stack 5
 12683                           ; Regs used in _Inidcate_Buzzer: [wreg+status,2+status,0+pclath+cstack]
 12684                           	line	40
 12685                           	
 12686  18CB                     l8968:	
 12687                           ;Beverage_services.c: 40: RD1=1;
 12688  18CB  1283               	bcf	status, 5	;RP0=0, select bank0
 12689  18CC  1303               	bcf	status, 6	;RP1=0, select bank0
 12690  18CD  1488               	bsf	(65/8),(65)&7
 12691                           	line	41
 12692                           	
 12693  18CE                     l8970:	
 12694                           ;Beverage_services.c: 41: DelayMs(100);
 12695  18CE  3064               	movlw	low(064h)
 12696  18CF  00FC               	movwf	(?_DelayMs)
 12697  18D0  3000               	movlw	high(064h)
 12698  18D1  00FD               	movwf	((?_DelayMs))+1
 12699  18D2  160A  158A  217A   	fcall	_DelayMs
              160A  158A         
 12700                           	line	42
 12701                           	
 12702  18D7                     l8972:	
 12703                           ;Beverage_services.c: 42: RD1=0;
 12704  18D7  1283               	bcf	status, 5	;RP0=0, select bank0
 12705  18D8  1303               	bcf	status, 6	;RP1=0, select bank0
 12706  18D9  1088               	bcf	(65/8),(65)&7
 12707                           	line	43
 12708                           	
 12709  18DA                     l3098:	
 12710  18DA  0008               	return
 12711                           	opt stack 0
 12712                           GLOBAL	__end_of_Inidcate_Buzzer
 12713  18DB                     	__end_of_Inidcate_Buzzer:
 12714 ;; =============== function _Inidcate_Buzzer ends ============
 12715                           
 12716                           	signat	_Inidcate_Buzzer,88
 12717                           	global	_rev
 12718                           psect	text796,local,class=CODE,delta=2
 12719                           global __ptext796
 12720  1C05                     __ptext796:
 12721                           
 12722 ;; *************** function _rev *****************
 12723 ;; Defined at:
 12724 ;;		line 5 in file "F:\BEVERAGES_ENHANCEMENT\SOFTWARE_DESIGN\MASTER_PIC_16F877A\2015_09_03\myitoa.c"
 12725 ;; Parameters:    Size  Location     Type
 12726 ;;  buf             1    wreg     PTR unsigned char 
 12727 ;;		 -> buff(4), 
 12728 ;; Auto vars:     Size  Location     Type
 12729 ;;  buf             1    3[BANK0 ] PTR unsigned char 
 12730 ;;		 -> buff(4), 
 12731 ;;  l               1    2[BANK0 ] PTR unsigned char 
 12732 ;;		 -> buff(4), 
 12733 ;;  f               1    1[BANK0 ] PTR unsigned char 
 12734 ;;		 -> buff(4), 
 12735 ;;  t               1    0[BANK0 ] unsigned char 
 12736 ;; Return value:  Size  Location     Type
 12737 ;;		None               void
 12738 ;; Registers used:
 12739 ;;		wreg, fsr0l, fsr0h, status,2, status,0, pclath, cstack
 12740 ;; Tracked objects:
 12741 ;;		On entry : 0/0
 12742 ;;		On exit  : 0/0
 12743 ;;		Unchanged: 0/0
 12744 ;; Data sizes:     COMMON   BANK0   BANK1   BANK3   BANK2
 12745 ;;      Params:         0       0       0       0       0
 12746 ;;      Locals:         0       4       0       0       0
 12747 ;;      Temps:          1       0       0       0       0
 12748 ;;      Totals:         1       4       0       0       0
 12749 ;;Total ram usage:        5 bytes
 12750 ;; Hardware stack levels used:    1
 12751 ;; Hardware stack levels required when called:    1
 12752 ;; This function calls:
 12753 ;;		_strlen
 12754 ;; This function is called by:
 12755 ;;		_myitoa
 12756 ;; This function uses a non-reentrant model
 12757 ;;
 12758                           psect	text796
 12759                           	file	"F:\BEVERAGES_ENHANCEMENT\SOFTWARE_DESIGN\MASTER_PIC_16F877A\2015_09_03\myitoa.c"
 12760                           	line	5
 12761                           	global	__size_of_rev
 12762  0047                     	__size_of_rev	equ	__end_of_rev-_rev
 12763                           	
 12764  1C05                     _rev:	
 12765                           	opt	stack 4
 12766                           ; Regs used in _rev: [wreg-fsr0h+status,2+status,0+pclath+cstack]
 12767                           ;rev@buf stored from wreg
 12768                           	line	7
 12769  1C05  1283               	bcf	status, 5	;RP0=0, select bank0
 12770  1C06  1303               	bcf	status, 6	;RP1=0, select bank0
 12771  1C07  00CC               	movwf	(rev@buf)
 12772                           	
 12773  1C08                     l8948:	
 12774                           ;myitoa.c: 6: char t,*f,*l;
 12775                           ;myitoa.c: 7: for(f=buf,l=buf+strlen(buf)-1;f<l;f++,l--)
 12776  1C08  084C               	movf	(rev@buf),w
 12777  1C09  00FA               	movwf	(??_rev+0)+0
 12778  1C0A  087A               	movf	(??_rev+0)+0,w
 12779  1C0B  00CA               	movwf	(rev@f)
 12780                           	
 12781  1C0C                     l8950:	
 12782  1C0C  084C               	movf	(rev@buf),w
 12783  1C0D  160A  158A  21CC   	fcall	_strlen
              160A  158A         
 12784  1C12  0870               	movf	(0+(?_strlen)),w
 12785  1C13  1283               	bcf	status, 5	;RP0=0, select bank0
 12786  1C14  1303               	bcf	status, 6	;RP1=0, select bank0
 12787  1C15  074C               	addwf	(rev@buf),w
 12788  1C16  3EFF               	addlw	-1
 12789  1C17  00FA               	movwf	(??_rev+0)+0
 12790  1C18  087A               	movf	(??_rev+0)+0,w
 12791  1C19  00CB               	movwf	(rev@l)
 12792  1C1A  2C44               	goto	l8966
 12793                           	line	8
 12794                           	
 12795  1C1B                     l1415:	
 12796                           	line	9
 12797                           	
 12798  1C1B                     l8952:	
 12799                           ;myitoa.c: 8: {
 12800                           ;myitoa.c: 9: if(*buf == '-')
 12801  1C1B  084C               	movf	(rev@buf),w
 12802  1C1C  0084               	movwf	fsr0
 12803  1C1D  1383               	bcf	status, 7	;select IRP bank0
 12804  1C1E  0800               	movf	indf,w
 12805  1C1F  3A2D               	xorlw	02Dh
 12806  1C20  1D03               	skipz
 12807  1C21  2C23               	goto	u5281
 12808  1C22  2C24               	goto	u5280
 12809  1C23                     u5281:
 12810  1C23  2C29               	goto	l8956
 12811  1C24                     u5280:
 12812                           	line	11
 12813                           	
 12814  1C24                     l8954:	
 12815                           ;myitoa.c: 10: {
 12816                           ;myitoa.c: 11: buf++;
 12817  1C24  3001               	movlw	(01h)
 12818  1C25  00FA               	movwf	(??_rev+0)+0
 12819  1C26  087A               	movf	(??_rev+0)+0,w
 12820  1C27  07CC               	addwf	(rev@buf),f
 12821  1C28  2C29               	goto	l8956
 12822                           	line	12
 12823                           	
 12824  1C29                     l1416:	
 12825                           	line	13
 12826                           	
 12827  1C29                     l8956:	
 12828                           ;myitoa.c: 12: }
 12829                           ;myitoa.c: 13: t=*f;
 12830  1C29  084A               	movf	(rev@f),w
 12831  1C2A  0084               	movwf	fsr0
 12832  1C2B  0800               	movf	indf,w
 12833  1C2C  00FA               	movwf	(??_rev+0)+0
 12834  1C2D  087A               	movf	(??_rev+0)+0,w
 12835  1C2E  00C9               	movwf	(rev@t)
 12836                           	line	14
 12837                           	
 12838  1C2F                     l8958:	
 12839                           ;myitoa.c: 14: *f=*l;
 12840  1C2F  084B               	movf	(rev@l),w
 12841  1C30  0084               	movwf	fsr0
 12842  1C31  0800               	movf	indf,w
 12843  1C32  00FA               	movwf	(??_rev+0)+0
 12844  1C33  084A               	movf	(rev@f),w
 12845  1C34  0084               	movwf	fsr0
 12846  1C35  087A               	movf	(??_rev+0)+0,w
 12847  1C36  0080               	movwf	indf
 12848                           	line	15
 12849                           	
 12850  1C37                     l8960:	
 12851                           ;myitoa.c: 15: *l=t;
 12852  1C37  0849               	movf	(rev@t),w
 12853  1C38  00FA               	movwf	(??_rev+0)+0
 12854  1C39  084B               	movf	(rev@l),w
 12855  1C3A  0084               	movwf	fsr0
 12856  1C3B  087A               	movf	(??_rev+0)+0,w
 12857  1C3C  0080               	movwf	indf
 12858                           	line	7
 12859                           	
 12860  1C3D                     l8962:	
 12861  1C3D  3001               	movlw	(01h)
 12862  1C3E  00FA               	movwf	(??_rev+0)+0
 12863  1C3F  087A               	movf	(??_rev+0)+0,w
 12864  1C40  07CA               	addwf	(rev@f),f
 12865                           	
 12866  1C41                     l8964:	
 12867  1C41  3001               	movlw	low(01h)
 12868  1C42  02CB               	subwf	(rev@l),f
 12869  1C43  2C44               	goto	l8966
 12870                           	
 12871  1C44                     l1414:	
 12872                           	
 12873  1C44                     l8966:	
 12874  1C44  084B               	movf	(rev@l),w
 12875  1C45  024A               	subwf	(rev@f),w
 12876  1C46  1C03               	skipc
 12877  1C47  2C49               	goto	u5291
 12878  1C48  2C4A               	goto	u5290
 12879  1C49                     u5291:
 12880  1C49  2C1B               	goto	l8952
 12881  1C4A                     u5290:
 12882  1C4A  2C4B               	goto	l1418
 12883                           	
 12884  1C4B                     l1417:	
 12885                           	line	17
 12886                           	
 12887  1C4B                     l1418:	
 12888  1C4B  0008               	return
 12889                           	opt stack 0
 12890                           GLOBAL	__end_of_rev
 12891  1C4C                     	__end_of_rev:
 12892 ;; =============== function _rev ends ============
 12893                           
 12894                           	signat	_rev,4216
 12895                           	global	_Lcd_Data
 12896                           psect	text797,local,class=CODE,delta=2
 12897                           global __ptext797
 12898  1AD4                     __ptext797:
 12899                           
 12900 ;; *************** function _Lcd_Data *****************
 12901 ;; Defined at:
 12902 ;;		line 121 in file "F:\BEVERAGES_ENHANCEMENT\SOFTWARE_DESIGN\MASTER_PIC_16F877A\2015_09_03\lcd.c"
 12903 ;; Parameters:    Size  Location     Type
 12904 ;;  x               1    wreg     unsigned char 
 12905 ;; Auto vars:     Size  Location     Type
 12906 ;;  x               1    4[BANK0 ] unsigned char 
 12907 ;; Return value:  Size  Location     Type
 12908 ;;		None               void
 12909 ;; Registers used:
 12910 ;;		wreg, status,2, status,0, pclath, cstack
 12911 ;; Tracked objects:
 12912 ;;		On entry : 0/0
 12913 ;;		On exit  : 0/0
 12914 ;;		Unchanged: 0/0
 12915 ;; Data sizes:     COMMON   BANK0   BANK1   BANK3   BANK2
 12916 ;;      Params:         0       0       0       0       0
 12917 ;;      Locals:         0       1       0       0       0
 12918 ;;      Temps:          0       1       0       0       0
 12919 ;;      Totals:         0       2       0       0       0
 12920 ;;Total ram usage:        2 bytes
 12921 ;; Hardware stack levels used:    1
 12922 ;; Hardware stack levels required when called:    1
 12923 ;; This function calls:
 12924 ;;		_DelayMs
 12925 ;; This function is called by:
 12926 ;;		_Lcd_String
 12927 ;;		_Num_Disp
 12928 ;;		_enable_valves
 12929 ;;		_change_modes
 12930 ;;		_print_yes_no
 12931 ;; This function uses a non-reentrant model
 12932 ;;
 12933                           psect	text797
 12934                           	file	"F:\BEVERAGES_ENHANCEMENT\SOFTWARE_DESIGN\MASTER_PIC_16F877A\2015_09_03\lcd.c"
 12935                           	line	121
 12936                           	global	__size_of_Lcd_Data
 12937  0039                     	__size_of_Lcd_Data	equ	__end_of_Lcd_Data-_Lcd_Data
 12938                           	
 12939  1AD4                     _Lcd_Data:	
 12940                           	opt	stack 4
 12941                           ; Regs used in _Lcd_Data: [wreg+status,2+status,0+pclath+cstack]
 12942                           ;Lcd_Data@x stored from wreg
 12943  1AD4  1283               	bcf	status, 5	;RP0=0, select bank0
 12944  1AD5  1303               	bcf	status, 6	;RP1=0, select bank0
 12945  1AD6  00CD               	movwf	(Lcd_Data@x)
 12946                           	line	122
 12947                           	
 12948  1AD7                     l8926:	
 12949                           ;lcd.c: 122: PORTD=x & 0XF0;
 12950  1AD7  084D               	movf	(Lcd_Data@x),w
 12951  1AD8  39F0               	andlw	0F0h
 12952  1AD9  0088               	movwf	(8)	;volatile
 12953                           	line	123
 12954                           	
 12955  1ADA                     l8928:	
 12956                           ;lcd.c: 123: RD2=1;
 12957  1ADA  1508               	bsf	(66/8),(66)&7
 12958                           	line	124
 12959                           	
 12960  1ADB                     l8930:	
 12961                           ;lcd.c: 124: RD3=1;
 12962  1ADB  1588               	bsf	(67/8),(67)&7
 12963                           	line	125
 12964                           	
 12965  1ADC                     l8932:	
 12966                           ;lcd.c: 125: DelayMs(5);
 12967  1ADC  3005               	movlw	low(05h)
 12968  1ADD  00FC               	movwf	(?_DelayMs)
 12969  1ADE  3000               	movlw	high(05h)
 12970  1ADF  00FD               	movwf	((?_DelayMs))+1
 12971  1AE0  160A  158A  217A   	fcall	_DelayMs
              160A  158A         
 12972                           	line	126
 12973                           	
 12974  1AE5                     l8934:	
 12975                           ;lcd.c: 126: RD3=0;
 12976  1AE5  1283               	bcf	status, 5	;RP0=0, select bank0
 12977  1AE6  1303               	bcf	status, 6	;RP1=0, select bank0
 12978  1AE7  1188               	bcf	(67/8),(67)&7
 12979                           	line	127
 12980                           	
 12981  1AE8                     l8936:	
 12982                           ;lcd.c: 127: DelayMs(5);
 12983  1AE8  3005               	movlw	low(05h)
 12984  1AE9  00FC               	movwf	(?_DelayMs)
 12985  1AEA  3000               	movlw	high(05h)
 12986  1AEB  00FD               	movwf	((?_DelayMs))+1
 12987  1AEC  160A  158A  217A   	fcall	_DelayMs
              160A  158A         
 12988                           	line	128
 12989                           	
 12990  1AF1                     l8938:	
 12991                           ;lcd.c: 128: PORTD=x << 4;
 12992  1AF1  1283               	bcf	status, 5	;RP0=0, select bank0
 12993  1AF2  1303               	bcf	status, 6	;RP1=0, select bank0
 12994  1AF3  084D               	movf	(Lcd_Data@x),w
 12995  1AF4  00CC               	movwf	(??_Lcd_Data+0)+0
 12996  1AF5  3003               	movlw	(04h)-1
 12997  1AF6                     u5275:
 12998  1AF6  1003               	clrc
 12999  1AF7  0DCC               	rlf	(??_Lcd_Data+0)+0,f
 13000  1AF8  3EFF               	addlw	-1
 13001  1AF9  1D03               	skipz
 13002  1AFA  2AF6               	goto	u5275
 13003  1AFB  1003               	clrc
 13004  1AFC  0D4C               	rlf	(??_Lcd_Data+0)+0,w
 13005  1AFD  0088               	movwf	(8)	;volatile
 13006                           	line	129
 13007                           	
 13008  1AFE                     l8940:	
 13009                           ;lcd.c: 129: RD2=1;
 13010  1AFE  1508               	bsf	(66/8),(66)&7
 13011                           	line	130
 13012                           	
 13013  1AFF                     l8942:	
 13014                           ;lcd.c: 130: RD3=1;
 13015  1AFF  1588               	bsf	(67/8),(67)&7
 13016                           	line	131
 13017                           	
 13018  1B00                     l8944:	
 13019                           ;lcd.c: 131: DelayMs(5);
 13020  1B00  3005               	movlw	low(05h)
 13021  1B01  00FC               	movwf	(?_DelayMs)
 13022  1B02  3000               	movlw	high(05h)
 13023  1B03  00FD               	movwf	((?_DelayMs))+1
 13024  1B04  160A  158A  217A   	fcall	_DelayMs
              160A  158A         
 13025                           	line	132
 13026                           	
 13027  1B09                     l8946:	
 13028                           ;lcd.c: 132: RD3=0;
 13029  1B09  1283               	bcf	status, 5	;RP0=0, select bank0
 13030  1B0A  1303               	bcf	status, 6	;RP1=0, select bank0
 13031  1B0B  1188               	bcf	(67/8),(67)&7
 13032                           	line	133
 13033                           	
 13034  1B0C                     l1390:	
 13035  1B0C  0008               	return
 13036                           	opt stack 0
 13037                           GLOBAL	__end_of_Lcd_Data
 13038  1B0D                     	__end_of_Lcd_Data:
 13039 ;; =============== function _Lcd_Data ends ============
 13040                           
 13041                           	signat	_Lcd_Data,4216
 13042                           	global	_Lcd_Cmd
 13043                           psect	text798,local,class=CODE,delta=2
 13044                           global __ptext798
 13045  1A9B                     __ptext798:
 13046                           
 13047 ;; *************** function _Lcd_Cmd *****************
 13048 ;; Defined at:
 13049 ;;		line 106 in file "F:\BEVERAGES_ENHANCEMENT\SOFTWARE_DESIGN\MASTER_PIC_16F877A\2015_09_03\lcd.c"
 13050 ;; Parameters:    Size  Location     Type
 13051 ;;  s               1    wreg     unsigned char 
 13052 ;; Auto vars:     Size  Location     Type
 13053 ;;  s               1    4[BANK0 ] unsigned char 
 13054 ;; Return value:  Size  Location     Type
 13055 ;;		None               void
 13056 ;; Registers used:
 13057 ;;		wreg, status,2, status,0, pclath, cstack
 13058 ;; Tracked objects:
 13059 ;;		On entry : 0/0
 13060 ;;		On exit  : 0/0
 13061 ;;		Unchanged: 0/0
 13062 ;; Data sizes:     COMMON   BANK0   BANK1   BANK3   BANK2
 13063 ;;      Params:         0       0       0       0       0
 13064 ;;      Locals:         0       1       0       0       0
 13065 ;;      Temps:          0       1       0       0       0
 13066 ;;      Totals:         0       2       0       0       0
 13067 ;;Total ram usage:        2 bytes
 13068 ;; Hardware stack levels used:    1
 13069 ;; Hardware stack levels required when called:    1
 13070 ;; This function calls:
 13071 ;;		_DelayMs
 13072 ;; This function is called by:
 13073 ;;		_Lcd_Init
 13074 ;;		_Lcd_String
 13075 ;;		_main
 13076 ;;		_Mode_Init
 13077 ;;		_enable_valves
 13078 ;;		_change_modes
 13079 ;;		_call_control_valve
 13080 ;;		_print_yes_no
 13081 ;; This function uses a non-reentrant model
 13082 ;;
 13083                           psect	text798
 13084                           	file	"F:\BEVERAGES_ENHANCEMENT\SOFTWARE_DESIGN\MASTER_PIC_16F877A\2015_09_03\lcd.c"
 13085                           	line	106
 13086                           	global	__size_of_Lcd_Cmd
 13087  0039                     	__size_of_Lcd_Cmd	equ	__end_of_Lcd_Cmd-_Lcd_Cmd
 13088                           	
 13089  1A9B                     _Lcd_Cmd:	
 13090                           	opt	stack 4
 13091                           ; Regs used in _Lcd_Cmd: [wreg+status,2+status,0+pclath+cstack]
 13092                           ;Lcd_Cmd@s stored from wreg
 13093  1A9B  1283               	bcf	status, 5	;RP0=0, select bank0
 13094  1A9C  1303               	bcf	status, 6	;RP1=0, select bank0
 13095  1A9D  00CD               	movwf	(Lcd_Cmd@s)
 13096                           	line	107
 13097                           	
 13098  1A9E                     l8904:	
 13099                           ;lcd.c: 107: PORTD=s & 0XF0;
 13100  1A9E  084D               	movf	(Lcd_Cmd@s),w
 13101  1A9F  39F0               	andlw	0F0h
 13102  1AA0  0088               	movwf	(8)	;volatile
 13103                           	line	108
 13104                           	
 13105  1AA1                     l8906:	
 13106                           ;lcd.c: 108: RD2=0;
 13107  1AA1  1108               	bcf	(66/8),(66)&7
 13108                           	line	109
 13109                           	
 13110  1AA2                     l8908:	
 13111                           ;lcd.c: 109: RD3=1;
 13112  1AA2  1588               	bsf	(67/8),(67)&7
 13113                           	line	110
 13114                           	
 13115  1AA3                     l8910:	
 13116                           ;lcd.c: 110: DelayMs(5);
 13117  1AA3  3005               	movlw	low(05h)
 13118  1AA4  00FC               	movwf	(?_DelayMs)
 13119  1AA5  3000               	movlw	high(05h)
 13120  1AA6  00FD               	movwf	((?_DelayMs))+1
 13121  1AA7  160A  158A  217A   	fcall	_DelayMs
              160A  158A         
 13122                           	line	111
 13123                           	
 13124  1AAC                     l8912:	
 13125                           ;lcd.c: 111: RD3=0;
 13126  1AAC  1283               	bcf	status, 5	;RP0=0, select bank0
 13127  1AAD  1303               	bcf	status, 6	;RP1=0, select bank0
 13128  1AAE  1188               	bcf	(67/8),(67)&7
 13129                           	line	112
 13130                           	
 13131  1AAF                     l8914:	
 13132                           ;lcd.c: 112: DelayMs(5);
 13133  1AAF  3005               	movlw	low(05h)
 13134  1AB0  00FC               	movwf	(?_DelayMs)
 13135  1AB1  3000               	movlw	high(05h)
 13136  1AB2  00FD               	movwf	((?_DelayMs))+1
 13137  1AB3  160A  158A  217A   	fcall	_DelayMs
              160A  158A         
 13138                           	line	113
 13139                           	
 13140  1AB8                     l8916:	
 13141                           ;lcd.c: 113: PORTD=s << 4;
 13142  1AB8  1283               	bcf	status, 5	;RP0=0, select bank0
 13143  1AB9  1303               	bcf	status, 6	;RP1=0, select bank0
 13144  1ABA  084D               	movf	(Lcd_Cmd@s),w
 13145  1ABB  00CC               	movwf	(??_Lcd_Cmd+0)+0
 13146  1ABC  3003               	movlw	(04h)-1
 13147  1ABD                     u5265:
 13148  1ABD  1003               	clrc
 13149  1ABE  0DCC               	rlf	(??_Lcd_Cmd+0)+0,f
 13150  1ABF  3EFF               	addlw	-1
 13151  1AC0  1D03               	skipz
 13152  1AC1  2ABD               	goto	u5265
 13153  1AC2  1003               	clrc
 13154  1AC3  0D4C               	rlf	(??_Lcd_Cmd+0)+0,w
 13155  1AC4  0088               	movwf	(8)	;volatile
 13156                           	line	114
 13157                           	
 13158  1AC5                     l8918:	
 13159                           ;lcd.c: 114: RD2=0;
 13160  1AC5  1108               	bcf	(66/8),(66)&7
 13161                           	line	115
 13162                           	
 13163  1AC6                     l8920:	
 13164                           ;lcd.c: 115: RD3=1;
 13165  1AC6  1588               	bsf	(67/8),(67)&7
 13166                           	line	116
 13167                           	
 13168  1AC7                     l8922:	
 13169                           ;lcd.c: 116: DelayMs(5);
 13170  1AC7  3005               	movlw	low(05h)
 13171  1AC8  00FC               	movwf	(?_DelayMs)
 13172  1AC9  3000               	movlw	high(05h)
 13173  1ACA  00FD               	movwf	((?_DelayMs))+1
 13174  1ACB  160A  158A  217A   	fcall	_DelayMs
              160A  158A         
 13175                           	line	117
 13176                           	
 13177  1AD0                     l8924:	
 13178                           ;lcd.c: 117: RD3=0;
 13179  1AD0  1283               	bcf	status, 5	;RP0=0, select bank0
 13180  1AD1  1303               	bcf	status, 6	;RP1=0, select bank0
 13181  1AD2  1188               	bcf	(67/8),(67)&7
 13182                           	line	118
 13183                           	
 13184  1AD3                     l1387:	
 13185  1AD3  0008               	return
 13186                           	opt stack 0
 13187                           GLOBAL	__end_of_Lcd_Cmd
 13188  1AD4                     	__end_of_Lcd_Cmd:
 13189 ;; =============== function _Lcd_Cmd ends ============
 13190                           
 13191                           	signat	_Lcd_Cmd,4216
 13192                           	global	_GetADCValue
 13193                           psect	text799,local,class=CODE,delta=2
 13194                           global __ptext799
 13195  1A63                     __ptext799:
 13196                           
 13197 ;; *************** function _GetADCValue *****************
 13198 ;; Defined at:
 13199 ;;		line 31 in file "F:\BEVERAGES_ENHANCEMENT\SOFTWARE_DESIGN\MASTER_PIC_16F877A\2015_09_03\adc.c"
 13200 ;; Parameters:    Size  Location     Type
 13201 ;;  Channel         1    wreg     unsigned char 
 13202 ;; Auto vars:     Size  Location     Type
 13203 ;;  Channel         1    4[COMMON] unsigned char 
 13204 ;; Return value:  Size  Location     Type
 13205 ;;                  2    0[COMMON] unsigned int 
 13206 ;; Registers used:
 13207 ;;		wreg, status,2, status,0, btemp+1
 13208 ;; Tracked objects:
 13209 ;;		On entry : 0/0
 13210 ;;		On exit  : 0/0
 13211 ;;		Unchanged: 0/0
 13212 ;; Data sizes:     COMMON   BANK0   BANK1   BANK3   BANK2
 13213 ;;      Params:         2       0       0       0       0
 13214 ;;      Locals:         1       0       0       0       0
 13215 ;;      Temps:          2       0       0       0       0
 13216 ;;      Totals:         5       0       0       0       0
 13217 ;;Total ram usage:        5 bytes
 13218 ;; Hardware stack levels used:    1
 13219 ;; This function calls:
 13220 ;;		Nothing
 13221 ;; This function is called by:
 13222 ;;		_main
 13223 ;; This function uses a non-reentrant model
 13224 ;;
 13225                           psect	text799
 13226                           	file	"F:\BEVERAGES_ENHANCEMENT\SOFTWARE_DESIGN\MASTER_PIC_16F877A\2015_09_03\adc.c"
 13227                           	line	31
 13228                           	global	__size_of_GetADCValue
 13229  0038                     	__size_of_GetADCValue	equ	__end_of_GetADCValue-_GetADCValue
 13230                           	
 13231  1A63                     _GetADCValue:	
 13232                           	opt	stack 7
 13233                           ; Regs used in _GetADCValue: [wreg+status,2+status,0+btemp+1]
 13234                           ;GetADCValue@Channel stored from wreg
 13235  1A63  00F4               	movwf	(GetADCValue@Channel)
 13236                           	line	32
 13237                           	
 13238  1A64                     l8894:	
 13239                           ;adc.c: 32: ADCON0 &= 0xc7;
 13240  1A64  30C7               	movlw	(0C7h)
 13241  1A65  00F2               	movwf	(??_GetADCValue+0)+0
 13242  1A66  0872               	movf	(??_GetADCValue+0)+0,w
 13243  1A67  1283               	bcf	status, 5	;RP0=0, select bank0
 13244  1A68  1303               	bcf	status, 6	;RP1=0, select bank0
 13245  1A69  059F               	andwf	(31),f	;volatile
 13246                           	line	33
 13247                           ;adc.c: 33: ADCON0 |= (Channel<<3);
 13248  1A6A  0874               	movf	(GetADCValue@Channel),w
 13249  1A6B  00F2               	movwf	(??_GetADCValue+0)+0
 13250  1A6C  3002               	movlw	(03h)-1
 13251  1A6D                     u5245:
 13252  1A6D  1003               	clrc
 13253  1A6E  0DF2               	rlf	(??_GetADCValue+0)+0,f
 13254  1A6F  3EFF               	addlw	-1
 13255  1A70  1D03               	skipz
 13256  1A71  2A6D               	goto	u5245
 13257  1A72  1003               	clrc
 13258  1A73  0D72               	rlf	(??_GetADCValue+0)+0,w
 13259  1A74  00F3               	movwf	(??_GetADCValue+1)+0
 13260  1A75  0873               	movf	(??_GetADCValue+1)+0,w
 13261  1A76  049F               	iorwf	(31),f	;volatile
 13262                           	line	35
 13263                           	
 13264  1A77                     l8896:	
 13265                           ;adc.c: 35: _delay((unsigned long)((10)*(20000000/4000.0)));
 13266                           	opt asmopt_off
 13267  1A77  3041               movlw	65
 13268  1A78  00F3               movwf	((??_GetADCValue+0)+0+1),f
 13269  1A79  30EE               	movlw	238
 13270  1A7A  00F2               movwf	((??_GetADCValue+0)+0),f
 13271  1A7B                     u7287:
 13272  1A7B  0BF2               	decfsz	((??_GetADCValue+0)+0),f
 13273  1A7C  2A7B               	goto	u7287
 13274  1A7D  0BF3               	decfsz	((??_GetADCValue+0)+0+1),f
 13275  1A7E  2A7B               	goto	u7287
 13276  1A7F  0064               	clrwdt
 13277                           opt asmopt_on
 13278                           
 13279                           	line	37
 13280                           	
 13281  1A80                     l8898:	
 13282                           ;adc.c: 37: GO_nDONE = 1;
 13283  1A80  1283               	bcf	status, 5	;RP0=0, select bank0
 13284  1A81  1303               	bcf	status, 6	;RP1=0, select bank0
 13285  1A82  151F               	bsf	(250/8),(250)&7
 13286                           	line	39
 13287                           ;adc.c: 39: while(GO_nDONE);
 13288  1A83  2A84               	goto	l690
 13289                           	
 13290  1A84                     l691:	
 13291                           	
 13292  1A84                     l690:	
 13293  1A84  191F               	btfsc	(250/8),(250)&7
 13294  1A85  2A87               	goto	u5251
 13295  1A86  2A88               	goto	u5250
 13296  1A87                     u5251:
 13297  1A87  2A84               	goto	l690
 13298  1A88                     u5250:
 13299  1A88  2A89               	goto	l8900
 13300                           	
 13301  1A89                     l692:	
 13302                           	line	41
 13303                           	
 13304  1A89                     l8900:	
 13305                           ;adc.c: 41: return ((ADRESH<<8)+ADRESL);
 13306  1A89  081E               	movf	(30),w	;volatile
 13307  1A8A  00F2               	movwf	(??_GetADCValue+0)+0
 13308  1A8B  01F3               	clrf	(??_GetADCValue+0)+0+1
 13309  1A8C  0872               	movf	(??_GetADCValue+0)+0,w
 13310  1A8D  00F3               	movwf	(??_GetADCValue+0)+1
 13311  1A8E  01F2               	clrf	(??_GetADCValue+0)+0
 13312  1A8F  1683               	bsf	status, 5	;RP0=1, select bank1
 13313  1A90  1303               	bcf	status, 6	;RP1=0, select bank1
 13314  1A91  081E               	movf	(158)^080h,w	;volatile
 13315  1A92  0772               	addwf	0+(??_GetADCValue+0)+0,w
 13316  1A93  00F0               	movwf	(?_GetADCValue)
 13317  1A94  3000               	movlw	0
 13318  1A95  1803               	skipnc
 13319  1A96  3001               	movlw	1
 13320  1A97  0773               	addwf	1+(??_GetADCValue+0)+0,w
 13321  1A98  00F1               	movwf	1+(?_GetADCValue)
 13322  1A99  2A9A               	goto	l693
 13323                           	
 13324  1A9A                     l8902:	
 13325                           	line	42
 13326                           	
 13327  1A9A                     l693:	
 13328  1A9A  0008               	return
 13329                           	opt stack 0
 13330                           GLOBAL	__end_of_GetADCValue
 13331  1A9B                     	__end_of_GetADCValue:
 13332 ;; =============== function _GetADCValue ends ============
 13333                           
 13334                           	signat	_GetADCValue,4218
 13335                           	global	___awmod
 13336                           psect	text800,local,class=CODE,delta=2
 13337                           global __ptext800
 13338  1C98                     __ptext800:
 13339                           
 13340 ;; *************** function ___awmod *****************
 13341 ;; Defined at:
 13342 ;;		line 5 in file "C:\Program Files\HI-TECH Software\PICC\9.82\sources\awmod.c"
 13343 ;; Parameters:    Size  Location     Type
 13344 ;;  divisor         2    0[COMMON] int 
 13345 ;;  dividend        2    2[COMMON] int 
 13346 ;; Auto vars:     Size  Location     Type
 13347 ;;  sign            1    6[COMMON] unsigned char 
 13348 ;;  counter         1    5[COMMON] unsigned char 
 13349 ;; Return value:  Size  Location     Type
 13350 ;;                  2    0[COMMON] int 
 13351 ;; Registers used:
 13352 ;;		wreg, status,2, status,0
 13353 ;; Tracked objects:
 13354 ;;		On entry : 0/0
 13355 ;;		On exit  : 0/0
 13356 ;;		Unchanged: 0/0
 13357 ;; Data sizes:     COMMON   BANK0   BANK1   BANK3   BANK2
 13358 ;;      Params:         4       0       0       0       0
 13359 ;;      Locals:         2       0       0       0       0
 13360 ;;      Temps:          1       0       0       0       0
 13361 ;;      Totals:         7       0       0       0       0
 13362 ;;Total ram usage:        7 bytes
 13363 ;; Hardware stack levels used:    1
 13364 ;; This function calls:
 13365 ;;		Nothing
 13366 ;; This function is called by:
 13367 ;;		_myitoa
 13368 ;; This function uses a non-reentrant model
 13369 ;;
 13370                           psect	text800
 13371                           	file	"C:\Program Files\HI-TECH Software\PICC\9.82\sources\awmod.c"
 13372                           	line	5
 13373                           	global	__size_of___awmod
 13374  0066                     	__size_of___awmod	equ	__end_of___awmod-___awmod
 13375                           	
 13376  1C98                     ___awmod:	
 13377                           	opt	stack 5
 13378                           ; Regs used in ___awmod: [wreg+status,2+status,0]
 13379                           	line	8
 13380                           	
 13381  1C98                     l8860:	
 13382  1C98  01F6               	clrf	(___awmod@sign)
 13383                           	line	9
 13384  1C99  1FF3               	btfss	(___awmod@dividend+1),7
 13385  1C9A  2C9C               	goto	u5151
 13386  1C9B  2C9D               	goto	u5150
 13387  1C9C                     u5151:
 13388  1C9C  2CA6               	goto	l8864
 13389  1C9D                     u5150:
 13390                           	line	10
 13391                           	
 13392  1C9D                     l8862:	
 13393  1C9D  09F2               	comf	(___awmod@dividend),f
 13394  1C9E  09F3               	comf	(___awmod@dividend+1),f
 13395  1C9F  0AF2               	incf	(___awmod@dividend),f
 13396  1CA0  1903               	skipnz
 13397  1CA1  0AF3               	incf	(___awmod@dividend+1),f
 13398                           	line	11
 13399  1CA2  01F6               	clrf	(___awmod@sign)
 13400  1CA3  1403               	bsf	status,0
 13401  1CA4  0DF6               	rlf	(___awmod@sign),f
 13402  1CA5  2CA6               	goto	l8864
 13403                           	line	12
 13404                           	
 13405  1CA6                     l5610:	
 13406                           	line	13
 13407                           	
 13408  1CA6                     l8864:	
 13409  1CA6  1FF1               	btfss	(___awmod@divisor+1),7
 13410  1CA7  2CA9               	goto	u5161
 13411  1CA8  2CAA               	goto	u5160
 13412  1CA9                     u5161:
 13413  1CA9  2CB0               	goto	l8868
 13414  1CAA                     u5160:
 13415                           	line	14
 13416                           	
 13417  1CAA                     l8866:	
 13418  1CAA  09F0               	comf	(___awmod@divisor),f
 13419  1CAB  09F1               	comf	(___awmod@divisor+1),f
 13420  1CAC  0AF0               	incf	(___awmod@divisor),f
 13421  1CAD  1903               	skipnz
 13422  1CAE  0AF1               	incf	(___awmod@divisor+1),f
 13423  1CAF  2CB0               	goto	l8868
 13424                           	
 13425  1CB0                     l5611:	
 13426                           	line	15
 13427                           	
 13428  1CB0                     l8868:	
 13429  1CB0  0871               	movf	(___awmod@divisor+1),w
 13430  1CB1  0470               	iorwf	(___awmod@divisor),w
 13431  1CB2  1903               	skipnz
 13432  1CB3  2CB5               	goto	u5171
 13433  1CB4  2CB6               	goto	u5170
 13434  1CB5                     u5171:
 13435  1CB5  2CEC               	goto	l8886
 13436  1CB6                     u5170:
 13437                           	line	16
 13438                           	
 13439  1CB6                     l8870:	
 13440  1CB6  01F5               	clrf	(___awmod@counter)
 13441  1CB7  1403               	bsf	status,0
 13442  1CB8  0DF5               	rlf	(___awmod@counter),f
 13443                           	line	17
 13444  1CB9  2CC6               	goto	l8876
 13445                           	
 13446  1CBA                     l5614:	
 13447                           	line	18
 13448                           	
 13449  1CBA                     l8872:	
 13450  1CBA  3001               	movlw	01h
 13451                           	
 13452  1CBB                     u5185:
 13453  1CBB  1003               	clrc
 13454  1CBC  0DF0               	rlf	(___awmod@divisor),f
 13455  1CBD  0DF1               	rlf	(___awmod@divisor+1),f
 13456  1CBE  3EFF               	addlw	-1
 13457  1CBF  1D03               	skipz
 13458  1CC0  2CBB               	goto	u5185
 13459                           	line	19
 13460                           	
 13461  1CC1                     l8874:	
 13462  1CC1  3001               	movlw	(01h)
 13463  1CC2  00F4               	movwf	(??___awmod+0)+0
 13464  1CC3  0874               	movf	(??___awmod+0)+0,w
 13465  1CC4  07F5               	addwf	(___awmod@counter),f
 13466  1CC5  2CC6               	goto	l8876
 13467                           	line	20
 13468                           	
 13469  1CC6                     l5613:	
 13470                           	line	17
 13471                           	
 13472  1CC6                     l8876:	
 13473  1CC6  1FF1               	btfss	(___awmod@divisor+1),(15)&7
 13474  1CC7  2CC9               	goto	u5191
 13475  1CC8  2CCA               	goto	u5190
 13476  1CC9                     u5191:
 13477  1CC9  2CBA               	goto	l8872
 13478  1CCA                     u5190:
 13479  1CCA  2CCC               	goto	l8878
 13480                           	
 13481  1CCB                     l5615:	
 13482  1CCB  2CCC               	goto	l8878
 13483                           	line	21
 13484                           	
 13485  1CCC                     l5616:	
 13486                           	line	22
 13487                           	
 13488  1CCC                     l8878:	
 13489  1CCC  0871               	movf	(___awmod@divisor+1),w
 13490  1CCD  0273               	subwf	(___awmod@dividend+1),w
 13491  1CCE  1D03               	skipz
 13492  1CCF  2CD2               	goto	u5205
 13493  1CD0  0870               	movf	(___awmod@divisor),w
 13494  1CD1  0272               	subwf	(___awmod@dividend),w
 13495  1CD2                     u5205:
 13496  1CD2  1C03               	skipc
 13497  1CD3  2CD5               	goto	u5201
 13498  1CD4  2CD6               	goto	u5200
 13499  1CD5                     u5201:
 13500  1CD5  2CDD               	goto	l8882
 13501  1CD6                     u5200:
 13502                           	line	23
 13503                           	
 13504  1CD6                     l8880:	
 13505  1CD6  0870               	movf	(___awmod@divisor),w
 13506  1CD7  02F2               	subwf	(___awmod@dividend),f
 13507  1CD8  0871               	movf	(___awmod@divisor+1),w
 13508  1CD9  1C03               	skipc
 13509  1CDA  03F3               	decf	(___awmod@dividend+1),f
 13510  1CDB  02F3               	subwf	(___awmod@dividend+1),f
 13511  1CDC  2CDD               	goto	l8882
 13512                           	
 13513  1CDD                     l5617:	
 13514                           	line	24
 13515                           	
 13516  1CDD                     l8882:	
 13517  1CDD  3001               	movlw	01h
 13518                           	
 13519  1CDE                     u5215:
 13520  1CDE  1003               	clrc
 13521  1CDF  0CF1               	rrf	(___awmod@divisor+1),f
 13522  1CE0  0CF0               	rrf	(___awmod@divisor),f
 13523  1CE1  3EFF               	addlw	-1
 13524  1CE2  1D03               	skipz
 13525  1CE3  2CDE               	goto	u5215
 13526                           	line	25
 13527                           	
 13528  1CE4                     l8884:	
 13529  1CE4  3001               	movlw	low(01h)
 13530  1CE5  02F5               	subwf	(___awmod@counter),f
 13531  1CE6  1D03               	btfss	status,2
 13532  1CE7  2CE9               	goto	u5221
 13533  1CE8  2CEA               	goto	u5220
 13534  1CE9                     u5221:
 13535  1CE9  2CCC               	goto	l8878
 13536  1CEA                     u5220:
 13537  1CEA  2CEC               	goto	l8886
 13538                           	
 13539  1CEB                     l5618:	
 13540  1CEB  2CEC               	goto	l8886
 13541                           	line	26
 13542                           	
 13543  1CEC                     l5612:	
 13544                           	line	27
 13545                           	
 13546  1CEC                     l8886:	
 13547  1CEC  0876               	movf	(___awmod@sign),w
 13548  1CED  1D03               	skipz
 13549  1CEE  2CF0               	goto	u5230
 13550  1CEF  2CF6               	goto	l8890
 13551  1CF0                     u5230:
 13552                           	line	28
 13553                           	
 13554  1CF0                     l8888:	
 13555  1CF0  09F2               	comf	(___awmod@dividend),f
 13556  1CF1  09F3               	comf	(___awmod@dividend+1),f
 13557  1CF2  0AF2               	incf	(___awmod@dividend),f
 13558  1CF3  1903               	skipnz
 13559  1CF4  0AF3               	incf	(___awmod@dividend+1),f
 13560  1CF5  2CF6               	goto	l8890
 13561                           	
 13562  1CF6                     l5619:	
 13563                           	line	29
 13564                           	
 13565  1CF6                     l8890:	
 13566  1CF6  0873               	movf	(___awmod@dividend+1),w
 13567  1CF7  01F1               	clrf	(?___awmod+1)
 13568  1CF8  07F1               	addwf	(?___awmod+1)
 13569  1CF9  0872               	movf	(___awmod@dividend),w
 13570  1CFA  01F0               	clrf	(?___awmod)
 13571  1CFB  07F0               	addwf	(?___awmod)
 13572                           
 13573  1CFC  2CFD               	goto	l5620
 13574                           	
 13575  1CFD                     l8892:	
 13576                           	line	30
 13577                           	
 13578  1CFD                     l5620:	
 13579  1CFD  0008               	return
 13580                           	opt stack 0
 13581                           GLOBAL	__end_of___awmod
 13582  1CFE                     	__end_of___awmod:
 13583 ;; =============== function ___awmod ends ============
 13584                           
 13585                           	signat	___awmod,8314
 13586                           	global	___awdiv
 13587                           psect	text801,local,class=CODE,delta=2
 13588                           global __ptext801
 13589  1CFE                     __ptext801:
 13590                           
 13591 ;; *************** function ___awdiv *****************
 13592 ;; Defined at:
 13593 ;;		line 5 in file "C:\Program Files\HI-TECH Software\PICC\9.82\sources\awdiv.c"
 13594 ;; Parameters:    Size  Location     Type
 13595 ;;  divisor         2    0[COMMON] int 
 13596 ;;  dividend        2    2[COMMON] int 
 13597 ;; Auto vars:     Size  Location     Type
 13598 ;;  quotient        2    7[COMMON] int 
 13599 ;;  sign            1    6[COMMON] unsigned char 
 13600 ;;  counter         1    5[COMMON] unsigned char 
 13601 ;; Return value:  Size  Location     Type
 13602 ;;                  2    0[COMMON] int 
 13603 ;; Registers used:
 13604 ;;		wreg, status,2, status,0
 13605 ;; Tracked objects:
 13606 ;;		On entry : 0/0
 13607 ;;		On exit  : 0/0
 13608 ;;		Unchanged: 0/0
 13609 ;; Data sizes:     COMMON   BANK0   BANK1   BANK3   BANK2
 13610 ;;      Params:         4       0       0       0       0
 13611 ;;      Locals:         4       0       0       0       0
 13612 ;;      Temps:          1       0       0       0       0
 13613 ;;      Totals:         9       0       0       0       0
 13614 ;;Total ram usage:        9 bytes
 13615 ;; Hardware stack levels used:    1
 13616 ;; This function calls:
 13617 ;;		Nothing
 13618 ;; This function is called by:
 13619 ;;		_myitoa
 13620 ;;		_enable_valves
 13621 ;; This function uses a non-reentrant model
 13622 ;;
 13623                           psect	text801
 13624                           	file	"C:\Program Files\HI-TECH Software\PICC\9.82\sources\awdiv.c"
 13625                           	line	5
 13626                           	global	__size_of___awdiv
 13627  0074                     	__size_of___awdiv	equ	__end_of___awdiv-___awdiv
 13628                           	
 13629  1CFE                     ___awdiv:	
 13630                           	opt	stack 6
 13631                           ; Regs used in ___awdiv: [wreg+status,2+status,0]
 13632                           	line	9
 13633                           	
 13634  1CFE                     l8820:	
 13635  1CFE  01F6               	clrf	(___awdiv@sign)
 13636                           	line	10
 13637  1CFF  1FF1               	btfss	(___awdiv@divisor+1),7
 13638  1D00  2D02               	goto	u5051
 13639  1D01  2D03               	goto	u5050
 13640  1D02                     u5051:
 13641  1D02  2D0C               	goto	l8824
 13642  1D03                     u5050:
 13643                           	line	11
 13644                           	
 13645  1D03                     l8822:	
 13646  1D03  09F0               	comf	(___awdiv@divisor),f
 13647  1D04  09F1               	comf	(___awdiv@divisor+1),f
 13648  1D05  0AF0               	incf	(___awdiv@divisor),f
 13649  1D06  1903               	skipnz
 13650  1D07  0AF1               	incf	(___awdiv@divisor+1),f
 13651                           	line	12
 13652  1D08  01F6               	clrf	(___awdiv@sign)
 13653  1D09  1403               	bsf	status,0
 13654  1D0A  0DF6               	rlf	(___awdiv@sign),f
 13655  1D0B  2D0C               	goto	l8824
 13656                           	line	13
 13657                           	
 13658  1D0C                     l5542:	
 13659                           	line	14
 13660                           	
 13661  1D0C                     l8824:	
 13662  1D0C  1FF3               	btfss	(___awdiv@dividend+1),7
 13663  1D0D  2D0F               	goto	u5061
 13664  1D0E  2D10               	goto	u5060
 13665  1D0F                     u5061:
 13666  1D0F  2D1A               	goto	l8830
 13667  1D10                     u5060:
 13668                           	line	15
 13669                           	
 13670  1D10                     l8826:	
 13671  1D10  09F2               	comf	(___awdiv@dividend),f
 13672  1D11  09F3               	comf	(___awdiv@dividend+1),f
 13673  1D12  0AF2               	incf	(___awdiv@dividend),f
 13674  1D13  1903               	skipnz
 13675  1D14  0AF3               	incf	(___awdiv@dividend+1),f
 13676                           	line	16
 13677                           	
 13678  1D15                     l8828:	
 13679  1D15  3001               	movlw	(01h)
 13680  1D16  00F4               	movwf	(??___awdiv+0)+0
 13681  1D17  0874               	movf	(??___awdiv+0)+0,w
 13682  1D18  06F6               	xorwf	(___awdiv@sign),f
 13683  1D19  2D1A               	goto	l8830
 13684                           	line	17
 13685                           	
 13686  1D1A                     l5543:	
 13687                           	line	18
 13688                           	
 13689  1D1A                     l8830:	
 13690  1D1A  01F7               	clrf	(___awdiv@quotient)
 13691  1D1B  01F8               	clrf	(___awdiv@quotient+1)
 13692                           	line	19
 13693                           	
 13694  1D1C                     l8832:	
 13695  1D1C  0871               	movf	(___awdiv@divisor+1),w
 13696  1D1D  0470               	iorwf	(___awdiv@divisor),w
 13697  1D1E  1903               	skipnz
 13698  1D1F  2D21               	goto	u5071
 13699  1D20  2D22               	goto	u5070
 13700  1D21                     u5071:
 13701  1D21  2D60               	goto	l8852
 13702  1D22                     u5070:
 13703                           	line	20
 13704                           	
 13705  1D22                     l8834:	
 13706  1D22  01F5               	clrf	(___awdiv@counter)
 13707  1D23  1403               	bsf	status,0
 13708  1D24  0DF5               	rlf	(___awdiv@counter),f
 13709                           	line	21
 13710  1D25  2D32               	goto	l8840
 13711                           	
 13712  1D26                     l5546:	
 13713                           	line	22
 13714                           	
 13715  1D26                     l8836:	
 13716  1D26  3001               	movlw	01h
 13717                           	
 13718  1D27                     u5085:
 13719  1D27  1003               	clrc
 13720  1D28  0DF0               	rlf	(___awdiv@divisor),f
 13721  1D29  0DF1               	rlf	(___awdiv@divisor+1),f
 13722  1D2A  3EFF               	addlw	-1
 13723  1D2B  1D03               	skipz
 13724  1D2C  2D27               	goto	u5085
 13725                           	line	23
 13726                           	
 13727  1D2D                     l8838:	
 13728  1D2D  3001               	movlw	(01h)
 13729  1D2E  00F4               	movwf	(??___awdiv+0)+0
 13730  1D2F  0874               	movf	(??___awdiv+0)+0,w
 13731  1D30  07F5               	addwf	(___awdiv@counter),f
 13732  1D31  2D32               	goto	l8840
 13733                           	line	24
 13734                           	
 13735  1D32                     l5545:	
 13736                           	line	21
 13737                           	
 13738  1D32                     l8840:	
 13739  1D32  1FF1               	btfss	(___awdiv@divisor+1),(15)&7
 13740  1D33  2D35               	goto	u5091
 13741  1D34  2D36               	goto	u5090
 13742  1D35                     u5091:
 13743  1D35  2D26               	goto	l8836
 13744  1D36                     u5090:
 13745  1D36  2D38               	goto	l8842
 13746                           	
 13747  1D37                     l5547:	
 13748  1D37  2D38               	goto	l8842
 13749                           	line	25
 13750                           	
 13751  1D38                     l5548:	
 13752                           	line	26
 13753                           	
 13754  1D38                     l8842:	
 13755  1D38  3001               	movlw	01h
 13756                           	
 13757  1D39                     u5105:
 13758  1D39  1003               	clrc
 13759  1D3A  0DF7               	rlf	(___awdiv@quotient),f
 13760  1D3B  0DF8               	rlf	(___awdiv@quotient+1),f
 13761  1D3C  3EFF               	addlw	-1
 13762  1D3D  1D03               	skipz
 13763  1D3E  2D39               	goto	u5105
 13764                           	line	27
 13765  1D3F  0871               	movf	(___awdiv@divisor+1),w
 13766  1D40  0273               	subwf	(___awdiv@dividend+1),w
 13767  1D41  1D03               	skipz
 13768  1D42  2D45               	goto	u5115
 13769  1D43  0870               	movf	(___awdiv@divisor),w
 13770  1D44  0272               	subwf	(___awdiv@dividend),w
 13771  1D45                     u5115:
 13772  1D45  1C03               	skipc
 13773  1D46  2D48               	goto	u5111
 13774  1D47  2D49               	goto	u5110
 13775  1D48                     u5111:
 13776  1D48  2D51               	goto	l8848
 13777  1D49                     u5110:
 13778                           	line	28
 13779                           	
 13780  1D49                     l8844:	
 13781  1D49  0870               	movf	(___awdiv@divisor),w
 13782  1D4A  02F2               	subwf	(___awdiv@dividend),f
 13783  1D4B  0871               	movf	(___awdiv@divisor+1),w
 13784  1D4C  1C03               	skipc
 13785  1D4D  03F3               	decf	(___awdiv@dividend+1),f
 13786  1D4E  02F3               	subwf	(___awdiv@dividend+1),f
 13787                           	line	29
 13788                           	
 13789  1D4F                     l8846:	
 13790  1D4F  1477               	bsf	(___awdiv@quotient)+(0/8),(0)&7
 13791  1D50  2D51               	goto	l8848
 13792                           	line	30
 13793                           	
 13794  1D51                     l5549:	
 13795                           	line	31
 13796                           	
 13797  1D51                     l8848:	
 13798  1D51  3001               	movlw	01h
 13799                           	
 13800  1D52                     u5125:
 13801  1D52  1003               	clrc
 13802  1D53  0CF1               	rrf	(___awdiv@divisor+1),f
 13803  1D54  0CF0               	rrf	(___awdiv@divisor),f
 13804  1D55  3EFF               	addlw	-1
 13805  1D56  1D03               	skipz
 13806  1D57  2D52               	goto	u5125
 13807                           	line	32
 13808                           	
 13809  1D58                     l8850:	
 13810  1D58  3001               	movlw	low(01h)
 13811  1D59  02F5               	subwf	(___awdiv@counter),f
 13812  1D5A  1D03               	btfss	status,2
 13813  1D5B  2D5D               	goto	u5131
 13814  1D5C  2D5E               	goto	u5130
 13815  1D5D                     u5131:
 13816  1D5D  2D38               	goto	l8842
 13817  1D5E                     u5130:
 13818  1D5E  2D60               	goto	l8852
 13819                           	
 13820  1D5F                     l5550:	
 13821  1D5F  2D60               	goto	l8852
 13822                           	line	33
 13823                           	
 13824  1D60                     l5544:	
 13825                           	line	34
 13826                           	
 13827  1D60                     l8852:	
 13828  1D60  0876               	movf	(___awdiv@sign),w
 13829  1D61  1D03               	skipz
 13830  1D62  2D64               	goto	u5140
 13831  1D63  2D6A               	goto	l8856
 13832  1D64                     u5140:
 13833                           	line	35
 13834                           	
 13835  1D64                     l8854:	
 13836  1D64  09F7               	comf	(___awdiv@quotient),f
 13837  1D65  09F8               	comf	(___awdiv@quotient+1),f
 13838  1D66  0AF7               	incf	(___awdiv@quotient),f
 13839  1D67  1903               	skipnz
 13840  1D68  0AF8               	incf	(___awdiv@quotient+1),f
 13841  1D69  2D6A               	goto	l8856
 13842                           	
 13843  1D6A                     l5551:	
 13844                           	line	36
 13845                           	
 13846  1D6A                     l8856:	
 13847  1D6A  0878               	movf	(___awdiv@quotient+1),w
 13848  1D6B  01F1               	clrf	(?___awdiv+1)
 13849  1D6C  07F1               	addwf	(?___awdiv+1)
 13850  1D6D  0877               	movf	(___awdiv@quotient),w
 13851  1D6E  01F0               	clrf	(?___awdiv)
 13852  1D6F  07F0               	addwf	(?___awdiv)
 13853                           
 13854  1D70  2D71               	goto	l5552
 13855                           	
 13856  1D71                     l8858:	
 13857                           	line	37
 13858                           	
 13859  1D71                     l5552:	
 13860  1D71  0008               	return
 13861                           	opt stack 0
 13862                           GLOBAL	__end_of___awdiv
 13863  1D72                     	__end_of___awdiv:
 13864 ;; =============== function ___awdiv ends ============
 13865                           
 13866                           	signat	___awdiv,8314
 13867                           	global	___lwmod
 13868                           psect	text802,local,class=CODE,delta=2
 13869                           global __ptext802
 13870  07BB                     __ptext802:
 13871                           
 13872 ;; *************** function ___lwmod *****************
 13873 ;; Defined at:
 13874 ;;		line 5 in file "C:\Program Files\HI-TECH Software\PICC\9.82\sources\lwmod.c"
 13875 ;; Parameters:    Size  Location     Type
 13876 ;;  divisor         2    0[COMMON] unsigned int 
 13877 ;;  dividend        2    2[COMMON] unsigned int 
 13878 ;; Auto vars:     Size  Location     Type
 13879 ;;  counter         1    5[COMMON] unsigned char 
 13880 ;; Return value:  Size  Location     Type
 13881 ;;                  2    0[COMMON] unsigned int 
 13882 ;; Registers used:
 13883 ;;		wreg, status,2, status,0
 13884 ;; Tracked objects:
 13885 ;;		On entry : 0/0
 13886 ;;		On exit  : 0/0
 13887 ;;		Unchanged: 0/0
 13888 ;; Data sizes:     COMMON   BANK0   BANK1   BANK3   BANK2
 13889 ;;      Params:         4       0       0       0       0
 13890 ;;      Locals:         1       0       0       0       0
 13891 ;;      Temps:          1       0       0       0       0
 13892 ;;      Totals:         6       0       0       0       0
 13893 ;;Total ram usage:        6 bytes
 13894 ;; Hardware stack levels used:    1
 13895 ;; This function calls:
 13896 ;;		Nothing
 13897 ;; This function is called by:
 13898 ;;		_Num_Disp
 13899 ;; This function uses a non-reentrant model
 13900 ;;
 13901                           psect	text802
 13902                           	file	"C:\Program Files\HI-TECH Software\PICC\9.82\sources\lwmod.c"
 13903                           	line	5
 13904                           	global	__size_of___lwmod
 13905  0044                     	__size_of___lwmod	equ	__end_of___lwmod-___lwmod
 13906                           	
 13907  07BB                     ___lwmod:	
 13908                           	opt	stack 5
 13909                           ; Regs used in ___lwmod: [wreg+status,2+status,0]
 13910                           	line	8
 13911                           	
 13912  07BB                     l8798:	
 13913  07BB  0871               	movf	(___lwmod@divisor+1),w
 13914  07BC  0470               	iorwf	(___lwmod@divisor),w
 13915  07BD  1903               	skipnz
 13916  07BE  2FC0               	goto	u4991
 13917  07BF  2FC1               	goto	u4990
 13918  07C0                     u4991:
 13919  07C0  2FF7               	goto	l8816
 13920  07C1                     u4990:
 13921                           	line	9
 13922                           	
 13923  07C1                     l8800:	
 13924  07C1  01F5               	clrf	(___lwmod@counter)
 13925  07C2  1403               	bsf	status,0
 13926  07C3  0DF5               	rlf	(___lwmod@counter),f
 13927                           	line	10
 13928  07C4  2FD1               	goto	l8806
 13929                           	
 13930  07C5                     l5420:	
 13931                           	line	11
 13932                           	
 13933  07C5                     l8802:	
 13934  07C5  3001               	movlw	01h
 13935                           	
 13936  07C6                     u5005:
 13937  07C6  1003               	clrc
 13938  07C7  0DF0               	rlf	(___lwmod@divisor),f
 13939  07C8  0DF1               	rlf	(___lwmod@divisor+1),f
 13940  07C9  3EFF               	addlw	-1
 13941  07CA  1D03               	skipz
 13942  07CB  2FC6               	goto	u5005
 13943                           	line	12
 13944                           	
 13945  07CC                     l8804:	
 13946  07CC  3001               	movlw	(01h)
 13947  07CD  00F4               	movwf	(??___lwmod+0)+0
 13948  07CE  0874               	movf	(??___lwmod+0)+0,w
 13949  07CF  07F5               	addwf	(___lwmod@counter),f
 13950  07D0  2FD1               	goto	l8806
 13951                           	line	13
 13952                           	
 13953  07D1                     l5419:	
 13954                           	line	10
 13955                           	
 13956  07D1                     l8806:	
 13957  07D1  1FF1               	btfss	(___lwmod@divisor+1),(15)&7
 13958  07D2  2FD4               	goto	u5011
 13959  07D3  2FD5               	goto	u5010
 13960  07D4                     u5011:
 13961  07D4  2FC5               	goto	l8802
 13962  07D5                     u5010:
 13963  07D5  2FD7               	goto	l8808
 13964                           	
 13965  07D6                     l5421:	
 13966  07D6  2FD7               	goto	l8808
 13967                           	line	14
 13968                           	
 13969  07D7                     l5422:	
 13970                           	line	15
 13971                           	
 13972  07D7                     l8808:	
 13973  07D7  0871               	movf	(___lwmod@divisor+1),w
 13974  07D8  0273               	subwf	(___lwmod@dividend+1),w
 13975  07D9  1D03               	skipz
 13976  07DA  2FDD               	goto	u5025
 13977  07DB  0870               	movf	(___lwmod@divisor),w
 13978  07DC  0272               	subwf	(___lwmod@dividend),w
 13979  07DD                     u5025:
 13980  07DD  1C03               	skipc
 13981  07DE  2FE0               	goto	u5021
 13982  07DF  2FE1               	goto	u5020
 13983  07E0                     u5021:
 13984  07E0  2FE8               	goto	l8812
 13985  07E1                     u5020:
 13986                           	line	16
 13987                           	
 13988  07E1                     l8810:	
 13989  07E1  0870               	movf	(___lwmod@divisor),w
 13990  07E2  02F2               	subwf	(___lwmod@dividend),f
 13991  07E3  0871               	movf	(___lwmod@divisor+1),w
 13992  07E4  1C03               	skipc
 13993  07E5  03F3               	decf	(___lwmod@dividend+1),f
 13994  07E6  02F3               	subwf	(___lwmod@dividend+1),f
 13995  07E7  2FE8               	goto	l8812
 13996                           	
 13997  07E8                     l5423:	
 13998                           	line	17
 13999                           	
 14000  07E8                     l8812:	
 14001  07E8  3001               	movlw	01h
 14002                           	
 14003  07E9                     u5035:
 14004  07E9  1003               	clrc
 14005  07EA  0CF1               	rrf	(___lwmod@divisor+1),f
 14006  07EB  0CF0               	rrf	(___lwmod@divisor),f
 14007  07EC  3EFF               	addlw	-1
 14008  07ED  1D03               	skipz
 14009  07EE  2FE9               	goto	u5035
 14010                           	line	18
 14011                           	
 14012  07EF                     l8814:	
 14013  07EF  3001               	movlw	low(01h)
 14014  07F0  02F5               	subwf	(___lwmod@counter),f
 14015  07F1  1D03               	btfss	status,2
 14016  07F2  2FF4               	goto	u5041
 14017  07F3  2FF5               	goto	u5040
 14018  07F4                     u5041:
 14019  07F4  2FD7               	goto	l8808
 14020  07F5                     u5040:
 14021  07F5  2FF7               	goto	l8816
 14022                           	
 14023  07F6                     l5424:	
 14024  07F6  2FF7               	goto	l8816
 14025                           	line	19
 14026                           	
 14027  07F7                     l5418:	
 14028                           	line	20
 14029                           	
 14030  07F7                     l8816:	
 14031  07F7  0873               	movf	(___lwmod@dividend+1),w
 14032  07F8  01F1               	clrf	(?___lwmod+1)
 14033  07F9  07F1               	addwf	(?___lwmod+1)
 14034  07FA  0872               	movf	(___lwmod@dividend),w
 14035  07FB  01F0               	clrf	(?___lwmod)
 14036  07FC  07F0               	addwf	(?___lwmod)
 14037                           
 14038  07FD  2FFE               	goto	l5425
 14039                           	
 14040  07FE                     l8818:	
 14041                           	line	21
 14042                           	
 14043  07FE                     l5425:	
 14044  07FE  0008               	return
 14045                           	opt stack 0
 14046                           GLOBAL	__end_of___lwmod
 14047  07FF                     	__end_of___lwmod:
 14048 ;; =============== function ___lwmod ends ============
 14049                           
 14050                           	signat	___lwmod,8314
 14051                           	global	___lwdiv
 14052                           psect	text803,local,class=CODE,delta=2
 14053                           global __ptext803
 14054  11A9                     __ptext803:
 14055                           
 14056 ;; *************** function ___lwdiv *****************
 14057 ;; Defined at:
 14058 ;;		line 5 in file "C:\Program Files\HI-TECH Software\PICC\9.82\sources\lwdiv.c"
 14059 ;; Parameters:    Size  Location     Type
 14060 ;;  divisor         2    0[BANK0 ] unsigned int 
 14061 ;;  dividend        2    2[BANK0 ] unsigned int 
 14062 ;; Auto vars:     Size  Location     Type
 14063 ;;  quotient        2    4[BANK0 ] unsigned int 
 14064 ;;  counter         1    6[BANK0 ] unsigned char 
 14065 ;; Return value:  Size  Location     Type
 14066 ;;                  2    0[BANK0 ] unsigned int 
 14067 ;; Registers used:
 14068 ;;		wreg, status,2, status,0
 14069 ;; Tracked objects:
 14070 ;;		On entry : 0/0
 14071 ;;		On exit  : 0/0
 14072 ;;		Unchanged: 0/0
 14073 ;; Data sizes:     COMMON   BANK0   BANK1   BANK3   BANK2
 14074 ;;      Params:         0       4       0       0       0
 14075 ;;      Locals:         0       3       0       0       0
 14076 ;;      Temps:          1       0       0       0       0
 14077 ;;      Totals:         1       7       0       0       0
 14078 ;;Total ram usage:        8 bytes
 14079 ;; Hardware stack levels used:    1
 14080 ;; This function calls:
 14081 ;;		Nothing
 14082 ;; This function is called by:
 14083 ;;		_Num_Disp
 14084 ;;		_main
 14085 ;; This function uses a non-reentrant model
 14086 ;;
 14087                           psect	text803
 14088                           	file	"C:\Program Files\HI-TECH Software\PICC\9.82\sources\lwdiv.c"
 14089                           	line	5
 14090                           	global	__size_of___lwdiv
 14091  0050                     	__size_of___lwdiv	equ	__end_of___lwdiv-___lwdiv
 14092                           	
 14093  11A9                     ___lwdiv:	
 14094                           	opt	stack 5
 14095                           ; Regs used in ___lwdiv: [wreg+status,2+status,0]
 14096                           	line	9
 14097                           	
 14098  11A9                     l8772:	
 14099  11A9  1283               	bcf	status, 5	;RP0=0, select bank0
 14100  11AA  1303               	bcf	status, 6	;RP1=0, select bank0
 14101  11AB  01CD               	clrf	(___lwdiv@quotient)
 14102  11AC  01CE               	clrf	(___lwdiv@quotient+1)
 14103                           	line	10
 14104                           	
 14105  11AD                     l8774:	
 14106  11AD  084A               	movf	(___lwdiv@divisor+1),w
 14107  11AE  0449               	iorwf	(___lwdiv@divisor),w
 14108  11AF  1903               	skipnz
 14109  11B0  29B2               	goto	u4921
 14110  11B1  29B3               	goto	u4920
 14111  11B2                     u4921:
 14112  11B2  29F1               	goto	l8794
 14113  11B3                     u4920:
 14114                           	line	11
 14115                           	
 14116  11B3                     l8776:	
 14117  11B3  01CF               	clrf	(___lwdiv@counter)
 14118  11B4  1403               	bsf	status,0
 14119  11B5  0DCF               	rlf	(___lwdiv@counter),f
 14120                           	line	12
 14121  11B6  29C3               	goto	l8782
 14122                           	
 14123  11B7                     l5410:	
 14124                           	line	13
 14125                           	
 14126  11B7                     l8778:	
 14127  11B7  3001               	movlw	01h
 14128                           	
 14129  11B8                     u4935:
 14130  11B8  1003               	clrc
 14131  11B9  0DC9               	rlf	(___lwdiv@divisor),f
 14132  11BA  0DCA               	rlf	(___lwdiv@divisor+1),f
 14133  11BB  3EFF               	addlw	-1
 14134  11BC  1D03               	skipz
 14135  11BD  29B8               	goto	u4935
 14136                           	line	14
 14137                           	
 14138  11BE                     l8780:	
 14139  11BE  3001               	movlw	(01h)
 14140  11BF  00FC               	movwf	(??___lwdiv+0)+0
 14141  11C0  087C               	movf	(??___lwdiv+0)+0,w
 14142  11C1  07CF               	addwf	(___lwdiv@counter),f
 14143  11C2  29C3               	goto	l8782
 14144                           	line	15
 14145                           	
 14146  11C3                     l5409:	
 14147                           	line	12
 14148                           	
 14149  11C3                     l8782:	
 14150  11C3  1FCA               	btfss	(___lwdiv@divisor+1),(15)&7
 14151  11C4  29C6               	goto	u4941
 14152  11C5  29C7               	goto	u4940
 14153  11C6                     u4941:
 14154  11C6  29B7               	goto	l8778
 14155  11C7                     u4940:
 14156  11C7  29C9               	goto	l8784
 14157                           	
 14158  11C8                     l5411:	
 14159  11C8  29C9               	goto	l8784
 14160                           	line	16
 14161                           	
 14162  11C9                     l5412:	
 14163                           	line	17
 14164                           	
 14165  11C9                     l8784:	
 14166  11C9  3001               	movlw	01h
 14167                           	
 14168  11CA                     u4955:
 14169  11CA  1003               	clrc
 14170  11CB  0DCD               	rlf	(___lwdiv@quotient),f
 14171  11CC  0DCE               	rlf	(___lwdiv@quotient+1),f
 14172  11CD  3EFF               	addlw	-1
 14173  11CE  1D03               	skipz
 14174  11CF  29CA               	goto	u4955
 14175                           	line	18
 14176  11D0  084A               	movf	(___lwdiv@divisor+1),w
 14177  11D1  024C               	subwf	(___lwdiv@dividend+1),w
 14178  11D2  1D03               	skipz
 14179  11D3  29D6               	goto	u4965
 14180  11D4  0849               	movf	(___lwdiv@divisor),w
 14181  11D5  024B               	subwf	(___lwdiv@dividend),w
 14182  11D6                     u4965:
 14183  11D6  1C03               	skipc
 14184  11D7  29D9               	goto	u4961
 14185  11D8  29DA               	goto	u4960
 14186  11D9                     u4961:
 14187  11D9  29E2               	goto	l8790
 14188  11DA                     u4960:
 14189                           	line	19
 14190                           	
 14191  11DA                     l8786:	
 14192  11DA  0849               	movf	(___lwdiv@divisor),w
 14193  11DB  02CB               	subwf	(___lwdiv@dividend),f
 14194  11DC  084A               	movf	(___lwdiv@divisor+1),w
 14195  11DD  1C03               	skipc
 14196  11DE  03CC               	decf	(___lwdiv@dividend+1),f
 14197  11DF  02CC               	subwf	(___lwdiv@dividend+1),f
 14198                           	line	20
 14199                           	
 14200  11E0                     l8788:	
 14201  11E0  144D               	bsf	(___lwdiv@quotient)+(0/8),(0)&7
 14202  11E1  29E2               	goto	l8790
 14203                           	line	21
 14204                           	
 14205  11E2                     l5413:	
 14206                           	line	22
 14207                           	
 14208  11E2                     l8790:	
 14209  11E2  3001               	movlw	01h
 14210                           	
 14211  11E3                     u4975:
 14212  11E3  1003               	clrc
 14213  11E4  0CCA               	rrf	(___lwdiv@divisor+1),f
 14214  11E5  0CC9               	rrf	(___lwdiv@divisor),f
 14215  11E6  3EFF               	addlw	-1
 14216  11E7  1D03               	skipz
 14217  11E8  29E3               	goto	u4975
 14218                           	line	23
 14219                           	
 14220  11E9                     l8792:	
 14221  11E9  3001               	movlw	low(01h)
 14222  11EA  02CF               	subwf	(___lwdiv@counter),f
 14223  11EB  1D03               	btfss	status,2
 14224  11EC  29EE               	goto	u4981
 14225  11ED  29EF               	goto	u4980
 14226  11EE                     u4981:
 14227  11EE  29C9               	goto	l8784
 14228  11EF                     u4980:
 14229  11EF  29F1               	goto	l8794
 14230                           	
 14231  11F0                     l5414:	
 14232  11F0  29F1               	goto	l8794
 14233                           	line	24
 14234                           	
 14235  11F1                     l5408:	
 14236                           	line	25
 14237                           	
 14238  11F1                     l8794:	
 14239  11F1  084E               	movf	(___lwdiv@quotient+1),w
 14240  11F2  01CA               	clrf	(?___lwdiv+1)
 14241  11F3  07CA               	addwf	(?___lwdiv+1)
 14242  11F4  084D               	movf	(___lwdiv@quotient),w
 14243  11F5  01C9               	clrf	(?___lwdiv)
 14244  11F6  07C9               	addwf	(?___lwdiv)
 14245                           
 14246  11F7  29F8               	goto	l5415
 14247                           	
 14248  11F8                     l8796:	
 14249                           	line	26
 14250                           	
 14251  11F8                     l5415:	
 14252  11F8  0008               	return
 14253                           	opt stack 0
 14254                           GLOBAL	__end_of___lwdiv
 14255  11F9                     	__end_of___lwdiv:
 14256 ;; =============== function ___lwdiv ends ============
 14257                           
 14258                           	signat	___lwdiv,8314
 14259                           	global	___wmul
 14260                           psect	text804,local,class=CODE,delta=2
 14261                           global __ptext804
 14262  19A2                     __ptext804:
 14263                           
 14264 ;; *************** function ___wmul *****************
 14265 ;; Defined at:
 14266 ;;		line 3 in file "C:\Program Files\HI-TECH Software\PICC\9.82\sources\wmul.c"
 14267 ;; Parameters:    Size  Location     Type
 14268 ;;  multiplier      2    6[COMMON] unsigned int 
 14269 ;;  multiplicand    2    8[COMMON] unsigned int 
 14270 ;; Auto vars:     Size  Location     Type
 14271 ;;  product         2   10[COMMON] unsigned int 
 14272 ;; Return value:  Size  Location     Type
 14273 ;;                  2    6[COMMON] unsigned int 
 14274 ;; Registers used:
 14275 ;;		wreg, status,2, status,0
 14276 ;; Tracked objects:
 14277 ;;		On entry : 0/0
 14278 ;;		On exit  : 0/0
 14279 ;;		Unchanged: 0/0
 14280 ;; Data sizes:     COMMON   BANK0   BANK1   BANK3   BANK2
 14281 ;;      Params:         4       0       0       0       0
 14282 ;;      Locals:         2       0       0       0       0
 14283 ;;      Temps:          0       0       0       0       0
 14284 ;;      Totals:         6       0       0       0       0
 14285 ;;Total ram usage:        6 bytes
 14286 ;; Hardware stack levels used:    1
 14287 ;; This function calls:
 14288 ;;		Nothing
 14289 ;; This function is called by:
 14290 ;;		_Num_Disp
 14291 ;;		_main
 14292 ;;		_enable_valves
 14293 ;;		_call_control_valve
 14294 ;;		_control_valve
 14295 ;;		_count_read
 14296 ;; This function uses a non-reentrant model
 14297 ;;
 14298                           psect	text804
 14299                           	file	"C:\Program Files\HI-TECH Software\PICC\9.82\sources\wmul.c"
 14300                           	line	3
 14301                           	global	__size_of___wmul
 14302  002A                     	__size_of___wmul	equ	__end_of___wmul-___wmul
 14303                           	
 14304  19A2                     ___wmul:	
 14305                           	opt	stack 5
 14306                           ; Regs used in ___wmul: [wreg+status,2+status,0]
 14307                           	line	4
 14308                           	
 14309  19A2                     l8760:	
 14310  19A2  01FA               	clrf	(___wmul@product)
 14311  19A3  01FB               	clrf	(___wmul@product+1)
 14312  19A4  29A5               	goto	l8762
 14313                           	line	6
 14314                           	
 14315  19A5                     l5402:	
 14316                           	line	7
 14317                           	
 14318  19A5                     l8762:	
 14319  19A5  1C76               	btfss	(___wmul@multiplier),(0)&7
 14320  19A6  29A8               	goto	u4881
 14321  19A7  29A9               	goto	u4880
 14322  19A8                     u4881:
 14323  19A8  29AF               	goto	l5403
 14324  19A9                     u4880:
 14325                           	line	8
 14326                           	
 14327  19A9                     l8764:	
 14328  19A9  0878               	movf	(___wmul@multiplicand),w
 14329  19AA  07FA               	addwf	(___wmul@product),f
 14330  19AB  1803               	skipnc
 14331  19AC  0AFB               	incf	(___wmul@product+1),f
 14332  19AD  0879               	movf	(___wmul@multiplicand+1),w
 14333  19AE  07FB               	addwf	(___wmul@product+1),f
 14334                           	
 14335  19AF                     l5403:	
 14336                           	line	9
 14337  19AF  3001               	movlw	01h
 14338                           	
 14339  19B0                     u4895:
 14340  19B0  1003               	clrc
 14341  19B1  0DF8               	rlf	(___wmul@multiplicand),f
 14342  19B2  0DF9               	rlf	(___wmul@multiplicand+1),f
 14343  19B3  3EFF               	addlw	-1
 14344  19B4  1D03               	skipz
 14345  19B5  29B0               	goto	u4895
 14346                           	line	10
 14347                           	
 14348  19B6                     l8766:	
 14349  19B6  3001               	movlw	01h
 14350                           	
 14351  19B7                     u4905:
 14352  19B7  1003               	clrc
 14353  19B8  0CF7               	rrf	(___wmul@multiplier+1),f
 14354  19B9  0CF6               	rrf	(___wmul@multiplier),f
 14355  19BA  3EFF               	addlw	-1
 14356  19BB  1D03               	skipz
 14357  19BC  29B7               	goto	u4905
 14358                           	line	11
 14359  19BD  0877               	movf	((___wmul@multiplier+1)),w
 14360  19BE  0476               	iorwf	((___wmul@multiplier)),w
 14361  19BF  1D03               	skipz
 14362  19C0  29C2               	goto	u4911
 14363  19C1  29C3               	goto	u4910
 14364  19C2                     u4911:
 14365  19C2  29A5               	goto	l8762
 14366  19C3                     u4910:
 14367  19C3  29C4               	goto	l8768
 14368                           	
 14369  19C4                     l5404:	
 14370                           	line	12
 14371                           	
 14372  19C4                     l8768:	
 14373  19C4  087B               	movf	(___wmul@product+1),w
 14374  19C5  01F7               	clrf	(?___wmul+1)
 14375  19C6  07F7               	addwf	(?___wmul+1)
 14376  19C7  087A               	movf	(___wmul@product),w
 14377  19C8  01F6               	clrf	(?___wmul)
 14378  19C9  07F6               	addwf	(?___wmul)
 14379                           
 14380  19CA  29CB               	goto	l5405
 14381                           	
 14382  19CB                     l8770:	
 14383                           	line	13
 14384                           	
 14385  19CB                     l5405:	
 14386  19CB  0008               	return
 14387                           	opt stack 0
 14388                           GLOBAL	__end_of___wmul
 14389  19CC                     	__end_of___wmul:
 14390 ;; =============== function ___wmul ends ============
 14391                           
 14392                           	signat	___wmul,8314
 14393                           	global	___bmul
 14394                           psect	text805,local,class=CODE,delta=2
 14395                           global __ptext805
 14396  18EE                     __ptext805:
 14397                           
 14398 ;; *************** function ___bmul *****************
 14399 ;; Defined at:
 14400 ;;		line 3 in file "C:\Program Files\HI-TECH Software\PICC\9.82\sources\bmul.c"
 14401 ;; Parameters:    Size  Location     Type
 14402 ;;  multiplier      1    wreg     unsigned char 
 14403 ;;  multiplicand    1    0[COMMON] unsigned char 
 14404 ;; Auto vars:     Size  Location     Type
 14405 ;;  multiplier      1    3[COMMON] unsigned char 
 14406 ;;  product         1    2[COMMON] unsigned char 
 14407 ;; Return value:  Size  Location     Type
 14408 ;;                  1    wreg      unsigned char 
 14409 ;; Registers used:
 14410 ;;		wreg, status,2, status,0
 14411 ;; Tracked objects:
 14412 ;;		On entry : 0/0
 14413 ;;		On exit  : 0/0
 14414 ;;		Unchanged: 0/0
 14415 ;; Data sizes:     COMMON   BANK0   BANK1   BANK3   BANK2
 14416 ;;      Params:         1       0       0       0       0
 14417 ;;      Locals:         2       0       0       0       0
 14418 ;;      Temps:          1       0       0       0       0
 14419 ;;      Totals:         4       0       0       0       0
 14420 ;;Total ram usage:        4 bytes
 14421 ;; Hardware stack levels used:    1
 14422 ;; This function calls:
 14423 ;;		Nothing
 14424 ;; This function is called by:
 14425 ;;		_enable_valves
 14426 ;;		_call_control_valve
 14427 ;; This function uses a non-reentrant model
 14428 ;;
 14429                           psect	text805
 14430                           	file	"C:\Program Files\HI-TECH Software\PICC\9.82\sources\bmul.c"
 14431                           	line	3
 14432                           	global	__size_of___bmul
 14433  0018                     	__size_of___bmul	equ	__end_of___bmul-___bmul
 14434                           	
 14435  18EE                     ___bmul:	
 14436                           	opt	stack 6
 14437                           ; Regs used in ___bmul: [wreg+status,2+status,0]
 14438                           ;___bmul@multiplier stored from wreg
 14439  18EE  00F3               	movwf	(___bmul@multiplier)
 14440                           	line	4
 14441                           	
 14442  18EF                     l8746:	
 14443  18EF  01F2               	clrf	(___bmul@product)
 14444                           	line	6
 14445                           	
 14446  18F0                     l5396:	
 14447                           	line	7
 14448  18F0  1C73               	btfss	(___bmul@multiplier),(0)&7
 14449  18F1  28F3               	goto	u4861
 14450  18F2  28F4               	goto	u4860
 14451  18F3                     u4861:
 14452  18F3  28F9               	goto	l8750
 14453  18F4                     u4860:
 14454                           	line	8
 14455                           	
 14456  18F4                     l8748:	
 14457  18F4  0870               	movf	(___bmul@multiplicand),w
 14458  18F5  00F1               	movwf	(??___bmul+0)+0
 14459  18F6  0871               	movf	(??___bmul+0)+0,w
 14460  18F7  07F2               	addwf	(___bmul@product),f
 14461  18F8  28F9               	goto	l8750
 14462                           	
 14463  18F9                     l5397:	
 14464                           	line	9
 14465                           	
 14466  18F9                     l8750:	
 14467  18F9  1003               	clrc
 14468  18FA  0DF0               	rlf	(___bmul@multiplicand),f
 14469                           
 14470                           	line	10
 14471                           	
 14472  18FB                     l8752:	
 14473  18FB  1003               	clrc
 14474  18FC  0CF3               	rrf	(___bmul@multiplier),f
 14475                           
 14476                           	line	11
 14477                           	
 14478  18FD                     l8754:	
 14479  18FD  08F3               	movf	(___bmul@multiplier),f
 14480  18FE  1D03               	skipz
 14481  18FF  2901               	goto	u4871
 14482  1900  2902               	goto	u4870
 14483  1901                     u4871:
 14484  1901  28F0               	goto	l5396
 14485  1902                     u4870:
 14486  1902  2903               	goto	l8756
 14487                           	
 14488  1903                     l5398:	
 14489                           	line	12
 14490                           	
 14491  1903                     l8756:	
 14492  1903  0872               	movf	(___bmul@product),w
 14493  1904  2905               	goto	l5399
 14494                           	
 14495  1905                     l8758:	
 14496                           	line	13
 14497                           	
 14498  1905                     l5399:	
 14499  1905  0008               	return
 14500                           	opt stack 0
 14501                           GLOBAL	__end_of___bmul
 14502  1906                     	__end_of___bmul:
 14503 ;; =============== function ___bmul ends ============
 14504                           
 14505                           	signat	___bmul,8313
 14506                           	global	_onthevalve
 14507                           psect	text806,local,class=CODE,delta=2
 14508                           global __ptext806
 14509  1B47                     __ptext806:
 14510                           
 14511 ;; *************** function _onthevalve *****************
 14512 ;; Defined at:
 14513 ;;		line 1046 in file "F:\BEVERAGES_ENHANCEMENT\SOFTWARE_DESIGN\MASTER_PIC_16F877A\2015_09_03\Beverage_services.c"
 14514 ;; Parameters:    Size  Location     Type
 14515 ;;		None
 14516 ;; Auto vars:     Size  Location     Type
 14517 ;;		None
 14518 ;; Return value:  Size  Location     Type
 14519 ;;		None               void
 14520 ;; Registers used:
 14521 ;;		wreg, fsr0l, fsr0h, status,2, status,0
 14522 ;; Tracked objects:
 14523 ;;		On entry : 0/0
 14524 ;;		On exit  : 0/0
 14525 ;;		Unchanged: 0/0
 14526 ;; Data sizes:     COMMON   BANK0   BANK1   BANK3   BANK2
 14527 ;;      Params:         0       0       0       0       0
 14528 ;;      Locals:         0       0       0       0       0
 14529 ;;      Temps:          0       0       0       0       0
 14530 ;;      Totals:         0       0       0       0       0
 14531 ;;Total ram usage:        0 bytes
 14532 ;; Hardware stack levels used:    1
 14533 ;; This function calls:
 14534 ;;		Nothing
 14535 ;; This function is called by:
 14536 ;;		_enable_valves
 14537 ;;		_control_valve
 14538 ;; This function uses a non-reentrant model
 14539 ;;
 14540                           psect	text806
 14541                           	file	"F:\BEVERAGES_ENHANCEMENT\SOFTWARE_DESIGN\MASTER_PIC_16F877A\2015_09_03\Beverage_s
                                 ervices.c"
 14542                           	line	1046
 14543                           	global	__size_of_onthevalve
 14544  003B                     	__size_of_onthevalve	equ	__end_of_onthevalve-_onthevalve
 14545                           	
 14546  1B47                     _onthevalve:	
 14547                           	opt	stack 6
 14548                           ; Regs used in _onthevalve: [wreg-fsr0h+status,2+status,0]
 14549                           	line	1047
 14550                           	
 14551  1B47                     l8740:	
 14552                           ;Beverage_services.c: 1047: switch(_ON)
 14553  1B47  2B5F               	goto	l8744
 14554                           	line	1049
 14555                           ;Beverage_services.c: 1048: {
 14556                           ;Beverage_services.c: 1049: case _Milk_Valve_Forward:
 14557                           	
 14558  1B48                     l3391:	
 14559                           	line	1050
 14560                           ;Beverage_services.c: 1050: RA2=1;
 14561  1B48  1505               	bsf	(42/8),(42)&7
 14562                           	line	1051
 14563                           ;Beverage_services.c: 1051: RA4=0;
 14564  1B49  1205               	bcf	(44/8),(44)&7
 14565                           	line	1052
 14566                           ;Beverage_services.c: 1052: break;
 14567  1B4A  2B81               	goto	l3402
 14568                           	line	1053
 14569                           ;Beverage_services.c: 1053: case _Milk_Valve_Reverse:
 14570                           	
 14571  1B4B                     l3393:	
 14572                           	line	1054
 14573                           ;Beverage_services.c: 1054: RA2=0;
 14574  1B4B  1105               	bcf	(42/8),(42)&7
 14575                           	line	1055
 14576                           ;Beverage_services.c: 1055: RA4=1;
 14577  1B4C  1605               	bsf	(44/8),(44)&7
 14578                           	line	1056
 14579                           ;Beverage_services.c: 1056: break;
 14580  1B4D  2B81               	goto	l3402
 14581                           	line	1057
 14582                           ;Beverage_services.c: 1057: case _Mixing_Hot_Water_Valve:
 14583                           	
 14584  1B4E                     l3394:	
 14585                           	line	1058
 14586                           ;Beverage_services.c: 1058: RA5=1;
 14587  1B4E  1685               	bsf	(45/8),(45)&7
 14588                           	line	1059
 14589                           ;Beverage_services.c: 1059: break;
 14590  1B4F  2B81               	goto	l3402
 14591                           	line	1060
 14592                           ;Beverage_services.c: 1060: case _Hot_Water_Valve:
 14593                           	
 14594  1B50                     l3395:	
 14595                           	line	1061
 14596                           ;Beverage_services.c: 1061: RC0=1;
 14597  1B50  1407               	bsf	(56/8),(56)&7
 14598                           	line	1062
 14599                           ;Beverage_services.c: 1062: break;
 14600  1B51  2B81               	goto	l3402
 14601                           	line	1063
 14602                           ;Beverage_services.c: 1063: case _Coffee_Hot_Water_Valve:
 14603                           	
 14604  1B52                     l3396:	
 14605                           	line	1064
 14606                           ;Beverage_services.c: 1064: RC1=1;
 14607  1B52  1487               	bsf	(57/8),(57)&7
 14608                           	line	1065
 14609                           ;Beverage_services.c: 1065: break;
 14610  1B53  2B81               	goto	l3402
 14611                           	line	1066
 14612                           ;Beverage_services.c: 1066: case _Coffee_Valve:
 14613                           	
 14614  1B54                     l3397:	
 14615                           	line	1067
 14616                           ;Beverage_services.c: 1067: RE0=1;
 14617  1B54  1409               	bsf	(72/8),(72)&7
 14618                           	line	1068
 14619                           ;Beverage_services.c: 1068: break;
 14620  1B55  2B81               	goto	l3402
 14621                           	line	1069
 14622                           ;Beverage_services.c: 1069: case _Tea_Hot_Water_Valve:
 14623                           	
 14624  1B56                     l3398:	
 14625                           	line	1070
 14626                           ;Beverage_services.c: 1070: RC2=1;
 14627  1B56  1507               	bsf	(58/8),(58)&7
 14628                           	line	1071
 14629                           ;Beverage_services.c: 1071: break;
 14630  1B57  2B81               	goto	l3402
 14631                           	line	1072
 14632                           ;Beverage_services.c: 1072: case _Tea_Valve:
 14633                           	
 14634  1B58                     l3399:	
 14635                           	line	1073
 14636                           ;Beverage_services.c: 1073: RE1=1;
 14637  1B58  1489               	bsf	(73/8),(73)&7
 14638                           	line	1074
 14639                           ;Beverage_services.c: 1074: break;
 14640  1B59  2B81               	goto	l3402
 14641                           	line	1075
 14642                           ;Beverage_services.c: 1075: case _Viber_Motor:
 14643                           	
 14644  1B5A                     l3400:	
 14645                           	line	1076
 14646                           ;Beverage_services.c: 1076: RE2=1;
 14647  1B5A  1509               	bsf	(74/8),(74)&7
 14648                           	line	1077
 14649                           ;Beverage_services.c: 1077: break;
 14650  1B5B  2B81               	goto	l3402
 14651                           	line	1078
 14652                           ;Beverage_services.c: 1078: case _Heater1:
 14653                           	
 14654  1B5C                     l3401:	
 14655                           	line	1079
 14656                           ;Beverage_services.c: 1079: RC3=1;
 14657  1B5C  1587               	bsf	(59/8),(59)&7
 14658                           	line	1080
 14659                           ;Beverage_services.c: 1080: break;
 14660  1B5D  2B81               	goto	l3402
 14661                           	line	1081
 14662                           	
 14663  1B5E                     l8742:	
 14664                           ;Beverage_services.c: 1081: }
 14665  1B5E  2B81               	goto	l3402
 14666                           	line	1047
 14667                           	
 14668  1B5F                     l3390:	
 14669                           	
 14670  1B5F                     l8744:	
 14671  1B5F  1283               	bcf	status, 5	;RP0=0, select bank0
 14672  1B60  1303               	bcf	status, 6	;RP1=0, select bank0
 14673  1B61  083A               	movf	(__ON),w
 14674                           	; Switch size 1, requested type "space"
 14675                           ; Number of cases is 10, Range of values is 1 to 10
 14676                           ; switch strategies available:
 14677                           ; Name         Instructions Cycles
 14678                           ; simple_byte           31    16 (average)
 14679                           ; direct_byte           41    11 (fixed)
 14680                           ; jumptable            263     9 (fixed)
 14681                           ;	Chosen strategy is simple_byte
 14682                           
 14683                           	opt asmopt_off
 14684  1B62  3A01               	xorlw	1^0	; case 1
 14685  1B63  1903               	skipnz
 14686  1B64  2B48               	goto	l3391
 14687  1B65  3A03               	xorlw	2^1	; case 2
 14688  1B66  1903               	skipnz
 14689  1B67  2B4B               	goto	l3393
 14690  1B68  3A01               	xorlw	3^2	; case 3
 14691  1B69  1903               	skipnz
 14692  1B6A  2B4E               	goto	l3394
 14693  1B6B  3A07               	xorlw	4^3	; case 4
 14694  1B6C  1903               	skipnz
 14695  1B6D  2B50               	goto	l3395
 14696  1B6E  3A01               	xorlw	5^4	; case 5
 14697  1B6F  1903               	skipnz
 14698  1B70  2B52               	goto	l3396
 14699  1B71  3A03               	xorlw	6^5	; case 6
 14700  1B72  1903               	skipnz
 14701  1B73  2B54               	goto	l3397
 14702  1B74  3A01               	xorlw	7^6	; case 7
 14703  1B75  1903               	skipnz
 14704  1B76  2B56               	goto	l3398
 14705  1B77  3A0F               	xorlw	8^7	; case 8
 14706  1B78  1903               	skipnz
 14707  1B79  2B58               	goto	l3399
 14708  1B7A  3A01               	xorlw	9^8	; case 9
 14709  1B7B  1903               	skipnz
 14710  1B7C  2B5A               	goto	l3400
 14711  1B7D  3A03               	xorlw	10^9	; case 10
 14712  1B7E  1903               	skipnz
 14713  1B7F  2B5C               	goto	l3401
 14714  1B80  2B81               	goto	l3402
 14715                           	opt asmopt_on
 14716                           
 14717                           	line	1081
 14718                           	
 14719  1B81                     l3392:	
 14720                           	line	1082
 14721                           	
 14722  1B81                     l3402:	
 14723  1B81  0008               	return
 14724                           	opt stack 0
 14725                           GLOBAL	__end_of_onthevalve
 14726  1B82                     	__end_of_onthevalve:
 14727 ;; =============== function _onthevalve ends ============
 14728                           
 14729                           	signat	_onthevalve,88
 14730                           	global	_offthevalve
 14731                           psect	text807,local,class=CODE,delta=2
 14732                           global __ptext807
 14733  1B0D                     __ptext807:
 14734                           
 14735 ;; *************** function _offthevalve *****************
 14736 ;; Defined at:
 14737 ;;		line 1085 in file "F:\BEVERAGES_ENHANCEMENT\SOFTWARE_DESIGN\MASTER_PIC_16F877A\2015_09_03\Beverage_services.c"
 14738 ;; Parameters:    Size  Location     Type
 14739 ;;		None
 14740 ;; Auto vars:     Size  Location     Type
 14741 ;;		None
 14742 ;; Return value:  Size  Location     Type
 14743 ;;		None               void
 14744 ;; Registers used:
 14745 ;;		wreg, fsr0l, fsr0h, status,2, status,0
 14746 ;; Tracked objects:
 14747 ;;		On entry : 0/0
 14748 ;;		On exit  : 0/0
 14749 ;;		Unchanged: 0/0
 14750 ;; Data sizes:     COMMON   BANK0   BANK1   BANK3   BANK2
 14751 ;;      Params:         0       0       0       0       0
 14752 ;;      Locals:         0       0       0       0       0
 14753 ;;      Temps:          0       0       0       0       0
 14754 ;;      Totals:         0       0       0       0       0
 14755 ;;Total ram usage:        0 bytes
 14756 ;; Hardware stack levels used:    1
 14757 ;; This function calls:
 14758 ;;		Nothing
 14759 ;; This function is called by:
 14760 ;;		_enable_valves
 14761 ;;		_control_valve
 14762 ;; This function uses a non-reentrant model
 14763 ;;
 14764                           psect	text807
 14765                           	file	"F:\BEVERAGES_ENHANCEMENT\SOFTWARE_DESIGN\MASTER_PIC_16F877A\2015_09_03\Beverage_s
                                 ervices.c"
 14766                           	line	1085
 14767                           	global	__size_of_offthevalve
 14768  003A                     	__size_of_offthevalve	equ	__end_of_offthevalve-_offthevalve
 14769                           	
 14770  1B0D                     _offthevalve:	
 14771                           	opt	stack 6
 14772                           ; Regs used in _offthevalve: [wreg-fsr0h+status,2+status,0]
 14773                           	line	1086
 14774                           	
 14775  1B0D                     l8734:	
 14776                           ;Beverage_services.c: 1086: switch(_OFF)
 14777  1B0D  2B24               	goto	l8738
 14778                           	line	1088
 14779                           ;Beverage_services.c: 1087: {
 14780                           ;Beverage_services.c: 1088: case _Milk_Valve_Forward:
 14781                           	
 14782  1B0E                     l3406:	
 14783                           	line	1089
 14784                           ;Beverage_services.c: 1089: RA2=0;
 14785  1B0E  1105               	bcf	(42/8),(42)&7
 14786                           	line	1090
 14787                           ;Beverage_services.c: 1090: RA4=0;
 14788  1B0F  1205               	bcf	(44/8),(44)&7
 14789                           	line	1091
 14790                           ;Beverage_services.c: 1091: case _Milk_Valve_Reverse:
 14791                           	
 14792  1B10                     l3407:	
 14793                           	line	1092
 14794                           ;Beverage_services.c: 1092: RA2=0;
 14795  1B10  1105               	bcf	(42/8),(42)&7
 14796                           	line	1093
 14797                           ;Beverage_services.c: 1093: RA4=0;
 14798  1B11  1205               	bcf	(44/8),(44)&7
 14799                           	line	1094
 14800                           ;Beverage_services.c: 1094: break;
 14801  1B12  2B46               	goto	l3417
 14802                           	line	1095
 14803                           ;Beverage_services.c: 1095: case _Mixing_Hot_Water_Valve:
 14804                           	
 14805  1B13                     l3409:	
 14806                           	line	1096
 14807                           ;Beverage_services.c: 1096: RA5=0;
 14808  1B13  1285               	bcf	(45/8),(45)&7
 14809                           	line	1097
 14810                           ;Beverage_services.c: 1097: break;
 14811  1B14  2B46               	goto	l3417
 14812                           	line	1098
 14813                           ;Beverage_services.c: 1098: case _Hot_Water_Valve:
 14814                           	
 14815  1B15                     l3410:	
 14816                           	line	1099
 14817                           ;Beverage_services.c: 1099: RC0=0;
 14818  1B15  1007               	bcf	(56/8),(56)&7
 14819                           	line	1100
 14820                           ;Beverage_services.c: 1100: break;
 14821  1B16  2B46               	goto	l3417
 14822                           	line	1101
 14823                           ;Beverage_services.c: 1101: case _Coffee_Hot_Water_Valve:
 14824                           	
 14825  1B17                     l3411:	
 14826                           	line	1102
 14827                           ;Beverage_services.c: 1102: RC1=0;
 14828  1B17  1087               	bcf	(57/8),(57)&7
 14829                           	line	1103
 14830                           ;Beverage_services.c: 1103: break;
 14831  1B18  2B46               	goto	l3417
 14832                           	line	1104
 14833                           ;Beverage_services.c: 1104: case _Coffee_Valve:
 14834                           	
 14835  1B19                     l3412:	
 14836                           	line	1105
 14837                           ;Beverage_services.c: 1105: RE0=0;
 14838  1B19  1009               	bcf	(72/8),(72)&7
 14839                           	line	1106
 14840                           ;Beverage_services.c: 1106: break;
 14841  1B1A  2B46               	goto	l3417
 14842                           	line	1107
 14843                           ;Beverage_services.c: 1107: case _Tea_Hot_Water_Valve:
 14844                           	
 14845  1B1B                     l3413:	
 14846                           	line	1108
 14847                           ;Beverage_services.c: 1108: RC2=0;
 14848  1B1B  1107               	bcf	(58/8),(58)&7
 14849                           	line	1109
 14850                           ;Beverage_services.c: 1109: break;
 14851  1B1C  2B46               	goto	l3417
 14852                           	line	1110
 14853                           ;Beverage_services.c: 1110: case _Tea_Valve:
 14854                           	
 14855  1B1D                     l3414:	
 14856                           	line	1111
 14857                           ;Beverage_services.c: 1111: RE1=0;
 14858  1B1D  1089               	bcf	(73/8),(73)&7
 14859                           	line	1112
 14860                           ;Beverage_services.c: 1112: break;
 14861  1B1E  2B46               	goto	l3417
 14862                           	line	1113
 14863                           ;Beverage_services.c: 1113: case _Viber_Motor:
 14864                           	
 14865  1B1F                     l3415:	
 14866                           	line	1114
 14867                           ;Beverage_services.c: 1114: RE2=0;
 14868  1B1F  1109               	bcf	(74/8),(74)&7
 14869                           	line	1115
 14870                           ;Beverage_services.c: 1115: break;
 14871  1B20  2B46               	goto	l3417
 14872                           	line	1116
 14873                           ;Beverage_services.c: 1116: case _Heater1:
 14874                           	
 14875  1B21                     l3416:	
 14876                           	line	1117
 14877                           ;Beverage_services.c: 1117: RC3=0;
 14878  1B21  1187               	bcf	(59/8),(59)&7
 14879                           	line	1118
 14880                           ;Beverage_services.c: 1118: break;
 14881  1B22  2B46               	goto	l3417
 14882                           	line	1119
 14883                           	
 14884  1B23                     l8736:	
 14885                           ;Beverage_services.c: 1119: }
 14886  1B23  2B46               	goto	l3417
 14887                           	line	1086
 14888                           	
 14889  1B24                     l3405:	
 14890                           	
 14891  1B24                     l8738:	
 14892  1B24  1283               	bcf	status, 5	;RP0=0, select bank0
 14893  1B25  1303               	bcf	status, 6	;RP1=0, select bank0
 14894  1B26  0839               	movf	(__OFF),w
 14895                           	; Switch size 1, requested type "space"
 14896                           ; Number of cases is 10, Range of values is 1 to 10
 14897                           ; switch strategies available:
 14898                           ; Name         Instructions Cycles
 14899                           ; simple_byte           31    16 (average)
 14900                           ; direct_byte           41    11 (fixed)
 14901                           ; jumptable            263     9 (fixed)
 14902                           ;	Chosen strategy is simple_byte
 14903                           
 14904                           	opt asmopt_off
 14905  1B27  3A01               	xorlw	1^0	; case 1
 14906  1B28  1903               	skipnz
 14907  1B29  2B0E               	goto	l3406
 14908  1B2A  3A03               	xorlw	2^1	; case 2
 14909  1B2B  1903               	skipnz
 14910  1B2C  2B10               	goto	l3407
 14911  1B2D  3A01               	xorlw	3^2	; case 3
 14912  1B2E  1903               	skipnz
 14913  1B2F  2B13               	goto	l3409
 14914  1B30  3A07               	xorlw	4^3	; case 4
 14915  1B31  1903               	skipnz
 14916  1B32  2B15               	goto	l3410
 14917  1B33  3A01               	xorlw	5^4	; case 5
 14918  1B34  1903               	skipnz
 14919  1B35  2B17               	goto	l3411
 14920  1B36  3A03               	xorlw	6^5	; case 6
 14921  1B37  1903               	skipnz
 14922  1B38  2B19               	goto	l3412
 14923  1B39  3A01               	xorlw	7^6	; case 7
 14924  1B3A  1903               	skipnz
 14925  1B3B  2B1B               	goto	l3413
 14926  1B3C  3A0F               	xorlw	8^7	; case 8
 14927  1B3D  1903               	skipnz
 14928  1B3E  2B1D               	goto	l3414
 14929  1B3F  3A01               	xorlw	9^8	; case 9
 14930  1B40  1903               	skipnz
 14931  1B41  2B1F               	goto	l3415
 14932  1B42  3A03               	xorlw	10^9	; case 10
 14933  1B43  1903               	skipnz
 14934  1B44  2B21               	goto	l3416
 14935  1B45  2B46               	goto	l3417
 14936                           	opt asmopt_on
 14937                           
 14938                           	line	1119
 14939                           	
 14940  1B46                     l3408:	
 14941                           	line	1120
 14942                           	
 14943  1B46                     l3417:	
 14944  1B46  0008               	return
 14945                           	opt stack 0
 14946                           GLOBAL	__end_of_offthevalve
 14947  1B47                     	__end_of_offthevalve:
 14948 ;; =============== function _offthevalve ends ============
 14949                           
 14950                           	signat	_offthevalve,88
 14951                           	global	_eeprom_write
 14952                           psect	text808,local,class=CODE,delta=2
 14953                           global __ptext808
 14954  19FD                     __ptext808:
 14955                           
 14956 ;; *************** function _eeprom_write *****************
 14957 ;; Defined at:
 14958 ;;		line 7 in file "C:\Program Files\HI-TECH Software\PICC\9.82\sources\eewrite.c"
 14959 ;; Parameters:    Size  Location     Type
 14960 ;;  addr            1    wreg     unsigned char 
 14961 ;;  value           1    6[COMMON] unsigned char 
 14962 ;; Auto vars:     Size  Location     Type
 14963 ;;  addr            1    8[COMMON] unsigned char 
 14964 ;; Return value:  Size  Location     Type
 14965 ;;                  1    wreg      unsigned char 
 14966 ;; Registers used:
 14967 ;;		wreg, status,2, status,0
 14968 ;; Tracked objects:
 14969 ;;		On entry : 0/0
 14970 ;;		On exit  : 0/0
 14971 ;;		Unchanged: 0/0
 14972 ;; Data sizes:     COMMON   BANK0   BANK1   BANK3   BANK2
 14973 ;;      Params:         1       0       0       0       0
 14974 ;;      Locals:         1       0       0       0       0
 14975 ;;      Temps:          1       0       0       0       0
 14976 ;;      Totals:         3       0       0       0       0
 14977 ;;Total ram usage:        3 bytes
 14978 ;; Hardware stack levels used:    1
 14979 ;; This function calls:
 14980 ;;		Nothing
 14981 ;; This function is called by:
 14982 ;;		_Mode_Init
 14983 ;;		_enable_valves
 14984 ;;		_call_control_valve
 14985 ;;		_count_write
 14986 ;;		_Write_ValveIn_Memory
 14987 ;; This function uses a non-reentrant model
 14988 ;;
 14989                           psect	text808
 14990                           	file	"C:\Program Files\HI-TECH Software\PICC\9.82\sources\eewrite.c"
 14991                           	line	7
 14992                           	global	__size_of_eeprom_write
 14993  0031                     	__size_of_eeprom_write	equ	__end_of_eeprom_write-_eeprom_write
 14994                           	
 14995  19FD                     _eeprom_write:	
 14996                           	opt	stack 5
 14997                           ; Regs used in _eeprom_write: [wreg+status,2+status,0]
 14998                           ;eeprom_write@addr stored from wreg
 14999  19FD  00F8               	movwf	(eeprom_write@addr)
 15000                           	line	8
 15001                           	
 15002  19FE                     l4706:	
 15003  19FE  29FF               	goto	l4707
 15004                           	
 15005  19FF                     l4708:	
 15006                           	
 15007  19FF                     l4707:	
 15008  19FF  1683               	bsf	status, 5	;RP0=1, select bank3
 15009  1A00  1703               	bsf	status, 6	;RP1=1, select bank3
 15010  1A01  188C               	btfsc	(3169/8)^0180h,(3169)&7
 15011  1A02  2A04               	goto	u4831
 15012  1A03  2A05               	goto	u4830
 15013  1A04                     u4831:
 15014  1A04  29FF               	goto	l4707
 15015  1A05                     u4830:
 15016  1A05  2A06               	goto	l8714
 15017                           	
 15018  1A06                     l4709:	
 15019                           	
 15020  1A06                     l8714:	
 15021  1A06  0878               	movf	(eeprom_write@addr),w
 15022  1A07  1283               	bcf	status, 5	;RP0=0, select bank2
 15023  1A08  1703               	bsf	status, 6	;RP1=1, select bank2
 15024  1A09  008D               	movwf	(269)^0100h	;volatile
 15025  1A0A  0876               	movf	(eeprom_write@value),w
 15026  1A0B  008C               	movwf	(268)^0100h	;volatile
 15027                           	
 15028  1A0C                     l8716:	
 15029  1A0C  303F               	movlw	(03Fh)
 15030  1A0D  00F7               	movwf	(??_eeprom_write+0)+0
 15031  1A0E  0877               	movf	(??_eeprom_write+0)+0,w
 15032  1A0F  1683               	bsf	status, 5	;RP0=1, select bank3
 15033  1A10  1703               	bsf	status, 6	;RP1=1, select bank3
 15034  1A11  058C               	andwf	(396)^0180h,f	;volatile
 15035                           	
 15036  1A12                     l8718:	
 15037  1A12  1283               	bcf	status, 5	;RP0=0, select bank0
 15038  1A13  1303               	bcf	status, 6	;RP1=0, select bank0
 15039  1A14  1003               	bcf	(24/8),(24)&7
 15040                           	
 15041  1A15                     l8720:	
 15042  1A15  1F8B               	btfss	(95/8),(95)&7
 15043  1A16  2A18               	goto	u4841
 15044  1A17  2A19               	goto	u4840
 15045  1A18                     u4841:
 15046  1A18  2A1A               	goto	l4710
 15047  1A19                     u4840:
 15048                           	
 15049  1A19                     l8722:	
 15050  1A19  1403               	bsf	(24/8),(24)&7
 15051                           	
 15052  1A1A                     l4710:	
 15053  1A1A  138B               	bcf	(95/8),(95)&7
 15054  1A1B  1683               	bsf	status, 5	;RP0=1, select bank3
 15055  1A1C  1703               	bsf	status, 6	;RP1=1, select bank3
 15056  1A1D  150C               	bsf	(3170/8)^0180h,(3170)&7
 15057                           	
 15058  1A1E                     l8724:	
 15059  1A1E  3055               	movlw	(055h)
 15060  1A1F  008D               	movwf	(397)^0180h	;volatile
 15061  1A20  30AA               	movlw	(0AAh)
 15062  1A21  008D               	movwf	(397)^0180h	;volatile
 15063                           	
 15064  1A22                     l8726:	
 15065  1A22  148C               	bsf	(3169/8)^0180h,(3169)&7
 15066                           	
 15067  1A23                     l8728:	
 15068  1A23  110C               	bcf	(3170/8)^0180h,(3170)&7
 15069                           	
 15070  1A24                     l8730:	
 15071  1A24  1283               	bcf	status, 5	;RP0=0, select bank0
 15072  1A25  1303               	bcf	status, 6	;RP1=0, select bank0
 15073  1A26  1C03               	btfss	(24/8),(24)&7
 15074  1A27  2A29               	goto	u4851
 15075  1A28  2A2A               	goto	u4850
 15076  1A29                     u4851:
 15077  1A29  2A2D               	goto	l4713
 15078  1A2A                     u4850:
 15079                           	
 15080  1A2A                     l8732:	
 15081  1A2A  178B               	bsf	(95/8),(95)&7
 15082  1A2B  2A2D               	goto	l4713
 15083                           	
 15084  1A2C                     l4711:	
 15085  1A2C  2A2D               	goto	l4713
 15086                           	
 15087  1A2D                     l4712:	
 15088                           	line	10
 15089                           ;	Return value of _eeprom_write is never used
 15090                           	
 15091  1A2D                     l4713:	
 15092  1A2D  0008               	return
 15093                           	opt stack 0
 15094                           GLOBAL	__end_of_eeprom_write
 15095  1A2E                     	__end_of_eeprom_write:
 15096 ;; =============== function _eeprom_write ends ============
 15097                           
 15098                           	signat	_eeprom_write,8313
 15099                           	global	_key_press
 15100                           psect	text809,local,class=CODE,delta=2
 15101                           global __ptext809
 15102  005C                     __ptext809:
 15103                           
 15104 ;; *************** function _key_press *****************
 15105 ;; Defined at:
 15106 ;;		line 99 in file "F:\BEVERAGES_ENHANCEMENT\SOFTWARE_DESIGN\MASTER_PIC_16F877A\2015_09_03\Beverage_services.c"
 15107 ;; Parameters:    Size  Location     Type
 15108 ;;		None
 15109 ;; Auto vars:     Size  Location     Type
 15110 ;;		None
 15111 ;; Return value:  Size  Location     Type
 15112 ;;		None               void
 15113 ;; Registers used:
 15114 ;;		wreg, status,2, status,0
 15115 ;; Tracked objects:
 15116 ;;		On entry : 0/0
 15117 ;;		On exit  : 0/0
 15118 ;;		Unchanged: 0/0
 15119 ;; Data sizes:     COMMON   BANK0   BANK1   BANK3   BANK2
 15120 ;;      Params:         0       0       0       0       0
 15121 ;;      Locals:         0       0       0       0       0
 15122 ;;      Temps:          1       0       0       0       0
 15123 ;;      Totals:         1       0       0       0       0
 15124 ;;Total ram usage:        1 bytes
 15125 ;; Hardware stack levels used:    1
 15126 ;; This function calls:
 15127 ;;		Nothing
 15128 ;; This function is called by:
 15129 ;;		_main
 15130 ;;		_enable_valves
 15131 ;; This function uses a non-reentrant model
 15132 ;;
 15133                           psect	text809
 15134                           	file	"F:\BEVERAGES_ENHANCEMENT\SOFTWARE_DESIGN\MASTER_PIC_16F877A\2015_09_03\Beverage_s
                                 ervices.c"
 15135                           	line	99
 15136                           	global	__size_of_key_press
 15137  009C                     	__size_of_key_press	equ	__end_of_key_press-_key_press
 15138                           	
 15139  005C                     _key_press:	
 15140                           	opt	stack 6
 15141                           ; Regs used in _key_press: [wreg+status,2+status,0]
 15142                           	line	100
 15143                           	
 15144  005C                     l8648:	
 15145                           ;Beverage_services.c: 100: if(!RB0 || !RB1 || !RB2 || !RB3 || !RB4 || !RB5 || !RB6 || !R
                                 B7 || !RC4 || !RC5)
 15146  005C  1283               	bcf	status, 5	;RP0=0, select bank0
 15147  005D  1303               	bcf	status, 6	;RP1=0, select bank0
 15148  005E  1C06               	btfss	(48/8),(48)&7
 15149  005F  2861               	goto	u4611
 15150  0060  2862               	goto	u4610
 15151  0061                     u4611:
 15152  0061  2886               	goto	l3120
 15153  0062                     u4610:
 15154                           	
 15155  0062                     l8650:	
 15156  0062  1C86               	btfss	(49/8),(49)&7
 15157  0063  2865               	goto	u4621
 15158  0064  2866               	goto	u4620
 15159  0065                     u4621:
 15160  0065  2886               	goto	l3120
 15161  0066                     u4620:
 15162                           	
 15163  0066                     l8652:	
 15164  0066  1D06               	btfss	(50/8),(50)&7
 15165  0067  2869               	goto	u4631
 15166  0068  286A               	goto	u4630
 15167  0069                     u4631:
 15168  0069  2886               	goto	l3120
 15169  006A                     u4630:
 15170                           	
 15171  006A                     l8654:	
 15172  006A  1D86               	btfss	(51/8),(51)&7
 15173  006B  286D               	goto	u4641
 15174  006C  286E               	goto	u4640
 15175  006D                     u4641:
 15176  006D  2886               	goto	l3120
 15177  006E                     u4640:
 15178                           	
 15179  006E                     l8656:	
 15180  006E  1E06               	btfss	(52/8),(52)&7
 15181  006F  2871               	goto	u4651
 15182  0070  2872               	goto	u4650
 15183  0071                     u4651:
 15184  0071  2886               	goto	l3120
 15185  0072                     u4650:
 15186                           	
 15187  0072                     l8658:	
 15188  0072  1E86               	btfss	(53/8),(53)&7
 15189  0073  2875               	goto	u4661
 15190  0074  2876               	goto	u4660
 15191  0075                     u4661:
 15192  0075  2886               	goto	l3120
 15193  0076                     u4660:
 15194                           	
 15195  0076                     l8660:	
 15196  0076  1F06               	btfss	(54/8),(54)&7
 15197  0077  2879               	goto	u4671
 15198  0078  287A               	goto	u4670
 15199  0079                     u4671:
 15200  0079  2886               	goto	l3120
 15201  007A                     u4670:
 15202                           	
 15203  007A                     l8662:	
 15204  007A  1F86               	btfss	(55/8),(55)&7
 15205  007B  287D               	goto	u4681
 15206  007C  287E               	goto	u4680
 15207  007D                     u4681:
 15208  007D  2886               	goto	l3120
 15209  007E                     u4680:
 15210                           	
 15211  007E                     l8664:	
 15212  007E  1E07               	btfss	(60/8),(60)&7
 15213  007F  2881               	goto	u4691
 15214  0080  2882               	goto	u4690
 15215  0081                     u4691:
 15216  0081  2886               	goto	l3120
 15217  0082                     u4690:
 15218                           	
 15219  0082                     l8666:	
 15220  0082  1A87               	btfsc	(61/8),(61)&7
 15221  0083  2885               	goto	u4701
 15222  0084  2886               	goto	u4700
 15223  0085                     u4701:
 15224  0085  28E8               	goto	l8710
 15225  0086                     u4700:
 15226                           	
 15227  0086                     l3120:	
 15228                           	line	102
 15229                           ;Beverage_services.c: 101: {
 15230                           ;Beverage_services.c: 102: if(RC5==0)
 15231  0086  1A87               	btfsc	(61/8),(61)&7
 15232  0087  2889               	goto	u4711
 15233  0088  288A               	goto	u4710
 15234  0089                     u4711:
 15235  0089  288E               	goto	l8670
 15236  008A                     u4710:
 15237                           	line	104
 15238                           	
 15239  008A                     l8668:	
 15240                           ;Beverage_services.c: 103: {
 15241                           ;Beverage_services.c: 104: _PRESSED=_NORMAL_COFFEE_BUTTON;
 15242  008A  01BB               	clrf	(__PRESSED)
 15243  008B  1403               	bsf	status,0
 15244  008C  0DBB               	rlf	(__PRESSED),f
 15245  008D  288E               	goto	l8670
 15246                           	line	105
 15247                           	
 15248  008E                     l3121:	
 15249                           	line	106
 15250                           	
 15251  008E                     l8670:	
 15252                           ;Beverage_services.c: 105: }
 15253                           ;Beverage_services.c: 106: if(RC4==0)
 15254  008E  1A07               	btfsc	(60/8),(60)&7
 15255  008F  2891               	goto	u4721
 15256  0090  2892               	goto	u4720
 15257  0091                     u4721:
 15258  0091  2897               	goto	l8674
 15259  0092                     u4720:
 15260                           	line	108
 15261                           	
 15262  0092                     l8672:	
 15263                           ;Beverage_services.c: 107: {
 15264                           ;Beverage_services.c: 108: _PRESSED=_NORMAL_TEA_BUTTON;
 15265  0092  3002               	movlw	(02h)
 15266  0093  00F0               	movwf	(??_key_press+0)+0
 15267  0094  0870               	movf	(??_key_press+0)+0,w
 15268  0095  00BB               	movwf	(__PRESSED)
 15269  0096  2897               	goto	l8674
 15270                           	line	109
 15271                           	
 15272  0097                     l3122:	
 15273                           	line	110
 15274                           	
 15275  0097                     l8674:	
 15276                           ;Beverage_services.c: 109: }
 15277                           ;Beverage_services.c: 110: if(RB0==0)
 15278  0097  1806               	btfsc	(48/8),(48)&7
 15279  0098  289A               	goto	u4731
 15280  0099  289B               	goto	u4730
 15281  009A                     u4731:
 15282  009A  28A0               	goto	l8678
 15283  009B                     u4730:
 15284                           	line	112
 15285                           	
 15286  009B                     l8676:	
 15287                           ;Beverage_services.c: 111: {
 15288                           ;Beverage_services.c: 112: _PRESSED=_LIGHT_COFFEE_BUTTON;
 15289  009B  3003               	movlw	(03h)
 15290  009C  00F0               	movwf	(??_key_press+0)+0
 15291  009D  0870               	movf	(??_key_press+0)+0,w
 15292  009E  00BB               	movwf	(__PRESSED)
 15293  009F  28A0               	goto	l8678
 15294                           	line	113
 15295                           	
 15296  00A0                     l3123:	
 15297                           	line	114
 15298                           	
 15299  00A0                     l8678:	
 15300                           ;Beverage_services.c: 113: }
 15301                           ;Beverage_services.c: 114: if(RB1==0)
 15302  00A0  1886               	btfsc	(49/8),(49)&7
 15303  00A1  28A3               	goto	u4741
 15304  00A2  28A4               	goto	u4740
 15305  00A3                     u4741:
 15306  00A3  28A9               	goto	l8682
 15307  00A4                     u4740:
 15308                           	line	116
 15309                           	
 15310  00A4                     l8680:	
 15311                           ;Beverage_services.c: 115: {
 15312                           ;Beverage_services.c: 116: _PRESSED=_LIGHT_TEA_BUTTON;
 15313  00A4  3004               	movlw	(04h)
 15314  00A5  00F0               	movwf	(??_key_press+0)+0
 15315  00A6  0870               	movf	(??_key_press+0)+0,w
 15316  00A7  00BB               	movwf	(__PRESSED)
 15317  00A8  28A9               	goto	l8682
 15318                           	line	117
 15319                           	
 15320  00A9                     l3124:	
 15321                           	line	118
 15322                           	
 15323  00A9                     l8682:	
 15324                           ;Beverage_services.c: 117: }
 15325                           ;Beverage_services.c: 118: if(RB2==0)
 15326  00A9  1906               	btfsc	(50/8),(50)&7
 15327  00AA  28AC               	goto	u4751
 15328  00AB  28AD               	goto	u4750
 15329  00AC                     u4751:
 15330  00AC  28B2               	goto	l8686
 15331  00AD                     u4750:
 15332                           	line	120
 15333                           	
 15334  00AD                     l8684:	
 15335                           ;Beverage_services.c: 119: {
 15336                           ;Beverage_services.c: 120: _PRESSED=_BLACK_COFFEE_BUTTON;
 15337  00AD  3005               	movlw	(05h)
 15338  00AE  00F0               	movwf	(??_key_press+0)+0
 15339  00AF  0870               	movf	(??_key_press+0)+0,w
 15340  00B0  00BB               	movwf	(__PRESSED)
 15341  00B1  28B2               	goto	l8686
 15342                           	line	121
 15343                           	
 15344  00B2                     l3125:	
 15345                           	line	122
 15346                           	
 15347  00B2                     l8686:	
 15348                           ;Beverage_services.c: 121: }
 15349                           ;Beverage_services.c: 122: if(RB3==0)
 15350  00B2  1986               	btfsc	(51/8),(51)&7
 15351  00B3  28B5               	goto	u4761
 15352  00B4  28B6               	goto	u4760
 15353  00B5                     u4761:
 15354  00B5  28BB               	goto	l8690
 15355  00B6                     u4760:
 15356                           	line	124
 15357                           	
 15358  00B6                     l8688:	
 15359                           ;Beverage_services.c: 123: {
 15360                           ;Beverage_services.c: 124: _PRESSED=_BLACK_TEA_BUTTON;
 15361  00B6  3006               	movlw	(06h)
 15362  00B7  00F0               	movwf	(??_key_press+0)+0
 15363  00B8  0870               	movf	(??_key_press+0)+0,w
 15364  00B9  00BB               	movwf	(__PRESSED)
 15365  00BA  28BB               	goto	l8690
 15366                           	line	125
 15367                           	
 15368  00BB                     l3126:	
 15369                           	line	126
 15370                           	
 15371  00BB                     l8690:	
 15372                           ;Beverage_services.c: 125: }
 15373                           ;Beverage_services.c: 126: if(RB4==0)
 15374  00BB  1A06               	btfsc	(52/8),(52)&7
 15375  00BC  28BE               	goto	u4771
 15376  00BD  28BF               	goto	u4770
 15377  00BE                     u4771:
 15378  00BE  28C4               	goto	l8694
 15379  00BF                     u4770:
 15380                           	line	128
 15381                           	
 15382  00BF                     l8692:	
 15383                           ;Beverage_services.c: 127: {
 15384                           ;Beverage_services.c: 128: _PRESSED=_MILK_BUTTON;
 15385  00BF  3007               	movlw	(07h)
 15386  00C0  00F0               	movwf	(??_key_press+0)+0
 15387  00C1  0870               	movf	(??_key_press+0)+0,w
 15388  00C2  00BB               	movwf	(__PRESSED)
 15389  00C3  28C4               	goto	l8694
 15390                           	line	129
 15391                           	
 15392  00C4                     l3127:	
 15393                           	line	130
 15394                           	
 15395  00C4                     l8694:	
 15396                           ;Beverage_services.c: 129: }
 15397                           ;Beverage_services.c: 130: if(RB5==0)
 15398  00C4  1A86               	btfsc	(53/8),(53)&7
 15399  00C5  28C7               	goto	u4781
 15400  00C6  28C8               	goto	u4780
 15401  00C7                     u4781:
 15402  00C7  28CD               	goto	l8698
 15403  00C8                     u4780:
 15404                           	line	132
 15405                           	
 15406  00C8                     l8696:	
 15407                           ;Beverage_services.c: 131: {
 15408                           ;Beverage_services.c: 132: _PRESSED=_HOT_WATER_BUTTON;
 15409  00C8  3009               	movlw	(09h)
 15410  00C9  00F0               	movwf	(??_key_press+0)+0
 15411  00CA  0870               	movf	(??_key_press+0)+0,w
 15412  00CB  00BB               	movwf	(__PRESSED)
 15413  00CC  28CD               	goto	l8698
 15414                           	line	133
 15415                           	
 15416  00CD                     l3128:	
 15417                           	line	134
 15418                           	
 15419  00CD                     l8698:	
 15420                           ;Beverage_services.c: 133: }
 15421                           ;Beverage_services.c: 134: if(RB6==0)
 15422  00CD  1B06               	btfsc	(54/8),(54)&7
 15423  00CE  28D0               	goto	u4791
 15424  00CF  28D1               	goto	u4790
 15425  00D0                     u4791:
 15426  00D0  28D6               	goto	l8702
 15427  00D1                     u4790:
 15428                           	line	136
 15429                           	
 15430  00D1                     l8700:	
 15431                           ;Beverage_services.c: 135: {
 15432                           ;Beverage_services.c: 136: _PRESSED=_EXTRA_BUTTON;
 15433  00D1  3008               	movlw	(08h)
 15434  00D2  00F0               	movwf	(??_key_press+0)+0
 15435  00D3  0870               	movf	(??_key_press+0)+0,w
 15436  00D4  00BB               	movwf	(__PRESSED)
 15437  00D5  28D6               	goto	l8702
 15438                           	line	137
 15439                           	
 15440  00D6                     l3129:	
 15441                           	line	138
 15442                           	
 15443  00D6                     l8702:	
 15444                           ;Beverage_services.c: 137: }
 15445                           ;Beverage_services.c: 138: if(RB7==0)
 15446  00D6  1B86               	btfsc	(55/8),(55)&7
 15447  00D7  28D9               	goto	u4801
 15448  00D8  28DA               	goto	u4800
 15449  00D9                     u4801:
 15450  00D9  28E8               	goto	l8710
 15451  00DA                     u4800:
 15452                           	line	140
 15453                           	
 15454  00DA                     l8704:	
 15455                           ;Beverage_services.c: 139: {
 15456                           ;Beverage_services.c: 140: _PRESSED=_MENU_BUTTON;
 15457  00DA  300A               	movlw	(0Ah)
 15458  00DB  00F0               	movwf	(??_key_press+0)+0
 15459  00DC  0870               	movf	(??_key_press+0)+0,w
 15460  00DD  00BB               	movwf	(__PRESSED)
 15461                           	line	141
 15462                           	
 15463  00DE                     l8706:	
 15464                           ;Beverage_services.c: 141: if(_SHORTCUT==1)
 15465  00DE  1D6E               	btfss	(__SHORTCUT/8),(__SHORTCUT)&7
 15466  00DF  28E1               	goto	u4811
 15467  00E0  28E2               	goto	u4810
 15468  00E1                     u4811:
 15469  00E1  28E4               	goto	l3131
 15470  00E2                     u4810:
 15471                           	line	142
 15472                           	
 15473  00E2                     l8708:	
 15474                           ;Beverage_services.c: 142: _SHORTCUT=0;
 15475  00E2  116E               	bcf	(__SHORTCUT/8),(__SHORTCUT)&7
 15476  00E3  28E8               	goto	l8710
 15477                           	line	143
 15478                           	
 15479  00E4                     l3131:	
 15480                           	line	144
 15481                           ;Beverage_services.c: 143: else
 15482                           ;Beverage_services.c: 144: _SHORTCUT=1;
 15483  00E4  156E               	bsf	(__SHORTCUT/8),(__SHORTCUT)&7
 15484  00E5  28E8               	goto	l8710
 15485                           	
 15486  00E6                     l3132:	
 15487  00E6  28E8               	goto	l8710
 15488                           	line	145
 15489                           	
 15490  00E7                     l3130:	
 15491  00E7  28E8               	goto	l8710
 15492                           	line	146
 15493                           	
 15494  00E8                     l3118:	
 15495                           	line	147
 15496                           	
 15497  00E8                     l8710:	
 15498                           ;Beverage_services.c: 145: }
 15499                           ;Beverage_services.c: 146: }
 15500                           ;Beverage_services.c: 147: if(_PRESSED!=_MENU_BUTTON)
 15501  00E8  083B               	movf	(__PRESSED),w
 15502  00E9  3A0A               	xorlw	0Ah
 15503  00EA  1903               	skipnz
 15504  00EB  28ED               	goto	u4821
 15505  00EC  28EE               	goto	u4820
 15506  00ED                     u4821:
 15507  00ED  28F7               	goto	l3134
 15508  00EE                     u4820:
 15509                           	line	149
 15510                           	
 15511  00EE                     l8712:	
 15512                           ;Beverage_services.c: 148: {
 15513                           ;Beverage_services.c: 149: _CHOICE_SELECTED=_PRESSED;
 15514  00EE  083B               	movf	(__PRESSED),w
 15515  00EF  00F0               	movwf	(??_key_press+0)+0
 15516  00F0  0870               	movf	(??_key_press+0)+0,w
 15517  00F1  00C8               	movwf	(__CHOICE_SELECTED)
 15518                           	line	150
 15519                           ;Beverage_services.c: 150: _SHORTCUT_PRESSED=_PRESSED;
 15520  00F2  083B               	movf	(__PRESSED),w
 15521  00F3  00F0               	movwf	(??_key_press+0)+0
 15522  00F4  0870               	movf	(??_key_press+0)+0,w
 15523  00F5  00BF               	movwf	(__SHORTCUT_PRESSED)
 15524  00F6  28F7               	goto	l3134
 15525                           	line	151
 15526                           	
 15527  00F7                     l3133:	
 15528                           	line	152
 15529                           	
 15530  00F7                     l3134:	
 15531  00F7  0008               	return
 15532                           	opt stack 0
 15533                           GLOBAL	__end_of_key_press
 15534  00F8                     	__end_of_key_press:
 15535 ;; =============== function _key_press ends ============
 15536                           
 15537                           	signat	_key_press,88
 15538                           	global	_eeprom_read
 15539                           psect	text810,local,class=CODE,delta=2
 15540                           global __ptext810
 15541  191F                     __ptext810:
 15542                           
 15543 ;; *************** function _eeprom_read *****************
 15544 ;; Defined at:
 15545 ;;		line 7 in file "eeread.c"
 15546 ;; Parameters:    Size  Location     Type
 15547 ;;  addr            1    4[COMMON] unsigned char 
 15548 ;; Auto vars:     Size  Location     Type
 15549 ;;		None
 15550 ;; Return value:  Size  Location     Type
 15551 ;;                  1    wreg      unsigned char 
 15552 ;; Registers used:
 15553 ;;		wreg, status,2, status,0
 15554 ;; Tracked objects:
 15555 ;;		On entry : 0/0
 15556 ;;		On exit  : 0/0
 15557 ;;		Unchanged: 0/0
 15558 ;; Data sizes:     COMMON   BANK0   BANK1   BANK3   BANK2
 15559 ;;      Params:         1       0       0       0       0
 15560 ;;      Locals:         0       0       0       0       0
 15561 ;;      Temps:          1       0       0       0       0
 15562 ;;      Totals:         2       0       0       0       0
 15563 ;;Total ram usage:        2 bytes
 15564 ;; Hardware stack levels used:    1
 15565 ;; This function calls:
 15566 ;;		Nothing
 15567 ;; This function is called by:
 15568 ;;		_main
 15569 ;;		_Mode_Init
 15570 ;;		_enable_valves
 15571 ;;		_change_modes
 15572 ;;		_call_control_valve
 15573 ;;		_count_write
 15574 ;;		_count_read
 15575 ;;		_Read_ValveFrom_Memory
 15576 ;; This function uses a non-reentrant model
 15577 ;;
 15578                           psect	text810
 15579                           	file	"C:\Program Files\HI-TECH Software\PICC\9.82\sources\eeread.c"
 15580                           	line	7
 15581                           	global	__size_of_eeprom_read
 15582  001E                     	__size_of_eeprom_read	equ	__end_of_eeprom_read-_eeprom_read
 15583                           	
 15584  191F                     _eeprom_read:	
 15585                           	opt	stack 5
 15586                           ; Regs used in _eeprom_read: [wreg+status,2+status,0]
 15587                           	line	8
 15588                           	
 15589  191F                     l4089:	
 15590                           	line	9
 15591                           # 9 "C:\Program Files\HI-TECH Software\PICC\9.82\sources\eeread.c"
 15592  191F  0064               clrwdt ;#
 15593                           psect	text810
 15594                           	line	10
 15595  1920  1683               	bsf	status, 5	;RP0=1, select bank3
 15596  1921  1703               	bsf	status, 6	;RP1=1, select bank3
 15597  1922  188C               	btfsc	(3169/8)^0180h,(3169)&7
 15598  1923  2925               	goto	u4601
 15599  1924  2926               	goto	u4600
 15600  1925                     u4601:
 15601  1925  291F               	goto	l4089
 15602  1926                     u4600:
 15603  1926  2927               	goto	l8644
 15604                           	
 15605  1927                     l4090:	
 15606                           	line	11
 15607                           	
 15608  1927                     l8644:	
 15609  1927  0874               	movf	(eeprom_read@addr),w
 15610  1928  1283               	bcf	status, 5	;RP0=0, select bank2
 15611  1929  1703               	bsf	status, 6	;RP1=1, select bank2
 15612  192A  008D               	movwf	(269)^0100h	;volatile
 15613  192B  303F               	movlw	(03Fh)
 15614  192C  00F5               	movwf	(??_eeprom_read+0)+0
 15615  192D  0875               	movf	(??_eeprom_read+0)+0,w
 15616  192E  1683               	bsf	status, 5	;RP0=1, select bank3
 15617  192F  1703               	bsf	status, 6	;RP1=1, select bank3
 15618  1930  058C               	andwf	(396)^0180h,f	;volatile
 15619  1931  140C               	bsf	(3168/8)^0180h,(3168)&7
 15620  1932  1003               	clrc
 15621  1933  180C               	btfsc	(3168/8)^0180h,(3168)&7
 15622  1934  1403               	setc
 15623  1935  3000               	movlw	0
 15624  1936  1803               	skipnc
 15625  1937  3001               	movlw	1
 15626                           
 15627  1938  1283               	bcf	status, 5	;RP0=0, select bank2
 15628  1939  1703               	bsf	status, 6	;RP1=1, select bank2
 15629  193A  080C               	movf	(268)^0100h,w	;volatile
 15630  193B  293C               	goto	l4091
 15631                           	
 15632  193C                     l8646:	
 15633                           	line	12
 15634                           	
 15635  193C                     l4091:	
 15636  193C  0008               	return
 15637                           	opt stack 0
 15638                           GLOBAL	__end_of_eeprom_read
 15639  193D                     	__end_of_eeprom_read:
 15640 ;; =============== function _eeprom_read ends ============
 15641                           
 15642                           	signat	_eeprom_read,4217
 15643                           	global	_Port_Init
 15644                           psect	text811,local,class=CODE,delta=2
 15645                           global __ptext811
 15646  1906                     __ptext811:
 15647                           
 15648 ;; *************** function _Port_Init *****************
 15649 ;; Defined at:
 15650 ;;		line 13 in file "F:\BEVERAGES_ENHANCEMENT\SOFTWARE_DESIGN\MASTER_PIC_16F877A\2015_09_03\Beverage.c"
 15651 ;; Parameters:    Size  Location     Type
 15652 ;;		None
 15653 ;; Auto vars:     Size  Location     Type
 15654 ;;		None
 15655 ;; Return value:  Size  Location     Type
 15656 ;;		None               void
 15657 ;; Registers used:
 15658 ;;		wreg, status,2
 15659 ;; Tracked objects:
 15660 ;;		On entry : 0/0
 15661 ;;		On exit  : 0/0
 15662 ;;		Unchanged: 0/0
 15663 ;; Data sizes:     COMMON   BANK0   BANK1   BANK3   BANK2
 15664 ;;      Params:         0       0       0       0       0
 15665 ;;      Locals:         0       0       0       0       0
 15666 ;;      Temps:          0       0       0       0       0
 15667 ;;      Totals:         0       0       0       0       0
 15668 ;;Total ram usage:        0 bytes
 15669 ;; Hardware stack levels used:    1
 15670 ;; This function calls:
 15671 ;;		Nothing
 15672 ;; This function is called by:
 15673 ;;		_main
 15674 ;; This function uses a non-reentrant model
 15675 ;;
 15676                           psect	text811
 15677                           	file	"F:\BEVERAGES_ENHANCEMENT\SOFTWARE_DESIGN\MASTER_PIC_16F877A\2015_09_03\Beverage.c
                                 "
 15678                           	line	13
 15679                           	global	__size_of_Port_Init
 15680  0019                     	__size_of_Port_Init	equ	__end_of_Port_Init-_Port_Init
 15681                           	
 15682  1906                     _Port_Init:	
 15683                           	opt	stack 7
 15684                           ; Regs used in _Port_Init: [wreg+status,2]
 15685                           	line	14
 15686                           	
 15687  1906                     l8630:	
 15688                           ;Beverage.c: 14: ADCON1 = 0X07;
 15689  1906  3007               	movlw	(07h)
 15690  1907  1683               	bsf	status, 5	;RP0=1, select bank1
 15691  1908  1303               	bcf	status, 6	;RP1=0, select bank1
 15692  1909  009F               	movwf	(159)^080h	;volatile
 15693                           	line	15
 15694                           ;Beverage.c: 15: CMCON = 0X07;
 15695  190A  3007               	movlw	(07h)
 15696  190B  009C               	movwf	(156)^080h	;volatile
 15697                           	line	17
 15698                           ;Beverage.c: 17: TRISA = 0x01;
 15699  190C  3001               	movlw	(01h)
 15700  190D  0085               	movwf	(133)^080h	;volatile
 15701                           	line	18
 15702                           ;Beverage.c: 18: TRISB = 0XFF;
 15703  190E  30FF               	movlw	(0FFh)
 15704  190F  0086               	movwf	(134)^080h	;volatile
 15705                           	line	19
 15706                           	
 15707  1910                     l8632:	
 15708                           ;Beverage.c: 19: TRISD = 0x00;
 15709  1910  0188               	clrf	(136)^080h	;volatile
 15710                           	line	20
 15711                           	
 15712  1911                     l8634:	
 15713                           ;Beverage.c: 20: TRISC = 0X30;
 15714  1911  3030               	movlw	(030h)
 15715  1912  0087               	movwf	(135)^080h	;volatile
 15716                           	line	21
 15717                           ;Beverage.c: 21: TRISE = 0X00;
 15718  1913  0189               	clrf	(137)^080h	;volatile
 15719                           	line	23
 15720                           ;Beverage.c: 23: PORTA = 0X00;
 15721  1914  1283               	bcf	status, 5	;RP0=0, select bank0
 15722  1915  1303               	bcf	status, 6	;RP1=0, select bank0
 15723  1916  0185               	clrf	(5)	;volatile
 15724                           	line	24
 15725                           	
 15726  1917                     l8636:	
 15727                           ;Beverage.c: 24: PORTB = 0XFF;
 15728  1917  30FF               	movlw	(0FFh)
 15729  1918  0086               	movwf	(6)	;volatile
 15730                           	line	25
 15731                           	
 15732  1919                     l8638:	
 15733                           ;Beverage.c: 25: PORTC = 0X30;
 15734  1919  3030               	movlw	(030h)
 15735  191A  0087               	movwf	(7)	;volatile
 15736                           	line	26
 15737                           	
 15738  191B                     l8640:	
 15739                           ;Beverage.c: 26: PORTD = 0XFD;
 15740  191B  30FD               	movlw	(0FDh)
 15741  191C  0088               	movwf	(8)	;volatile
 15742                           	line	27
 15743                           	
 15744  191D                     l8642:	
 15745                           ;Beverage.c: 27: PORTE = 0X00;
 15746  191D  0189               	clrf	(9)	;volatile
 15747                           	line	28
 15748                           	
 15749  191E                     l2245:	
 15750  191E  0008               	return
 15751                           	opt stack 0
 15752                           GLOBAL	__end_of_Port_Init
 15753  191F                     	__end_of_Port_Init:
 15754 ;; =============== function _Port_Init ends ============
 15755                           
 15756                           	signat	_Port_Init,88
 15757                           	global	_strlen
 15758                           psect	text812,local,class=CODE,delta=2
 15759                           global __ptext812
 15760  19CC                     __ptext812:
 15761                           
 15762 ;; *************** function _strlen *****************
 15763 ;; Defined at:
 15764 ;;		line 5 in file "C:\Program Files\HI-TECH Software\PICC\9.82\sources\strlen.c"
 15765 ;; Parameters:    Size  Location     Type
 15766 ;;  s               1    wreg     PTR const unsigned char 
 15767 ;;		 -> buff(4), 
 15768 ;; Auto vars:     Size  Location     Type
 15769 ;;  s               1    8[COMMON] PTR const unsigned char 
 15770 ;;		 -> buff(4), 
 15771 ;;  cp              1    9[COMMON] PTR const unsigned char 
 15772 ;;		 -> buff(4), 
 15773 ;; Return value:  Size  Location     Type
 15774 ;;                  2    0[COMMON] unsigned int 
 15775 ;; Registers used:
 15776 ;;		wreg, fsr0l, fsr0h, status,2, status,0
 15777 ;; Tracked objects:
 15778 ;;		On entry : 0/0
 15779 ;;		On exit  : 0/0
 15780 ;;		Unchanged: 0/0
 15781 ;; Data sizes:     COMMON   BANK0   BANK1   BANK3   BANK2
 15782 ;;      Params:         2       0       0       0       0
 15783 ;;      Locals:         2       0       0       0       0
 15784 ;;      Temps:          6       0       0       0       0
 15785 ;;      Totals:        10       0       0       0       0
 15786 ;;Total ram usage:       10 bytes
 15787 ;; Hardware stack levels used:    1
 15788 ;; This function calls:
 15789 ;;		Nothing
 15790 ;; This function is called by:
 15791 ;;		_rev
 15792 ;; This function uses a non-reentrant model
 15793 ;;
 15794                           psect	text812
 15795                           	file	"C:\Program Files\HI-TECH Software\PICC\9.82\sources\strlen.c"
 15796                           	line	5
 15797                           	global	__size_of_strlen
 15798  0031                     	__size_of_strlen	equ	__end_of_strlen-_strlen
 15799                           	
 15800  19CC                     _strlen:	
 15801                           	opt	stack 4
 15802                           ; Regs used in _strlen: [wreg-fsr0h+status,2+status,0]
 15803                           ;strlen@s stored from wreg
 15804                           	line	8
 15805  19CC  00F8               	movwf	(strlen@s)
 15806                           	
 15807  19CD                     l8622:	
 15808  19CD  0878               	movf	(strlen@s),w
 15809  19CE  00F2               	movwf	(??_strlen+0)+0
 15810  19CF  0872               	movf	(??_strlen+0)+0,w
 15811  19D0  00F9               	movwf	(strlen@cp)
 15812                           	line	9
 15813  19D1  29D3               	goto	l8624
 15814                           	
 15815  19D2                     l5391:	
 15816                           	line	10
 15817  19D2  29D3               	goto	l8624
 15818                           	
 15819  19D3                     l5390:	
 15820                           	line	9
 15821                           	
 15822  19D3                     l8624:	
 15823  19D3  0879               	movf	(strlen@cp),w
 15824  19D4  0084               	movwf	fsr0
 15825  19D5  3001               	movlw	01h
 15826  19D6  07F9               	addwf	(strlen@cp),f
 15827  19D7  1383               	bcf	status, 7	;select IRP bank0
 15828  19D8  0880               	movf	indf,f
 15829  19D9  1D03               	skipz
 15830  19DA  29DC               	goto	u4591
 15831  19DB  29DD               	goto	u4590
 15832  19DC                     u4591:
 15833  19DC  29D3               	goto	l8624
 15834  19DD                     u4590:
 15835  19DD  29DE               	goto	l8626
 15836                           	
 15837  19DE                     l5392:	
 15838                           	line	11
 15839                           	
 15840  19DE                     l8626:	
 15841  19DE  0878               	movf	(strlen@s),w
 15842  19DF  00F2               	movwf	(??_strlen+0)+0
 15843  19E0  3000               	movlw	((0x0/2))
 15844  19E1  00F3               	movwf	(??_strlen+0)+0+1
 15845  19E2  09F2               	comf	(??_strlen+0)+0,f
 15846  19E3  09F3               	comf	(??_strlen+0)+1,f
 15847  19E4  0AF2               	incf	(??_strlen+0)+0,f
 15848  19E5  1903               	skipnz
 15849  19E6  0AF3               	incf	(??_strlen+0)+1,f
 15850  19E7  0879               	movf	(strlen@cp),w
 15851  19E8  00F4               	movwf	(??_strlen+2)+0
 15852  19E9  3000               	movlw	((0x0/2))
 15853  19EA  00F5               	movwf	(??_strlen+2)+0+1
 15854  19EB  0872               	movf	0+(??_strlen+0)+0,w
 15855  19EC  0774               	addwf	0+(??_strlen+2)+0,w
 15856  19ED  00F6               	movwf	(??_strlen+4)+0
 15857  19EE  0873               	movf	1+(??_strlen+0)+0,w
 15858  19EF  1803               	skipnc
 15859  19F0  0A73               	incf	1+(??_strlen+0)+0,w
 15860  19F1  0775               	addwf	1+(??_strlen+2)+0,w
 15861  19F2  00F7               	movwf	1+(??_strlen+4)+0
 15862  19F3  0876               	movf	0+(??_strlen+4)+0,w
 15863  19F4  3EFF               	addlw	low(-1)
 15864  19F5  00F0               	movwf	(?_strlen)
 15865  19F6  0877               	movf	1+(??_strlen+4)+0,w
 15866  19F7  1803               	skipnc
 15867  19F8  3E01               	addlw	1
 15868  19F9  3EFF               	addlw	high(-1)
 15869  19FA  00F1               	movwf	1+(?_strlen)
 15870  19FB  29FC               	goto	l5393
 15871                           	
 15872  19FC                     l8628:	
 15873                           	line	12
 15874                           	
 15875  19FC                     l5393:	
 15876  19FC  0008               	return
 15877                           	opt stack 0
 15878                           GLOBAL	__end_of_strlen
 15879  19FD                     	__end_of_strlen:
 15880 ;; =============== function _strlen ends ============
 15881                           
 15882                           	signat	_strlen,4218
 15883                           	global	_DelayMs
 15884                           psect	text813,local,class=CODE,delta=2
 15885                           global __ptext813
 15886  197A                     __ptext813:
 15887                           
 15888 ;; *************** function _DelayMs *****************
 15889 ;; Defined at:
 15890 ;;		line 19 in file "F:\BEVERAGES_ENHANCEMENT\SOFTWARE_DESIGN\MASTER_PIC_16F877A\2015_09_03\delay.c"
 15891 ;; Parameters:    Size  Location     Type
 15892 ;;  cnt             2   12[COMMON] unsigned short 
 15893 ;; Auto vars:     Size  Location     Type
 15894 ;;  _dcnt           1    2[BANK0 ] unsigned char 
 15895 ;;  i               1    1[BANK0 ] unsigned char 
 15896 ;; Return value:  Size  Location     Type
 15897 ;;		None               void
 15898 ;; Registers used:
 15899 ;;		wreg, status,2, status,0
 15900 ;; Tracked objects:
 15901 ;;		On entry : 0/0
 15902 ;;		On exit  : 0/0
 15903 ;;		Unchanged: 0/0
 15904 ;; Data sizes:     COMMON   BANK0   BANK1   BANK3   BANK2
 15905 ;;      Params:         2       0       0       0       0
 15906 ;;      Locals:         0       2       0       0       0
 15907 ;;      Temps:          0       1       0       0       0
 15908 ;;      Totals:         2       3       0       0       0
 15909 ;;Total ram usage:        5 bytes
 15910 ;; Hardware stack levels used:    1
 15911 ;; This function calls:
 15912 ;;		Nothing
 15913 ;; This function is called by:
 15914 ;;		_Lcd_Init
 15915 ;;		_Lcd_Cmd
 15916 ;;		_Lcd_Data
 15917 ;;		_main
 15918 ;;		_Inidcate_Buzzer
 15919 ;;		_enable_valves
 15920 ;;		_change_modes
 15921 ;;		_control_valve
 15922 ;; This function uses a non-reentrant model
 15923 ;;
 15924                           psect	text813
 15925                           	file	"F:\BEVERAGES_ENHANCEMENT\SOFTWARE_DESIGN\MASTER_PIC_16F877A\2015_09_03\delay.c"
 15926                           	line	19
 15927                           	global	__size_of_DelayMs
 15928  0028                     	__size_of_DelayMs	equ	__end_of_DelayMs-_DelayMs
 15929                           	
 15930  197A                     _DelayMs:	
 15931                           	opt	stack 4
 15932                           ; Regs used in _DelayMs: [wreg+status,2+status,0]
 15933                           	line	36
 15934                           ;delay.c: 34: unsigned char i;
 15935                           ;delay.c: 36: do {
 15936                           	
 15937  197A                     l3467:	
 15938                           	line	38
 15939                           	
 15940  197A                     l8614:	
 15941                           ;delay.c: 38: i = 4;
 15942  197A  3004               	movlw	(04h)
 15943  197B  1283               	bcf	status, 5	;RP0=0, select bank0
 15944  197C  1303               	bcf	status, 6	;RP1=0, select bank0
 15945  197D  00C9               	movwf	(??_DelayMs+0)+0
 15946  197E  0849               	movf	(??_DelayMs+0)+0,w
 15947  197F  00CA               	movwf	(DelayMs@i)
 15948                           	line	40
 15949                           ;delay.c: 40: do {
 15950                           	
 15951  1980                     l3468:	
 15952                           	line	42
 15953                           ;delay.c: 42: { unsigned char _dcnt; _dcnt = (175)*((20*1000L)/(12*1000L)); while(--_dcn
                                 t != 0) continue; };
 15954  1980  30AF               	movlw	(0AFh)
 15955  1981  00C9               	movwf	(??_DelayMs+0)+0
 15956  1982  0849               	movf	(??_DelayMs+0)+0,w
 15957  1983  00CB               	movwf	(DelayMs@_dcnt)
 15958  1984  2986               	goto	l8616
 15959                           	
 15960  1985                     l3470:	
 15961  1985  2986               	goto	l8616
 15962                           	
 15963  1986                     l3469:	
 15964                           	
 15965  1986                     l8616:	
 15966  1986  3001               	movlw	low(01h)
 15967  1987  02CB               	subwf	(DelayMs@_dcnt),f
 15968  1988  1D03               	btfss	status,2
 15969  1989  298B               	goto	u4561
 15970  198A  298C               	goto	u4560
 15971  198B                     u4561:
 15972  198B  2986               	goto	l8616
 15973  198C                     u4560:
 15974  198C  298D               	goto	l8618
 15975                           	
 15976  198D                     l3471:	
 15977                           	line	44
 15978                           	
 15979  198D                     l8618:	
 15980                           ;delay.c: 44: } while(--i);
 15981  198D  3001               	movlw	low(01h)
 15982  198E  02CA               	subwf	(DelayMs@i),f
 15983  198F  1D03               	btfss	status,2
 15984  1990  2992               	goto	u4571
 15985  1991  2993               	goto	u4570
 15986  1992                     u4571:
 15987  1992  2980               	goto	l3468
 15988  1993                     u4570:
 15989  1993  2994               	goto	l8620
 15990                           	
 15991  1994                     l3472:	
 15992                           	line	46
 15993                           	
 15994  1994                     l8620:	
 15995                           ;delay.c: 46: } while(--cnt);
 15996  1994  3001               	movlw	low(01h)
 15997  1995  02FC               	subwf	(DelayMs@cnt),f
 15998  1996  3000               	movlw	high(01h)
 15999  1997  1C03               	skipc
 16000  1998  03FD               	decf	(DelayMs@cnt+1),f
 16001  1999  02FD               	subwf	(DelayMs@cnt+1),f
 16002  199A  087D               	movf	(((DelayMs@cnt+1))),w
 16003  199B  047C               	iorwf	(((DelayMs@cnt))),w
 16004  199C  1D03               	skipz
 16005  199D  299F               	goto	u4581
 16006  199E  29A0               	goto	u4580
 16007  199F                     u4581:
 16008  199F  297A               	goto	l3467
 16009  19A0                     u4580:
 16010  19A0  29A1               	goto	l3474
 16011                           	
 16012  19A1                     l3473:	
 16013                           	line	50
 16014                           	
 16015  19A1                     l3474:	
 16016  19A1  0008               	return
 16017                           	opt stack 0
 16018                           GLOBAL	__end_of_DelayMs
 16019  19A2                     	__end_of_DelayMs:
 16020 ;; =============== function _DelayMs ends ============
 16021                           
 16022                           	signat	_DelayMs,4216
 16023                           	global	_InitADC
 16024                           psect	text814,local,class=CODE,delta=2
 16025                           global __ptext814
 16026  11A0                     __ptext814:
 16027                           
 16028 ;; *************** function _InitADC *****************
 16029 ;; Defined at:
 16030 ;;		line 11 in file "F:\BEVERAGES_ENHANCEMENT\SOFTWARE_DESIGN\MASTER_PIC_16F877A\2015_09_03\adc.c"
 16031 ;; Parameters:    Size  Location     Type
 16032 ;;		None
 16033 ;; Auto vars:     Size  Location     Type
 16034 ;;		None
 16035 ;; Return value:  Size  Location     Type
 16036 ;;		None               void
 16037 ;; Registers used:
 16038 ;;		wreg
 16039 ;; Tracked objects:
 16040 ;;		On entry : 0/0
 16041 ;;		On exit  : 0/0
 16042 ;;		Unchanged: 0/0
 16043 ;; Data sizes:     COMMON   BANK0   BANK1   BANK3   BANK2
 16044 ;;      Params:         0       0       0       0       0
 16045 ;;      Locals:         0       0       0       0       0
 16046 ;;      Temps:          0       0       0       0       0
 16047 ;;      Totals:         0       0       0       0       0
 16048 ;;Total ram usage:        0 bytes
 16049 ;; Hardware stack levels used:    1
 16050 ;; This function calls:
 16051 ;;		Nothing
 16052 ;; This function is called by:
 16053 ;;		_main
 16054 ;; This function uses a non-reentrant model
 16055 ;;
 16056                           psect	text814
 16057                           	file	"F:\BEVERAGES_ENHANCEMENT\SOFTWARE_DESIGN\MASTER_PIC_16F877A\2015_09_03\adc.c"
 16058                           	line	11
 16059                           	global	__size_of_InitADC
 16060  0009                     	__size_of_InitADC	equ	__end_of_InitADC-_InitADC
 16061                           	
 16062  11A0                     _InitADC:	
 16063                           	opt	stack 7
 16064                           ; Regs used in _InitADC: [wreg]
 16065                           	line	12
 16066                           	
 16067  11A0                     l8612:	
 16068                           ;adc.c: 12: ADCON1 = 0x84;
 16069  11A0  3084               	movlw	(084h)
 16070  11A1  1683               	bsf	status, 5	;RP0=1, select bank1
 16071  11A2  1303               	bcf	status, 6	;RP1=0, select bank1
 16072  11A3  009F               	movwf	(159)^080h	;volatile
 16073                           	line	16
 16074                           ;adc.c: 16: ADCON0 = 0x81;
 16075  11A4  3081               	movlw	(081h)
 16076  11A5  1283               	bcf	status, 5	;RP0=0, select bank0
 16077  11A6  1303               	bcf	status, 6	;RP1=0, select bank0
 16078  11A7  009F               	movwf	(31)	;volatile
 16079                           	line	17
 16080                           	
 16081  11A8                     l687:	
 16082  11A8  0008               	return
 16083                           	opt stack 0
 16084                           GLOBAL	__end_of_InitADC
 16085  11A9                     	__end_of_InitADC:
 16086 ;; =============== function _InitADC ends ============
 16087                           
 16088                           	signat	_InitADC,88
 16089                           	global	fptotal
 16090  0001                     fptotal equ 1
 16091                           	file ""
 16092                           	line	#
 16093                           psect	functab,class=CODE,delta=2,reloc=256
 16094                           global __pfunctab
 16095  0700                     __pfunctab:
 16096                           	global	fptable
 16097  0700                     fptable:
 16098  0700  00FF               	movwf (btemp+1)&07Fh
 16099  0701  3007               	movlw high(fptable)
 16100  0702  008A               	movwf pclath
 16101  0703  087F               	movf (btemp+1)&07Fh,w
 16102  0704  0782               	addwf pc
 16103                           	global	fpbase
 16104  0705                     fpbase:
 16105  0705  2F05               	goto fpbase	; Call via a null pointer and you will get stuck here.
 16106                           	file ""
 16107                           	line	#
 16108  0706                     fp__eeprom_read:
 16109  0706                     entry__eeprom_read:
 16110                           	global	entry__eeprom_read
 16111  0706  160A  158A  291F   	ljmp	_eeprom_read
 16112                           	global	btemp
 16113  007E                     	btemp set 07Eh
 16114                           
 16115                           	DABS	1,126,2	;btemp
 16116                           	global	wtemp0
 16117  007E                     	wtemp0 set btemp
 16118  0FFD  160A  118A  2E5F   


HI-TECH Software PICC Macro Assembler V9.82 build 9453 
Symbol Table                                                                                   Sun Sep 13 13:56:18 2015

                             _i 002B                               _j 002D                               pc 0002  
                ___bmul@product 0072          __size_of_control_valve 0043                              _RD 0C60  
                            _WR 0C61                    ___awdiv@sign 0076                              fsr 0004  
           ___wmul@multiplicand 0078          ??_Write_ValveIn_Memory 007A                 _Inidcate_Buzzer 18CB  
                           l690 1A84                             l691 1A84                             l692 1A89  
                           l693 1A9A                             l687 11A8                             _GIE 005F  
                           _RB0 0030                             _RA2 002A                             _RB1 0031  
                           _RC0 0038                             _RB2 0032                             _RA4 002C  
                           _RC1 0039                             _RB3 0033                             _RA5 002D  
                           _RC2 003A                             _RB4 0034                             _RD1 0041  
                           _RC3 003B                             _RB5 0035                             _RE0 0048  
                           _RD2 0042                             _RC4 003C                             _RB6 0036  
                           _RE1 0049                             _RD3 0043                             _RC5 003D  
                           _RB7 0037                             _RE2 004A                             __ON 003A  
                           _rev 1C05                             fsr0 0004              enable_valves@index 0065  
          __end_of_change_modes 03DB                             indf 0000                    ___awmod@sign 0076  
         _Read_ValveFrom_Memory 1D72                            l1401 1F0D                            l1402 1F34  
                          l1403 1F46                            l1404 1FA7                            l1405 1FFF  
                          l1421 0047                            l3101 143D                            l1414 1C44  
                          l1406 1FF2                            l1422 000F                            l3110 1556  
                          l3102 1457                            l1415 1C1B                            l1407 1FFF  
                          l1423 004E                            l3103 1559                            l3120 0086  
                          l1416 1C29                            l1424 005B                            l3112 153D  
                          l3200 138D                            l3121 008E                            l1417 1C4B  
                          l3113 1558                            l3105 147C                            l3201 138E  
                          l3130 00E7                            l3122 0097                            l1418 1C4B  
                          l3114 1557                            l3106 1499                            l3210 084A  
                          l3202 1399                            l2250 12A4                            l3131 00E4  
                          l3123 00A0                            l3107 1535                            l3115 1559  
                          l3203 139A                            l2251 12F8                            l3132 00E6  
                          l3124 00A9                            l3108 1506                            l3300 0E57  
                          l3220 0905                            l3212 1403                            l3204 139B  
                          l3140 1584                            l2252 1308                            l2245 191E  
                          l3133 00F7                            l3125 00B2                            l3109 152C  
                          l3301 0E60                            l3213 09A5                            l3221 095B  
                          l3205 139D                            l3141 158E                            l2253 1309  
                          l3134 00F7                            l3118 00E8                            l3126 00BB  
                          l1390 1B0C                            l3310 0EF4                            l3302 0E69  
                          l3222 0A2F                            l3230 0A25                            l3214 0930  
                          l3206 13AA                            l3150 1628                            l3142 1598  
                          l2254 1309                            l3127 00C4                            l3311 0F04  
                          l3303 0EC0                            l3231 0AB8                            l3223 09EE  
                          l3215 092F                            l3207 13AB                            l3151 165F  
                          l3143 15A3                            l3128 00CD                            l3400 1B5A  
                          l1384 1C97                            l3320 0FFC                            l3312 0F88  
                          l3304 0EAF                            l3240 0B4E                            l3232 0A77  
                          l3224 09AE                            l3216 08D8                            l3208 13B2  
                          l3160 16B1                            l3152 1629                            l3144 15AD  
                          l2248 121B                            l3129 00D6                            l3401 1B5C  
                          l1393 080F                            l3081 1979                            l3321 0FFC  
                          l3313 0F3D                            l3305 0E88                            l3241 0B0B  
                          l3233 0A37                            l3225 09BB                            l3217 08E3  
                          l3209 13BD                            l3161 1745                            l3153 1647  
                          l3137 1614                            l3145 1608                            l2249 12BA  
                          l3410 1B15                            l3402 1B81                            l1394 081E  
                          l3090 074A                            l3314 0F62                            l3306 0EB6  
                          l3250 0BA1                            l3242 0AC0                            l3234 0A44  
                          l3226 09FC                            l3218 08EE                            l3162 1707  
                          l3170 16F3                            l3154 165E                            l3146 16B1  
                          l3138 1575                            l3330 0101                            l3411 1B17  
                          l1387 1AD3                            l1395 0838                            l3091 075A  
                          l3315 0F78                            l3307 0ECB                            l3251 0B56  
                          l3243 0ACD                            l3235 0A85                            l3227 09BC  
                          l3219 08F9                            l3171 1705                            l3163 16B7  
                          l3139 1613                            l3331 0103                            l3412 1B19  
                          l3420 1B99                            l1396 081F                            l3084 079B  
                          l3092 076A                            l3316 0FEE                            l3308 0ED4  
                          l3260 0BEC                            l3252 0B63                            l3244 0B19  
                          l3236 0A45                            l3228 09C3                            l3180 1777  
                          l3172 1744                            l3164 16C4                            l3156 166C  
                          l3148 1627                            l3340 0140                            l3324 0114  
                          l3332 0105                            l3405 1B24                            l3413 1B1B  
                          l3421 1BC1                            l1397 0849                            l3093 077A  
                          l3085 070A                            l3317 0FAE                            l3309 0EE4  
                          l3261 0BFC                            l3253 0BAF                            l3245 0ACE  
                          l3237 0A4C                            l3229 09D8                            l3181 178C  
                          l3165 16DD                            l3149 16AC                            l3157 166C  
                          l3341 0184                            l3333 0107                            l3325 00F9  
                          l3414 1B1D                            l3406 1B0E                            l3422 1BC1  
                          l1398 0849                            l3086 07BA                            l3094 078A  
                          l3318 0FBD                            l3270 0C93                            l3262 0C3D  
                          l3254 0B64                            l3246 0AD5                            l3238 0A61  
                          l3190 1313                            l3182 17A1                            l3174 1722  
                          l3166 1715                            l3158 1682                            l3350 0152  
                          l3342 0142                            l3326 013F                            l3334 0109  
                          l3415 1B1F                            l3407 1B10                            l3431 1DFC  
                          l3087 071A                            l3095 07BA                            l3319 0FED  
                          l3271 0C81                            l3263 0BFD                            l3255 0B6B  
                          l3247 0AF3                            l3239 0AAE                            l3175 1366  
                          l3191 1365                            l3183 17B6                            l3167 16DE  
                          l3159 16AA                            l3351 0154                            l3343 0144  
                          l3335 010B                            l3327 00FB                            l3408 1B46  
                          l3416 1B21                            l3088 072A                            l3272 0D45  
                          l3280 0D3B                            l3264 0C04                            l3256 0B89  
                          l3248 0B44                            l3192 09A6                            l3176 17D7  
                          l3184 17BF                            l3168 16EB                            l3360 02F3  
                          l3352 0156                            l3344 0146                            l3336 010D  
                          l3328 00FD                            l3409 1B13                            l3417 1B46  
                          l3441 1E39                            l3433 1E0D                            l3425 1A62  
                          l3089 073A                            l3281 0D29                            l3273 0CF6  
                          l3265 0C19                            l3249 0BE4                            l3257 0BDA  
                          l3193 13C8                            l3185 17C0                            l3177 174F  
                          l3169 16EC                            l3361 0331                            l3353 0158  
                          l3345 0148                            l3337 010F                            l3329 00FF  
                          l4090 1927                            l3098 18DA                            l3370 04C0  
                          l3290 0DBF                            l3282 0D3A                            l3274 0CA5  
                          l3258 0C70                            l3266 0C66                            l3194 1370  
                          l3178 17F1                            l3186 17CB                            l3362 036F  
                          l3354 0194                            l3346 014A                            l3338 0111  
                          l4091 193C                            l3451 1DE5                            l3443 1E3E  
                          l3435 1E12                            l3371 050C                            l3283 0FEF  
                          l3291 0F23                            l3275 0CFE                            l3267 0C9D  
                          l3259 0C2F                            l3195 1378                            l3187 17CC  
                          l3179 1762                            l3363 03B4                            l3355 01AE  
                          l3339 015B                            l3347 014C                            l3460 1ECF  
                          l3380 0646                            l3372 0558                            l3284 0F06  
                          l3292 0DC9                            l3276 0CBA                            l3268 0C8B  
                          l3196 13E8                            l3188 1339                            l3364 03D4  
                          l3356 01F4                            l3348 014E                            l3445 1E4F  
                          l3437 1E23                            l3429 1DF7                            l3461 1ED5  
                          l3381 06B0                            l3373 057F                            l3293 0DEA  
                          l3285 0D4D                            l3277 0CED                            l3269 0C78  
                          l3197 1379                            l3365 03DA                            l3357 0246  
                          l3349 0150                            l3470 1985                            l3390 1B5F  
                          l3462 1EE8                            l3454 1E84                            l3382 06CB  
                          l3374 062B                            l3294 0E3C                            l3286 0D6E  
                          l3278 0CD8                            l3198 1385                            l3358 0286  
                          l3471 198D                            l3391 1B48                            l3447 1E54  
                          l3439 1E28                            l3463 1EEE                            l3455 1E8A  
                          l3383 06FF                            l3375 0624                            l3295 0E34  
                          l3287 0DC0                            l3279 0CEC                            l3199 1386  
                          l3359 02C4                            l3472 1994                            l3392 1B81  
                          l3448 1E62                            l3464 1EF4                            l3456 1E9D  
                          l3384 06FF                            l3376 059A                            l3368 0429  
                          l3296 0E0B                            l3288 0DB8                            l3473 19A1  
                          l4089 191F                            l3393 1B4B                            l3457 1EA3  
                          l3377 062A                            l3369 0474                            l3297 0E3B  
                          l3289 0D8F                            l3474 19A1                            l3394 1B4E  
                          l5402 19A5                            l5410 11B7                            l3458 1EB6  
                          l3378 06B1                            l3298 0E45                            l3467 197A  
                          l3395 1B50                            l5403 19AF                            l5411 11C8  
                          l3387 1C04                            l3459 1EBC                            l3379 06AA  
                          l3299 0E4E                            l3468 1980                            l3396 1B52  
                          l5404 19C4                            l5412 11C9                            l5420 07C5  
                          l3469 1986                            l3397 1B54                            l5405 19CB  
                          l5413 11E2                            l5421 07D6                            l4710 1A1A  
                          l3398 1B56                            l5414 11F0                            l5422 07D7  
                          l4711 1A2C                            l3399 1B58                            l5415 11F8  
                          l5423 07E8                            l4712 1A2D                            l5408 11F1  
                          l5424 07F6                            l4713 1A2D                            l5409 11C3  
                          l5425 07FE                            l4706 19FE                            l5418 07F7  
                          l5610 1CA6                            l4707 19FF                            l5419 07D1  
                          l5611 1CB0                            l4708 19FF                            l5620 1CFD  
                          l5612 1CEC                            l4709 1A06                            l5613 1CC6  
                          l5390 19D3                            l5550 1D5F                            l5542 1D0C  
                          l5614 1CBA                            l5391 19D2                            l5551 1D6A  
                          l5543 1D1A                            l5615 1CCB                            l5392 19DE  
                          l5552 1D71                            l5544 1D60                            l5616 1CCC  
                          l9000 1E1A                            l5393 19FC                            l5545 1D32  
                          l5617 1CDD                            l5546 1D26                            l5618 1CEB  
                          l9010 1E42                            l9002 1E23                            l5547 1D37  
                          l5619 1CF6                            l5396 18F0                            l5548 1D38  
                          l9012 1E46                            l9004 1E2C                            l9020 1A62  
                          l9100 1E7D                            l5397 18F9                            l5549 1D51  
                          l5398 1903                            l9014 1E4F                            l9006 1E30  
                          l9022 1BC2                            l9030 0800                            l9110 1EA9  
                          l9102 1E84                            l5399 1905                            l9016 1E58  
                          l9008 1E39                            l9024 1BC7                            l9040 082F  
                          l9032 0808                            l9120 1ECF                            l9112 1EAF  
                          l9104 1E90                            l9200 057B                            l9018 1A31  
                          l9026 1BE3                            l9042 0838                            l9034 080F  
                          l9050 1F24                            l9122 1EDB                            l9114 1EB6  
                          l9106 1E96                            l9130 0709                            l9210 05A0  
                          l9202 057F                            l9028 1C4C                            l9036 0817  
                          l9060 1F63                            l9052 1F2A                            l9044 1EF5  
                          l9124 1EE1                            l9116 1EC2                            l9108 1E9D  
                          l9140 074A                            l9132 070A                            l9220 061B  
                          l9212 05B1                            l9204 0583                            l9300 155A  
                          l9038 081F                            l9062 1F7E                            l9070 1FA7  
                          l9046 1F0C                            l9054 1F34                            l9126 1EE8  
                          l9118 1EC8                            l9150 079A                            l9142 075A  
                          l9134 071A                            l9230 0674                            l9214 05BE  
                          l9222 0624                            l9206 0588                            l9310 1575  
                          l9302 1560                            l9080 1FF2                            l9072 1FAD  
                          l9064 1F95                            l9056 1F45                            l9048 1F0D  
                          l9128 195B                            l9144 076A                            l9136 072A  
                          l9152 079B                            l9240 06C7                            l9232 06A1  
                          l9224 062F                            l9216 05CA                            l9208 059A  
                          l9160 0425                            l9400 16A4                            l9320 158E  
                          l9312 1579                            l9304 1566                            l9074 1FCA  
                          l9066 1F9B                            l9058 1F46                            l9090 0047  
                          l9082 000B                            l9146 077A                            l9138 073A  
                          l9242 06CB                            l9234 06AA                            l9226 0634  
                          l9218 05EE                            l9170 0474                            l9162 0429  
                          l9154 03DB                            l9250 1425                            l9410 16B6  
                          l9402 16A7                            l9330 15AB                            l9322 1596  
                          l9314 1582                            l9306 156B                            l8612 11A0  
                          l8620 1994                            l8700 00D1                            l9076 1FE5  
                          l9068 1F9D                            l9092 004E                            l9084 000F  
                          l9148 078A                            l9244 06CF                            l9236 06B5  
                          l9228 0646                            l9180 04C4                            l9172 0478  
                          l9164 042D                            l9156 03E1                            l9260 1450  
                          l9252 1435                            l9500 135B                            l9420 16CB  
                          l9412 16B7                            l9404 16A8                            l9340 160D  
                          l9332 15AD                            l9324 1598                            l9316 1584  
                          l9308 1573                            l8614 197A                            l8622 19CD  
                          l8630 1906                            l8702 00D6                            l8710 00E8  
                          l9078 1FEB                            l9094 0055                            l9086 002B  
                          l9246 06D4                            l9238 06BA                            l9190 0515  
                          l9182 04C9                            l9174 047D                            l9166 0432  
                          l9158 03E6                            l9270 149F                            l9254 143C  
                          l9262 1457                            l9510 1376                            l9502 1366  
                          l9430 16F3                            l9422 16D3                            l9414 16B9  
                          l9406 16AB                            l9350 1639                            l9334 15B2  
                          l9326 15A0                            l9318 158C                            l9342 1614  
                          l8616 1986                            l8624 19D3                            l8640 191B  
                          l8632 1910                            l8712 00EE                            l8704 00DA  
                          l8720 1A15                            l8800 07C1                            l9088 0040  
                          l9096 1E66                            l9248 06FB                            l9192 0554  
                          l9184 0508                            l9176 04BC                            l9168 0470  
                          l9280 1506                            l9272 14D1                            l9264 1469  
                          l9256 143D                            l9600 092B                            l9520 138A  
                          l9512 1379                            l9504 136F                            l9432 16FA  
                          l9424 16DE                            l9416 16C3                            l9440 1707  
                          l9360 1652                            l9352 163F                            l9344 161C  
                          l9408 16AC                            l9336 15BA                            l9328 15A3  
                          ?_rev 0070                            l8618 198D                            l8626 19DE  
                          l8642 191D                            l8634 1911                            l8706 00DE  
                          l8650 0062                            l8730 1A24                            l8722 1A19  
                          l8714 1A06                            l8810 07E1                            l8802 07C5  
                          l9098 1E77                            l9194 0558                            l9186 050C  
                          l9178 04C0                            l9282 1518                            l9274 14DE  
                          l9290 1535                            l9266 147C                            l9258 144C  
                          l9610 0975                            l9602 0930                            l9530 13AB  
                          l9522 138E                            l9514 137F                            l9506 1370  
                          l9450 173A                            l9434 16FC                            l9426 16E4  
                          l9442 1715                            l9418 16C4                            l9362 1655  
                          l9354 1641                            l9370 165F                            l9346 1620  
                          l9338 1608                            l8628 19FC                            l8636 1917  
                          l8644 1927                            l8708 00E2                            l8660 0076  
                          l8652 0066                            l8732 1A2A                            l8724 1A1E  
                          l8716 1A0C                            l8740 1B47                            l8812 07E8  
                          l8804 07CC                            l8820 1CFE                            l8900 1A89  
                          l9196 055C                            l9188 0510                            l9292 1539  
                          l9284 152A                            l9276 14F2                            l9268 1499  
                          l9700 0AD5                            l9620 09B4                            l9612 0988  
                          l9604 093D                            l9540 13C5                            l9532 13B2  
                          l9524 1394                            l9516 1383                            l9508 1374  
                          l9460 1777                            l9444 171B                            l9436 1700  
                          l9428 16EC                            l9452 1745                            l9380 1676  
                          l9372 1663                            l9364 1659                            l9356 1647  
                          l9348 1629                            l8638 1919                            l8646 193C  
                          l8670 008E                            l8662 007A                            l8654 006A  
                          l8726 1A22                            l8718 1A12                            l8734 1B0D  
                          l8742 1B5E                            l8750 18F9                            l8814 07EF  
                          l8806 07D1                            l8830 1D1A                            l8822 1D03  
                          l8902 1A9A                            l8910 1AA3                            l9198 0561  
                          l9294 153E                            l9286 152C                            l9278 1504  
                          l9710 0B05                            l9702 0ADF                            l9630 09D8  
                          l9622 09BC                            l9606 095B                            l9550 13F4  
                          l9542 13C7                            l9534 13BA                            l9526 139D  
                          l9518 1386                            l9614 09A6                            l9470 17C0  
                          l9462 178C                            l9454 174E                            l9446 1722  
                          l9438 1706                            l9390 1686                            l9382 167A  
                          l9374 1667                            l9366 165B                            l9358 1650  
                          l8680 00A4                            l8672 0092                            l8664 007E  
                          l8656 006E                            l8648 005C                            l8728 1A23  
                          l8736 1B23                            l8744 1B5F                            l8752 18FB  
                          l8760 19A2                            l8808 07D7                            l8816 07F7  
                          l8840 1D32                            l8832 1D1C                            l8824 1D0C  
                          l8920 1AC6                            l8912 1AAC                            l8904 1A9E  
                          l9296 154C                            l9288 1531                            l9800 0C53  
                          l9720 0B25                            l9712 0B0A                            l9704 0AE5  
                          l9632 09E2                            l9624 09C3                            l9640 09FC  
                          l9616 09AD                            l9608 0961                            l9560 0854  
                          l9552 13FA                            l9536 13BB                            l9528 13A3  
                          l9544 13C8                            l9472 17C6                            l9464 17A1  
                          l9456 174F                            l9480 17D7                            l9448 1728  
                          l9392 168A                            l9384 167D                            l9376 1670  
                          l9368 165C                            l8690 00BB                            l8682 00A9  
                          l8674 0097                            l8666 0082                            l8658 0072  
                          l8738 1B24                            l8754 18FD                            l8746 18EF  
                          l8770 19CB                            l8762 19A5                            l8818 07FE  
                          l8850 1D58                            l8842 1D38                            l8834 1D22  
                          l8826 1D10                            l8922 1AC7                            l8914 1AAF  
                          l8906 1AA1                            l8930 1ADB                            l9298 1552  
                          l9810 0C81                            l9802 0C66                            l9730 0B55  
                          l9722 0B2B                            l9706 0AF3                            l9714 0B0B  
                          l9642 0A00                            l9650 0A25                            l9634 09E8  
                          l9626 09CD                            l9618 09AE                            l9570 0879  
                          l9562 085A                            l9554 1403                            l9538 13BD  
                          l9546 13E8                            l9490 132B                            l9474 17CC  
                          l9466 17B6                            l9458 1762                            l9482 17F1  
                          l9394 168E                            l9386 167F                            l9378 1674  
                          l8692 00BF                            l8684 00AD                            l8676 009B  
                          l8668 008A                            l8756 1903                            l8748 18F4  
                          l8764 19A9                            l8780 11BE                            l8772 11A9  
                          l8844 1D49                            l8836 1D26                            l8852 1D60  
                          l8828 1D15                            l8860 1C98                            l8924 1AD0  
                          l8916 1AB8                            l8908 1AA2                            l8940 1AFE  
                          l8932 1ADC                            l9900 0DA9                            l9820 0CA4  
                          l9812 0C8A                            l9804 0C70                            l9740 0B75  
                          l9732 0B56                            l9724 0B31                            l9708 0AFF  
                          l9716 0B19                            l9660 0A45                            l9644 0A06  
                          l9636 09ED                            l9628 09D3                            l9652 0A2F  
                          l9580 08C8                            l9572 088B                            l9564 0860  
                          l9556 084A                            l9548 13EE                            l9492 1339  
                          l9484 130C                            l9476 17D4                            l9468 17BC  
                          l9396 1693                            l9388 1682                            l8694 00C4  
                          l8686 00B2                            l8678 00A0                            l8758 1905  
                          l8766 19B6                            l8790 11E2                            l8782 11C3  
                          l8774 11AD                            l8854 1D64                            l8846 1D4F  
                          l8838 1D2D                            l8870 1CB6                            l8862 1C9D  
                          l8918 1AC5                            l8942 1AFF                            l8934 1AE5  
                          l8926 1AD7                            l8950 1C0C                            l9910 0DD9  
                          l9902 0DB8                            l9830 0CC4                            l9822 0CA5  
                          l9806 0C77                            l9814 0C8B                            l9750 0BA0  
                          l9742 0B7B                            l9734 0B5C                            l9718 0B1F  
                          l9726 0B44                            l9670 0A6B                            l9662 0A4C  
                          l9654 0A36                            l9646 0A0C                            l9638 09EE  
                          l9590 08F4                            l9582 08CE                            l9574 0898  
                          l9566 086D                            l9558 084E                            l9494 133F  
                          l9486 1313                            l9478 17D6                            l9398 169E  
                          l8696 00C8                            l8688 00B6                            l8768 19C4  
                          l8792 11E9                            l8784 11C9                            l8776 11B3  
                          l8856 1D6A                            l8848 1D51                            l8880 1CD6  
                          l8872 1CBA                            l8864 1CA6                            l8944 1B00  
                          l8936 1AE8                            l8928 1ADA                            l8960 1C37  
                          l8952 1C1B                            l9920 0E05                            l9912 0DDC  
                          l9904 0DC0                            l9840 0CE5                            l9832 0CCC  
                          l9824 0CAF                            l9816 0C93                            l9808 0C78  
                          l9760 0BC1                            l9744 0B89                            l9736 0B64  
                          l9752 0BA1                            l9728 0B4E                            l9680 0A89  
                          l9672 0A71                            l9664 0A56                            l9656 0A37  
                          l9648 0A12                            l9592 08FF                            l9584 08D3  
                          l9576 089E                            l9568 0873                            l9496 1345  
                          l9488 1319                            l8698 00CD                            l8786 11DA  
                          l8778 11B7                            l8794 11F1                            l8858 1D71  
                          l8890 1CF6                            l8882 1CDD                            l8874 1CC1  
                          l8866 1CAA                            l8946 1B09                            l8938 1AF1  
                          l8962 1C3D                            l8954 1C24                            l8970 18CE  
                          l9930 0E25                            l9922 0E0B                            l9914 0DEA  
                          l9906 0DC9                            l9834 0CD7                            l9842 0CED  
                          l9850 0CFE                            l9826 0CB5                            l9818 0C9D  
                          l9770 0BEC                            l9762 0BC7                            l9746 0B95  
                          l9738 0B6B                            l9754 0BAF                            l9682 0A8F  
                          l9674 0A76                            l9666 0A5C                            l9658 0A3D  
                          l9690 0AB8                            l9594 0905                            l9586 08DE  
                          l9578 08AB                            l9498 1353                            l8796 11F8  
                          l8788 11E0                            l8892 1CFD                            l8884 1CE4  
                          l8876 1CC6                            l8868 1CB0                            l8964 1C41  
                          l8956 1C29                            l8948 1C08                            l8972 18D7  
                          l8980 1B83                            l9940 0E57                            l9924 0E11  
                          l9932 0E34                            l9916 0DF2                            l9908 0DCF  
                          l9860 0D1C                            l9852 0D02                            l9844 0CF1  
                          l9836 0CD8                            l9828 0CBA                            l9780 0C14  
                          l9772 0BF5                            l9756 0BB5                            l9764 0BDA  
                          l9748 0B9B                            l9692 0ABF                            l9684 0A95  
                          l9668 0A61                            l9676 0A77                            l9596 090A  
                          l9588 08E9                            l8798 07BB                            l8878 1CCC  
                          l8886 1CEC                            l8894 1A64                            l8958 1C2F  
                          l8966 1C44                            l8974 1D73                            l8982 1B8C  
                          l8990 1DF7                            l9950 0E82                            l9942 0E60  
                          l9926 0E16                            l9918 0DFF                            l9934 0E3C  
                          l9862 0D22                            l9854 0D08                            l9870 0D3B  
                          l9846 0CF5                            l9838 0CDF                            l9782 0C19  
                          l9774 0BFD                            l9790 0C2F                            l9758 0BBB  
                          l9766 0BE4                            l9694 0AC0                            l9686 0A9B  
                          l9678 0A85                            l9598 0926                            STR_1 1042  
                          l8888 1CF0                            l8896 1A77                            l8968 18CB  
                          l8976 1DE3                            l8984 1B99                            l8992 1E00  
                          l9960 0EA0                            l9952 0E88                            l9944 0E69  
                          l9936 0E45                            l9928 0E1F                            l9880 0D5D  
                          l9864 0D29                            l9856 0D0E                            l9848 0CF6  
                          l9872 0D45                            l9784 0C23                            l9776 0C04  
                          l9792 0C3D                            l9768 0BEB                            l9696 0AC6  
                          l9688 0AAE                            STR_2 1011                            STR_3 10BA  
                          l8898 1A80                            l8978 1DE5                            l8994 1E04  
                          l8986 1DE9                            l9970 0EC6                            l9954 0E8D  
                          l9962 0EAF                            l9946 0E6F                            l9938 0E4E  
                          l9890 0D89                            l9882 0D60                            l9874 0D4C  
                          l9866 0D2F                            l9858 0D14                            l9794 0C41  
                          l9786 0C29                            l9778 0C0E                            l9698 0ACE  
                          STR_4 1125                            STR_5 107F                            l8996 1E0D  
                          l8988 1DEE                            l9980 0EEA                            l9972 0ECB  
                          l9964 0EB6                            l9956 0E92                            l9948 0E7C  
                          l9892 0D8F                            l9884 0D6E                            l9876 0D4D  
                          l9868 0D35                            l9796 0C47                            l9788 0C2E  
                          STR_6 10AC                            STR_7 108E                            l8998 1E16  
                          l9982 0EF0                            l9974 0ED4                            l9966 0EBA  
                          l9958 0E9B                            l9894 0D95                            l9886 0D76  
                          l9878 0D53                            l9990 0F06                            l9798 0C4D  
                          STR_8 10F1                            STR_9 1070                            l9984 0EFA  
                          l9976 0EDA                            l9968 0EC0                            l9992 0F23  
                          l9896 0D9A                            l9888 0D83                            l9994 0F29  
                          l9986 0F00                            l9978 0EE0                            l9898 0DA3  
                          l9996 0F2F                            l9988 0F05                            l9998 0F3D  
                          u5010 07D5                            u5011 07D4                            u5020 07E1  
                          u5021 07E0                            u5005 07C6                            u5110 1D49  
                          u5111 1D48                            u5040 07F5                            u5200 1CD6  
                          u6000 16FA                            u5041 07F4                            u5025 07DD  
                          u5105 1D39                            u5201 1CD5                            u6001 16F9  
                          u5130 1D5E                            u5050 1D03                            u6010 171B  
                          u5035 07E9                            u5131 1D5D                            u5115 1D45  
                          u5051 1D02                            u6011 171A                            u5140 1D64  
                          u5060 1D10                            u5220 1CEA                            u5300 1B8C  
                          u6100 179E                            u6020 1721                            u5125 1D52  
                          u5061 1D0F                            u5221 1CE9                            u5205 1CD2  
                          u5301 1B8B                            u6101 179B                            u6021 1720  
                          u5070 1D22                            u5230 1CF0                            u5150 1C9D  
                          u5310 1DEE                            u6030 174D                            u5071 1D21  
                          u5215 1CDE                            u5151 1C9C                            u5311 1DED  
                          u6031 174A                            u4600 1926                            u5160 1CAA  
                          u5320 1E04                            u5400 1F33                            u7000 0FF5  
                          u6200 136E                            u6120 17B3                            u6040 175F  
                          u4601 1925                            u5161 1CA9                            u5321 1E03  
                          u5401 1F32                            u6201 136B                            u6121 17B0  
                          u6041 175C                            u4610 0062                            u5090 1D36  
                          u5170 1CB6                            u5250 1A88                            u5330 1E1A  
                          u5410 1F44                            u6210 1374                            u6114 17A0  
                          u7010 0188                            u4611 0061                            u5091 1D35  
                          u5171 1CB5                            u5251 1A87                            u5331 1E19  
                          u5411 1F43                            u7011 0187                            u4700 0086  
                          u4620 0066                            u5340 1E30                            u5420 1FA6  
                          u5500 1EE1                            u6300 084E                            u6220 137F  
                          u6140 17BC                            u6060 1774                            u7100 0252  
                          u7020 018E                            u4701 0085                            u4621 0065  
                          u5085 1D27                            u5245 1A6D                            u5341 1E2F  
                          u5421 1FA5                            u5501 1EE0                            u6221 137E  
                          u6061 1771                            u7101 0251                            u7021 018D  
                          _MENU 0020                            u4710 008A                            u4630 006A  
                          u5190 1CCA                            u5350 1E46                            u5430 1FAD  
                          u5510 03E1                            u6310 0854                            u6230 138A  
                          u6150 17C6                            u6134 17B5                            u6054 1761  
                          u7110 028A                            u7030 019A                            u4711 0089  
                          u4631 0069                            u5191 1CC9                            u5351 1E45  
                          u5431 1FAC                            u5511 03E0                            u6311 0853  
                          u6151 17C5                            u7111 0289                            u7031 0199  
                          u4560 198C                            u4800 00DA                            u4720 0092  
                          u4640 006E                            u5280 1C24                            u5360 0808  
                          u5440 1FEB                            u5600 06B0                            u5520 042D  
                          u6400 09AC                            u6320 085A                            u6240 1394  
                          u6160 130C                            u6080 1789                            u7200 0379  
                          u7120 0290                            u7040 01A0                            u4561 198B  
                          u4801 00D9                            u4721 0091                            u4641 006D  
                          u5185 1CBB                            u5265 1ABD                            u5281 1C23  
                          u5361 0807                            u5441 1FEA                            u5601 06AF  
                          u5521 042C                            u6401 09AB                            u6321 0859  
                          u6241 1393                            u6161 17FA                            u6081 1786  
                          u7201 0378                            u7121 028F                            u7041 019F  
                          u4570 1993                            u4810 00E2                            u4730 009B  
                          u4650 0072                            u5290 1C4A                            u5370 0817  
                          u5450 004D                            u5610 06B5                            u5530 0478  
                          u6410 09B4                            u6330 089E                            u6250 13A3  
                          u6170 1312                            u6074 1776                            u7210 03BA  
                          u7130 02C8                            u7050 01B4                            u4571 1992  
                          u4811 00E1                            u4731 009A                            u4651 0071  
                          u5275 1AF6                            u5291 1C49                            u5371 0816  
                          u5451 004C                            u5611 06B4                            u5531 0477  
                          u6411 09B3                            u6331 089D                            u6251 13A2  
                          u6171 1311                            u7211 03B9                            u7131 02C7  
                          u7051 01B3                            u4580 19A0                            u4820 00EE  
                          u4740 00A4                            u4660 0076                            u5380 0848  
                          u5460 1E7D                            u5620 06CF                            u5540 04C4  
                          u5700 1518                            u6500 0ABE                            u6420 0A00  
                          u6340 08CE                            u6260 13EE                            u6180 133F  
                          u7220 03C0                            u7140 02CE                            u7060 01BA  
                          u4581 199F                            u4821 00ED                            u4741 00A3  
                          u4661 0075                            u5381 0847                            u5461 1E7C  
                          u5621 06CE                            u5541 04C3                            u5701 1517  
                          u6501 0ABD                            u6341 08CD                            u6261 13ED  
                          u7221 03BF                            u7141 02CD                            u7061 01B9  
                          u4590 19DD                            u4750 00AD                            u4670 007A  
                          u4830 1A05                            u4910 19C3                            u5390 1F0B  
                          u5470 1E96                            u5550 0510                            u5710 152A  
                          u5630 143B                            u6510 0AC6                            u6430 0A06  
                          u6350 08D3                            u6270 13F4                            u6190 1345  
                          u6094 178B                            u7150 02F7                            u7070 01FA  
                          u7230 127B                            u4591 19DC                            u4751 00AC  
                          u4671 0079                            u4831 1A04                            u4911 19C2  
                          u5391 1F0A                            u5471 1E95                            u5551 050F  
                          u5711 1529                            u5631 143A                            u6511 0AC5  
                          u6431 0A05                            u6351 08D2                            u6271 13F3  
                          u6191 1344                            u7151 02F6                            u7071 01F9  
                          u7231 127A                            u4760 00B6                            u4680 007E  
                          u4840 1A19                            u4920 11B3                            u5480 1EAF  
                          u5560 055C                            u5720 1539                            u5640 1456  
                          u6600 0BEA                            u6520 0B1F                            u6440 0A0C  
                          u6360 08DE                            u6280 13FA                            u5800 1596  
                          u7160 02FD                            u7080 0200                            u7240 127F  
                          u4761 00B5                            u4681 007D                            u4841 1A18  
                          u4905 19B7                            u4921 11B2                            u5481 1EAE  
                          u5561 055B                            u5721 1538                            u5641 1455  
                          u6601 0BE9                            u6441 0A0B                            u6361 08DD  
                          u6281 13F9                            u5801 1595                            u7161 02FC  
                          u7081 01FF                            u7241 127E                            u4770 00BF  
                          u4690 0082                            u4850 1A2A                            u5490 1EC8  
                          u5570 0583                            u5730 153D                            u5650 1469  
                          u6610 0BF5                            u6530 0B25                            u6450 0A35  
                          u6370 08E9                            u6290 1402                            u5810 15A0  
                          u7170 0335                            u7090 024C                            u7250 1296  
                          u4771 00BE                            u4691 0081                            u4851 1A29  
                          u5491 1EC7                            u5571 0582                            u5731 153C  
                          u5651 1468                            u6611 0BF4                            u6531 0B24  
                          u6451 0A34                            u6371 08E8                            u6291 13FF  
                          u5811 159F                            u7171 0334                            u7091 024B  
                          u7251 1295                            u7235 1277                            u4780 00C8  
                          u4860 18F4                            u4940 11C7                            u5580 062A  
                          u5660 147B                            u6700 0D02                            u6620 0C41  
                          u6540 0B2B                            u6460 0A3D                            u6380 08F4  
                          u5900 1667                            u5820 15AB                            u5740 1560  
                          u7180 033B                            u7260 12D1                            u4781 00C7  
                          u4861 18F3                            u4941 11C6                            u5581 0629  
                          u5661 147A                            u6541 0B2A                            u6461 0A3C  
                          u6381 08F3                            u5901 1666                            u5821 15AA  
                          u5741 155F                            u7181 033A                            u7261 12D0  
                          u4790 00D1                            u4870 1902                            u5590 062F  
                          u5670 149F                            u6710 0D08                            u6630 0C47  
                          u6550 0B54                            u6470 0A89                            u6390 08FF  
                          u5910 166B                            u5830 15BA                            u5750 1566  
                          u7190 0373                            u7270 12D5                            u4791 00D0  
                          u4871 1901                            u4935 11B8                            u5591 062E  
                          u5671 149E                            u6711 0D07                            u6631 0C46  
                          u6551 0B53                            u6391 08FE                            u5911 166A  
                          u5831 15B9                            u5751 1565                            u7191 0372  
                          u7271 12D4                            u4880 19A9                            u4960 11DA  
                          u5680 14F2                            u6800 0DF2                            u6720 0D0E  
                          u6640 0C4D                            u6560 0B5C                            u6480 0A8F  
                          u5920 1670                            u5840 161C                            u5760 1573  
                          u4881 19A8                            u4961 11D9                            u5681 14F1  
                          u6801 0DF1                            u6721 0D0D                            u6641 0C4C  
                          u6561 0B5B                            u6481 0A8E                            u5921 166F  
                          u5841 1619                            u5761 1572                            u7265 12CD  
                          u5690 1504                            u6810 0E3A                            u6730 0D1C  
                          u6650 0C76                            u6570 0BB5                            u6490 0A95  
                          u5930 1674                            u5850 1620                            u5770 1579  
                          u4955 11CA                            u5691 1503                            u6811 0E39  
                          u6731 0D1B                            u6651 0C75                            u6491 0A94  
                          u5931 1673                            u5851 161F                            u4980 11EF  
                          u6900 0F29                            u6820 0E6F                            u6740 0D2F  
                          u6660 0CA3                            u6580 0BBB                            u5940 1686  
                          u5860 1626                            u5780 1582                            u4981 11EE  
                          u4965 11D6                            u6901 0F28                            u6821 0E6E  
                          u6741 0D2E                            u6661 0CA2                            u6581 0BBA  
                          u5941 1685                            u5861 1623                            u5781 1581  
                          u4990 07C1                            u6910 0F2F                            u6830 0EB5  
                          u6750 0D4B                            u6670 0CCC                            u6590 0BC1  
                          u5950 168A                            u5870 1639                            u5790 158C  
                          u4895 19B0                            u4975 11E3                            u4991 07C0  
                          u7287 1A7B                            u6911 0F2E                            u6831 0EB4  
                          u6751 0D4A                            u6671 0CCB                            u6591 0BC0  
                          u5951 1689                            u5871 1638                            u5791 158B  
                          u6920 0F45                            u6840 0EDA                            u6760 0D53  
                          u6680 0CD6                            u5960 16B5                            u5880 1650  
                          u6921 0F44                            u6841 0ED9                            u6761 0D52  
                          u6681 0CD5                            u5961 16B4                            u5881 164F  
                          u6930 0F6A                            u6850 0EE0                            u6770 0D76  
                          u6690 0CEB                            u5970 16C2                            u5890 1663  
                          u6931 0F69                            u6851 0EDF                            u6771 0D75  
                          u6691 0CEA                            u5971 16C1                            u5891 1662  
                          u5875 1635                            u6940 0F8C                            u6860 0EEA  
                          u6780 0DBE                            u5980 16DC                            u6861 0EE9  
                          u6781 0DBD                            u5981 16DB                            u6950 0F92  
                          u6870 0EF0                            u6790 0DCF                            u5990 16E4  
                          u6951 0F91                            u6871 0EEF                            u6791 0DCE  
                          u5991 16E3                            u6960 0F9F                            u6880 0EFA  
                          u6961 0F9E                            u6881 0EF9                            u6970 0FB4  
                          u6890 0F00                            u6971 0FB3                            u6891 0EFF  
                          u6980 0FBA                            u6981 0FB9                            u6990 0FC3  
                          u6991 0FC2                            _WREN 0C62                  ??_eeprom_write 0077  
                          __OFF 0039                            _Next 0035                            _buff 0043  
                          _main 11F9                    __ENABLE_MODE 0038                            _time 0033  
                          btemp 007E                            rev@f 004A                            rev@l 004B  
                          rev@t 0049                     _GetADCValue 1A63                    ?_count_write 0079  
                          start 0000                 __end_of_DelayMs 19A2                 __end_of_Lcd_Cmd 1AD4  
             ___bmul@multiplier 0073                 __end_of_InitADC 11A9                           ??_rev 007A  
      _Enable_Tea_Dication_Time 036B                           l10000 0F45                           l10002 0F62  
                         l10010 0F88                           l10020 0FA4                           l10012 0F8C  
                         l10004 0F6A                           l10100 028A                           l10030 0FBD  
                         l10022 0FAA                           l10014 0F92                           l10006 0F78  
                         l10110 02C8                           l10102 0290                           l10040 0FF5  
                         l10032 0FC3                           l10024 0FAE                           l10016 0F97  
                         l10008 0F81                           l10120 02F7                           l10112 02CE  
                         l10104 02AC                           l10200 12D6                           l10042 0FF7  
                         l10034 0FC8                           l10026 0FB4                           l10018 0F9F  
                         l10130 0335                           l10122 02FD                           l10114 02DB  
                         l10106 02BF                           l10050 015A                           l10210 12F5  
                         l10202 12E3                           l10036 0FCE                           l10028 0FBA  
                         l10140 0373                           l10132 033B                           l10124 0319  
                         l10116 02EE                           l10108 02C4                           l10060 019A  
                         l10052 015B                           l10044 00F8                           l10212 12FD  
                         l10204 12EC                           l10038 0FEF                           l10142 0379  
                         l10150 03B4                           l10134 0357                           l10126 032C  
                         l10118 02F3                           l10070 01C7                           l10062 01A0  
                         l10054 0188                           l10046 0113                           l10214 1302  
                         l10206 12EF                           l10160 03D5                           l10152 03BA  
                         l10144 0386                           l10136 036A                           l10128 0331  
                         l10080 0206                           l10072 01D0                           l10064 01AE  
                         l10056 018E                           l10048 0114                           l10208 12F0  
                         l10162 03D6                           l10154 03C0                           l10146 038C  
                         l10138 036F                           l10090 024C                           l10082 0213  
                         l10066 01B4                           l10074 01F4                           l10058 0194  
                         l10170 1217                           l10156 03CD                           l10148 03AA  
                         l10092 0252                           l10084 023C                           l10076 01FA  
                         l10068 01BA                           l10180 127B                           l10172 121B  
                         l10164 11F9                           l10158 03D4                           l10094 026E  
                         l10086 023F                           l10078 0200                           l10190 12A4  
                         l10182 127F                           l10174 1229                           l10166 1208  
                         l10096 0281                           l10088 0246                           l10192 12AA  
                         l10184 1281                           l10176 1251                           l10168 120D  
                         l10098 0286                           l10194 12B7                           l10186 1290  
                         l10178 125A                           l10196 12D1                           l10188 1296  
                         l10198 12D5                      _Lcd_String 0800                           ?_main 0070  
               __end_of___awdiv 1D72                           _EEADR 010D                           STR_10 10E4  
                         STR_11 1161                           STR_20 119C                           STR_12 1118  
                         STR_13 1132                           STR_21 1000                           STR_14 1180  
                         STR_30 1156                           STR_22 1022                           STR_15 113E  
                         STR_31 1061                           STR_23 1052                           STR_16 110F  
                         STR_32 1189                           STR_24 10FE                           STR_40 109D  
                         STR_41 1196                           STR_33 116C                           STR_17 116C  
                         STR_25 10C8                           STR_34 106A                           STR_42 111B  
                         STR_18 1190                           STR_26 10D6                           STR_43 1196  
                         STR_27 110F                           STR_19 10A6                           STR_35 1032  
                         STR_28 113E                           STR_36 1196                           STR_44 1176  
               __end_of___awmod 1CFE                           STR_29 1102                           STR_45 114A  
                         STR_37 110B                           STR_38 1196                           STR_39 1046  
                         _CARRY 0018                           _CMCON 009C                 ___awdiv@divisor 0070  
            _Enable_Config_Mode 035B                 __end_of___lwdiv 11F9                 __end_of___lwmod 07FF  
               ___awdiv@counter 0075                           _VALVE 0036                           _PORTA 0005  
                         _PORTB 0006                           _PORTC 0007                           _PORTD 0008  
                         _PORTE 0009                           _TRISA 0085                           _TRISB 0086  
                         _TRISC 0087                           _TRISD 0088                           _TRISE 0089  
                         __Demo 0371             _Enable_Coffee_Valve 035A                           _itoai 0040  
                         fpbase 0705                   _control_valve 1BC2       _Write_ValveIn_Memory$4135 0049  
     _Write_ValveIn_Memory$4136 004B       _Write_ValveIn_Memory$4137 004D       _Write_ValveIn_Memory$4138 004F  
     _Write_ValveIn_Memory$4139 0051                           pclath 000A                   __DISABLE_MODE 0037  
                         status 0003                           wtemp0 007E                    ?_offthevalve 0070  
              __end_of_Lcd_Data 1B0D                __end_of_Lcd_Init 1C98              _call_control_valve 03DB  
                  __end_of_main 130C         __end_of_Inidcate_Buzzer 18DB           _Enable_Dication_Delay 035E  
            _Enable_Count_Reset 035C             ?_call_control_valve 0070                          ??_main 0066  
              __end_of_Num_Disp 2000          ?_Read_ValveFrom_Memory 0070              _enable_valves$5507 0061  
                        _ADCON0 001F                          _ADCON1 009F                  ?_control_valve 004C  
                        _ADRESH 001E                          _ADRESL 009E                          _EEDATA 010C  
                        _EECON1 018C                          _EECON2 018D                ___awdiv@dividend 0072  
                     ??_DelayMs 0049            ??_call_control_valve 0052                       ??_Lcd_Cmd 004C  
                     ??_InitADC 0070                  _Enable_Heater1 035F                  _Enable_Heater2 0360  
            __size_of_Mode_Init 0135            __size_of_eeprom_read 001E                          ___bmul 18EE  
                        __clear 0373                          ___wmul 19A2                       ??___awdiv 0074  
                     ??___awmod 0074                       ??___lwdiv 007C                       ??___lwmod 0074  
         __size_of_change_modes 02E3                ___awdiv@quotient 0077                 ___awmod@divisor 0070  
                    _Print_Name 195B                      _Print_Menu 0709            __end_of_eeprom_write 1A2E  
               ___awmod@counter 0075                          _myitoa 000B                     ?_Lcd_String 004E  
                        clrloop 0004                          _strlen 19CC                          fptable 0700  
                        fptotal 0001              __size_of_Port_Init 0019                          rev@buf 004C  
               eeprom_read@addr 0074                   Num_Disp@digit 0052                    _change_modes 00F8  
           ___bmul@multiplicand 0070               entry__eeprom_read 0706         _call_control_valve$5508 005A  
          __size_of_count_write 0040                  __pcstackCOMMON 0070                    __pidataBANK1 18C1  
              ?_Inidcate_Buzzer 0070               __end_of_Mode_Init 155A                 ??_control_valve 007E  
             eeprom_write@value 0076              _Enable_Normal_Mode 0367                       ?_Lcd_Data 0070  
                     ?_Lcd_Init 0070                 count_read@addr1 004E                 count_read@addr2 007C  
                    __pbssBANK0 0020              _Enable_Viber_Motor 0370                     Num_Disp@dat 0050  
                   Num_Disp@dot 0053              _Enable_Temperature 036E             __size_of_Lcd_String 004A  
                  ?_GetADCValue 0070              __size_of_key_press 009C               __end_of_Port_Init 191F  
                     ?_Num_Disp 0050            __size_of_offthevalve 003A                      __pmaintext 11F9  
                       ?___bmul 0070                  __PREVIOUS_MODE 003C                         ?___wmul 0076  
                    __temp_flag 0374                      _asciitable 00A0                     ?_Print_Name 0070  
                   ?_Print_Menu 0070                         ?_myitoa 007B                         ?_strlen 0070  
 __size_of_Write_ValveIn_Memory 007D           _Enable_Hot_Water_Time 0361                      ??_Lcd_Data 004C  
                    ??_Lcd_Init 007E                         _DelayMs 197A             _Enable_Milk_Forward 0363  
                       _Lcd_Cmd 1A9B                         _InitADC 11A0             _Enable_Milk_Reverse 0364  
                    _count_read 1A2E                      ??_Num_Disp 0054            _Enable_Shortcut_Mode 036A  
                    _mem_index1 0041                      _mem_index2 0042                       _ADC_value 0029  
         __size_of_eeprom_write 0031                 __size_of___bmul 0018                         ___awdiv 1CFE  
                       ___awmod 1C98                 _Enable_Password 0368                 __size_of___wmul 002A  
                       ___lwdiv 11A9                         ___lwmod 07BB                 Mode_Init@option 005E  
               __size_of_myitoa 0051         ??_Read_ValveFrom_Memory 0076                 __size_of_strlen 0031  
                  __size_of_rev 0047               __end_of_key_press 00F8                ___awmod@dividend 0072  
          end_of_initialization 1957                         init_ram 18DF                    _eeprom_write 19FD  
           __size_of_Print_Name 001F             __size_of_Print_Menu 00B2                       Lcd_Data@x 004D  
                       myitoa@p 007D                    __pstringtext 1000                      _onthevalve 1B47  
                       strlen@s 0078        _Enable_Milk_Reverse_Time 0365                    ??_Lcd_String 007E  
                 ?_print_yes_no 0070     __size_of_call_control_valve 0325                   ??_eeprom_read 0075  
            __end_of_Lcd_String 084A                     ?_count_read 007C            __size_of_GetADCValue 0038  
                     __SHORTCUT 0372                  __end_of___bmul 1906                __CHOICE_SELECTED 0048  
                __end_of___wmul 19CC                   __pbitbssBANK0 0358              GetADCValue@Channel 0074  
                  DelayMs@_dcnt 004B                  __end_of_myitoa 005C                  __end_of_strlen 19FD  
           start_initialization 193D                 Lcd_String@clear 0050                  ??_print_yes_no 004E  
                   __end_of_rev 1C4C                       _Mode_Init 1425               __size_of_Lcd_Data 0039  
                     Num_Disp@i 0056           Lcd_String@second_line 0051               __size_of_Lcd_Init 004C  
                 ??_count_write 0049                        ??___bmul 0071                   _Enable_Valves 036F  
                      ??___wmul 007A               __size_of_Num_Disp 010B             __end_of_eeprom_read 193D  
                     _Port_Init 1906                     __pdataBANK1 00A0                     ?_onthevalve 0070  
                  ??_Print_Name 007E                    ??_Print_Menu 007E                        ??_myitoa 004D  
                      ??_strlen 0072        __size_of_Inidcate_Buzzer 0010                    Num_Disp@temp 0058  
                 __pcstackBANK0 0049             __size_of_count_read 0035           __end_of_control_valve 1C05  
                    ?_Mode_Init 0070                eeprom_write@addr 0078                        ?_DelayMs 007C  
               print_yes_no@MEM 004F                        ?_Lcd_Cmd 0070   _Enable_Coffee_Hot_Water_Valve 0359  
                 ??_offthevalve 0070                        ?_InitADC 0070              __end_of_Print_Name 197A  
            __end_of_Print_Menu 07BB    __end_of_Write_ValveIn_Memory 1E63                ___lwdiv@dividend 004B  
                     __pfunctab 0700                        ?___awdiv 0070                        ?___awmod 0070  
                     __ptext800 1C98                       __ptext801 1CFE                       __ptext810 191F  
                     __ptext802 07BB                       __ptext811 1906                       __ptext803 11A9  
                     __ptext812 19CC                       __ptext804 19A2                       __ptext813 197A  
                     __ptext805 18EE                       __ptext814 11A0                       __ptext806 1B47  
                     __ptext807 1B0D                       __ptext808 19FD                       __ptext809 005C  
                     __ptext780 155A                       __ptext781 1425                       __ptext790 1BC2  
                     __ptext782 03DB                       __ptext791 1A2E                       __ptext783 0709  
                     __ptext792 1DE6                       __ptext784 195B                       __ptext793 1B82  
                     __ptext785 1E63                       __ptext794 1D72                       __ptext786 000B  
                     __ptext795 18CB                       __ptext787 1EF5                       __ptext779 00F8  
                     __ptext796 1C05                       __ptext788 0800                       __ptext797 1AD4  
                     __ptext789 1C4C                       __ptext798 1A9B                       __ptext799 1A63  
                    ?_Port_Init 0070             __end_of_count_write 1BC2                        ?___lwdiv 0049  
                      ?___lwmod 0070                       __pstrings 1800          __size_of_enable_valves EAA6  
                enable_valves@i 0063  __size_of_Read_ValveFrom_Memory 0074   __end_of_Read_ValveFrom_Memory 1DE6  
              ___lwdiv@quotient 004D                       _key_press 005C             __size_of_onthevalve 003B  
             __PREVIOUS_PROCESS 003D                  ___wmul@product 007A                        DelayMs@i 004A  
                   _eeprom_read 191F          _Enable_Hot_Water_Valve 0362                        Lcd_Cmd@s 004D  
                      _GO_nDONE 00FA            __end_of_print_yes_no 1EF5             __end_of_offthevalve 1B47  
                   __stringbase 1812               ___wmul@multiplier 0076     _Enable_Coffee_Dication_Time 0358  
      Read_ValveFrom_Memory@MEM 0079                        _Lcd_Data 1AD4                        _Lcd_Init 1C4C  
                      __PRESSED 003B                        __PROCESS 003E                     ??_Mode_Init 005C  
                    ?_key_press 0070                _Enable_Cup_Count 035D               ??_Inidcate_Buzzer 007E  
              __size_of_DelayMs 0028                   _enable_valves 155A                __size_of_Lcd_Cmd 0039  
                   _count_write 1B82                    ??_count_read 0049                __size_of_InitADC 0009  
                 ?_change_modes 0070                        _Num_Disp 1EF5         control_valve@delay_time 004E  
              _Enable_Tea_Valve 036D                       init_fetch 18DB                     ??_Port_Init 0070  
              __size_of___awdiv 0074                __size_of___awmod 0066                __size_of___lwdiv 0050  
              __size_of___lwmod 0044                _Enable_Selection 0369                    Lcd_String@st 004E  
          _Write_ValveIn_Memory 1DE6                 ___lwdiv@divisor 0049         Write_ValveIn_Memory@chr 0054  
       Write_ValveIn_Memory@loc 0079              __end_of_count_read 1A63                 ___lwdiv@counter 004F  
    __end_of_call_control_valve 0700                  ?_enable_valves 0070                   __size_of_main 0113  
                 ??_GetADCValue 0072                     _offthevalve 1B0D                  ??_change_modes 005A  
                      clear_ram 0003                        _password 002F                    ??_onthevalve 0070  
                     myitoa@val 007B                      DelayMs@cnt 007C               __SHORTCUT_PRESSED 003F  
         ?_Write_ValveIn_Memory 0079                count_write@addr1 007C                count_write@addr2 0079  
              count_write@count 007A                     ??_key_press 0070       Write_ValveIn_Memory@VALVE 0053  
              ___lwmod@dividend 0072              __end_of_onthevalve 1B82           __size_of_print_yes_no 0092  
                     stringcode 180A      _Enable_Tea_Hot_Water_Valve 036C          control_valve@load_time 004C  
           __end_of_GetADCValue 1A9B                  fp__eeprom_read 0706                  _Selection_Next 0047  
                   _temperature 0031                 ___lwmod@divisor 0070                        strlen@cp 0079  
               ___lwmod@counter 0075                        stringtab 1800                    _print_yes_no 1E63  
               ??_enable_valves 005C                   ?_eeprom_write 0076                    ?_eeprom_read 0074  
 _Enable_Mixing_Hot_Water_Valve 0366  
